c000 4c f5 c5 JMP  ABS   A: 0 X: 0 Y: 0 P:24 S:fd pc: c5f5, reg_addr: c5f5, cycle:     10
c5f5 a2  0 86 LDX  IMM   A: 0 X: 0 Y: 0 P:24 S:fd pc: c5f7, reg_addr:    0, cycle:     12
c5f7 86  0 86 STX  ZP    A: 0 X: 0 Y: 0 P:26 S:fd pc: c5f9, reg_addr:    0, cycle:     15
c5f9 86 10 86 STX  ZP    A: 0 X: 0 Y: 0 P:26 S:fd pc: c5fb, reg_addr:   10, cycle:     18
c5fb 86 11 20 STX  ZP    A: 0 X: 0 Y: 0 P:26 S:fd pc: c5fd, reg_addr:   11, cycle:     21
c5fd 20 2d c7 JSR  ABS   A: 0 X: 0 Y: 0 P:26 S:fd pc: c72d, reg_addr: c72d, cycle:     27
c72d ea 38 b0 NOP  IMPL  A: 0 X: 0 Y: 0 P:26 S:fb pc: c72e, reg_addr:    0, cycle:     29
c72e 38 b0  4 SEC  IMPL  A: 0 X: 0 Y: 0 P:26 S:fb pc: c72f, reg_addr:    0, cycle:     31
c72f b0  4 a2 BCS  REL   A: 0 X: 0 Y: 0 P:27 S:fb pc: c735, reg_addr: c735, cycle:     34
c735 ea 18 b0 NOP  IMPL  A: 0 X: 0 Y: 0 P:27 S:fb pc: c736, reg_addr:    0, cycle:     36
c736 18 b0  3 CLC  IMPL  A: 0 X: 0 Y: 0 P:27 S:fb pc: c737, reg_addr:    0, cycle:     38
c737 b0  3 4c BCS  REL   A: 0 X: 0 Y: 0 P:26 S:fb pc: c739, reg_addr: c73c, cycle:     40
c739 4c 40 c7 JMP  ABS   A: 0 X: 0 Y: 0 P:26 S:fb pc: c740, reg_addr: c740, cycle:     43
c740 ea 38 90 NOP  IMPL  A: 0 X: 0 Y: 0 P:26 S:fb pc: c741, reg_addr:    0, cycle:     45
c741 38 90  3 SEC  IMPL  A: 0 X: 0 Y: 0 P:26 S:fb pc: c742, reg_addr:    0, cycle:     47
c742 90  3 4c BCC  REL   A: 0 X: 0 Y: 0 P:27 S:fb pc: c744, reg_addr: c747, cycle:     49
c744 4c 4b c7 JMP  ABS   A: 0 X: 0 Y: 0 P:27 S:fb pc: c74b, reg_addr: c74b, cycle:     52
c74b ea 18 90 NOP  IMPL  A: 0 X: 0 Y: 0 P:27 S:fb pc: c74c, reg_addr:    0, cycle:     54
c74c 18 90  4 CLC  IMPL  A: 0 X: 0 Y: 0 P:27 S:fb pc: c74d, reg_addr:    0, cycle:     56
c74d 90  4 a2 BCC  REL   A: 0 X: 0 Y: 0 P:26 S:fb pc: c753, reg_addr: c753, cycle:     59
c753 ea a9  0 NOP  IMPL  A: 0 X: 0 Y: 0 P:26 S:fb pc: c754, reg_addr:    0, cycle:     61
c754 a9  0 f0 LDA  IMM   A: 0 X: 0 Y: 0 P:26 S:fb pc: c756, reg_addr:    0, cycle:     63
c756 f0  4 a2 BEQ  REL   A: 0 X: 0 Y: 0 P:26 S:fb pc: c75c, reg_addr: c75c, cycle:     66
c75c ea a9 40 NOP  IMPL  A: 0 X: 0 Y: 0 P:26 S:fb pc: c75d, reg_addr:    0, cycle:     68
c75d a9 40 f0 LDA  IMM   A: 0 X: 0 Y: 0 P:26 S:fb pc: c75f, reg_addr:   40, cycle:     70
c75f f0  3 4c BEQ  REL   A:40 X: 0 Y: 0 P:24 S:fb pc: c761, reg_addr: c764, cycle:     72
c761 4c 68 c7 JMP  ABS   A:40 X: 0 Y: 0 P:24 S:fb pc: c768, reg_addr: c768, cycle:     75
c768 ea a9 40 NOP  IMPL  A:40 X: 0 Y: 0 P:24 S:fb pc: c769, reg_addr:    0, cycle:     77
c769 a9 40 d0 LDA  IMM   A:40 X: 0 Y: 0 P:24 S:fb pc: c76b, reg_addr:   40, cycle:     79
c76b d0  4 a2 BNE  REL   A:40 X: 0 Y: 0 P:24 S:fb pc: c771, reg_addr: c771, cycle:     82
c771 ea a9  0 NOP  IMPL  A:40 X: 0 Y: 0 P:24 S:fb pc: c772, reg_addr:    0, cycle:     84
c772 a9  0 d0 LDA  IMM   A:40 X: 0 Y: 0 P:24 S:fb pc: c774, reg_addr:    0, cycle:     86
c774 d0  3 4c BNE  REL   A: 0 X: 0 Y: 0 P:26 S:fb pc: c776, reg_addr: c779, cycle:     88
c776 4c 7d c7 JMP  ABS   A: 0 X: 0 Y: 0 P:26 S:fb pc: c77d, reg_addr: c77d, cycle:     91
c77d ea a9 ff NOP  IMPL  A: 0 X: 0 Y: 0 P:26 S:fb pc: c77e, reg_addr:    0, cycle:     93
c77e a9 ff 85 LDA  IMM   A: 0 X: 0 Y: 0 P:26 S:fb pc: c780, reg_addr:   ff, cycle:     95
c780 85  1 24 STA  ZP    A:ff X: 0 Y: 0 P:a4 S:fb pc: c782, reg_addr:    1, cycle:     98
c782 24  1 70 BIT  ZP    A:ff X: 0 Y: 0 P:a4 S:fb pc: c784, reg_addr:    1, cycle:    101
c784 70  4 a2 BVS  REL   A:ff X: 0 Y: 0 P:e4 S:fb pc: c78a, reg_addr: c78a, cycle:    104
c78a ea 24  1 NOP  IMPL  A:ff X: 0 Y: 0 P:e4 S:fb pc: c78b, reg_addr:    0, cycle:    106
c78b 24  1 50 BIT  ZP    A:ff X: 0 Y: 0 P:e4 S:fb pc: c78d, reg_addr:    1, cycle:    109
c78d 50  3 4c BVC  REL   A:ff X: 0 Y: 0 P:e4 S:fb pc: c78f, reg_addr: c792, cycle:    111
c78f 4c 96 c7 JMP  ABS   A:ff X: 0 Y: 0 P:e4 S:fb pc: c796, reg_addr: c796, cycle:    114
c796 ea a9  0 NOP  IMPL  A:ff X: 0 Y: 0 P:e4 S:fb pc: c797, reg_addr:    0, cycle:    116
c797 a9  0 85 LDA  IMM   A:ff X: 0 Y: 0 P:e4 S:fb pc: c799, reg_addr:    0, cycle:    118
c799 85  1 24 STA  ZP    A: 0 X: 0 Y: 0 P:66 S:fb pc: c79b, reg_addr:    1, cycle:    121
c79b 24  1 50 BIT  ZP    A: 0 X: 0 Y: 0 P:66 S:fb pc: c79d, reg_addr:    1, cycle:    124
c79d 50  4 a2 BVC  REL   A: 0 X: 0 Y: 0 P:26 S:fb pc: c7a3, reg_addr: c7a3, cycle:    127
c7a3 ea 24  1 NOP  IMPL  A: 0 X: 0 Y: 0 P:26 S:fb pc: c7a4, reg_addr:    0, cycle:    129
c7a4 24  1 70 BIT  ZP    A: 0 X: 0 Y: 0 P:26 S:fb pc: c7a6, reg_addr:    1, cycle:    132
c7a6 70  3 4c BVS  REL   A: 0 X: 0 Y: 0 P:26 S:fb pc: c7a8, reg_addr: c7ab, cycle:    134
c7a8 4c af c7 JMP  ABS   A: 0 X: 0 Y: 0 P:26 S:fb pc: c7af, reg_addr: c7af, cycle:    137
c7af ea a9  0 NOP  IMPL  A: 0 X: 0 Y: 0 P:26 S:fb pc: c7b0, reg_addr:    0, cycle:    139
c7b0 a9  0 10 LDA  IMM   A: 0 X: 0 Y: 0 P:26 S:fb pc: c7b2, reg_addr:    0, cycle:    141
c7b2 10  4 a2 BPL  REL   A: 0 X: 0 Y: 0 P:26 S:fb pc: c7b8, reg_addr: c7b8, cycle:    144
c7b8 ea a9 80 NOP  IMPL  A: 0 X: 0 Y: 0 P:26 S:fb pc: c7b9, reg_addr:    0, cycle:    146
c7b9 a9 80 10 LDA  IMM   A: 0 X: 0 Y: 0 P:26 S:fb pc: c7bb, reg_addr:   80, cycle:    148
c7bb 10  3 4c BPL  REL   A:80 X: 0 Y: 0 P:a4 S:fb pc: c7bd, reg_addr: c7c0, cycle:    150
c7bd 4c d9 c7 JMP  ABS   A:80 X: 0 Y: 0 P:a4 S:fb pc: c7d9, reg_addr: c7d9, cycle:    153
c7d9 ea 60 ea NOP  IMPL  A:80 X: 0 Y: 0 P:a4 S:fb pc: c7da, reg_addr:    0, cycle:    155
c7da 60 ea a9 RTS  IMPL  A:80 X: 0 Y: 0 P:a4 S:fb pc: c600, reg_addr:    0, cycle:    161
c600 20 db c7 JSR  ABS   A:80 X: 0 Y: 0 P:a4 S:fd pc: c7db, reg_addr: c7db, cycle:    167
c7db ea a9 ff NOP  IMPL  A:80 X: 0 Y: 0 P:a4 S:fb pc: c7dc, reg_addr:    0, cycle:    169
c7dc a9 ff 85 LDA  IMM   A:80 X: 0 Y: 0 P:a4 S:fb pc: c7de, reg_addr:   ff, cycle:    171
c7de 85  1 24 STA  ZP    A:ff X: 0 Y: 0 P:a4 S:fb pc: c7e0, reg_addr:    1, cycle:    174
c7e0 24  1 a9 BIT  ZP    A:ff X: 0 Y: 0 P:a4 S:fb pc: c7e2, reg_addr:    1, cycle:    177
c7e2 a9  0 38 LDA  IMM   A:ff X: 0 Y: 0 P:e4 S:fb pc: c7e4, reg_addr:    0, cycle:    179
c7e4 38 78 f8 SEC  IMPL  A: 0 X: 0 Y: 0 P:66 S:fb pc: c7e5, reg_addr:    0, cycle:    181
c7e5 78 f8  8 SEI  IMPL  A: 0 X: 0 Y: 0 P:67 S:fb pc: c7e6, reg_addr:    0, cycle:    183
c7e6 f8  8 68 SED  IMPL  A: 0 X: 0 Y: 0 P:67 S:fb pc: c7e7, reg_addr:    0, cycle:    185
c7e7  8 68 29 PHP  IMPL  A: 0 X: 0 Y: 0 P:6f S:fb pc: c7e8, reg_addr:    0, cycle:    188
c7e8 68 29 ef PLA  IMPL  A: 0 X: 0 Y: 0 P:6f S:fa pc: c7e9, reg_addr:    0, cycle:    192
c7e9 29 ef c9 AND  IMM   A:6f X: 0 Y: 0 P:6d S:fb pc: c7eb, reg_addr:   ef, cycle:    194
c7eb c9 6f f0 CMP  IMM   A:6f X: 0 Y: 0 P:6d S:fb pc: c7ed, reg_addr:   6f, cycle:    196
c7ed f0  4 a2 BEQ  REL   A:6f X: 0 Y: 0 P:6f S:fb pc: c7f3, reg_addr: c7f3, cycle:    199
c7f3 ea a9 40 NOP  IMPL  A:6f X: 0 Y: 0 P:6f S:fb pc: c7f4, reg_addr:    0, cycle:    201
c7f4 a9 40 85 LDA  IMM   A:6f X: 0 Y: 0 P:6f S:fb pc: c7f6, reg_addr:   40, cycle:    203
c7f6 85  1 24 STA  ZP    A:40 X: 0 Y: 0 P:6d S:fb pc: c7f8, reg_addr:    1, cycle:    206
c7f8 24  1 d8 BIT  ZP    A:40 X: 0 Y: 0 P:6d S:fb pc: c7fa, reg_addr:    1, cycle:    209
c7fa d8 a9 10 CLD  IMPL  A:40 X: 0 Y: 0 P:6d S:fb pc: c7fb, reg_addr:    0, cycle:    211
c7fb a9 10 18 LDA  IMM   A:40 X: 0 Y: 0 P:65 S:fb pc: c7fd, reg_addr:   10, cycle:    213
c7fd 18  8 68 CLC  IMPL  A:10 X: 0 Y: 0 P:65 S:fb pc: c7fe, reg_addr:    0, cycle:    215
c7fe  8 68 29 PHP  IMPL  A:10 X: 0 Y: 0 P:64 S:fb pc: c7ff, reg_addr:    0, cycle:    218
c7ff 68 29 ef PLA  IMPL  A:10 X: 0 Y: 0 P:64 S:fa pc: c800, reg_addr:    0, cycle:    222
c800 29 ef c9 AND  IMM   A:64 X: 0 Y: 0 P:64 S:fb pc: c802, reg_addr:   ef, cycle:    224
c802 c9 64 f0 CMP  IMM   A:64 X: 0 Y: 0 P:64 S:fb pc: c804, reg_addr:   64, cycle:    226
c804 f0  4 a2 BEQ  REL   A:64 X: 0 Y: 0 P:67 S:fb pc: c80a, reg_addr: c80a, cycle:    229
c80a ea a9 80 NOP  IMPL  A:64 X: 0 Y: 0 P:67 S:fb pc: c80b, reg_addr:    0, cycle:    231
c80b a9 80 85 LDA  IMM   A:64 X: 0 Y: 0 P:67 S:fb pc: c80d, reg_addr:   80, cycle:    233
c80d 85  1 24 STA  ZP    A:80 X: 0 Y: 0 P:e5 S:fb pc: c80f, reg_addr:    1, cycle:    236
c80f 24  1 f8 BIT  ZP    A:80 X: 0 Y: 0 P:e5 S:fb pc: c811, reg_addr:    1, cycle:    239
c811 f8 a9  0 SED  IMPL  A:80 X: 0 Y: 0 P:a5 S:fb pc: c812, reg_addr:    0, cycle:    241
c812 a9  0 38 LDA  IMM   A:80 X: 0 Y: 0 P:ad S:fb pc: c814, reg_addr:    0, cycle:    243
c814 38  8 68 SEC  IMPL  A: 0 X: 0 Y: 0 P:2f S:fb pc: c815, reg_addr:    0, cycle:    245
c815  8 68 29 PHP  IMPL  A: 0 X: 0 Y: 0 P:2f S:fb pc: c816, reg_addr:    0, cycle:    248
c816 68 29 ef PLA  IMPL  A: 0 X: 0 Y: 0 P:2f S:fa pc: c817, reg_addr:    0, cycle:    252
c817 29 ef c9 AND  IMM   A:2f X: 0 Y: 0 P:2d S:fb pc: c819, reg_addr:   ef, cycle:    254
c819 c9 2f f0 CMP  IMM   A:2f X: 0 Y: 0 P:2d S:fb pc: c81b, reg_addr:   2f, cycle:    256
c81b f0  4 a2 BEQ  REL   A:2f X: 0 Y: 0 P:2f S:fb pc: c821, reg_addr: c821, cycle:    259
c821 ea a9 ff NOP  IMPL  A:2f X: 0 Y: 0 P:2f S:fb pc: c822, reg_addr:    0, cycle:    261
c822 a9 ff 48 LDA  IMM   A:2f X: 0 Y: 0 P:2f S:fb pc: c824, reg_addr:   ff, cycle:    263
c824 48 28 d0 PHA  IMPL  A:ff X: 0 Y: 0 P:ad S:fb pc: c825, reg_addr:    0, cycle:    266
c825 28 d0  9 PLP  IMPL  A:ff X: 0 Y: 0 P:ad S:fa pc: c826, reg_addr:    0, cycle:    270
c826 d0  9 10 BNE  REL   A:ff X: 0 Y: 0 P:ef S:fb pc: c828, reg_addr: c831, cycle:    272
c828 10  7 50 BPL  REL   A:ff X: 0 Y: 0 P:ef S:fb pc: c82a, reg_addr: c831, cycle:    274
c82a 50  5 90 BVC  REL   A:ff X: 0 Y: 0 P:ef S:fb pc: c82c, reg_addr: c831, cycle:    276
c82c 90  3 4c BCC  REL   A:ff X: 0 Y: 0 P:ef S:fb pc: c82e, reg_addr: c831, cycle:    278
c82e 4c 35 c8 JMP  ABS   A:ff X: 0 Y: 0 P:ef S:fb pc: c835, reg_addr: c835, cycle:    281
c835 ea a9  4 NOP  IMPL  A:ff X: 0 Y: 0 P:ef S:fb pc: c836, reg_addr:    0, cycle:    283
c836 a9  4 48 LDA  IMM   A:ff X: 0 Y: 0 P:ef S:fb pc: c838, reg_addr:    4, cycle:    285
c838 48 28 f0 PHA  IMPL  A: 4 X: 0 Y: 0 P:6d S:fb pc: c839, reg_addr:    0, cycle:    288
c839 28 f0  9 PLP  IMPL  A: 4 X: 0 Y: 0 P:6d S:fa pc: c83a, reg_addr:    0, cycle:    292
c83a f0  9 30 BEQ  REL   A: 4 X: 0 Y: 0 P: 4 S:fb pc: c83c, reg_addr: c845, cycle:    294
c83c 30  7 70 BMI  REL   A: 4 X: 0 Y: 0 P: 4 S:fb pc: c83e, reg_addr: c845, cycle:    296
c83e 70  5 b0 BVS  REL   A: 4 X: 0 Y: 0 P: 4 S:fb pc: c840, reg_addr: c845, cycle:    298
c840 b0  3 4c BCS  REL   A: 4 X: 0 Y: 0 P: 4 S:fb pc: c842, reg_addr: c845, cycle:    300
c842 4c 49 c8 JMP  ABS   A: 4 X: 0 Y: 0 P: 4 S:fb pc: c849, reg_addr: c849, cycle:    303
c849 ea f8 a9 NOP  IMPL  A: 4 X: 0 Y: 0 P: 4 S:fb pc: c84a, reg_addr:    0, cycle:    305
c84a f8 a9 ff SED  IMPL  A: 4 X: 0 Y: 0 P: 4 S:fb pc: c84b, reg_addr:    0, cycle:    307
c84b a9 ff 85 LDA  IMM   A: 4 X: 0 Y: 0 P: c S:fb pc: c84d, reg_addr:   ff, cycle:    309
c84d 85  1 24 STA  ZP    A:ff X: 0 Y: 0 P:8c S:fb pc: c84f, reg_addr:    1, cycle:    312
c84f 24  1 18 BIT  ZP    A:ff X: 0 Y: 0 P:8c S:fb pc: c851, reg_addr:    1, cycle:    315
c851 18 a9  0 CLC  IMPL  A:ff X: 0 Y: 0 P:cc S:fb pc: c852, reg_addr:    0, cycle:    317
c852 a9  0 48 LDA  IMM   A:ff X: 0 Y: 0 P:cc S:fb pc: c854, reg_addr:    0, cycle:    319
c854 48 a9 ff PHA  IMPL  A: 0 X: 0 Y: 0 P:4e S:fb pc: c855, reg_addr:    0, cycle:    322
c855 a9 ff 68 LDA  IMM   A: 0 X: 0 Y: 0 P:4e S:fa pc: c857, reg_addr:   ff, cycle:    324
c857 68 d0  9 PLA  IMPL  A:ff X: 0 Y: 0 P:cc S:fa pc: c858, reg_addr:    0, cycle:    328
c858 d0  9 30 BNE  REL   A: 0 X: 0 Y: 0 P:4e S:fb pc: c85a, reg_addr: c863, cycle:    330
c85a 30  7 50 BMI  REL   A: 0 X: 0 Y: 0 P:4e S:fb pc: c85c, reg_addr: c863, cycle:    332
c85c 50  5 b0 BVC  REL   A: 0 X: 0 Y: 0 P:4e S:fb pc: c85e, reg_addr: c863, cycle:    334
c85e b0  3 4c BCS  REL   A: 0 X: 0 Y: 0 P:4e S:fb pc: c860, reg_addr: c863, cycle:    336
c860 4c 67 c8 JMP  ABS   A: 0 X: 0 Y: 0 P:4e S:fb pc: c867, reg_addr: c867, cycle:    339
c867 ea a9  0 NOP  IMPL  A: 0 X: 0 Y: 0 P:4e S:fb pc: c868, reg_addr:    0, cycle:    341
c868 a9  0 85 LDA  IMM   A: 0 X: 0 Y: 0 P:4e S:fb pc: c86a, reg_addr:    0, cycle:    343
c86a 85  1 24 STA  ZP    A: 0 X: 0 Y: 0 P:4e S:fb pc: c86c, reg_addr:    1, cycle:    346
c86c 24  1 38 BIT  ZP    A: 0 X: 0 Y: 0 P:4e S:fb pc: c86e, reg_addr:    1, cycle:    349
c86e 38 a9 ff SEC  IMPL  A: 0 X: 0 Y: 0 P: e S:fb pc: c86f, reg_addr:    0, cycle:    351
c86f a9 ff 48 LDA  IMM   A: 0 X: 0 Y: 0 P: f S:fb pc: c871, reg_addr:   ff, cycle:    353
c871 48 a9  0 PHA  IMPL  A:ff X: 0 Y: 0 P:8d S:fb pc: c872, reg_addr:    0, cycle:    356
c872 a9  0 68 LDA  IMM   A:ff X: 0 Y: 0 P:8d S:fa pc: c874, reg_addr:    0, cycle:    358
c874 68 f0  9 PLA  IMPL  A: 0 X: 0 Y: 0 P: f S:fa pc: c875, reg_addr:    0, cycle:    362
c875 f0  9 10 BEQ  REL   A:ff X: 0 Y: 0 P:8d S:fb pc: c877, reg_addr: c880, cycle:    364
c877 10  7 70 BPL  REL   A:ff X: 0 Y: 0 P:8d S:fb pc: c879, reg_addr: c880, cycle:    366
c879 70  5 90 BVS  REL   A:ff X: 0 Y: 0 P:8d S:fb pc: c87b, reg_addr: c880, cycle:    368
c87b 90  3 4c BCC  REL   A:ff X: 0 Y: 0 P:8d S:fb pc: c87d, reg_addr: c880, cycle:    370
c87d 4c 84 c8 JMP  ABS   A:ff X: 0 Y: 0 P:8d S:fb pc: c884, reg_addr: c884, cycle:    373
c884 60 ea 18 RTS  IMPL  A:ff X: 0 Y: 0 P:8d S:fb pc: c603, reg_addr:    0, cycle:    379
c603 20 85 c8 JSR  ABS   A:ff X: 0 Y: 0 P:8d S:fd pc: c885, reg_addr: c885, cycle:    385
c885 ea 18 a9 NOP  IMPL  A:ff X: 0 Y: 0 P:8d S:fb pc: c886, reg_addr:    0, cycle:    387
c886 18 a9 ff CLC  IMPL  A:ff X: 0 Y: 0 P:8d S:fb pc: c887, reg_addr:    0, cycle:    389
c887 a9 ff 85 LDA  IMM   A:ff X: 0 Y: 0 P:8c S:fb pc: c889, reg_addr:   ff, cycle:    391
c889 85  1 24 STA  ZP    A:ff X: 0 Y: 0 P:8c S:fb pc: c88b, reg_addr:    1, cycle:    394
c88b 24  1 a9 BIT  ZP    A:ff X: 0 Y: 0 P:8c S:fb pc: c88d, reg_addr:    1, cycle:    397
c88d a9 55  9 LDA  IMM   A:ff X: 0 Y: 0 P:cc S:fb pc: c88f, reg_addr:   55, cycle:    399
c88f  9 aa b0 ORA  IMM   A:55 X: 0 Y: 0 P:4c S:fb pc: c891, reg_addr:   aa, cycle:    401
c891 b0  b 10 BCS  REL   A:ff X: 0 Y: 0 P:cc S:fb pc: c893, reg_addr: c89e, cycle:    403
c893 10  9 c9 BPL  REL   A:ff X: 0 Y: 0 P:cc S:fb pc: c895, reg_addr: c89e, cycle:    405
c895 c9 ff d0 CMP  IMM   A:ff X: 0 Y: 0 P:cc S:fb pc: c897, reg_addr:   ff, cycle:    407
c897 d0  5 50 BNE  REL   A:ff X: 0 Y: 0 P:4f S:fb pc: c899, reg_addr: c89e, cycle:    409
c899 50  3 4c BVC  REL   A:ff X: 0 Y: 0 P:4f S:fb pc: c89b, reg_addr: c89e, cycle:    411
c89b 4c a2 c8 JMP  ABS   A:ff X: 0 Y: 0 P:4f S:fb pc: c8a2, reg_addr: c8a2, cycle:    414
c8a2 ea 38 b8 NOP  IMPL  A:ff X: 0 Y: 0 P:4f S:fb pc: c8a3, reg_addr:    0, cycle:    416
c8a3 38 b8 a9 SEC  IMPL  A:ff X: 0 Y: 0 P:4f S:fb pc: c8a4, reg_addr:    0, cycle:    418
c8a4 b8 a9  0 CLV  IMPL  A:ff X: 0 Y: 0 P:4f S:fb pc: c8a5, reg_addr:    0, cycle:    420
c8a5 a9  0  9 LDA  IMM   A:ff X: 0 Y: 0 P: f S:fb pc: c8a7, reg_addr:    0, cycle:    422
c8a7  9  0 d0 ORA  IMM   A: 0 X: 0 Y: 0 P: f S:fb pc: c8a9, reg_addr:    0, cycle:    424
c8a9 d0  9 70 BNE  REL   A: 0 X: 0 Y: 0 P: f S:fb pc: c8ab, reg_addr: c8b4, cycle:    426
c8ab 70  7 90 BVS  REL   A: 0 X: 0 Y: 0 P: f S:fb pc: c8ad, reg_addr: c8b4, cycle:    428
c8ad 90  5 30 BCC  REL   A: 0 X: 0 Y: 0 P: f S:fb pc: c8af, reg_addr: c8b4, cycle:    430
c8af 30  3 4c BMI  REL   A: 0 X: 0 Y: 0 P: f S:fb pc: c8b1, reg_addr: c8b4, cycle:    432
c8b1 4c b8 c8 JMP  ABS   A: 0 X: 0 Y: 0 P: f S:fb pc: c8b8, reg_addr: c8b8, cycle:    435
c8b8 ea 18 24 NOP  IMPL  A: 0 X: 0 Y: 0 P: f S:fb pc: c8b9, reg_addr:    0, cycle:    437
c8b9 18 24  1 CLC  IMPL  A: 0 X: 0 Y: 0 P: f S:fb pc: c8ba, reg_addr:    0, cycle:    439
c8ba 24  1 a9 BIT  ZP    A: 0 X: 0 Y: 0 P: e S:fb pc: c8bc, reg_addr:    1, cycle:    442
c8bc a9 55 29 LDA  IMM   A: 0 X: 0 Y: 0 P:ce S:fb pc: c8be, reg_addr:   55, cycle:    444
c8be 29 aa d0 AND  IMM   A:55 X: 0 Y: 0 P:4c S:fb pc: c8c0, reg_addr:   aa, cycle:    446
c8c0 d0  9 50 BNE  REL   A: 0 X: 0 Y: 0 P:4e S:fb pc: c8c2, reg_addr: c8cb, cycle:    448
c8c2 50  7 b0 BVC  REL   A: 0 X: 0 Y: 0 P:4e S:fb pc: c8c4, reg_addr: c8cb, cycle:    450
c8c4 b0  5 30 BCS  REL   A: 0 X: 0 Y: 0 P:4e S:fb pc: c8c6, reg_addr: c8cb, cycle:    452
c8c6 30  3 4c BMI  REL   A: 0 X: 0 Y: 0 P:4e S:fb pc: c8c8, reg_addr: c8cb, cycle:    454
c8c8 4c cf c8 JMP  ABS   A: 0 X: 0 Y: 0 P:4e S:fb pc: c8cf, reg_addr: c8cf, cycle:    457
c8cf ea 38 b8 NOP  IMPL  A: 0 X: 0 Y: 0 P:4e S:fb pc: c8d0, reg_addr:    0, cycle:    459
c8d0 38 b8 a9 SEC  IMPL  A: 0 X: 0 Y: 0 P:4e S:fb pc: c8d1, reg_addr:    0, cycle:    461
c8d1 b8 a9 f8 CLV  IMPL  A: 0 X: 0 Y: 0 P:4f S:fb pc: c8d2, reg_addr:    0, cycle:    463
c8d2 a9 f8 29 LDA  IMM   A: 0 X: 0 Y: 0 P: f S:fb pc: c8d4, reg_addr:   f8, cycle:    465
c8d4 29 ef 90 AND  IMM   A:f8 X: 0 Y: 0 P:8d S:fb pc: c8d6, reg_addr:   ef, cycle:    467
c8d6 90  b 10 BCC  REL   A:e8 X: 0 Y: 0 P:8d S:fb pc: c8d8, reg_addr: c8e3, cycle:    469
c8d8 10  9 c9 BPL  REL   A:e8 X: 0 Y: 0 P:8d S:fb pc: c8da, reg_addr: c8e3, cycle:    471
c8da c9 e8 d0 CMP  IMM   A:e8 X: 0 Y: 0 P:8d S:fb pc: c8dc, reg_addr:   e8, cycle:    473
c8dc d0  5 70 BNE  REL   A:e8 X: 0 Y: 0 P: f S:fb pc: c8de, reg_addr: c8e3, cycle:    475
c8de 70  3 4c BVS  REL   A:e8 X: 0 Y: 0 P: f S:fb pc: c8e0, reg_addr: c8e3, cycle:    477
c8e0 4c e7 c8 JMP  ABS   A:e8 X: 0 Y: 0 P: f S:fb pc: c8e7, reg_addr: c8e7, cycle:    480
c8e7 ea 18 24 NOP  IMPL  A:e8 X: 0 Y: 0 P: f S:fb pc: c8e8, reg_addr:    0, cycle:    482
c8e8 18 24  1 CLC  IMPL  A:e8 X: 0 Y: 0 P: f S:fb pc: c8e9, reg_addr:    0, cycle:    484
c8e9 24  1 a9 BIT  ZP    A:e8 X: 0 Y: 0 P: e S:fb pc: c8eb, reg_addr:    1, cycle:    487
c8eb a9 5f 49 LDA  IMM   A:e8 X: 0 Y: 0 P:cc S:fb pc: c8ed, reg_addr:   5f, cycle:    489
c8ed 49 aa b0 EOR  IMM   A:5f X: 0 Y: 0 P:4c S:fb pc: c8ef, reg_addr:   aa, cycle:    491
c8ef b0  b 10 BCS  REL   A:f5 X: 0 Y: 0 P:cc S:fb pc: c8f1, reg_addr: c8fc, cycle:    493
c8f1 10  9 c9 BPL  REL   A:f5 X: 0 Y: 0 P:cc S:fb pc: c8f3, reg_addr: c8fc, cycle:    495
c8f3 c9 f5 d0 CMP  IMM   A:f5 X: 0 Y: 0 P:cc S:fb pc: c8f5, reg_addr:   f5, cycle:    497
c8f5 d0  5 50 BNE  REL   A:f5 X: 0 Y: 0 P:4f S:fb pc: c8f7, reg_addr: c8fc, cycle:    499
c8f7 50  3 4c BVC  REL   A:f5 X: 0 Y: 0 P:4f S:fb pc: c8f9, reg_addr: c8fc, cycle:    501
c8f9 4c  0 c9 JMP  ABS   A:f5 X: 0 Y: 0 P:4f S:fb pc: c900, reg_addr: c900, cycle:    504
c900 ea 38 b8 NOP  IMPL  A:f5 X: 0 Y: 0 P:4f S:fb pc: c901, reg_addr:    0, cycle:    506
c901 38 b8 a9 SEC  IMPL  A:f5 X: 0 Y: 0 P:4f S:fb pc: c902, reg_addr:    0, cycle:    508
c902 b8 a9 70 CLV  IMPL  A:f5 X: 0 Y: 0 P:4f S:fb pc: c903, reg_addr:    0, cycle:    510
c903 a9 70 49 LDA  IMM   A:f5 X: 0 Y: 0 P: f S:fb pc: c905, reg_addr:   70, cycle:    512
c905 49 70 d0 EOR  IMM   A:70 X: 0 Y: 0 P: d S:fb pc: c907, reg_addr:   70, cycle:    514
c907 d0  9 70 BNE  REL   A: 0 X: 0 Y: 0 P: f S:fb pc: c909, reg_addr: c912, cycle:    516
c909 70  7 90 BVS  REL   A: 0 X: 0 Y: 0 P: f S:fb pc: c90b, reg_addr: c912, cycle:    518
c90b 90  5 30 BCC  REL   A: 0 X: 0 Y: 0 P: f S:fb pc: c90d, reg_addr: c912, cycle:    520
c90d 30  3 4c BMI  REL   A: 0 X: 0 Y: 0 P: f S:fb pc: c90f, reg_addr: c912, cycle:    522
c90f 4c 16 c9 JMP  ABS   A: 0 X: 0 Y: 0 P: f S:fb pc: c916, reg_addr: c916, cycle:    525
c916 ea 18 24 NOP  IMPL  A: 0 X: 0 Y: 0 P: f S:fb pc: c917, reg_addr:    0, cycle:    527
c917 18 24  1 CLC  IMPL  A: 0 X: 0 Y: 0 P: f S:fb pc: c918, reg_addr:    0, cycle:    529
c918 24  1 a9 BIT  ZP    A: 0 X: 0 Y: 0 P: e S:fb pc: c91a, reg_addr:    1, cycle:    532
c91a a9  0 69 LDA  IMM   A: 0 X: 0 Y: 0 P:ce S:fb pc: c91c, reg_addr:    0, cycle:    534
c91c 69 69 30 ADC  IMM   A: 0 X: 0 Y: 0 P:4e S:fb pc: c91e, reg_addr:   69, cycle:    536
c91e 30  b b0 BMI  REL   A:69 X: 0 Y: 0 P: c S:fb pc: c920, reg_addr: c92b, cycle:    538
c920 b0  9 c9 BCS  REL   A:69 X: 0 Y: 0 P: c S:fb pc: c922, reg_addr: c92b, cycle:    540
c922 c9 69 d0 CMP  IMM   A:69 X: 0 Y: 0 P: c S:fb pc: c924, reg_addr:   69, cycle:    542
c924 d0  5 70 BNE  REL   A:69 X: 0 Y: 0 P: f S:fb pc: c926, reg_addr: c92b, cycle:    544
c926 70  3 4c BVS  REL   A:69 X: 0 Y: 0 P: f S:fb pc: c928, reg_addr: c92b, cycle:    546
c928 4c 2f c9 JMP  ABS   A:69 X: 0 Y: 0 P: f S:fb pc: c92f, reg_addr: c92f, cycle:    549
c92f ea 38 f8 NOP  IMPL  A:69 X: 0 Y: 0 P: f S:fb pc: c930, reg_addr:    0, cycle:    551
c930 38 f8 24 SEC  IMPL  A:69 X: 0 Y: 0 P: f S:fb pc: c931, reg_addr:    0, cycle:    553
c931 f8 24  1 SED  IMPL  A:69 X: 0 Y: 0 P: f S:fb pc: c932, reg_addr:    0, cycle:    555
c932 24  1 a9 BIT  ZP    A:69 X: 0 Y: 0 P: f S:fb pc: c934, reg_addr:    1, cycle:    558
c934 a9  1 69 LDA  IMM   A:69 X: 0 Y: 0 P:cd S:fb pc: c936, reg_addr:    1, cycle:    560
c936 69 69 30 ADC  IMM   A: 1 X: 0 Y: 0 P:4d S:fb pc: c938, reg_addr:   69, cycle:    562
c938 30  b b0 BMI  REL   A:6b X: 0 Y: 0 P: c S:fb pc: c93a, reg_addr: c945, cycle:    564
c93a b0  9 c9 BCS  REL   A:6b X: 0 Y: 0 P: c S:fb pc: c93c, reg_addr: c945, cycle:    566
c93c c9 6b d0 CMP  IMM   A:6b X: 0 Y: 0 P: c S:fb pc: c93e, reg_addr:   6b, cycle:    568
c93e d0  5 70 BNE  REL   A:6b X: 0 Y: 0 P: f S:fb pc: c940, reg_addr: c945, cycle:    570
c940 70  3 4c BVS  REL   A:6b X: 0 Y: 0 P: f S:fb pc: c942, reg_addr: c945, cycle:    572
c942 4c 49 c9 JMP  ABS   A:6b X: 0 Y: 0 P: f S:fb pc: c949, reg_addr: c949, cycle:    575
c949 ea d8 38 NOP  IMPL  A:6b X: 0 Y: 0 P: f S:fb pc: c94a, reg_addr:    0, cycle:    577
c94a d8 38 b8 CLD  IMPL  A:6b X: 0 Y: 0 P: f S:fb pc: c94b, reg_addr:    0, cycle:    579
c94b 38 b8 a9 SEC  IMPL  A:6b X: 0 Y: 0 P: 7 S:fb pc: c94c, reg_addr:    0, cycle:    581
c94c b8 a9 7f CLV  IMPL  A:6b X: 0 Y: 0 P: 7 S:fb pc: c94d, reg_addr:    0, cycle:    583
c94d a9 7f 69 LDA  IMM   A:6b X: 0 Y: 0 P: 7 S:fb pc: c94f, reg_addr:   7f, cycle:    585
c94f 69 7f 10 ADC  IMM   A:7f X: 0 Y: 0 P: 5 S:fb pc: c951, reg_addr:   7f, cycle:    587
c951 10  b b0 BPL  REL   A:ff X: 0 Y: 0 P:c4 S:fb pc: c953, reg_addr: c95e, cycle:    589
c953 b0  9 c9 BCS  REL   A:ff X: 0 Y: 0 P:c4 S:fb pc: c955, reg_addr: c95e, cycle:    591
c955 c9 ff d0 CMP  IMM   A:ff X: 0 Y: 0 P:c4 S:fb pc: c957, reg_addr:   ff, cycle:    593
c957 d0  5 50 BNE  REL   A:ff X: 0 Y: 0 P:47 S:fb pc: c959, reg_addr: c95e, cycle:    595
c959 50  3 4c BVC  REL   A:ff X: 0 Y: 0 P:47 S:fb pc: c95b, reg_addr: c95e, cycle:    597
c95b 4c 62 c9 JMP  ABS   A:ff X: 0 Y: 0 P:47 S:fb pc: c962, reg_addr: c962, cycle:    600
c962 ea 18 24 NOP  IMPL  A:ff X: 0 Y: 0 P:47 S:fb pc: c963, reg_addr:    0, cycle:    602
c963 18 24  1 CLC  IMPL  A:ff X: 0 Y: 0 P:47 S:fb pc: c964, reg_addr:    0, cycle:    604
c964 24  1 a9 BIT  ZP    A:ff X: 0 Y: 0 P:46 S:fb pc: c966, reg_addr:    1, cycle:    607
c966 a9 7f 69 LDA  IMM   A:ff X: 0 Y: 0 P:c4 S:fb pc: c968, reg_addr:   7f, cycle:    609
c968 69 80 10 ADC  IMM   A:7f X: 0 Y: 0 P:44 S:fb pc: c96a, reg_addr:   80, cycle:    611
c96a 10  b b0 BPL  REL   A:ff X: 0 Y: 0 P:84 S:fb pc: c96c, reg_addr: c977, cycle:    613
c96c b0  9 c9 BCS  REL   A:ff X: 0 Y: 0 P:84 S:fb pc: c96e, reg_addr: c977, cycle:    615
c96e c9 ff d0 CMP  IMM   A:ff X: 0 Y: 0 P:84 S:fb pc: c970, reg_addr:   ff, cycle:    617
c970 d0  5 70 BNE  REL   A:ff X: 0 Y: 0 P: 7 S:fb pc: c972, reg_addr: c977, cycle:    619
c972 70  3 4c BVS  REL   A:ff X: 0 Y: 0 P: 7 S:fb pc: c974, reg_addr: c977, cycle:    621
c974 4c 7b c9 JMP  ABS   A:ff X: 0 Y: 0 P: 7 S:fb pc: c97b, reg_addr: c97b, cycle:    624
c97b ea 38 b8 NOP  IMPL  A:ff X: 0 Y: 0 P: 7 S:fb pc: c97c, reg_addr:    0, cycle:    626
c97c 38 b8 a9 SEC  IMPL  A:ff X: 0 Y: 0 P: 7 S:fb pc: c97d, reg_addr:    0, cycle:    628
c97d b8 a9 7f CLV  IMPL  A:ff X: 0 Y: 0 P: 7 S:fb pc: c97e, reg_addr:    0, cycle:    630
c97e a9 7f 69 LDA  IMM   A:ff X: 0 Y: 0 P: 7 S:fb pc: c980, reg_addr:   7f, cycle:    632
c980 69 80 d0 ADC  IMM   A:7f X: 0 Y: 0 P: 5 S:fb pc: c982, reg_addr:   80, cycle:    634
c982 d0  9 30 BNE  REL   A: 0 X: 0 Y: 0 P: 7 S:fb pc: c984, reg_addr: c98d, cycle:    636
c984 30  7 70 BMI  REL   A: 0 X: 0 Y: 0 P: 7 S:fb pc: c986, reg_addr: c98d, cycle:    638
c986 70  5 90 BVS  REL   A: 0 X: 0 Y: 0 P: 7 S:fb pc: c988, reg_addr: c98d, cycle:    640
c988 90  3 4c BCC  REL   A: 0 X: 0 Y: 0 P: 7 S:fb pc: c98a, reg_addr: c98d, cycle:    642
c98a 4c 91 c9 JMP  ABS   A: 0 X: 0 Y: 0 P: 7 S:fb pc: c991, reg_addr: c991, cycle:    645
c991 ea 38 b8 NOP  IMPL  A: 0 X: 0 Y: 0 P: 7 S:fb pc: c992, reg_addr:    0, cycle:    647
c992 38 b8 a9 SEC  IMPL  A: 0 X: 0 Y: 0 P: 7 S:fb pc: c993, reg_addr:    0, cycle:    649
c993 b8 a9 9f CLV  IMPL  A: 0 X: 0 Y: 0 P: 7 S:fb pc: c994, reg_addr:    0, cycle:    651
c994 a9 9f f0 LDA  IMM   A: 0 X: 0 Y: 0 P: 7 S:fb pc: c996, reg_addr:   9f, cycle:    653
c996 f0  9 10 BEQ  REL   A:9f X: 0 Y: 0 P:85 S:fb pc: c998, reg_addr: c9a1, cycle:    655
c998 10  7 70 BPL  REL   A:9f X: 0 Y: 0 P:85 S:fb pc: c99a, reg_addr: c9a1, cycle:    657
c99a 70  5 90 BVS  REL   A:9f X: 0 Y: 0 P:85 S:fb pc: c99c, reg_addr: c9a1, cycle:    659
c99c 90  3 4c BCC  REL   A:9f X: 0 Y: 0 P:85 S:fb pc: c99e, reg_addr: c9a1, cycle:    661
c99e 4c a5 c9 JMP  ABS   A:9f X: 0 Y: 0 P:85 S:fb pc: c9a5, reg_addr: c9a5, cycle:    664
c9a5 ea 18 24 NOP  IMPL  A:9f X: 0 Y: 0 P:85 S:fb pc: c9a6, reg_addr:    0, cycle:    666
c9a6 18 24  1 CLC  IMPL  A:9f X: 0 Y: 0 P:85 S:fb pc: c9a7, reg_addr:    0, cycle:    668
c9a7 24  1 a9 BIT  ZP    A:9f X: 0 Y: 0 P:84 S:fb pc: c9a9, reg_addr:    1, cycle:    671
c9a9 a9  0 d0 LDA  IMM   A:9f X: 0 Y: 0 P:c4 S:fb pc: c9ab, reg_addr:    0, cycle:    673
c9ab d0  9 30 BNE  REL   A: 0 X: 0 Y: 0 P:46 S:fb pc: c9ad, reg_addr: c9b6, cycle:    675
c9ad 30  7 50 BMI  REL   A: 0 X: 0 Y: 0 P:46 S:fb pc: c9af, reg_addr: c9b6, cycle:    677
c9af 50  5 b0 BVC  REL   A: 0 X: 0 Y: 0 P:46 S:fb pc: c9b1, reg_addr: c9b6, cycle:    679
c9b1 b0  3 4c BCS  REL   A: 0 X: 0 Y: 0 P:46 S:fb pc: c9b3, reg_addr: c9b6, cycle:    681
c9b3 4c ba c9 JMP  ABS   A: 0 X: 0 Y: 0 P:46 S:fb pc: c9ba, reg_addr: c9ba, cycle:    684
c9ba ea 24  1 NOP  IMPL  A: 0 X: 0 Y: 0 P:46 S:fb pc: c9bb, reg_addr:    0, cycle:    686
c9bb 24  1 a9 BIT  ZP    A: 0 X: 0 Y: 0 P:46 S:fb pc: c9bd, reg_addr:    1, cycle:    689
c9bd a9 40 c9 LDA  IMM   A: 0 X: 0 Y: 0 P:c6 S:fb pc: c9bf, reg_addr:   40, cycle:    691
c9bf c9 40 30 CMP  IMM   A:40 X: 0 Y: 0 P:44 S:fb pc: c9c1, reg_addr:   40, cycle:    693
c9c1 30  9 90 BMI  REL   A:40 X: 0 Y: 0 P:47 S:fb pc: c9c3, reg_addr: c9cc, cycle:    695
c9c3 90  7 d0 BCC  REL   A:40 X: 0 Y: 0 P:47 S:fb pc: c9c5, reg_addr: c9cc, cycle:    697
c9c5 d0  5 50 BNE  REL   A:40 X: 0 Y: 0 P:47 S:fb pc: c9c7, reg_addr: c9cc, cycle:    699
c9c7 50  3 4c BVC  REL   A:40 X: 0 Y: 0 P:47 S:fb pc: c9c9, reg_addr: c9cc, cycle:    701
c9c9 4c d0 c9 JMP  ABS   A:40 X: 0 Y: 0 P:47 S:fb pc: c9d0, reg_addr: c9d0, cycle:    704
c9d0 ea b8 c9 NOP  IMPL  A:40 X: 0 Y: 0 P:47 S:fb pc: c9d1, reg_addr:    0, cycle:    706
c9d1 b8 c9 3f CLV  IMPL  A:40 X: 0 Y: 0 P:47 S:fb pc: c9d2, reg_addr:    0, cycle:    708
c9d2 c9 3f f0 CMP  IMM   A:40 X: 0 Y: 0 P: 7 S:fb pc: c9d4, reg_addr:   3f, cycle:    710
c9d4 f0  9 30 BEQ  REL   A:40 X: 0 Y: 0 P: 5 S:fb pc: c9d6, reg_addr: c9df, cycle:    712
c9d6 30  7 90 BMI  REL   A:40 X: 0 Y: 0 P: 5 S:fb pc: c9d8, reg_addr: c9df, cycle:    714
c9d8 90  5 70 BCC  REL   A:40 X: 0 Y: 0 P: 5 S:fb pc: c9da, reg_addr: c9df, cycle:    716
c9da 70  3 4c BVS  REL   A:40 X: 0 Y: 0 P: 5 S:fb pc: c9dc, reg_addr: c9df, cycle:    718
c9dc 4c e3 c9 JMP  ABS   A:40 X: 0 Y: 0 P: 5 S:fb pc: c9e3, reg_addr: c9e3, cycle:    721
c9e3 ea c9 41 NOP  IMPL  A:40 X: 0 Y: 0 P: 5 S:fb pc: c9e4, reg_addr:    0, cycle:    723
c9e4 c9 41 f0 CMP  IMM   A:40 X: 0 Y: 0 P: 5 S:fb pc: c9e6, reg_addr:   41, cycle:    725
c9e6 f0  7 10 BEQ  REL   A:40 X: 0 Y: 0 P:84 S:fb pc: c9e8, reg_addr: c9ef, cycle:    727
c9e8 10  5 10 BPL  REL   A:40 X: 0 Y: 0 P:84 S:fb pc: c9ea, reg_addr: c9ef, cycle:    729
c9ea 10  3 4c BPL  REL   A:40 X: 0 Y: 0 P:84 S:fb pc: c9ec, reg_addr: c9ef, cycle:    731
c9ec 4c f3 c9 JMP  ABS   A:40 X: 0 Y: 0 P:84 S:fb pc: c9f3, reg_addr: c9f3, cycle:    734
c9f3 ea a9 80 NOP  IMPL  A:40 X: 0 Y: 0 P:84 S:fb pc: c9f4, reg_addr:    0, cycle:    736
c9f4 a9 80 c9 LDA  IMM   A:40 X: 0 Y: 0 P:84 S:fb pc: c9f6, reg_addr:   80, cycle:    738
c9f6 c9  0 f0 CMP  IMM   A:80 X: 0 Y: 0 P:84 S:fb pc: c9f8, reg_addr:    0, cycle:    740
c9f8 f0  7 10 BEQ  REL   A:80 X: 0 Y: 0 P:85 S:fb pc: c9fa, reg_addr: ca01, cycle:    742
c9fa 10  5 90 BPL  REL   A:80 X: 0 Y: 0 P:85 S:fb pc: c9fc, reg_addr: ca01, cycle:    744
c9fc 90  3 4c BCC  REL   A:80 X: 0 Y: 0 P:85 S:fb pc: c9fe, reg_addr: ca01, cycle:    746
c9fe 4c  5 ca JMP  ABS   A:80 X: 0 Y: 0 P:85 S:fb pc: ca05, reg_addr: ca05, cycle:    749
ca05 ea c9 80 NOP  IMPL  A:80 X: 0 Y: 0 P:85 S:fb pc: ca06, reg_addr:    0, cycle:    751
ca06 c9 80 d0 CMP  IMM   A:80 X: 0 Y: 0 P:85 S:fb pc: ca08, reg_addr:   80, cycle:    753
ca08 d0  7 30 BNE  REL   A:80 X: 0 Y: 0 P: 7 S:fb pc: ca0a, reg_addr: ca11, cycle:    755
ca0a 30  5 90 BMI  REL   A:80 X: 0 Y: 0 P: 7 S:fb pc: ca0c, reg_addr: ca11, cycle:    757
ca0c 90  3 4c BCC  REL   A:80 X: 0 Y: 0 P: 7 S:fb pc: ca0e, reg_addr: ca11, cycle:    759
ca0e 4c 15 ca JMP  ABS   A:80 X: 0 Y: 0 P: 7 S:fb pc: ca15, reg_addr: ca15, cycle:    762
ca15 ea c9 81 NOP  IMPL  A:80 X: 0 Y: 0 P: 7 S:fb pc: ca16, reg_addr:    0, cycle:    764
ca16 c9 81 b0 CMP  IMM   A:80 X: 0 Y: 0 P: 7 S:fb pc: ca18, reg_addr:   81, cycle:    766
ca18 b0  7 f0 BCS  REL   A:80 X: 0 Y: 0 P:84 S:fb pc: ca1a, reg_addr: ca21, cycle:    768
ca1a f0  5 10 BEQ  REL   A:80 X: 0 Y: 0 P:84 S:fb pc: ca1c, reg_addr: ca21, cycle:    770
ca1c 10  3 4c BPL  REL   A:80 X: 0 Y: 0 P:84 S:fb pc: ca1e, reg_addr: ca21, cycle:    772
ca1e 4c 25 ca JMP  ABS   A:80 X: 0 Y: 0 P:84 S:fb pc: ca25, reg_addr: ca25, cycle:    775
ca25 ea c9 7f NOP  IMPL  A:80 X: 0 Y: 0 P:84 S:fb pc: ca26, reg_addr:    0, cycle:    777
ca26 c9 7f 90 CMP  IMM   A:80 X: 0 Y: 0 P:84 S:fb pc: ca28, reg_addr:   7f, cycle:    779
ca28 90  7 f0 BCC  REL   A:80 X: 0 Y: 0 P: 5 S:fb pc: ca2a, reg_addr: ca31, cycle:    781
ca2a f0  5 30 BEQ  REL   A:80 X: 0 Y: 0 P: 5 S:fb pc: ca2c, reg_addr: ca31, cycle:    783
ca2c 30  3 4c BMI  REL   A:80 X: 0 Y: 0 P: 5 S:fb pc: ca2e, reg_addr: ca31, cycle:    785
ca2e 4c 35 ca JMP  ABS   A:80 X: 0 Y: 0 P: 5 S:fb pc: ca35, reg_addr: ca35, cycle:    788
ca35 ea 24  1 NOP  IMPL  A:80 X: 0 Y: 0 P: 5 S:fb pc: ca36, reg_addr:    0, cycle:    790
ca36 24  1 a0 BIT  ZP    A:80 X: 0 Y: 0 P: 5 S:fb pc: ca38, reg_addr:    1, cycle:    793
ca38 a0 40 c0 LDY  IMM   A:80 X: 0 Y: 0 P:c5 S:fb pc: ca3a, reg_addr:   40, cycle:    795
ca3a c0 40 d0 CPY  IMM   A:80 X: 0 Y:40 P:45 S:fb pc: ca3c, reg_addr:   40, cycle:    797
ca3c d0  9 30 BNE  REL   A:80 X: 0 Y:40 P:47 S:fb pc: ca3e, reg_addr: ca47, cycle:    799
ca3e 30  7 90 BMI  REL   A:80 X: 0 Y:40 P:47 S:fb pc: ca40, reg_addr: ca47, cycle:    801
ca40 90  5 50 BCC  REL   A:80 X: 0 Y:40 P:47 S:fb pc: ca42, reg_addr: ca47, cycle:    803
ca42 50  3 4c BVC  REL   A:80 X: 0 Y:40 P:47 S:fb pc: ca44, reg_addr: ca47, cycle:    805
ca44 4c 4b ca JMP  ABS   A:80 X: 0 Y:40 P:47 S:fb pc: ca4b, reg_addr: ca4b, cycle:    808
ca4b ea b8 c0 NOP  IMPL  A:80 X: 0 Y:40 P:47 S:fb pc: ca4c, reg_addr:    0, cycle:    810
ca4c b8 c0 3f CLV  IMPL  A:80 X: 0 Y:40 P:47 S:fb pc: ca4d, reg_addr:    0, cycle:    812
ca4d c0 3f f0 CPY  IMM   A:80 X: 0 Y:40 P: 7 S:fb pc: ca4f, reg_addr:   3f, cycle:    814
ca4f f0  9 30 BEQ  REL   A:80 X: 0 Y:40 P: 5 S:fb pc: ca51, reg_addr: ca5a, cycle:    816
ca51 30  7 90 BMI  REL   A:80 X: 0 Y:40 P: 5 S:fb pc: ca53, reg_addr: ca5a, cycle:    818
ca53 90  5 70 BCC  REL   A:80 X: 0 Y:40 P: 5 S:fb pc: ca55, reg_addr: ca5a, cycle:    820
ca55 70  3 4c BVS  REL   A:80 X: 0 Y:40 P: 5 S:fb pc: ca57, reg_addr: ca5a, cycle:    822
ca57 4c 5e ca JMP  ABS   A:80 X: 0 Y:40 P: 5 S:fb pc: ca5e, reg_addr: ca5e, cycle:    825
ca5e ea c0 41 NOP  IMPL  A:80 X: 0 Y:40 P: 5 S:fb pc: ca5f, reg_addr:    0, cycle:    827
ca5f c0 41 f0 CPY  IMM   A:80 X: 0 Y:40 P: 5 S:fb pc: ca61, reg_addr:   41, cycle:    829
ca61 f0  7 10 BEQ  REL   A:80 X: 0 Y:40 P:84 S:fb pc: ca63, reg_addr: ca6a, cycle:    831
ca63 10  5 10 BPL  REL   A:80 X: 0 Y:40 P:84 S:fb pc: ca65, reg_addr: ca6a, cycle:    833
ca65 10  3 4c BPL  REL   A:80 X: 0 Y:40 P:84 S:fb pc: ca67, reg_addr: ca6a, cycle:    835
ca67 4c 6e ca JMP  ABS   A:80 X: 0 Y:40 P:84 S:fb pc: ca6e, reg_addr: ca6e, cycle:    838
ca6e ea a0 80 NOP  IMPL  A:80 X: 0 Y:40 P:84 S:fb pc: ca6f, reg_addr:    0, cycle:    840
ca6f a0 80 c0 LDY  IMM   A:80 X: 0 Y:40 P:84 S:fb pc: ca71, reg_addr:   80, cycle:    842
ca71 c0  0 f0 CPY  IMM   A:80 X: 0 Y:80 P:84 S:fb pc: ca73, reg_addr:    0, cycle:    844
ca73 f0  7 10 BEQ  REL   A:80 X: 0 Y:80 P:85 S:fb pc: ca75, reg_addr: ca7c, cycle:    846
ca75 10  5 90 BPL  REL   A:80 X: 0 Y:80 P:85 S:fb pc: ca77, reg_addr: ca7c, cycle:    848
ca77 90  3 4c BCC  REL   A:80 X: 0 Y:80 P:85 S:fb pc: ca79, reg_addr: ca7c, cycle:    850
ca79 4c 80 ca JMP  ABS   A:80 X: 0 Y:80 P:85 S:fb pc: ca80, reg_addr: ca80, cycle:    853
ca80 ea c0 80 NOP  IMPL  A:80 X: 0 Y:80 P:85 S:fb pc: ca81, reg_addr:    0, cycle:    855
ca81 c0 80 d0 CPY  IMM   A:80 X: 0 Y:80 P:85 S:fb pc: ca83, reg_addr:   80, cycle:    857
ca83 d0  7 30 BNE  REL   A:80 X: 0 Y:80 P: 7 S:fb pc: ca85, reg_addr: ca8c, cycle:    859
ca85 30  5 90 BMI  REL   A:80 X: 0 Y:80 P: 7 S:fb pc: ca87, reg_addr: ca8c, cycle:    861
ca87 90  3 4c BCC  REL   A:80 X: 0 Y:80 P: 7 S:fb pc: ca89, reg_addr: ca8c, cycle:    863
ca89 4c 90 ca JMP  ABS   A:80 X: 0 Y:80 P: 7 S:fb pc: ca90, reg_addr: ca90, cycle:    866
ca90 ea c0 81 NOP  IMPL  A:80 X: 0 Y:80 P: 7 S:fb pc: ca91, reg_addr:    0, cycle:    868
ca91 c0 81 b0 CPY  IMM   A:80 X: 0 Y:80 P: 7 S:fb pc: ca93, reg_addr:   81, cycle:    870
ca93 b0  7 f0 BCS  REL   A:80 X: 0 Y:80 P:84 S:fb pc: ca95, reg_addr: ca9c, cycle:    872
ca95 f0  5 10 BEQ  REL   A:80 X: 0 Y:80 P:84 S:fb pc: ca97, reg_addr: ca9c, cycle:    874
ca97 10  3 4c BPL  REL   A:80 X: 0 Y:80 P:84 S:fb pc: ca99, reg_addr: ca9c, cycle:    876
ca99 4c a0 ca JMP  ABS   A:80 X: 0 Y:80 P:84 S:fb pc: caa0, reg_addr: caa0, cycle:    879
caa0 ea c0 7f NOP  IMPL  A:80 X: 0 Y:80 P:84 S:fb pc: caa1, reg_addr:    0, cycle:    881
caa1 c0 7f 90 CPY  IMM   A:80 X: 0 Y:80 P:84 S:fb pc: caa3, reg_addr:   7f, cycle:    883
caa3 90  7 f0 BCC  REL   A:80 X: 0 Y:80 P: 5 S:fb pc: caa5, reg_addr: caac, cycle:    885
caa5 f0  5 30 BEQ  REL   A:80 X: 0 Y:80 P: 5 S:fb pc: caa7, reg_addr: caac, cycle:    887
caa7 30  3 4c BMI  REL   A:80 X: 0 Y:80 P: 5 S:fb pc: caa9, reg_addr: caac, cycle:    889
caa9 4c b0 ca JMP  ABS   A:80 X: 0 Y:80 P: 5 S:fb pc: cab0, reg_addr: cab0, cycle:    892
cab0 ea 24  1 NOP  IMPL  A:80 X: 0 Y:80 P: 5 S:fb pc: cab1, reg_addr:    0, cycle:    894
cab1 24  1 a2 BIT  ZP    A:80 X: 0 Y:80 P: 5 S:fb pc: cab3, reg_addr:    1, cycle:    897
cab3 a2 40 e0 LDX  IMM   A:80 X: 0 Y:80 P:c5 S:fb pc: cab5, reg_addr:   40, cycle:    899
cab5 e0 40 d0 CPX  IMM   A:80 X:40 Y:80 P:45 S:fb pc: cab7, reg_addr:   40, cycle:    901
cab7 d0  9 30 BNE  REL   A:80 X:40 Y:80 P:47 S:fb pc: cab9, reg_addr: cac2, cycle:    903
cab9 30  7 90 BMI  REL   A:80 X:40 Y:80 P:47 S:fb pc: cabb, reg_addr: cac2, cycle:    905
cabb 90  5 50 BCC  REL   A:80 X:40 Y:80 P:47 S:fb pc: cabd, reg_addr: cac2, cycle:    907
cabd 50  3 4c BVC  REL   A:80 X:40 Y:80 P:47 S:fb pc: cabf, reg_addr: cac2, cycle:    909
cabf 4c c6 ca JMP  ABS   A:80 X:40 Y:80 P:47 S:fb pc: cac6, reg_addr: cac6, cycle:    912
cac6 ea b8 e0 NOP  IMPL  A:80 X:40 Y:80 P:47 S:fb pc: cac7, reg_addr:    0, cycle:    914
cac7 b8 e0 3f CLV  IMPL  A:80 X:40 Y:80 P:47 S:fb pc: cac8, reg_addr:    0, cycle:    916
cac8 e0 3f f0 CPX  IMM   A:80 X:40 Y:80 P: 7 S:fb pc: caca, reg_addr:   3f, cycle:    918
caca f0  9 30 BEQ  REL   A:80 X:40 Y:80 P: 5 S:fb pc: cacc, reg_addr: cad5, cycle:    920
cacc 30  7 90 BMI  REL   A:80 X:40 Y:80 P: 5 S:fb pc: cace, reg_addr: cad5, cycle:    922
cace 90  5 70 BCC  REL   A:80 X:40 Y:80 P: 5 S:fb pc: cad0, reg_addr: cad5, cycle:    924
cad0 70  3 4c BVS  REL   A:80 X:40 Y:80 P: 5 S:fb pc: cad2, reg_addr: cad5, cycle:    926
cad2 4c d9 ca JMP  ABS   A:80 X:40 Y:80 P: 5 S:fb pc: cad9, reg_addr: cad9, cycle:    929
cad9 ea e0 41 NOP  IMPL  A:80 X:40 Y:80 P: 5 S:fb pc: cada, reg_addr:    0, cycle:    931
cada e0 41 f0 CPX  IMM   A:80 X:40 Y:80 P: 5 S:fb pc: cadc, reg_addr:   41, cycle:    933
cadc f0  7 10 BEQ  REL   A:80 X:40 Y:80 P:84 S:fb pc: cade, reg_addr: cae5, cycle:    935
cade 10  5 10 BPL  REL   A:80 X:40 Y:80 P:84 S:fb pc: cae0, reg_addr: cae5, cycle:    937
cae0 10  3 4c BPL  REL   A:80 X:40 Y:80 P:84 S:fb pc: cae2, reg_addr: cae5, cycle:    939
cae2 4c e9 ca JMP  ABS   A:80 X:40 Y:80 P:84 S:fb pc: cae9, reg_addr: cae9, cycle:    942
cae9 ea a2 80 NOP  IMPL  A:80 X:40 Y:80 P:84 S:fb pc: caea, reg_addr:    0, cycle:    944
caea a2 80 e0 LDX  IMM   A:80 X:40 Y:80 P:84 S:fb pc: caec, reg_addr:   80, cycle:    946
caec e0  0 f0 CPX  IMM   A:80 X:80 Y:80 P:84 S:fb pc: caee, reg_addr:    0, cycle:    948
caee f0  7 10 BEQ  REL   A:80 X:80 Y:80 P:85 S:fb pc: caf0, reg_addr: caf7, cycle:    950
caf0 10  5 90 BPL  REL   A:80 X:80 Y:80 P:85 S:fb pc: caf2, reg_addr: caf7, cycle:    952
caf2 90  3 4c BCC  REL   A:80 X:80 Y:80 P:85 S:fb pc: caf4, reg_addr: caf7, cycle:    954
caf4 4c fb ca JMP  ABS   A:80 X:80 Y:80 P:85 S:fb pc: cafb, reg_addr: cafb, cycle:    957
cafb ea e0 80 NOP  IMPL  A:80 X:80 Y:80 P:85 S:fb pc: cafc, reg_addr:    0, cycle:    959
cafc e0 80 d0 CPX  IMM   A:80 X:80 Y:80 P:85 S:fb pc: cafe, reg_addr:   80, cycle:    961
cafe d0  7 30 BNE  REL   A:80 X:80 Y:80 P: 7 S:fb pc: cb00, reg_addr: cb07, cycle:    963
cb00 30  5 90 BMI  REL   A:80 X:80 Y:80 P: 7 S:fb pc: cb02, reg_addr: cb07, cycle:    965
cb02 90  3 4c BCC  REL   A:80 X:80 Y:80 P: 7 S:fb pc: cb04, reg_addr: cb07, cycle:    967
cb04 4c  b cb JMP  ABS   A:80 X:80 Y:80 P: 7 S:fb pc: cb0b, reg_addr: cb0b, cycle:    970
cb0b ea e0 81 NOP  IMPL  A:80 X:80 Y:80 P: 7 S:fb pc: cb0c, reg_addr:    0, cycle:    972
cb0c e0 81 b0 CPX  IMM   A:80 X:80 Y:80 P: 7 S:fb pc: cb0e, reg_addr:   81, cycle:    974
cb0e b0  7 f0 BCS  REL   A:80 X:80 Y:80 P:84 S:fb pc: cb10, reg_addr: cb17, cycle:    976
cb10 f0  5 10 BEQ  REL   A:80 X:80 Y:80 P:84 S:fb pc: cb12, reg_addr: cb17, cycle:    978
cb12 10  3 4c BPL  REL   A:80 X:80 Y:80 P:84 S:fb pc: cb14, reg_addr: cb17, cycle:    980
cb14 4c 1b cb JMP  ABS   A:80 X:80 Y:80 P:84 S:fb pc: cb1b, reg_addr: cb1b, cycle:    983
cb1b ea e0 7f NOP  IMPL  A:80 X:80 Y:80 P:84 S:fb pc: cb1c, reg_addr:    0, cycle:    985
cb1c e0 7f 90 CPX  IMM   A:80 X:80 Y:80 P:84 S:fb pc: cb1e, reg_addr:   7f, cycle:    987
cb1e 90  7 f0 BCC  REL   A:80 X:80 Y:80 P: 5 S:fb pc: cb20, reg_addr: cb27, cycle:    989
cb20 f0  5 30 BEQ  REL   A:80 X:80 Y:80 P: 5 S:fb pc: cb22, reg_addr: cb27, cycle:    991
cb22 30  3 4c BMI  REL   A:80 X:80 Y:80 P: 5 S:fb pc: cb24, reg_addr: cb27, cycle:    993
cb24 4c 2b cb JMP  ABS   A:80 X:80 Y:80 P: 5 S:fb pc: cb2b, reg_addr: cb2b, cycle:    996
cb2b ea 38 b8 NOP  IMPL  A:80 X:80 Y:80 P: 5 S:fb pc: cb2c, reg_addr:    0, cycle:    998
cb2c 38 b8 a2 SEC  IMPL  A:80 X:80 Y:80 P: 5 S:fb pc: cb2d, reg_addr:    0, cycle:   1000
cb2d b8 a2 9f CLV  IMPL  A:80 X:80 Y:80 P: 5 S:fb pc: cb2e, reg_addr:    0, cycle:   1002
cb2e a2 9f f0 LDX  IMM   A:80 X:80 Y:80 P: 5 S:fb pc: cb30, reg_addr:   9f, cycle:   1004
cb30 f0  9 10 BEQ  REL   A:80 X:9f Y:80 P:85 S:fb pc: cb32, reg_addr: cb3b, cycle:   1006
cb32 10  7 70 BPL  REL   A:80 X:9f Y:80 P:85 S:fb pc: cb34, reg_addr: cb3b, cycle:   1008
cb34 70  5 90 BVS  REL   A:80 X:9f Y:80 P:85 S:fb pc: cb36, reg_addr: cb3b, cycle:   1010
cb36 90  3 4c BCC  REL   A:80 X:9f Y:80 P:85 S:fb pc: cb38, reg_addr: cb3b, cycle:   1012
cb38 4c 3f cb JMP  ABS   A:80 X:9f Y:80 P:85 S:fb pc: cb3f, reg_addr: cb3f, cycle:   1015
cb3f ea 18 24 NOP  IMPL  A:80 X:9f Y:80 P:85 S:fb pc: cb40, reg_addr:    0, cycle:   1017
cb40 18 24  1 CLC  IMPL  A:80 X:9f Y:80 P:85 S:fb pc: cb41, reg_addr:    0, cycle:   1019
cb41 24  1 a2 BIT  ZP    A:80 X:9f Y:80 P:84 S:fb pc: cb43, reg_addr:    1, cycle:   1022
cb43 a2  0 d0 LDX  IMM   A:80 X:9f Y:80 P:c4 S:fb pc: cb45, reg_addr:    0, cycle:   1024
cb45 d0  9 30 BNE  REL   A:80 X: 0 Y:80 P:46 S:fb pc: cb47, reg_addr: cb50, cycle:   1026
cb47 30  7 50 BMI  REL   A:80 X: 0 Y:80 P:46 S:fb pc: cb49, reg_addr: cb50, cycle:   1028
cb49 50  5 b0 BVC  REL   A:80 X: 0 Y:80 P:46 S:fb pc: cb4b, reg_addr: cb50, cycle:   1030
cb4b b0  3 4c BCS  REL   A:80 X: 0 Y:80 P:46 S:fb pc: cb4d, reg_addr: cb50, cycle:   1032
cb4d 4c 54 cb JMP  ABS   A:80 X: 0 Y:80 P:46 S:fb pc: cb54, reg_addr: cb54, cycle:   1035
cb54 ea 38 b8 NOP  IMPL  A:80 X: 0 Y:80 P:46 S:fb pc: cb55, reg_addr:    0, cycle:   1037
cb55 38 b8 a0 SEC  IMPL  A:80 X: 0 Y:80 P:46 S:fb pc: cb56, reg_addr:    0, cycle:   1039
cb56 b8 a0 9f CLV  IMPL  A:80 X: 0 Y:80 P:47 S:fb pc: cb57, reg_addr:    0, cycle:   1041
cb57 a0 9f f0 LDY  IMM   A:80 X: 0 Y:80 P: 7 S:fb pc: cb59, reg_addr:   9f, cycle:   1043
cb59 f0  9 10 BEQ  REL   A:80 X: 0 Y:9f P:85 S:fb pc: cb5b, reg_addr: cb64, cycle:   1045
cb5b 10  7 70 BPL  REL   A:80 X: 0 Y:9f P:85 S:fb pc: cb5d, reg_addr: cb64, cycle:   1047
cb5d 70  5 90 BVS  REL   A:80 X: 0 Y:9f P:85 S:fb pc: cb5f, reg_addr: cb64, cycle:   1049
cb5f 90  3 4c BCC  REL   A:80 X: 0 Y:9f P:85 S:fb pc: cb61, reg_addr: cb64, cycle:   1051
cb61 4c 68 cb JMP  ABS   A:80 X: 0 Y:9f P:85 S:fb pc: cb68, reg_addr: cb68, cycle:   1054
cb68 ea 18 24 NOP  IMPL  A:80 X: 0 Y:9f P:85 S:fb pc: cb69, reg_addr:    0, cycle:   1056
cb69 18 24  1 CLC  IMPL  A:80 X: 0 Y:9f P:85 S:fb pc: cb6a, reg_addr:    0, cycle:   1058
cb6a 24  1 a0 BIT  ZP    A:80 X: 0 Y:9f P:84 S:fb pc: cb6c, reg_addr:    1, cycle:   1061
cb6c a0  0 d0 LDY  IMM   A:80 X: 0 Y:9f P:c4 S:fb pc: cb6e, reg_addr:    0, cycle:   1063
cb6e d0  9 30 BNE  REL   A:80 X: 0 Y: 0 P:46 S:fb pc: cb70, reg_addr: cb79, cycle:   1065
cb70 30  7 50 BMI  REL   A:80 X: 0 Y: 0 P:46 S:fb pc: cb72, reg_addr: cb79, cycle:   1067
cb72 50  5 b0 BVC  REL   A:80 X: 0 Y: 0 P:46 S:fb pc: cb74, reg_addr: cb79, cycle:   1069
cb74 b0  3 4c BCS  REL   A:80 X: 0 Y: 0 P:46 S:fb pc: cb76, reg_addr: cb79, cycle:   1071
cb76 4c 7d cb JMP  ABS   A:80 X: 0 Y: 0 P:46 S:fb pc: cb7d, reg_addr: cb7d, cycle:   1074
cb7d ea a9 55 NOP  IMPL  A:80 X: 0 Y: 0 P:46 S:fb pc: cb7e, reg_addr:    0, cycle:   1076
cb7e a9 55 a2 LDA  IMM   A:80 X: 0 Y: 0 P:46 S:fb pc: cb80, reg_addr:   55, cycle:   1078
cb80 a2 aa a0 LDX  IMM   A:55 X: 0 Y: 0 P:44 S:fb pc: cb82, reg_addr:   aa, cycle:   1080
cb82 a0 33 c9 LDY  IMM   A:55 X:aa Y: 0 P:c4 S:fb pc: cb84, reg_addr:   33, cycle:   1082
cb84 c9 55 d0 CMP  IMM   A:55 X:aa Y:33 P:44 S:fb pc: cb86, reg_addr:   55, cycle:   1084
cb86 d0 23 e0 BNE  REL   A:55 X:aa Y:33 P:47 S:fb pc: cb88, reg_addr: cbab, cycle:   1086
cb88 e0 aa d0 CPX  IMM   A:55 X:aa Y:33 P:47 S:fb pc: cb8a, reg_addr:   aa, cycle:   1088
cb8a d0 1f c0 BNE  REL   A:55 X:aa Y:33 P:47 S:fb pc: cb8c, reg_addr: cbab, cycle:   1090
cb8c c0 33 d0 CPY  IMM   A:55 X:aa Y:33 P:47 S:fb pc: cb8e, reg_addr:   33, cycle:   1092
cb8e d0 1b c9 BNE  REL   A:55 X:aa Y:33 P:47 S:fb pc: cb90, reg_addr: cbab, cycle:   1094
cb90 c9 55 d0 CMP  IMM   A:55 X:aa Y:33 P:47 S:fb pc: cb92, reg_addr:   55, cycle:   1096
cb92 d0 17 e0 BNE  REL   A:55 X:aa Y:33 P:47 S:fb pc: cb94, reg_addr: cbab, cycle:   1098
cb94 e0 aa d0 CPX  IMM   A:55 X:aa Y:33 P:47 S:fb pc: cb96, reg_addr:   aa, cycle:   1100
cb96 d0 13 c0 BNE  REL   A:55 X:aa Y:33 P:47 S:fb pc: cb98, reg_addr: cbab, cycle:   1102
cb98 c0 33 d0 CPY  IMM   A:55 X:aa Y:33 P:47 S:fb pc: cb9a, reg_addr:   33, cycle:   1104
cb9a d0  f c9 BNE  REL   A:55 X:aa Y:33 P:47 S:fb pc: cb9c, reg_addr: cbab, cycle:   1106
cb9c c9 56 f0 CMP  IMM   A:55 X:aa Y:33 P:47 S:fb pc: cb9e, reg_addr:   56, cycle:   1108
cb9e f0  b e0 BEQ  REL   A:55 X:aa Y:33 P:c4 S:fb pc: cba0, reg_addr: cbab, cycle:   1110
cba0 e0 ab f0 CPX  IMM   A:55 X:aa Y:33 P:c4 S:fb pc: cba2, reg_addr:   ab, cycle:   1112
cba2 f0  7 c0 BEQ  REL   A:55 X:aa Y:33 P:c4 S:fb pc: cba4, reg_addr: cbab, cycle:   1114
cba4 c0 34 f0 CPY  IMM   A:55 X:aa Y:33 P:c4 S:fb pc: cba6, reg_addr:   34, cycle:   1116
cba6 f0  3 4c BEQ  REL   A:55 X:aa Y:33 P:c4 S:fb pc: cba8, reg_addr: cbab, cycle:   1118
cba8 4c af cb JMP  ABS   A:55 X:aa Y:33 P:c4 S:fb pc: cbaf, reg_addr: cbaf, cycle:   1121
cbaf a0 71 20 LDY  IMM   A:55 X:aa Y:33 P:c4 S:fb pc: cbb1, reg_addr:   71, cycle:   1123
cbb1 20 31 f9 JSR  ABS   A:55 X:aa Y:71 P:44 S:fb pc: f931, reg_addr: f931, cycle:   1129
f931 24  1 a9 BIT  ZP    A:55 X:aa Y:71 P:44 S:f9 pc: f933, reg_addr:    1, cycle:   1132
f933 a9 40 38 LDA  IMM   A:55 X:aa Y:71 P:c4 S:f9 pc: f935, reg_addr:   40, cycle:   1134
f935 38 60 30 SEC  IMPL  A:40 X:aa Y:71 P:44 S:f9 pc: f936, reg_addr:    0, cycle:   1136
f936 60 30  b RTS  IMPL  A:40 X:aa Y:71 P:45 S:f9 pc: cbb4, reg_addr:    0, cycle:   1142
cbb4 e9 40 20 SBC  IMM   A:40 X:aa Y:71 P:45 S:fb pc: cbb6, reg_addr:   40, cycle:   1144
cbb6 20 37 f9 JSR  ABS   A: 0 X:aa Y:71 P: 7 S:fb pc: f937, reg_addr: f937, cycle:   1150
f937 30  b 90 BMI  REL   A: 0 X:aa Y:71 P: 7 S:f9 pc: f939, reg_addr: f944, cycle:   1152
f939 90  9 d0 BCC  REL   A: 0 X:aa Y:71 P: 7 S:f9 pc: f93b, reg_addr: f944, cycle:   1154
f93b d0  7 70 BNE  REL   A: 0 X:aa Y:71 P: 7 S:f9 pc: f93d, reg_addr: f944, cycle:   1156
f93d 70  5 c9 BVS  REL   A: 0 X:aa Y:71 P: 7 S:f9 pc: f93f, reg_addr: f944, cycle:   1158
f93f c9  0 d0 CMP  IMM   A: 0 X:aa Y:71 P: 7 S:f9 pc: f941, reg_addr:    0, cycle:   1160
f941 d0  1 60 BNE  REL   A: 0 X:aa Y:71 P: 7 S:f9 pc: f943, reg_addr: f944, cycle:   1162
f943 60 84  0 RTS  IMPL  A: 0 X:aa Y:71 P: 7 S:f9 pc: cbb9, reg_addr:    0, cycle:   1168
cbb9 c8 20 47 INY  IMPL  A: 0 X:aa Y:71 P: 7 S:fb pc: cbba, reg_addr:    0, cycle:   1170
cbba 20 47 f9 JSR  ABS   A: 0 X:aa Y:72 P: 5 S:fb pc: f947, reg_addr: f947, cycle:   1176
f947 b8 38 a9 CLV  IMPL  A: 0 X:aa Y:72 P: 5 S:f9 pc: f948, reg_addr:    0, cycle:   1178
f948 38 a9 40 SEC  IMPL  A: 0 X:aa Y:72 P: 5 S:f9 pc: f949, reg_addr:    0, cycle:   1180
f949 a9 40 60 LDA  IMM   A: 0 X:aa Y:72 P: 5 S:f9 pc: f94b, reg_addr:   40, cycle:   1182
f94b 60 f0  b RTS  IMPL  A:40 X:aa Y:72 P: 5 S:f9 pc: cbbd, reg_addr:    0, cycle:   1188
cbbd e9 3f 20 SBC  IMM   A:40 X:aa Y:72 P: 5 S:fb pc: cbbf, reg_addr:   3f, cycle:   1190
cbbf 20 4c f9 JSR  ABS   A: 1 X:aa Y:72 P: 5 S:fb pc: f94c, reg_addr: f94c, cycle:   1196
f94c f0  b 30 BEQ  REL   A: 1 X:aa Y:72 P: 5 S:f9 pc: f94e, reg_addr: f959, cycle:   1198
f94e 30  9 90 BMI  REL   A: 1 X:aa Y:72 P: 5 S:f9 pc: f950, reg_addr: f959, cycle:   1200
f950 90  7 70 BCC  REL   A: 1 X:aa Y:72 P: 5 S:f9 pc: f952, reg_addr: f959, cycle:   1202
f952 70  5 c9 BVS  REL   A: 1 X:aa Y:72 P: 5 S:f9 pc: f954, reg_addr: f959, cycle:   1204
f954 c9  1 d0 CMP  IMM   A: 1 X:aa Y:72 P: 5 S:f9 pc: f956, reg_addr:    1, cycle:   1206
f956 d0  1 60 BNE  REL   A: 1 X:aa Y:72 P: 7 S:f9 pc: f958, reg_addr: f959, cycle:   1208
f958 60 84  0 RTS  IMPL  A: 1 X:aa Y:72 P: 7 S:f9 pc: cbc2, reg_addr:    0, cycle:   1214
cbc2 c8 20 5c INY  IMPL  A: 1 X:aa Y:72 P: 7 S:fb pc: cbc3, reg_addr:    0, cycle:   1216
cbc3 20 5c f9 JSR  ABS   A: 1 X:aa Y:73 P: 5 S:fb pc: f95c, reg_addr: f95c, cycle:   1222
f95c a9 40 38 LDA  IMM   A: 1 X:aa Y:73 P: 5 S:f9 pc: f95e, reg_addr:   40, cycle:   1224
f95e 38 24  1 SEC  IMPL  A:40 X:aa Y:73 P: 5 S:f9 pc: f95f, reg_addr:    0, cycle:   1226
f95f 24  1 60 BIT  ZP    A:40 X:aa Y:73 P: 5 S:f9 pc: f961, reg_addr:    1, cycle:   1229
f961 60 b0  b RTS  IMPL  A:40 X:aa Y:73 P:c5 S:f9 pc: cbc6, reg_addr:    0, cycle:   1235
cbc6 e9 41 20 SBC  IMM   A:40 X:aa Y:73 P:c5 S:fb pc: cbc8, reg_addr:   41, cycle:   1237
cbc8 20 62 f9 JSR  ABS   A:ff X:aa Y:73 P:84 S:fb pc: f962, reg_addr: f962, cycle:   1243
f962 b0  b f0 BCS  REL   A:ff X:aa Y:73 P:84 S:f9 pc: f964, reg_addr: f96f, cycle:   1245
f964 f0  9 10 BEQ  REL   A:ff X:aa Y:73 P:84 S:f9 pc: f966, reg_addr: f96f, cycle:   1247
f966 10  7 70 BPL  REL   A:ff X:aa Y:73 P:84 S:f9 pc: f968, reg_addr: f96f, cycle:   1249
f968 70  5 c9 BVS  REL   A:ff X:aa Y:73 P:84 S:f9 pc: f96a, reg_addr: f96f, cycle:   1251
f96a c9 ff d0 CMP  IMM   A:ff X:aa Y:73 P:84 S:f9 pc: f96c, reg_addr:   ff, cycle:   1253
f96c d0  1 60 BNE  REL   A:ff X:aa Y:73 P: 7 S:f9 pc: f96e, reg_addr: f96f, cycle:   1255
f96e 60 84  0 RTS  IMPL  A:ff X:aa Y:73 P: 7 S:f9 pc: cbcb, reg_addr:    0, cycle:   1261
cbcb c8 20 72 INY  IMPL  A:ff X:aa Y:73 P: 7 S:fb pc: cbcc, reg_addr:    0, cycle:   1263
cbcc 20 72 f9 JSR  ABS   A:ff X:aa Y:74 P: 5 S:fb pc: f972, reg_addr: f972, cycle:   1269
f972 18 a9 80 CLC  IMPL  A:ff X:aa Y:74 P: 5 S:f9 pc: f973, reg_addr:    0, cycle:   1271
f973 a9 80 60 LDA  IMM   A:ff X:aa Y:74 P: 4 S:f9 pc: f975, reg_addr:   80, cycle:   1273
f975 60 90  5 RTS  IMPL  A:80 X:aa Y:74 P:84 S:f9 pc: cbcf, reg_addr:    0, cycle:   1279
cbcf e9  0 20 SBC  IMM   A:80 X:aa Y:74 P:84 S:fb pc: cbd1, reg_addr:    0, cycle:   1281
cbd1 20 76 f9 JSR  ABS   A:7f X:aa Y:74 P:45 S:fb pc: f976, reg_addr: f976, cycle:   1287
f976 90  5 c9 BCC  REL   A:7f X:aa Y:74 P:45 S:f9 pc: f978, reg_addr: f97d, cycle:   1289
f978 c9 7f d0 CMP  IMM   A:7f X:aa Y:74 P:45 S:f9 pc: f97a, reg_addr:   7f, cycle:   1291
f97a d0  1 60 BNE  REL   A:7f X:aa Y:74 P:47 S:f9 pc: f97c, reg_addr: f97d, cycle:   1293
f97c 60 84  0 RTS  IMPL  A:7f X:aa Y:74 P:47 S:f9 pc: cbd4, reg_addr:    0, cycle:   1299
cbd4 c8 20 80 INY  IMPL  A:7f X:aa Y:74 P:47 S:fb pc: cbd5, reg_addr:    0, cycle:   1301
cbd5 20 80 f9 JSR  ABS   A:7f X:aa Y:75 P:45 S:fb pc: f980, reg_addr: f980, cycle:   1307
f980 38 a9 81 SEC  IMPL  A:7f X:aa Y:75 P:45 S:f9 pc: f981, reg_addr:    0, cycle:   1309
f981 a9 81 60 LDA  IMM   A:7f X:aa Y:75 P:45 S:f9 pc: f983, reg_addr:   81, cycle:   1311
f983 60 50  7 RTS  IMPL  A:81 X:aa Y:75 P:c5 S:f9 pc: cbd8, reg_addr:    0, cycle:   1317
cbd8 e9 7f 20 SBC  IMM   A:81 X:aa Y:75 P:c5 S:fb pc: cbda, reg_addr:   7f, cycle:   1319
cbda 20 84 f9 JSR  ABS   A: 2 X:aa Y:75 P:45 S:fb pc: f984, reg_addr: f984, cycle:   1325
f984 50  7 90 BVC  REL   A: 2 X:aa Y:75 P:45 S:f9 pc: f986, reg_addr: f98d, cycle:   1327
f986 90  5 c9 BCC  REL   A: 2 X:aa Y:75 P:45 S:f9 pc: f988, reg_addr: f98d, cycle:   1329
f988 c9  2 d0 CMP  IMM   A: 2 X:aa Y:75 P:45 S:f9 pc: f98a, reg_addr:    2, cycle:   1331
f98a d0  1 60 BNE  REL   A: 2 X:aa Y:75 P:47 S:f9 pc: f98c, reg_addr: f98d, cycle:   1333
f98c 60 84  0 RTS  IMPL  A: 2 X:aa Y:75 P:47 S:f9 pc: cbdd, reg_addr:    0, cycle:   1339
cbdd 60 ea a9 RTS  IMPL  A: 2 X:aa Y:75 P:47 S:fb pc: c606, reg_addr:    0, cycle:   1345
c606 20 de cb JSR  ABS   A: 2 X:aa Y:75 P:47 S:fd pc: cbde, reg_addr: cbde, cycle:   1351
cbde ea a9 ff NOP  IMPL  A: 2 X:aa Y:75 P:47 S:fb pc: cbdf, reg_addr:    0, cycle:   1353
cbdf a9 ff 85 LDA  IMM   A: 2 X:aa Y:75 P:47 S:fb pc: cbe1, reg_addr:   ff, cycle:   1355
cbe1 85  1 a9 STA  ZP    A:ff X:aa Y:75 P:c5 S:fb pc: cbe3, reg_addr:    1, cycle:   1358
cbe3 a9 44 a2 LDA  IMM   A:ff X:aa Y:75 P:c5 S:fb pc: cbe5, reg_addr:   44, cycle:   1360
cbe5 a2 55 a0 LDX  IMM   A:44 X:aa Y:75 P:45 S:fb pc: cbe7, reg_addr:   55, cycle:   1362
cbe7 a0 66 e8 LDY  IMM   A:44 X:55 Y:75 P:45 S:fb pc: cbe9, reg_addr:   66, cycle:   1364
cbe9 e8 88 e0 INX  IMPL  A:44 X:55 Y:66 P:45 S:fb pc: cbea, reg_addr:    0, cycle:   1366
cbea 88 e0 56 DEY  IMPL  A:44 X:56 Y:66 P:45 S:fb pc: cbeb, reg_addr:    0, cycle:   1368
cbeb e0 56 d0 CPX  IMM   A:44 X:56 Y:65 P:45 S:fb pc: cbed, reg_addr:   56, cycle:   1370
cbed d0 21 c0 BNE  REL   A:44 X:56 Y:65 P:47 S:fb pc: cbef, reg_addr: cc10, cycle:   1372
cbef c0 65 d0 CPY  IMM   A:44 X:56 Y:65 P:47 S:fb pc: cbf1, reg_addr:   65, cycle:   1374
cbf1 d0 1d e8 BNE  REL   A:44 X:56 Y:65 P:47 S:fb pc: cbf3, reg_addr: cc10, cycle:   1376
cbf3 e8 e8 88 INX  IMPL  A:44 X:56 Y:65 P:47 S:fb pc: cbf4, reg_addr:    0, cycle:   1378
cbf4 e8 88 88 INX  IMPL  A:44 X:57 Y:65 P:45 S:fb pc: cbf5, reg_addr:    0, cycle:   1380
cbf5 88 88 e0 DEY  IMPL  A:44 X:58 Y:65 P:45 S:fb pc: cbf6, reg_addr:    0, cycle:   1382
cbf6 88 e0 58 DEY  IMPL  A:44 X:58 Y:64 P:45 S:fb pc: cbf7, reg_addr:    0, cycle:   1384
cbf7 e0 58 d0 CPX  IMM   A:44 X:58 Y:63 P:45 S:fb pc: cbf9, reg_addr:   58, cycle:   1386
cbf9 d0 15 c0 BNE  REL   A:44 X:58 Y:63 P:47 S:fb pc: cbfb, reg_addr: cc10, cycle:   1388
cbfb c0 63 d0 CPY  IMM   A:44 X:58 Y:63 P:47 S:fb pc: cbfd, reg_addr:   63, cycle:   1390
cbfd d0 11 ca BNE  REL   A:44 X:58 Y:63 P:47 S:fb pc: cbff, reg_addr: cc10, cycle:   1392
cbff ca c8 e0 DEX  IMPL  A:44 X:58 Y:63 P:47 S:fb pc: cc00, reg_addr:    0, cycle:   1394
cc00 c8 e0 57 INY  IMPL  A:44 X:57 Y:63 P:45 S:fb pc: cc01, reg_addr:    0, cycle:   1396
cc01 e0 57 d0 CPX  IMM   A:44 X:57 Y:64 P:45 S:fb pc: cc03, reg_addr:   57, cycle:   1398
cc03 d0  b c0 BNE  REL   A:44 X:57 Y:64 P:47 S:fb pc: cc05, reg_addr: cc10, cycle:   1400
cc05 c0 64 d0 CPY  IMM   A:44 X:57 Y:64 P:47 S:fb pc: cc07, reg_addr:   64, cycle:   1402
cc07 d0  7 c9 BNE  REL   A:44 X:57 Y:64 P:47 S:fb pc: cc09, reg_addr: cc10, cycle:   1404
cc09 c9 44 d0 CMP  IMM   A:44 X:57 Y:64 P:47 S:fb pc: cc0b, reg_addr:   44, cycle:   1406
cc0b d0  3 4c BNE  REL   A:44 X:57 Y:64 P:47 S:fb pc: cc0d, reg_addr: cc10, cycle:   1408
cc0d 4c 14 cc JMP  ABS   A:44 X:57 Y:64 P:47 S:fb pc: cc14, reg_addr: cc14, cycle:   1411
cc14 ea 38 a2 NOP  IMPL  A:44 X:57 Y:64 P:47 S:fb pc: cc15, reg_addr:    0, cycle:   1413
cc15 38 a2 69 SEC  IMPL  A:44 X:57 Y:64 P:47 S:fb pc: cc16, reg_addr:    0, cycle:   1415
cc16 a2 69 a9 LDX  IMM   A:44 X:57 Y:64 P:47 S:fb pc: cc18, reg_addr:   69, cycle:   1417
cc18 a9 96 24 LDA  IMM   A:44 X:69 Y:64 P:45 S:fb pc: cc1a, reg_addr:   96, cycle:   1419
cc1a 24  1 a0 BIT  ZP    A:96 X:69 Y:64 P:c5 S:fb pc: cc1c, reg_addr:    1, cycle:   1422
cc1c a0 ff c8 LDY  IMM   A:96 X:69 Y:64 P:c5 S:fb pc: cc1e, reg_addr:   ff, cycle:   1424
cc1e c8 d0 3d INY  IMPL  A:96 X:69 Y:ff P:c5 S:fb pc: cc1f, reg_addr:    0, cycle:   1426
cc1f d0 3d 30 BNE  REL   A:96 X:69 Y: 0 P:47 S:fb pc: cc21, reg_addr: cc5e, cycle:   1428
cc21 30 3b 90 BMI  REL   A:96 X:69 Y: 0 P:47 S:fb pc: cc23, reg_addr: cc5e, cycle:   1430
cc23 90 39 50 BCC  REL   A:96 X:69 Y: 0 P:47 S:fb pc: cc25, reg_addr: cc5e, cycle:   1432
cc25 50 37 c0 BVC  REL   A:96 X:69 Y: 0 P:47 S:fb pc: cc27, reg_addr: cc5e, cycle:   1434
cc27 c0  0 d0 CPY  IMM   A:96 X:69 Y: 0 P:47 S:fb pc: cc29, reg_addr:    0, cycle:   1436
cc29 d0 33 c8 BNE  REL   A:96 X:69 Y: 0 P:47 S:fb pc: cc2b, reg_addr: cc5e, cycle:   1438
cc2b c8 f0 30 INY  IMPL  A:96 X:69 Y: 0 P:47 S:fb pc: cc2c, reg_addr:    0, cycle:   1440
cc2c f0 30 30 BEQ  REL   A:96 X:69 Y: 1 P:45 S:fb pc: cc2e, reg_addr: cc5e, cycle:   1442
cc2e 30 2e 90 BMI  REL   A:96 X:69 Y: 1 P:45 S:fb pc: cc30, reg_addr: cc5e, cycle:   1444
cc30 90 2c 50 BCC  REL   A:96 X:69 Y: 1 P:45 S:fb pc: cc32, reg_addr: cc5e, cycle:   1446
cc32 50 2a 18 BVC  REL   A:96 X:69 Y: 1 P:45 S:fb pc: cc34, reg_addr: cc5e, cycle:   1448
cc34 18 b8 a0 CLC  IMPL  A:96 X:69 Y: 1 P:45 S:fb pc: cc35, reg_addr:    0, cycle:   1450
cc35 b8 a0  0 CLV  IMPL  A:96 X:69 Y: 1 P:44 S:fb pc: cc36, reg_addr:    0, cycle:   1452
cc36 a0  0 88 LDY  IMM   A:96 X:69 Y: 1 P: 4 S:fb pc: cc38, reg_addr:    0, cycle:   1454
cc38 88 f0 23 DEY  IMPL  A:96 X:69 Y: 0 P: 6 S:fb pc: cc39, reg_addr:    0, cycle:   1456
cc39 f0 23 10 BEQ  REL   A:96 X:69 Y:ff P:84 S:fb pc: cc3b, reg_addr: cc5e, cycle:   1458
cc3b 10 21 b0 BPL  REL   A:96 X:69 Y:ff P:84 S:fb pc: cc3d, reg_addr: cc5e, cycle:   1460
cc3d b0 1f 70 BCS  REL   A:96 X:69 Y:ff P:84 S:fb pc: cc3f, reg_addr: cc5e, cycle:   1462
cc3f 70 1d c0 BVS  REL   A:96 X:69 Y:ff P:84 S:fb pc: cc41, reg_addr: cc5e, cycle:   1464
cc41 c0 ff d0 CPY  IMM   A:96 X:69 Y:ff P:84 S:fb pc: cc43, reg_addr:   ff, cycle:   1466
cc43 d0 19 18 BNE  REL   A:96 X:69 Y:ff P: 7 S:fb pc: cc45, reg_addr: cc5e, cycle:   1468
cc45 18 88 f0 CLC  IMPL  A:96 X:69 Y:ff P: 7 S:fb pc: cc46, reg_addr:    0, cycle:   1470
cc46 88 f0 15 DEY  IMPL  A:96 X:69 Y:ff P: 6 S:fb pc: cc47, reg_addr:    0, cycle:   1472
cc47 f0 15 10 BEQ  REL   A:96 X:69 Y:fe P:84 S:fb pc: cc49, reg_addr: cc5e, cycle:   1474
cc49 10 13 b0 BPL  REL   A:96 X:69 Y:fe P:84 S:fb pc: cc4b, reg_addr: cc5e, cycle:   1476
cc4b b0 11 70 BCS  REL   A:96 X:69 Y:fe P:84 S:fb pc: cc4d, reg_addr: cc5e, cycle:   1478
cc4d 70  f c0 BVS  REL   A:96 X:69 Y:fe P:84 S:fb pc: cc4f, reg_addr: cc5e, cycle:   1480
cc4f c0 fe d0 CPY  IMM   A:96 X:69 Y:fe P:84 S:fb pc: cc51, reg_addr:   fe, cycle:   1482
cc51 d0  b c9 BNE  REL   A:96 X:69 Y:fe P: 7 S:fb pc: cc53, reg_addr: cc5e, cycle:   1484
cc53 c9 96 d0 CMP  IMM   A:96 X:69 Y:fe P: 7 S:fb pc: cc55, reg_addr:   96, cycle:   1486
cc55 d0  7 e0 BNE  REL   A:96 X:69 Y:fe P: 7 S:fb pc: cc57, reg_addr: cc5e, cycle:   1488
cc57 e0 69 d0 CPX  IMM   A:96 X:69 Y:fe P: 7 S:fb pc: cc59, reg_addr:   69, cycle:   1490
cc59 d0  3 4c BNE  REL   A:96 X:69 Y:fe P: 7 S:fb pc: cc5b, reg_addr: cc5e, cycle:   1492
cc5b 4c 62 cc JMP  ABS   A:96 X:69 Y:fe P: 7 S:fb pc: cc62, reg_addr: cc62, cycle:   1495
cc62 ea 38 a0 NOP  IMPL  A:96 X:69 Y:fe P: 7 S:fb pc: cc63, reg_addr:    0, cycle:   1497
cc63 38 a0 69 SEC  IMPL  A:96 X:69 Y:fe P: 7 S:fb pc: cc64, reg_addr:    0, cycle:   1499
cc64 a0 69 a9 LDY  IMM   A:96 X:69 Y:fe P: 7 S:fb pc: cc66, reg_addr:   69, cycle:   1501
cc66 a9 96 24 LDA  IMM   A:96 X:69 Y:69 P: 5 S:fb pc: cc68, reg_addr:   96, cycle:   1503
cc68 24  1 a2 BIT  ZP    A:96 X:69 Y:69 P:85 S:fb pc: cc6a, reg_addr:    1, cycle:   1506
cc6a a2 ff e8 LDX  IMM   A:96 X:69 Y:69 P:c5 S:fb pc: cc6c, reg_addr:   ff, cycle:   1508
cc6c e8 d0 3d INX  IMPL  A:96 X:ff Y:69 P:c5 S:fb pc: cc6d, reg_addr:    0, cycle:   1510
cc6d d0 3d 30 BNE  REL   A:96 X: 0 Y:69 P:47 S:fb pc: cc6f, reg_addr: ccac, cycle:   1512
cc6f 30 3b 90 BMI  REL   A:96 X: 0 Y:69 P:47 S:fb pc: cc71, reg_addr: ccac, cycle:   1514
cc71 90 39 50 BCC  REL   A:96 X: 0 Y:69 P:47 S:fb pc: cc73, reg_addr: ccac, cycle:   1516
cc73 50 37 e0 BVC  REL   A:96 X: 0 Y:69 P:47 S:fb pc: cc75, reg_addr: ccac, cycle:   1518
cc75 e0  0 d0 CPX  IMM   A:96 X: 0 Y:69 P:47 S:fb pc: cc77, reg_addr:    0, cycle:   1520
cc77 d0 33 e8 BNE  REL   A:96 X: 0 Y:69 P:47 S:fb pc: cc79, reg_addr: ccac, cycle:   1522
cc79 e8 f0 30 INX  IMPL  A:96 X: 0 Y:69 P:47 S:fb pc: cc7a, reg_addr:    0, cycle:   1524
cc7a f0 30 30 BEQ  REL   A:96 X: 1 Y:69 P:45 S:fb pc: cc7c, reg_addr: ccac, cycle:   1526
cc7c 30 2e 90 BMI  REL   A:96 X: 1 Y:69 P:45 S:fb pc: cc7e, reg_addr: ccac, cycle:   1528
cc7e 90 2c 50 BCC  REL   A:96 X: 1 Y:69 P:45 S:fb pc: cc80, reg_addr: ccac, cycle:   1530
cc80 50 2a 18 BVC  REL   A:96 X: 1 Y:69 P:45 S:fb pc: cc82, reg_addr: ccac, cycle:   1532
cc82 18 b8 a2 CLC  IMPL  A:96 X: 1 Y:69 P:45 S:fb pc: cc83, reg_addr:    0, cycle:   1534
cc83 b8 a2  0 CLV  IMPL  A:96 X: 1 Y:69 P:44 S:fb pc: cc84, reg_addr:    0, cycle:   1536
cc84 a2  0 ca LDX  IMM   A:96 X: 1 Y:69 P: 4 S:fb pc: cc86, reg_addr:    0, cycle:   1538
cc86 ca f0 23 DEX  IMPL  A:96 X: 0 Y:69 P: 6 S:fb pc: cc87, reg_addr:    0, cycle:   1540
cc87 f0 23 10 BEQ  REL   A:96 X:ff Y:69 P:84 S:fb pc: cc89, reg_addr: ccac, cycle:   1542
cc89 10 21 b0 BPL  REL   A:96 X:ff Y:69 P:84 S:fb pc: cc8b, reg_addr: ccac, cycle:   1544
cc8b b0 1f 70 BCS  REL   A:96 X:ff Y:69 P:84 S:fb pc: cc8d, reg_addr: ccac, cycle:   1546
cc8d 70 1d e0 BVS  REL   A:96 X:ff Y:69 P:84 S:fb pc: cc8f, reg_addr: ccac, cycle:   1548
cc8f e0 ff d0 CPX  IMM   A:96 X:ff Y:69 P:84 S:fb pc: cc91, reg_addr:   ff, cycle:   1550
cc91 d0 19 18 BNE  REL   A:96 X:ff Y:69 P: 7 S:fb pc: cc93, reg_addr: ccac, cycle:   1552
cc93 18 ca f0 CLC  IMPL  A:96 X:ff Y:69 P: 7 S:fb pc: cc94, reg_addr:    0, cycle:   1554
cc94 ca f0 15 DEX  IMPL  A:96 X:ff Y:69 P: 6 S:fb pc: cc95, reg_addr:    0, cycle:   1556
cc95 f0 15 10 BEQ  REL   A:96 X:fe Y:69 P:84 S:fb pc: cc97, reg_addr: ccac, cycle:   1558
cc97 10 13 b0 BPL  REL   A:96 X:fe Y:69 P:84 S:fb pc: cc99, reg_addr: ccac, cycle:   1560
cc99 b0 11 70 BCS  REL   A:96 X:fe Y:69 P:84 S:fb pc: cc9b, reg_addr: ccac, cycle:   1562
cc9b 70  f e0 BVS  REL   A:96 X:fe Y:69 P:84 S:fb pc: cc9d, reg_addr: ccac, cycle:   1564
cc9d e0 fe d0 CPX  IMM   A:96 X:fe Y:69 P:84 S:fb pc: cc9f, reg_addr:   fe, cycle:   1566
cc9f d0  b c9 BNE  REL   A:96 X:fe Y:69 P: 7 S:fb pc: cca1, reg_addr: ccac, cycle:   1568
cca1 c9 96 d0 CMP  IMM   A:96 X:fe Y:69 P: 7 S:fb pc: cca3, reg_addr:   96, cycle:   1570
cca3 d0  7 c0 BNE  REL   A:96 X:fe Y:69 P: 7 S:fb pc: cca5, reg_addr: ccac, cycle:   1572
cca5 c0 69 d0 CPY  IMM   A:96 X:fe Y:69 P: 7 S:fb pc: cca7, reg_addr:   69, cycle:   1574
cca7 d0  3 4c BNE  REL   A:96 X:fe Y:69 P: 7 S:fb pc: cca9, reg_addr: ccac, cycle:   1576
cca9 4c b0 cc JMP  ABS   A:96 X:fe Y:69 P: 7 S:fb pc: ccb0, reg_addr: ccb0, cycle:   1579
ccb0 ea a9 85 NOP  IMPL  A:96 X:fe Y:69 P: 7 S:fb pc: ccb1, reg_addr:    0, cycle:   1581
ccb1 a9 85 a2 LDA  IMM   A:96 X:fe Y:69 P: 7 S:fb pc: ccb3, reg_addr:   85, cycle:   1583
ccb3 a2 34 a0 LDX  IMM   A:85 X:fe Y:69 P:85 S:fb pc: ccb5, reg_addr:   34, cycle:   1585
ccb5 a0 99 18 LDY  IMM   A:85 X:34 Y:69 P: 5 S:fb pc: ccb7, reg_addr:   99, cycle:   1587
ccb7 18 24  1 CLC  IMPL  A:85 X:34 Y:99 P:85 S:fb pc: ccb8, reg_addr:    0, cycle:   1589
ccb8 24  1 a8 BIT  ZP    A:85 X:34 Y:99 P:84 S:fb pc: ccba, reg_addr:    1, cycle:   1592
ccba a8 f0 2e TAY  IMPL  A:85 X:34 Y:99 P:c4 S:fb pc: ccbb, reg_addr:    0, cycle:   1594
ccbb f0 2e b0 BEQ  REL   A:85 X:34 Y:85 P:c4 S:fb pc: ccbd, reg_addr: cceb, cycle:   1596
ccbd b0 2c 50 BCS  REL   A:85 X:34 Y:85 P:c4 S:fb pc: ccbf, reg_addr: cceb, cycle:   1598
ccbf 50 2a 10 BVC  REL   A:85 X:34 Y:85 P:c4 S:fb pc: ccc1, reg_addr: cceb, cycle:   1600
ccc1 10 28 c9 BPL  REL   A:85 X:34 Y:85 P:c4 S:fb pc: ccc3, reg_addr: cceb, cycle:   1602
ccc3 c9 85 d0 CMP  IMM   A:85 X:34 Y:85 P:c4 S:fb pc: ccc5, reg_addr:   85, cycle:   1604
ccc5 d0 24 e0 BNE  REL   A:85 X:34 Y:85 P:47 S:fb pc: ccc7, reg_addr: cceb, cycle:   1606
ccc7 e0 34 d0 CPX  IMM   A:85 X:34 Y:85 P:47 S:fb pc: ccc9, reg_addr:   34, cycle:   1608
ccc9 d0 20 c0 BNE  REL   A:85 X:34 Y:85 P:47 S:fb pc: cccb, reg_addr: cceb, cycle:   1610
cccb c0 85 d0 CPY  IMM   A:85 X:34 Y:85 P:47 S:fb pc: cccd, reg_addr:   85, cycle:   1612
cccd d0 1c a9 BNE  REL   A:85 X:34 Y:85 P:47 S:fb pc: cccf, reg_addr: cceb, cycle:   1614
cccf a9  0 38 LDA  IMM   A:85 X:34 Y:85 P:47 S:fb pc: ccd1, reg_addr:    0, cycle:   1616
ccd1 38 b8 a8 SEC  IMPL  A: 0 X:34 Y:85 P:47 S:fb pc: ccd2, reg_addr:    0, cycle:   1618
ccd2 b8 a8 d0 CLV  IMPL  A: 0 X:34 Y:85 P:47 S:fb pc: ccd3, reg_addr:    0, cycle:   1620
ccd3 a8 d0 15 TAY  IMPL  A: 0 X:34 Y:85 P: 7 S:fb pc: ccd4, reg_addr:    0, cycle:   1622
ccd4 d0 15 90 BNE  REL   A: 0 X:34 Y: 0 P: 7 S:fb pc: ccd6, reg_addr: cceb, cycle:   1624
ccd6 90 13 70 BCC  REL   A: 0 X:34 Y: 0 P: 7 S:fb pc: ccd8, reg_addr: cceb, cycle:   1626
ccd8 70 11 30 BVS  REL   A: 0 X:34 Y: 0 P: 7 S:fb pc: ccda, reg_addr: cceb, cycle:   1628
ccda 30  f c9 BMI  REL   A: 0 X:34 Y: 0 P: 7 S:fb pc: ccdc, reg_addr: cceb, cycle:   1630
ccdc c9  0 d0 CMP  IMM   A: 0 X:34 Y: 0 P: 7 S:fb pc: ccde, reg_addr:    0, cycle:   1632
ccde d0  b e0 BNE  REL   A: 0 X:34 Y: 0 P: 7 S:fb pc: cce0, reg_addr: cceb, cycle:   1634
cce0 e0 34 d0 CPX  IMM   A: 0 X:34 Y: 0 P: 7 S:fb pc: cce2, reg_addr:   34, cycle:   1636
cce2 d0  7 c0 BNE  REL   A: 0 X:34 Y: 0 P: 7 S:fb pc: cce4, reg_addr: cceb, cycle:   1638
cce4 c0  0 d0 CPY  IMM   A: 0 X:34 Y: 0 P: 7 S:fb pc: cce6, reg_addr:    0, cycle:   1640
cce6 d0  3 4c BNE  REL   A: 0 X:34 Y: 0 P: 7 S:fb pc: cce8, reg_addr: cceb, cycle:   1642
cce8 4c ef cc JMP  ABS   A: 0 X:34 Y: 0 P: 7 S:fb pc: ccef, reg_addr: ccef, cycle:   1645
ccef ea a9 85 NOP  IMPL  A: 0 X:34 Y: 0 P: 7 S:fb pc: ccf0, reg_addr:    0, cycle:   1647
ccf0 a9 85 a2 LDA  IMM   A: 0 X:34 Y: 0 P: 7 S:fb pc: ccf2, reg_addr:   85, cycle:   1649
ccf2 a2 34 a0 LDX  IMM   A:85 X:34 Y: 0 P:85 S:fb pc: ccf4, reg_addr:   34, cycle:   1651
ccf4 a0 99 18 LDY  IMM   A:85 X:34 Y: 0 P: 5 S:fb pc: ccf6, reg_addr:   99, cycle:   1653
ccf6 18 24  1 CLC  IMPL  A:85 X:34 Y:99 P:85 S:fb pc: ccf7, reg_addr:    0, cycle:   1655
ccf7 24  1 aa BIT  ZP    A:85 X:34 Y:99 P:84 S:fb pc: ccf9, reg_addr:    1, cycle:   1658
ccf9 aa f0 2e TAX  IMPL  A:85 X:34 Y:99 P:c4 S:fb pc: ccfa, reg_addr:    0, cycle:   1660
ccfa f0 2e b0 BEQ  REL   A:85 X:85 Y:99 P:c4 S:fb pc: ccfc, reg_addr: cd2a, cycle:   1662
ccfc b0 2c 50 BCS  REL   A:85 X:85 Y:99 P:c4 S:fb pc: ccfe, reg_addr: cd2a, cycle:   1664
ccfe 50 2a 10 BVC  REL   A:85 X:85 Y:99 P:c4 S:fb pc: cd00, reg_addr: cd2a, cycle:   1666
cd00 10 28 c9 BPL  REL   A:85 X:85 Y:99 P:c4 S:fb pc: cd02, reg_addr: cd2a, cycle:   1668
cd02 c9 85 d0 CMP  IMM   A:85 X:85 Y:99 P:c4 S:fb pc: cd04, reg_addr:   85, cycle:   1670
cd04 d0 24 e0 BNE  REL   A:85 X:85 Y:99 P:47 S:fb pc: cd06, reg_addr: cd2a, cycle:   1672
cd06 e0 85 d0 CPX  IMM   A:85 X:85 Y:99 P:47 S:fb pc: cd08, reg_addr:   85, cycle:   1674
cd08 d0 20 c0 BNE  REL   A:85 X:85 Y:99 P:47 S:fb pc: cd0a, reg_addr: cd2a, cycle:   1676
cd0a c0 99 d0 CPY  IMM   A:85 X:85 Y:99 P:47 S:fb pc: cd0c, reg_addr:   99, cycle:   1678
cd0c d0 1c a9 BNE  REL   A:85 X:85 Y:99 P:47 S:fb pc: cd0e, reg_addr: cd2a, cycle:   1680
cd0e a9  0 38 LDA  IMM   A:85 X:85 Y:99 P:47 S:fb pc: cd10, reg_addr:    0, cycle:   1682
cd10 38 b8 aa SEC  IMPL  A: 0 X:85 Y:99 P:47 S:fb pc: cd11, reg_addr:    0, cycle:   1684
cd11 b8 aa d0 CLV  IMPL  A: 0 X:85 Y:99 P:47 S:fb pc: cd12, reg_addr:    0, cycle:   1686
cd12 aa d0 15 TAX  IMPL  A: 0 X:85 Y:99 P: 7 S:fb pc: cd13, reg_addr:    0, cycle:   1688
cd13 d0 15 90 BNE  REL   A: 0 X: 0 Y:99 P: 7 S:fb pc: cd15, reg_addr: cd2a, cycle:   1690
cd15 90 13 70 BCC  REL   A: 0 X: 0 Y:99 P: 7 S:fb pc: cd17, reg_addr: cd2a, cycle:   1692
cd17 70 11 30 BVS  REL   A: 0 X: 0 Y:99 P: 7 S:fb pc: cd19, reg_addr: cd2a, cycle:   1694
cd19 30  f c9 BMI  REL   A: 0 X: 0 Y:99 P: 7 S:fb pc: cd1b, reg_addr: cd2a, cycle:   1696
cd1b c9  0 d0 CMP  IMM   A: 0 X: 0 Y:99 P: 7 S:fb pc: cd1d, reg_addr:    0, cycle:   1698
cd1d d0  b e0 BNE  REL   A: 0 X: 0 Y:99 P: 7 S:fb pc: cd1f, reg_addr: cd2a, cycle:   1700
cd1f e0  0 d0 CPX  IMM   A: 0 X: 0 Y:99 P: 7 S:fb pc: cd21, reg_addr:    0, cycle:   1702
cd21 d0  7 c0 BNE  REL   A: 0 X: 0 Y:99 P: 7 S:fb pc: cd23, reg_addr: cd2a, cycle:   1704
cd23 c0 99 d0 CPY  IMM   A: 0 X: 0 Y:99 P: 7 S:fb pc: cd25, reg_addr:   99, cycle:   1706
cd25 d0  3 4c BNE  REL   A: 0 X: 0 Y:99 P: 7 S:fb pc: cd27, reg_addr: cd2a, cycle:   1708
cd27 4c 2e cd JMP  ABS   A: 0 X: 0 Y:99 P: 7 S:fb pc: cd2e, reg_addr: cd2e, cycle:   1711
cd2e ea a9 85 NOP  IMPL  A: 0 X: 0 Y:99 P: 7 S:fb pc: cd2f, reg_addr:    0, cycle:   1713
cd2f a9 85 a2 LDA  IMM   A: 0 X: 0 Y:99 P: 7 S:fb pc: cd31, reg_addr:   85, cycle:   1715
cd31 a2 34 a0 LDX  IMM   A:85 X: 0 Y:99 P:85 S:fb pc: cd33, reg_addr:   34, cycle:   1717
cd33 a0 99 18 LDY  IMM   A:85 X:34 Y:99 P: 5 S:fb pc: cd35, reg_addr:   99, cycle:   1719
cd35 18 24  1 CLC  IMPL  A:85 X:34 Y:99 P:85 S:fb pc: cd36, reg_addr:    0, cycle:   1721
cd36 24  1 98 BIT  ZP    A:85 X:34 Y:99 P:84 S:fb pc: cd38, reg_addr:    1, cycle:   1724
cd38 98 f0 2e TYA  IMPL  A:85 X:34 Y:99 P:c4 S:fb pc: cd39, reg_addr:    0, cycle:   1726
cd39 f0 2e b0 BEQ  REL   A:99 X:34 Y:99 P:c4 S:fb pc: cd3b, reg_addr: cd69, cycle:   1728
cd3b b0 2c 50 BCS  REL   A:99 X:34 Y:99 P:c4 S:fb pc: cd3d, reg_addr: cd69, cycle:   1730
cd3d 50 2a 10 BVC  REL   A:99 X:34 Y:99 P:c4 S:fb pc: cd3f, reg_addr: cd69, cycle:   1732
cd3f 10 28 c9 BPL  REL   A:99 X:34 Y:99 P:c4 S:fb pc: cd41, reg_addr: cd69, cycle:   1734
cd41 c9 99 d0 CMP  IMM   A:99 X:34 Y:99 P:c4 S:fb pc: cd43, reg_addr:   99, cycle:   1736
cd43 d0 24 e0 BNE  REL   A:99 X:34 Y:99 P:47 S:fb pc: cd45, reg_addr: cd69, cycle:   1738
cd45 e0 34 d0 CPX  IMM   A:99 X:34 Y:99 P:47 S:fb pc: cd47, reg_addr:   34, cycle:   1740
cd47 d0 20 c0 BNE  REL   A:99 X:34 Y:99 P:47 S:fb pc: cd49, reg_addr: cd69, cycle:   1742
cd49 c0 99 d0 CPY  IMM   A:99 X:34 Y:99 P:47 S:fb pc: cd4b, reg_addr:   99, cycle:   1744
cd4b d0 1c a0 BNE  REL   A:99 X:34 Y:99 P:47 S:fb pc: cd4d, reg_addr: cd69, cycle:   1746
cd4d a0  0 38 LDY  IMM   A:99 X:34 Y:99 P:47 S:fb pc: cd4f, reg_addr:    0, cycle:   1748
cd4f 38 b8 98 SEC  IMPL  A:99 X:34 Y: 0 P:47 S:fb pc: cd50, reg_addr:    0, cycle:   1750
cd50 b8 98 d0 CLV  IMPL  A:99 X:34 Y: 0 P:47 S:fb pc: cd51, reg_addr:    0, cycle:   1752
cd51 98 d0 15 TYA  IMPL  A:99 X:34 Y: 0 P: 7 S:fb pc: cd52, reg_addr:    0, cycle:   1754
cd52 d0 15 90 BNE  REL   A: 0 X:34 Y: 0 P: 7 S:fb pc: cd54, reg_addr: cd69, cycle:   1756
cd54 90 13 70 BCC  REL   A: 0 X:34 Y: 0 P: 7 S:fb pc: cd56, reg_addr: cd69, cycle:   1758
cd56 70 11 30 BVS  REL   A: 0 X:34 Y: 0 P: 7 S:fb pc: cd58, reg_addr: cd69, cycle:   1760
cd58 30  f c9 BMI  REL   A: 0 X:34 Y: 0 P: 7 S:fb pc: cd5a, reg_addr: cd69, cycle:   1762
cd5a c9  0 d0 CMP  IMM   A: 0 X:34 Y: 0 P: 7 S:fb pc: cd5c, reg_addr:    0, cycle:   1764
cd5c d0  b e0 BNE  REL   A: 0 X:34 Y: 0 P: 7 S:fb pc: cd5e, reg_addr: cd69, cycle:   1766
cd5e e0 34 d0 CPX  IMM   A: 0 X:34 Y: 0 P: 7 S:fb pc: cd60, reg_addr:   34, cycle:   1768
cd60 d0  7 c0 BNE  REL   A: 0 X:34 Y: 0 P: 7 S:fb pc: cd62, reg_addr: cd69, cycle:   1770
cd62 c0  0 d0 CPY  IMM   A: 0 X:34 Y: 0 P: 7 S:fb pc: cd64, reg_addr:    0, cycle:   1772
cd64 d0  3 4c BNE  REL   A: 0 X:34 Y: 0 P: 7 S:fb pc: cd66, reg_addr: cd69, cycle:   1774
cd66 4c 6d cd JMP  ABS   A: 0 X:34 Y: 0 P: 7 S:fb pc: cd6d, reg_addr: cd6d, cycle:   1777
cd6d ea a9 85 NOP  IMPL  A: 0 X:34 Y: 0 P: 7 S:fb pc: cd6e, reg_addr:    0, cycle:   1779
cd6e a9 85 a2 LDA  IMM   A: 0 X:34 Y: 0 P: 7 S:fb pc: cd70, reg_addr:   85, cycle:   1781
cd70 a2 34 a0 LDX  IMM   A:85 X:34 Y: 0 P:85 S:fb pc: cd72, reg_addr:   34, cycle:   1783
cd72 a0 99 18 LDY  IMM   A:85 X:34 Y: 0 P: 5 S:fb pc: cd74, reg_addr:   99, cycle:   1785
cd74 18 24  1 CLC  IMPL  A:85 X:34 Y:99 P:85 S:fb pc: cd75, reg_addr:    0, cycle:   1787
cd75 24  1 8a BIT  ZP    A:85 X:34 Y:99 P:84 S:fb pc: cd77, reg_addr:    1, cycle:   1790
cd77 8a f0 2e TXA  IMPL  A:85 X:34 Y:99 P:c4 S:fb pc: cd78, reg_addr:    0, cycle:   1792
cd78 f0 2e b0 BEQ  REL   A:34 X:34 Y:99 P:44 S:fb pc: cd7a, reg_addr: cda8, cycle:   1794
cd7a b0 2c 50 BCS  REL   A:34 X:34 Y:99 P:44 S:fb pc: cd7c, reg_addr: cda8, cycle:   1796
cd7c 50 2a 30 BVC  REL   A:34 X:34 Y:99 P:44 S:fb pc: cd7e, reg_addr: cda8, cycle:   1798
cd7e 30 28 c9 BMI  REL   A:34 X:34 Y:99 P:44 S:fb pc: cd80, reg_addr: cda8, cycle:   1800
cd80 c9 34 d0 CMP  IMM   A:34 X:34 Y:99 P:44 S:fb pc: cd82, reg_addr:   34, cycle:   1802
cd82 d0 24 e0 BNE  REL   A:34 X:34 Y:99 P:47 S:fb pc: cd84, reg_addr: cda8, cycle:   1804
cd84 e0 34 d0 CPX  IMM   A:34 X:34 Y:99 P:47 S:fb pc: cd86, reg_addr:   34, cycle:   1806
cd86 d0 20 c0 BNE  REL   A:34 X:34 Y:99 P:47 S:fb pc: cd88, reg_addr: cda8, cycle:   1808
cd88 c0 99 d0 CPY  IMM   A:34 X:34 Y:99 P:47 S:fb pc: cd8a, reg_addr:   99, cycle:   1810
cd8a d0 1c a2 BNE  REL   A:34 X:34 Y:99 P:47 S:fb pc: cd8c, reg_addr: cda8, cycle:   1812
cd8c a2  0 38 LDX  IMM   A:34 X:34 Y:99 P:47 S:fb pc: cd8e, reg_addr:    0, cycle:   1814
cd8e 38 b8 8a SEC  IMPL  A:34 X: 0 Y:99 P:47 S:fb pc: cd8f, reg_addr:    0, cycle:   1816
cd8f b8 8a d0 CLV  IMPL  A:34 X: 0 Y:99 P:47 S:fb pc: cd90, reg_addr:    0, cycle:   1818
cd90 8a d0 15 TXA  IMPL  A:34 X: 0 Y:99 P: 7 S:fb pc: cd91, reg_addr:    0, cycle:   1820
cd91 d0 15 90 BNE  REL   A: 0 X: 0 Y:99 P: 7 S:fb pc: cd93, reg_addr: cda8, cycle:   1822
cd93 90 13 70 BCC  REL   A: 0 X: 0 Y:99 P: 7 S:fb pc: cd95, reg_addr: cda8, cycle:   1824
cd95 70 11 30 BVS  REL   A: 0 X: 0 Y:99 P: 7 S:fb pc: cd97, reg_addr: cda8, cycle:   1826
cd97 30  f c9 BMI  REL   A: 0 X: 0 Y:99 P: 7 S:fb pc: cd99, reg_addr: cda8, cycle:   1828
cd99 c9  0 d0 CMP  IMM   A: 0 X: 0 Y:99 P: 7 S:fb pc: cd9b, reg_addr:    0, cycle:   1830
cd9b d0  b e0 BNE  REL   A: 0 X: 0 Y:99 P: 7 S:fb pc: cd9d, reg_addr: cda8, cycle:   1832
cd9d e0  0 d0 CPX  IMM   A: 0 X: 0 Y:99 P: 7 S:fb pc: cd9f, reg_addr:    0, cycle:   1834
cd9f d0  7 c0 BNE  REL   A: 0 X: 0 Y:99 P: 7 S:fb pc: cda1, reg_addr: cda8, cycle:   1836
cda1 c0 99 d0 CPY  IMM   A: 0 X: 0 Y:99 P: 7 S:fb pc: cda3, reg_addr:   99, cycle:   1838
cda3 d0  3 4c BNE  REL   A: 0 X: 0 Y:99 P: 7 S:fb pc: cda5, reg_addr: cda8, cycle:   1840
cda5 4c ac cd JMP  ABS   A: 0 X: 0 Y:99 P: 7 S:fb pc: cdac, reg_addr: cdac, cycle:   1843
cdac ea ba 8e NOP  IMPL  A: 0 X: 0 Y:99 P: 7 S:fb pc: cdad, reg_addr:    0, cycle:   1845
cdad ba 8e ff TSX  IMPL  A: 0 X: 0 Y:99 P: 7 S:fb pc: cdae, reg_addr:    0, cycle:   1847
cdae 8e ff  7 STX  ABS   A: 0 X:fb Y:99 P:85 S:fb pc: cdb1, reg_addr:  7ff, cycle:   1851
cdb1 a0 33 a2 LDY  IMM   A: 0 X:fb Y:99 P:85 S:fb pc: cdb3, reg_addr:   33, cycle:   1853
cdb3 a2 69 a9 LDX  IMM   A: 0 X:fb Y:33 P: 5 S:fb pc: cdb5, reg_addr:   69, cycle:   1855
cdb5 a9 84 18 LDA  IMM   A: 0 X:69 Y:33 P: 5 S:fb pc: cdb7, reg_addr:   84, cycle:   1857
cdb7 18 24  1 CLC  IMPL  A:84 X:69 Y:33 P:85 S:fb pc: cdb8, reg_addr:    0, cycle:   1859
cdb8 24  1 9a BIT  ZP    A:84 X:69 Y:33 P:84 S:fb pc: cdba, reg_addr:    1, cycle:   1862
cdba 9a f0 32 TXS  IMPL  A:84 X:69 Y:33 P:c4 S:fb pc: cdbb, reg_addr:    0, cycle:   1864
cdbb f0 32 10 BEQ  REL   A:84 X:69 Y:33 P:c4 S:69 pc: cdbd, reg_addr: cdef, cycle:   1866
cdbd 10 30 b0 BPL  REL   A:84 X:69 Y:33 P:c4 S:69 pc: cdbf, reg_addr: cdef, cycle:   1868
cdbf b0 2e 50 BCS  REL   A:84 X:69 Y:33 P:c4 S:69 pc: cdc1, reg_addr: cdef, cycle:   1870
cdc1 50 2c c9 BVC  REL   A:84 X:69 Y:33 P:c4 S:69 pc: cdc3, reg_addr: cdef, cycle:   1872
cdc3 c9 84 d0 CMP  IMM   A:84 X:69 Y:33 P:c4 S:69 pc: cdc5, reg_addr:   84, cycle:   1874
cdc5 d0 28 e0 BNE  REL   A:84 X:69 Y:33 P:47 S:69 pc: cdc7, reg_addr: cdef, cycle:   1876
cdc7 e0 69 d0 CPX  IMM   A:84 X:69 Y:33 P:47 S:69 pc: cdc9, reg_addr:   69, cycle:   1878
cdc9 d0 24 c0 BNE  REL   A:84 X:69 Y:33 P:47 S:69 pc: cdcb, reg_addr: cdef, cycle:   1880
cdcb c0 33 d0 CPY  IMM   A:84 X:69 Y:33 P:47 S:69 pc: cdcd, reg_addr:   33, cycle:   1882
cdcd d0 20 a0 BNE  REL   A:84 X:69 Y:33 P:47 S:69 pc: cdcf, reg_addr: cdef, cycle:   1884
cdcf a0  1 a9 LDY  IMM   A:84 X:69 Y:33 P:47 S:69 pc: cdd1, reg_addr:    1, cycle:   1886
cdd1 a9  4 38 LDA  IMM   A:84 X:69 Y: 1 P:45 S:69 pc: cdd3, reg_addr:    4, cycle:   1888
cdd3 38 b8 a2 SEC  IMPL  A: 4 X:69 Y: 1 P:45 S:69 pc: cdd4, reg_addr:    0, cycle:   1890
cdd4 b8 a2  0 CLV  IMPL  A: 4 X:69 Y: 1 P:45 S:69 pc: cdd5, reg_addr:    0, cycle:   1892
cdd5 a2  0 ba LDX  IMM   A: 4 X:69 Y: 1 P: 5 S:69 pc: cdd7, reg_addr:    0, cycle:   1894
cdd7 ba f0 15 TSX  IMPL  A: 4 X: 0 Y: 1 P: 7 S:69 pc: cdd8, reg_addr:    0, cycle:   1896
cdd8 f0 15 30 BEQ  REL   A: 4 X:69 Y: 1 P: 5 S:69 pc: cdda, reg_addr: cdef, cycle:   1898
cdda 30 13 90 BMI  REL   A: 4 X:69 Y: 1 P: 5 S:69 pc: cddc, reg_addr: cdef, cycle:   1900
cddc 90 11 70 BCC  REL   A: 4 X:69 Y: 1 P: 5 S:69 pc: cdde, reg_addr: cdef, cycle:   1902
cdde 70  f e0 BVS  REL   A: 4 X:69 Y: 1 P: 5 S:69 pc: cde0, reg_addr: cdef, cycle:   1904
cde0 e0 69 d0 CPX  IMM   A: 4 X:69 Y: 1 P: 5 S:69 pc: cde2, reg_addr:   69, cycle:   1906
cde2 d0  b c9 BNE  REL   A: 4 X:69 Y: 1 P: 7 S:69 pc: cde4, reg_addr: cdef, cycle:   1908
cde4 c9  4 d0 CMP  IMM   A: 4 X:69 Y: 1 P: 7 S:69 pc: cde6, reg_addr:    4, cycle:   1910
cde6 d0  7 c0 BNE  REL   A: 4 X:69 Y: 1 P: 7 S:69 pc: cde8, reg_addr: cdef, cycle:   1912
cde8 c0  1 d0 CPY  IMM   A: 4 X:69 Y: 1 P: 7 S:69 pc: cdea, reg_addr:    1, cycle:   1914
cdea d0  3 4c BNE  REL   A: 4 X:69 Y: 1 P: 7 S:69 pc: cdec, reg_addr: cdef, cycle:   1916
cdec 4c f3 cd JMP  ABS   A: 4 X:69 Y: 1 P: 7 S:69 pc: cdf3, reg_addr: cdf3, cycle:   1919
cdf3 ae ff  7 LDX  ABS   A: 4 X:69 Y: 1 P: 7 S:69 pc: cdf6, reg_addr:  7ff, cycle:   1923
cdf6 9a 60 a9 TXS  IMPL  A: 4 X:fb Y: 1 P:85 S:69 pc: cdf7, reg_addr:    0, cycle:   1925
cdf7 60 a9 ff RTS  IMPL  A: 4 X:fb Y: 1 P:85 S:fb pc: c609, reg_addr:    0, cycle:   1931
c609 20 f8 cd JSR  ABS   A: 4 X:fb Y: 1 P:85 S:fd pc: cdf8, reg_addr: cdf8, cycle:   1937
cdf8 a9 ff 85 LDA  IMM   A: 4 X:fb Y: 1 P:85 S:fb pc: cdfa, reg_addr:   ff, cycle:   1939
cdfa 85  1 ba STA  ZP    A:ff X:fb Y: 1 P:85 S:fb pc: cdfc, reg_addr:    1, cycle:   1942
cdfc ba 8e ff TSX  IMPL  A:ff X:fb Y: 1 P:85 S:fb pc: cdfd, reg_addr:    0, cycle:   1944
cdfd 8e ff  7 STX  ABS   A:ff X:fb Y: 1 P:85 S:fb pc: ce00, reg_addr:  7ff, cycle:   1948
ce00 ea a2 80 NOP  IMPL  A:ff X:fb Y: 1 P:85 S:fb pc: ce01, reg_addr:    0, cycle:   1950
ce01 a2 80 9a LDX  IMM   A:ff X:fb Y: 1 P:85 S:fb pc: ce03, reg_addr:   80, cycle:   1952
ce03 9a a9 33 TXS  IMPL  A:ff X:80 Y: 1 P:85 S:fb pc: ce04, reg_addr:    0, cycle:   1954
ce04 a9 33 48 LDA  IMM   A:ff X:80 Y: 1 P:85 S:80 pc: ce06, reg_addr:   33, cycle:   1956
ce06 48 a9 69 PHA  IMPL  A:33 X:80 Y: 1 P: 5 S:80 pc: ce07, reg_addr:    0, cycle:   1959
ce07 a9 69 48 LDA  IMM   A:33 X:80 Y: 1 P: 5 S:7f pc: ce09, reg_addr:   69, cycle:   1961
ce09 48 ba e0 PHA  IMPL  A:69 X:80 Y: 1 P: 5 S:7f pc: ce0a, reg_addr:    0, cycle:   1964
ce0a ba e0 7e TSX  IMPL  A:69 X:80 Y: 1 P: 5 S:7e pc: ce0b, reg_addr:    0, cycle:   1966
ce0b e0 7e d0 CPX  IMM   A:69 X:7e Y: 1 P: 5 S:7e pc: ce0d, reg_addr:   7e, cycle:   1968
ce0d d0 20 68 BNE  REL   A:69 X:7e Y: 1 P: 7 S:7e pc: ce0f, reg_addr: ce2f, cycle:   1970
ce0f 68 c9 69 PLA  IMPL  A:69 X:7e Y: 1 P: 7 S:7e pc: ce10, reg_addr:    0, cycle:   1974
ce10 c9 69 d0 CMP  IMM   A:69 X:7e Y: 1 P: 5 S:7f pc: ce12, reg_addr:   69, cycle:   1976
ce12 d0 1b 68 BNE  REL   A:69 X:7e Y: 1 P: 7 S:7f pc: ce14, reg_addr: ce2f, cycle:   1978
ce14 68 c9 33 PLA  IMPL  A:69 X:7e Y: 1 P: 7 S:7f pc: ce15, reg_addr:    0, cycle:   1982
ce15 c9 33 d0 CMP  IMM   A:33 X:7e Y: 1 P: 5 S:80 pc: ce17, reg_addr:   33, cycle:   1984
ce17 d0 16 ba BNE  REL   A:33 X:7e Y: 1 P: 7 S:80 pc: ce19, reg_addr: ce2f, cycle:   1986
ce19 ba e0 80 TSX  IMPL  A:33 X:7e Y: 1 P: 7 S:80 pc: ce1a, reg_addr:    0, cycle:   1988
ce1a e0 80 d0 CPX  IMM   A:33 X:80 Y: 1 P:85 S:80 pc: ce1c, reg_addr:   80, cycle:   1990
ce1c d0 11 ad BNE  REL   A:33 X:80 Y: 1 P: 7 S:80 pc: ce1e, reg_addr: ce2f, cycle:   1992
ce1e ad 80  1 LDA  ABS   A:33 X:80 Y: 1 P: 7 S:80 pc: ce21, reg_addr:  180, cycle:   1996
ce21 c9 33 d0 CMP  IMM   A:33 X:80 Y: 1 P: 5 S:80 pc: ce23, reg_addr:   33, cycle:   1998
ce23 d0  a ad BNE  REL   A:33 X:80 Y: 1 P: 7 S:80 pc: ce25, reg_addr: ce2f, cycle:   2000
ce25 ad 7f  1 LDA  ABS   A:33 X:80 Y: 1 P: 7 S:80 pc: ce28, reg_addr:  17f, cycle:   2004
ce28 c9 69 d0 CMP  IMM   A:69 X:80 Y: 1 P: 5 S:80 pc: ce2a, reg_addr:   69, cycle:   2006
ce2a d0  3 4c BNE  REL   A:69 X:80 Y: 1 P: 7 S:80 pc: ce2c, reg_addr: ce2f, cycle:   2008
ce2c 4c 33 ce JMP  ABS   A:69 X:80 Y: 1 P: 7 S:80 pc: ce33, reg_addr: ce33, cycle:   2011
ce33 ea a2 80 NOP  IMPL  A:69 X:80 Y: 1 P: 7 S:80 pc: ce34, reg_addr:    0, cycle:   2013
ce34 a2 80 9a LDX  IMM   A:69 X:80 Y: 1 P: 7 S:80 pc: ce36, reg_addr:   80, cycle:   2015
ce36 9a 20 3d TXS  IMPL  A:69 X:80 Y: 1 P:85 S:80 pc: ce37, reg_addr:    0, cycle:   2017
ce37 20 3d ce JSR  ABS   A:69 X:80 Y: 1 P:85 S:80 pc: ce3d, reg_addr: ce3d, cycle:   2023
ce3d ba e0 7e TSX  IMPL  A:69 X:80 Y: 1 P:85 S:7e pc: ce3e, reg_addr:    0, cycle:   2025
ce3e e0 7e d0 CPX  IMM   A:69 X:7e Y: 1 P: 5 S:7e pc: ce40, reg_addr:   7e, cycle:   2027
ce40 d0 19 68 BNE  REL   A:69 X:7e Y: 1 P: 7 S:7e pc: ce42, reg_addr: ce5b, cycle:   2029
ce42 68 68 ba PLA  IMPL  A:69 X:7e Y: 1 P: 7 S:7e pc: ce43, reg_addr:    0, cycle:   2033
ce43 68 ba e0 PLA  IMPL  A:39 X:7e Y: 1 P: 5 S:7f pc: ce44, reg_addr:    0, cycle:   2037
ce44 ba e0 80 TSX  IMPL  A:ce X:7e Y: 1 P:85 S:80 pc: ce45, reg_addr:    0, cycle:   2039
ce45 e0 80 d0 CPX  IMM   A:ce X:80 Y: 1 P:85 S:80 pc: ce47, reg_addr:   80, cycle:   2041
ce47 d0 12 a9 BNE  REL   A:ce X:80 Y: 1 P: 7 S:80 pc: ce49, reg_addr: ce5b, cycle:   2043
ce49 a9  0 20 LDA  IMM   A:ce X:80 Y: 1 P: 7 S:80 pc: ce4b, reg_addr:    0, cycle:   2045
ce4b 20 4e ce JSR  ABS   A: 0 X:80 Y: 1 P: 7 S:80 pc: ce4e, reg_addr: ce4e, cycle:   2051
ce4e 68 c9 4d PLA  IMPL  A: 0 X:80 Y: 1 P: 7 S:7e pc: ce4f, reg_addr:    0, cycle:   2055
ce4f c9 4d d0 CMP  IMM   A:4d X:80 Y: 1 P: 5 S:7f pc: ce51, reg_addr:   4d, cycle:   2057
ce51 d0  8 68 BNE  REL   A:4d X:80 Y: 1 P: 7 S:7f pc: ce53, reg_addr: ce5b, cycle:   2059
ce53 68 c9 ce PLA  IMPL  A:4d X:80 Y: 1 P: 7 S:7f pc: ce54, reg_addr:    0, cycle:   2063
ce54 c9 ce d0 CMP  IMM   A:ce X:80 Y: 1 P:85 S:80 pc: ce56, reg_addr:   ce, cycle:   2065
ce56 d0  3 4c BNE  REL   A:ce X:80 Y: 1 P: 7 S:80 pc: ce58, reg_addr: ce5b, cycle:   2067
ce58 4c 5f ce JMP  ABS   A:ce X:80 Y: 1 P: 7 S:80 pc: ce5f, reg_addr: ce5f, cycle:   2070
ce5f ea a9 ce NOP  IMPL  A:ce X:80 Y: 1 P: 7 S:80 pc: ce60, reg_addr:    0, cycle:   2072
ce60 a9 ce 48 LDA  IMM   A:ce X:80 Y: 1 P: 7 S:80 pc: ce62, reg_addr:   ce, cycle:   2074
ce62 48 a9 66 PHA  IMPL  A:ce X:80 Y: 1 P:85 S:80 pc: ce63, reg_addr:    0, cycle:   2077
ce63 a9 66 48 LDA  IMM   A:ce X:80 Y: 1 P:85 S:7f pc: ce65, reg_addr:   66, cycle:   2079
ce65 48 60 a2 PHA  IMPL  A:66 X:80 Y: 1 P: 5 S:7f pc: ce66, reg_addr:    0, cycle:   2082
ce66 60 a2 77 RTS  IMPL  A:66 X:80 Y: 1 P: 5 S:7e pc: ce67, reg_addr:    0, cycle:   2088
ce67 a2 77 a0 LDX  IMM   A:66 X:80 Y: 1 P: 5 S:80 pc: ce69, reg_addr:   77, cycle:   2090
ce69 a0 69 18 LDY  IMM   A:66 X:77 Y: 1 P: 5 S:80 pc: ce6b, reg_addr:   69, cycle:   2092
ce6b 18 24  1 CLC  IMPL  A:66 X:77 Y:69 P: 5 S:80 pc: ce6c, reg_addr:    0, cycle:   2094
ce6c 24  1 a9 BIT  ZP    A:66 X:77 Y:69 P: 4 S:80 pc: ce6e, reg_addr:    1, cycle:   2097
ce6e a9 83 20 LDA  IMM   A:66 X:77 Y:69 P:c4 S:80 pc: ce70, reg_addr:   83, cycle:   2099
ce70 20 66 ce JSR  ABS   A:83 X:77 Y:69 P:c4 S:80 pc: ce66, reg_addr: ce66, cycle:   2105
ce66 60 a2 77 RTS  IMPL  A:83 X:77 Y:69 P:c4 S:7e pc: ce73, reg_addr:    0, cycle:   2111
ce73 f0 24 10 BEQ  REL   A:83 X:77 Y:69 P:c4 S:80 pc: ce75, reg_addr: ce99, cycle:   2113
ce75 10 22 b0 BPL  REL   A:83 X:77 Y:69 P:c4 S:80 pc: ce77, reg_addr: ce99, cycle:   2115
ce77 b0 20 50 BCS  REL   A:83 X:77 Y:69 P:c4 S:80 pc: ce79, reg_addr: ce99, cycle:   2117
ce79 50 1e c9 BVC  REL   A:83 X:77 Y:69 P:c4 S:80 pc: ce7b, reg_addr: ce99, cycle:   2119
ce7b c9 83 d0 CMP  IMM   A:83 X:77 Y:69 P:c4 S:80 pc: ce7d, reg_addr:   83, cycle:   2121
ce7d d0 1a c0 BNE  REL   A:83 X:77 Y:69 P:47 S:80 pc: ce7f, reg_addr: ce99, cycle:   2123
ce7f c0 69 d0 CPY  IMM   A:83 X:77 Y:69 P:47 S:80 pc: ce81, reg_addr:   69, cycle:   2125
ce81 d0 16 e0 BNE  REL   A:83 X:77 Y:69 P:47 S:80 pc: ce83, reg_addr: ce99, cycle:   2127
ce83 e0 77 d0 CPX  IMM   A:83 X:77 Y:69 P:47 S:80 pc: ce85, reg_addr:   77, cycle:   2129
ce85 d0 12 38 BNE  REL   A:83 X:77 Y:69 P:47 S:80 pc: ce87, reg_addr: ce99, cycle:   2131
ce87 38 b8 a9 SEC  IMPL  A:83 X:77 Y:69 P:47 S:80 pc: ce88, reg_addr:    0, cycle:   2133
ce88 b8 a9  0 CLV  IMPL  A:83 X:77 Y:69 P:47 S:80 pc: ce89, reg_addr:    0, cycle:   2135
ce89 a9  0 20 LDA  IMM   A:83 X:77 Y:69 P: 7 S:80 pc: ce8b, reg_addr:    0, cycle:   2137
ce8b 20 66 ce JSR  ABS   A: 0 X:77 Y:69 P: 7 S:80 pc: ce66, reg_addr: ce66, cycle:   2143
ce66 60 a2 77 RTS  IMPL  A: 0 X:77 Y:69 P: 7 S:7e pc: ce8e, reg_addr:    0, cycle:   2149
ce8e d0  9 30 BNE  REL   A: 0 X:77 Y:69 P: 7 S:80 pc: ce90, reg_addr: ce99, cycle:   2151
ce90 30  7 90 BMI  REL   A: 0 X:77 Y:69 P: 7 S:80 pc: ce92, reg_addr: ce99, cycle:   2153
ce92 90  5 70 BCC  REL   A: 0 X:77 Y:69 P: 7 S:80 pc: ce94, reg_addr: ce99, cycle:   2155
ce94 70  3 4c BVS  REL   A: 0 X:77 Y:69 P: 7 S:80 pc: ce96, reg_addr: ce99, cycle:   2157
ce96 4c 9d ce JMP  ABS   A: 0 X:77 Y:69 P: 7 S:80 pc: ce9d, reg_addr: ce9d, cycle:   2160
ce9d ea a9 ce NOP  IMPL  A: 0 X:77 Y:69 P: 7 S:80 pc: ce9e, reg_addr:    0, cycle:   2162
ce9e a9 ce 48 LDA  IMM   A: 0 X:77 Y:69 P: 7 S:80 pc: cea0, reg_addr:   ce, cycle:   2164
cea0 48 a9 ae PHA  IMPL  A:ce X:77 Y:69 P:85 S:80 pc: cea1, reg_addr:    0, cycle:   2167
cea1 a9 ae 48 LDA  IMM   A:ce X:77 Y:69 P:85 S:7f pc: cea3, reg_addr:   ae, cycle:   2169
cea3 48 a9 65 PHA  IMPL  A:ae X:77 Y:69 P:85 S:7f pc: cea4, reg_addr:    0, cycle:   2172
cea4 a9 65 48 LDA  IMM   A:ae X:77 Y:69 P:85 S:7e pc: cea6, reg_addr:   65, cycle:   2174
cea6 48 a9 55 PHA  IMPL  A:65 X:77 Y:69 P: 5 S:7e pc: cea7, reg_addr:    0, cycle:   2177
cea7 a9 55 a0 LDA  IMM   A:65 X:77 Y:69 P: 5 S:7d pc: cea9, reg_addr:   55, cycle:   2179
cea9 a0 88 a2 LDY  IMM   A:55 X:77 Y:69 P: 5 S:7d pc: ceab, reg_addr:   88, cycle:   2181
ceab a2 99 40 LDX  IMM   A:55 X:77 Y:88 P:85 S:7d pc: cead, reg_addr:   99, cycle:   2183
cead 40 30 35 RTI  IMPL  A:55 X:99 Y:88 P:85 S:7d pc: ceae, reg_addr:    0, cycle:   2189
ceae 30 35 50 BMI  REL   A:55 X:99 Y:88 P:65 S:80 pc: ceb0, reg_addr: cee5, cycle:   2191
ceb0 50 33 f0 BVC  REL   A:55 X:99 Y:88 P:65 S:80 pc: ceb2, reg_addr: cee5, cycle:   2193
ceb2 f0 31 90 BEQ  REL   A:55 X:99 Y:88 P:65 S:80 pc: ceb4, reg_addr: cee5, cycle:   2195
ceb4 90 2f c9 BCC  REL   A:55 X:99 Y:88 P:65 S:80 pc: ceb6, reg_addr: cee5, cycle:   2197
ceb6 c9 55 d0 CMP  IMM   A:55 X:99 Y:88 P:65 S:80 pc: ceb8, reg_addr:   55, cycle:   2199
ceb8 d0 2b c0 BNE  REL   A:55 X:99 Y:88 P:67 S:80 pc: ceba, reg_addr: cee5, cycle:   2201
ceba c0 88 d0 CPY  IMM   A:55 X:99 Y:88 P:67 S:80 pc: cebc, reg_addr:   88, cycle:   2203
cebc d0 27 e0 BNE  REL   A:55 X:99 Y:88 P:67 S:80 pc: cebe, reg_addr: cee5, cycle:   2205
cebe e0 99 d0 CPX  IMM   A:55 X:99 Y:88 P:67 S:80 pc: cec0, reg_addr:   99, cycle:   2207
cec0 d0 23 a9 BNE  REL   A:55 X:99 Y:88 P:67 S:80 pc: cec2, reg_addr: cee5, cycle:   2209
cec2 a9 ce 48 LDA  IMM   A:55 X:99 Y:88 P:67 S:80 pc: cec4, reg_addr:   ce, cycle:   2211
cec4 48 a9 ce PHA  IMPL  A:ce X:99 Y:88 P:e5 S:80 pc: cec5, reg_addr:    0, cycle:   2214
cec5 a9 ce 48 LDA  IMM   A:ce X:99 Y:88 P:e5 S:7f pc: cec7, reg_addr:   ce, cycle:   2216
cec7 48 a9 87 PHA  IMPL  A:ce X:99 Y:88 P:e5 S:7f pc: cec8, reg_addr:    0, cycle:   2219
cec8 a9 87 48 LDA  IMM   A:ce X:99 Y:88 P:e5 S:7e pc: ceca, reg_addr:   87, cycle:   2221
ceca 48 a9 55 PHA  IMPL  A:87 X:99 Y:88 P:e5 S:7e pc: cecb, reg_addr:    0, cycle:   2224
cecb a9 55 40 LDA  IMM   A:87 X:99 Y:88 P:e5 S:7d pc: cecd, reg_addr:   55, cycle:   2226
cecd 40 10 15 RTI  IMPL  A:55 X:99 Y:88 P:65 S:7d pc: cece, reg_addr:    0, cycle:   2232
cece 10 15 70 BPL  REL   A:55 X:99 Y:88 P:87 S:80 pc: ced0, reg_addr: cee5, cycle:   2234
ced0 70 13 d0 BVS  REL   A:55 X:99 Y:88 P:87 S:80 pc: ced2, reg_addr: cee5, cycle:   2236
ced2 d0 11 90 BNE  REL   A:55 X:99 Y:88 P:87 S:80 pc: ced4, reg_addr: cee5, cycle:   2238
ced4 90  f c9 BCC  REL   A:55 X:99 Y:88 P:87 S:80 pc: ced6, reg_addr: cee5, cycle:   2240
ced6 c9 55 d0 CMP  IMM   A:55 X:99 Y:88 P:87 S:80 pc: ced8, reg_addr:   55, cycle:   2242
ced8 d0  b c0 BNE  REL   A:55 X:99 Y:88 P: 7 S:80 pc: ceda, reg_addr: cee5, cycle:   2244
ceda c0 88 d0 CPY  IMM   A:55 X:99 Y:88 P: 7 S:80 pc: cedc, reg_addr:   88, cycle:   2246
cedc d0  7 e0 BNE  REL   A:55 X:99 Y:88 P: 7 S:80 pc: cede, reg_addr: cee5, cycle:   2248
cede e0 99 d0 CPX  IMM   A:55 X:99 Y:88 P: 7 S:80 pc: cee0, reg_addr:   99, cycle:   2250
cee0 d0  3 4c BNE  REL   A:55 X:99 Y:88 P: 7 S:80 pc: cee2, reg_addr: cee5, cycle:   2252
cee2 4c e9 ce JMP  ABS   A:55 X:99 Y:88 P: 7 S:80 pc: cee9, reg_addr: cee9, cycle:   2255
cee9 ae ff  7 LDX  ABS   A:55 X:99 Y:88 P: 7 S:80 pc: ceec, reg_addr:  7ff, cycle:   2259
ceec 9a 60 a2 TXS  IMPL  A:55 X:fb Y:88 P:85 S:80 pc: ceed, reg_addr:    0, cycle:   2261
ceed 60 a2 55 RTS  IMPL  A:55 X:fb Y:88 P:85 S:fb pc: c60c, reg_addr:    0, cycle:   2267
c60c 20 ee ce JSR  ABS   A:55 X:fb Y:88 P:85 S:fd pc: ceee, reg_addr: ceee, cycle:   2273
ceee a2 55 a0 LDX  IMM   A:55 X:fb Y:88 P:85 S:fb pc: cef0, reg_addr:   55, cycle:   2275
cef0 a0 69 a9 LDY  IMM   A:55 X:55 Y:88 P: 5 S:fb pc: cef2, reg_addr:   69, cycle:   2277
cef2 a9 ff 85 LDA  IMM   A:55 X:55 Y:69 P: 5 S:fb pc: cef4, reg_addr:   ff, cycle:   2279
cef4 85  1 ea STA  ZP    A:ff X:55 Y:69 P:85 S:fb pc: cef6, reg_addr:    1, cycle:   2282
cef6 ea 24  1 NOP  IMPL  A:ff X:55 Y:69 P:85 S:fb pc: cef7, reg_addr:    0, cycle:   2284
cef7 24  1 38 BIT  ZP    A:ff X:55 Y:69 P:85 S:fb pc: cef9, reg_addr:    1, cycle:   2287
cef9 38 a9  1 SEC  IMPL  A:ff X:55 Y:69 P:c5 S:fb pc: cefa, reg_addr:    0, cycle:   2289
cefa a9  1 4a LDA  IMM   A:ff X:55 Y:69 P:c5 S:fb pc: cefc, reg_addr:    1, cycle:   2291
cefc 4a 90 1d LSR  ACC   A: 1 X:55 Y:69 P:45 S:fb pc: cefd, reg_addr:    1, cycle:   2293
cefd 90 1d d0 BCC  REL   A: 0 X:55 Y:69 P:47 S:fb pc: ceff, reg_addr: cf1c, cycle:   2295
ceff d0 1b 30 BNE  REL   A: 0 X:55 Y:69 P:47 S:fb pc: cf01, reg_addr: cf1c, cycle:   2297
cf01 30 19 50 BMI  REL   A: 0 X:55 Y:69 P:47 S:fb pc: cf03, reg_addr: cf1c, cycle:   2299
cf03 50 17 c9 BVC  REL   A: 0 X:55 Y:69 P:47 S:fb pc: cf05, reg_addr: cf1c, cycle:   2301
cf05 c9  0 d0 CMP  IMM   A: 0 X:55 Y:69 P:47 S:fb pc: cf07, reg_addr:    0, cycle:   2303
cf07 d0 13 b8 BNE  REL   A: 0 X:55 Y:69 P:47 S:fb pc: cf09, reg_addr: cf1c, cycle:   2305
cf09 b8 a9 aa CLV  IMPL  A: 0 X:55 Y:69 P:47 S:fb pc: cf0a, reg_addr:    0, cycle:   2307
cf0a a9 aa 4a LDA  IMM   A: 0 X:55 Y:69 P: 7 S:fb pc: cf0c, reg_addr:   aa, cycle:   2309
cf0c 4a b0  d LSR  ACC   A:aa X:55 Y:69 P:85 S:fb pc: cf0d, reg_addr:   aa, cycle:   2311
cf0d b0  d f0 BCS  REL   A:55 X:55 Y:69 P: 4 S:fb pc: cf0f, reg_addr: cf1c, cycle:   2313
cf0f f0  b 30 BEQ  REL   A:55 X:55 Y:69 P: 4 S:fb pc: cf11, reg_addr: cf1c, cycle:   2315
cf11 30  9 70 BMI  REL   A:55 X:55 Y:69 P: 4 S:fb pc: cf13, reg_addr: cf1c, cycle:   2317
cf13 70  7 c9 BVS  REL   A:55 X:55 Y:69 P: 4 S:fb pc: cf15, reg_addr: cf1c, cycle:   2319
cf15 c9 55 d0 CMP  IMM   A:55 X:55 Y:69 P: 4 S:fb pc: cf17, reg_addr:   55, cycle:   2321
cf17 d0  3 4c BNE  REL   A:55 X:55 Y:69 P: 7 S:fb pc: cf19, reg_addr: cf1c, cycle:   2323
cf19 4c 20 cf JMP  ABS   A:55 X:55 Y:69 P: 7 S:fb pc: cf20, reg_addr: cf20, cycle:   2326
cf20 ea 24  1 NOP  IMPL  A:55 X:55 Y:69 P: 7 S:fb pc: cf21, reg_addr:    0, cycle:   2328
cf21 24  1 38 BIT  ZP    A:55 X:55 Y:69 P: 7 S:fb pc: cf23, reg_addr:    1, cycle:   2331
cf23 38 a9 80 SEC  IMPL  A:55 X:55 Y:69 P:c5 S:fb pc: cf24, reg_addr:    0, cycle:   2333
cf24 a9 80  a LDA  IMM   A:55 X:55 Y:69 P:c5 S:fb pc: cf26, reg_addr:   80, cycle:   2335
cf26  a 90 1e ASL  ACC   A:80 X:55 Y:69 P:c5 S:fb pc: cf27, reg_addr:   80, cycle:   2337
cf27 90 1e d0 BCC  REL   A: 0 X:55 Y:69 P:47 S:fb pc: cf29, reg_addr: cf47, cycle:   2339
cf29 d0 1c 30 BNE  REL   A: 0 X:55 Y:69 P:47 S:fb pc: cf2b, reg_addr: cf47, cycle:   2341
cf2b 30 1a 50 BMI  REL   A: 0 X:55 Y:69 P:47 S:fb pc: cf2d, reg_addr: cf47, cycle:   2343
cf2d 50 18 c9 BVC  REL   A: 0 X:55 Y:69 P:47 S:fb pc: cf2f, reg_addr: cf47, cycle:   2345
cf2f c9  0 d0 CMP  IMM   A: 0 X:55 Y:69 P:47 S:fb pc: cf31, reg_addr:    0, cycle:   2347
cf31 d0 14 b8 BNE  REL   A: 0 X:55 Y:69 P:47 S:fb pc: cf33, reg_addr: cf47, cycle:   2349
cf33 b8 38 a9 CLV  IMPL  A: 0 X:55 Y:69 P:47 S:fb pc: cf34, reg_addr:    0, cycle:   2351
cf34 38 a9 55 SEC  IMPL  A: 0 X:55 Y:69 P: 7 S:fb pc: cf35, reg_addr:    0, cycle:   2353
cf35 a9 55  a LDA  IMM   A: 0 X:55 Y:69 P: 7 S:fb pc: cf37, reg_addr:   55, cycle:   2355
cf37  a b0  d ASL  ACC   A:55 X:55 Y:69 P: 5 S:fb pc: cf38, reg_addr:   55, cycle:   2357
cf38 b0  d f0 BCS  REL   A:aa X:55 Y:69 P:84 S:fb pc: cf3a, reg_addr: cf47, cycle:   2359
cf3a f0  b 10 BEQ  REL   A:aa X:55 Y:69 P:84 S:fb pc: cf3c, reg_addr: cf47, cycle:   2361
cf3c 10  9 70 BPL  REL   A:aa X:55 Y:69 P:84 S:fb pc: cf3e, reg_addr: cf47, cycle:   2363
cf3e 70  7 c9 BVS  REL   A:aa X:55 Y:69 P:84 S:fb pc: cf40, reg_addr: cf47, cycle:   2365
cf40 c9 aa d0 CMP  IMM   A:aa X:55 Y:69 P:84 S:fb pc: cf42, reg_addr:   aa, cycle:   2367
cf42 d0  3 4c BNE  REL   A:aa X:55 Y:69 P: 7 S:fb pc: cf44, reg_addr: cf47, cycle:   2369
cf44 4c 4b cf JMP  ABS   A:aa X:55 Y:69 P: 7 S:fb pc: cf4b, reg_addr: cf4b, cycle:   2372
cf4b ea 24  1 NOP  IMPL  A:aa X:55 Y:69 P: 7 S:fb pc: cf4c, reg_addr:    0, cycle:   2374
cf4c 24  1 38 BIT  ZP    A:aa X:55 Y:69 P: 7 S:fb pc: cf4e, reg_addr:    1, cycle:   2377
cf4e 38 a9  1 SEC  IMPL  A:aa X:55 Y:69 P:c5 S:fb pc: cf4f, reg_addr:    0, cycle:   2379
cf4f a9  1 6a LDA  IMM   A:aa X:55 Y:69 P:c5 S:fb pc: cf51, reg_addr:    1, cycle:   2381
cf51 6a 90 1e ROR  ACC   A: 1 X:55 Y:69 P:45 S:fb pc: cf52, reg_addr:    1, cycle:   2383
cf52 90 1e f0 BCC  REL   A:80 X:55 Y:69 P:c5 S:fb pc: cf54, reg_addr: cf72, cycle:   2385
cf54 f0 1c 10 BEQ  REL   A:80 X:55 Y:69 P:c5 S:fb pc: cf56, reg_addr: cf72, cycle:   2387
cf56 10 1a 50 BPL  REL   A:80 X:55 Y:69 P:c5 S:fb pc: cf58, reg_addr: cf72, cycle:   2389
cf58 50 18 c9 BVC  REL   A:80 X:55 Y:69 P:c5 S:fb pc: cf5a, reg_addr: cf72, cycle:   2391
cf5a c9 80 d0 CMP  IMM   A:80 X:55 Y:69 P:c5 S:fb pc: cf5c, reg_addr:   80, cycle:   2393
cf5c d0 14 b8 BNE  REL   A:80 X:55 Y:69 P:47 S:fb pc: cf5e, reg_addr: cf72, cycle:   2395
cf5e b8 18 a9 CLV  IMPL  A:80 X:55 Y:69 P:47 S:fb pc: cf5f, reg_addr:    0, cycle:   2397
cf5f 18 a9 55 CLC  IMPL  A:80 X:55 Y:69 P: 7 S:fb pc: cf60, reg_addr:    0, cycle:   2399
cf60 a9 55 6a LDA  IMM   A:80 X:55 Y:69 P: 6 S:fb pc: cf62, reg_addr:   55, cycle:   2401
cf62 6a 90  d ROR  ACC   A:55 X:55 Y:69 P: 4 S:fb pc: cf63, reg_addr:   55, cycle:   2403
cf63 90  d f0 BCC  REL   A:2a X:55 Y:69 P: 5 S:fb pc: cf65, reg_addr: cf72, cycle:   2405
cf65 f0  b 30 BEQ  REL   A:2a X:55 Y:69 P: 5 S:fb pc: cf67, reg_addr: cf72, cycle:   2407
cf67 30  9 70 BMI  REL   A:2a X:55 Y:69 P: 5 S:fb pc: cf69, reg_addr: cf72, cycle:   2409
cf69 70  7 c9 BVS  REL   A:2a X:55 Y:69 P: 5 S:fb pc: cf6b, reg_addr: cf72, cycle:   2411
cf6b c9 2a d0 CMP  IMM   A:2a X:55 Y:69 P: 5 S:fb pc: cf6d, reg_addr:   2a, cycle:   2413
cf6d d0  3 4c BNE  REL   A:2a X:55 Y:69 P: 7 S:fb pc: cf6f, reg_addr: cf72, cycle:   2415
cf6f 4c 76 cf JMP  ABS   A:2a X:55 Y:69 P: 7 S:fb pc: cf76, reg_addr: cf76, cycle:   2418
cf76 ea 24  1 NOP  IMPL  A:2a X:55 Y:69 P: 7 S:fb pc: cf77, reg_addr:    0, cycle:   2420
cf77 24  1 38 BIT  ZP    A:2a X:55 Y:69 P: 7 S:fb pc: cf79, reg_addr:    1, cycle:   2423
cf79 38 a9 80 SEC  IMPL  A:2a X:55 Y:69 P:c5 S:fb pc: cf7a, reg_addr:    0, cycle:   2425
cf7a a9 80 2a LDA  IMM   A:2a X:55 Y:69 P:c5 S:fb pc: cf7c, reg_addr:   80, cycle:   2427
cf7c 2a 90 1e ROL  ACC   A:80 X:55 Y:69 P:c5 S:fb pc: cf7d, reg_addr:   80, cycle:   2429
cf7d 90 1e f0 BCC  REL   A: 1 X:55 Y:69 P:45 S:fb pc: cf7f, reg_addr: cf9d, cycle:   2431
cf7f f0 1c 30 BEQ  REL   A: 1 X:55 Y:69 P:45 S:fb pc: cf81, reg_addr: cf9d, cycle:   2433
cf81 30 1a 50 BMI  REL   A: 1 X:55 Y:69 P:45 S:fb pc: cf83, reg_addr: cf9d, cycle:   2435
cf83 50 18 c9 BVC  REL   A: 1 X:55 Y:69 P:45 S:fb pc: cf85, reg_addr: cf9d, cycle:   2437
cf85 c9  1 d0 CMP  IMM   A: 1 X:55 Y:69 P:45 S:fb pc: cf87, reg_addr:    1, cycle:   2439
cf87 d0 14 b8 BNE  REL   A: 1 X:55 Y:69 P:47 S:fb pc: cf89, reg_addr: cf9d, cycle:   2441
cf89 b8 18 a9 CLV  IMPL  A: 1 X:55 Y:69 P:47 S:fb pc: cf8a, reg_addr:    0, cycle:   2443
cf8a 18 a9 55 CLC  IMPL  A: 1 X:55 Y:69 P: 7 S:fb pc: cf8b, reg_addr:    0, cycle:   2445
cf8b a9 55 2a LDA  IMM   A: 1 X:55 Y:69 P: 6 S:fb pc: cf8d, reg_addr:   55, cycle:   2447
cf8d 2a b0  d ROL  ACC   A:55 X:55 Y:69 P: 4 S:fb pc: cf8e, reg_addr:   55, cycle:   2449
cf8e b0  d f0 BCS  REL   A:aa X:55 Y:69 P:84 S:fb pc: cf90, reg_addr: cf9d, cycle:   2451
cf90 f0  b 10 BEQ  REL   A:aa X:55 Y:69 P:84 S:fb pc: cf92, reg_addr: cf9d, cycle:   2453
cf92 10  9 70 BPL  REL   A:aa X:55 Y:69 P:84 S:fb pc: cf94, reg_addr: cf9d, cycle:   2455
cf94 70  7 c9 BVS  REL   A:aa X:55 Y:69 P:84 S:fb pc: cf96, reg_addr: cf9d, cycle:   2457
cf96 c9 aa d0 CMP  IMM   A:aa X:55 Y:69 P:84 S:fb pc: cf98, reg_addr:   aa, cycle:   2459
cf98 d0  3 4c BNE  REL   A:aa X:55 Y:69 P: 7 S:fb pc: cf9a, reg_addr: cf9d, cycle:   2461
cf9a 4c a1 cf JMP  ABS   A:aa X:55 Y:69 P: 7 S:fb pc: cfa1, reg_addr: cfa1, cycle:   2464
cfa1 60 a5  0 RTS  IMPL  A:aa X:55 Y:69 P: 7 S:fb pc: c60f, reg_addr:    0, cycle:   2470
c60f 20 a2 cf JSR  ABS   A:aa X:55 Y:69 P: 7 S:fd pc: cfa2, reg_addr: cfa2, cycle:   2476
cfa2 a5  0 8d LDA  ZP    A:aa X:55 Y:69 P: 7 S:fb pc: cfa4, reg_addr:    0, cycle:   2479
cfa4 8d ff  7 STA  ABS   A: 0 X:55 Y:69 P: 7 S:fb pc: cfa7, reg_addr:  7ff, cycle:   2483
cfa7 a9  0 85 LDA  IMM   A: 0 X:55 Y:69 P: 7 S:fb pc: cfa9, reg_addr:    0, cycle:   2485
cfa9 85 80 a9 STA  ZP    A: 0 X:55 Y:69 P: 7 S:fb pc: cfab, reg_addr:   80, cycle:   2488
cfab a9  2 85 LDA  IMM   A: 0 X:55 Y:69 P: 7 S:fb pc: cfad, reg_addr:    2, cycle:   2490
cfad 85 81 a9 STA  ZP    A: 2 X:55 Y:69 P: 5 S:fb pc: cfaf, reg_addr:   81, cycle:   2493
cfaf a9 ff 85 LDA  IMM   A: 2 X:55 Y:69 P: 5 S:fb pc: cfb1, reg_addr:   ff, cycle:   2495
cfb1 85  1 a9 STA  ZP    A:ff X:55 Y:69 P:85 S:fb pc: cfb3, reg_addr:    1, cycle:   2498
cfb3 a9  0 85 LDA  IMM   A:ff X:55 Y:69 P:85 S:fb pc: cfb5, reg_addr:    0, cycle:   2500
cfb5 85 82 a9 STA  ZP    A: 0 X:55 Y:69 P: 7 S:fb pc: cfb7, reg_addr:   82, cycle:   2503
cfb7 a9  3 85 LDA  IMM   A: 0 X:55 Y:69 P: 7 S:fb pc: cfb9, reg_addr:    3, cycle:   2505
cfb9 85 83 85 STA  ZP    A: 3 X:55 Y:69 P: 5 S:fb pc: cfbb, reg_addr:   83, cycle:   2508
cfbb 85 84 a9 STA  ZP    A: 3 X:55 Y:69 P: 5 S:fb pc: cfbd, reg_addr:   84, cycle:   2511
cfbd a9  0 85 LDA  IMM   A: 3 X:55 Y:69 P: 5 S:fb pc: cfbf, reg_addr:    0, cycle:   2513
cfbf 85 ff a9 STA  ZP    A: 0 X:55 Y:69 P: 7 S:fb pc: cfc1, reg_addr:   ff, cycle:   2516
cfc1 a9  4 85 LDA  IMM   A: 0 X:55 Y:69 P: 7 S:fb pc: cfc3, reg_addr:    4, cycle:   2518
cfc3 85  0 a9 STA  ZP    A: 4 X:55 Y:69 P: 5 S:fb pc: cfc5, reg_addr:    0, cycle:   2521
cfc5 a9 5a 8d LDA  IMM   A: 4 X:55 Y:69 P: 5 S:fb pc: cfc7, reg_addr:   5a, cycle:   2523
cfc7 8d  0  2 STA  ABS   A:5a X:55 Y:69 P: 5 S:fb pc: cfca, reg_addr:  200, cycle:   2527
cfca a9 5b 8d LDA  IMM   A:5a X:55 Y:69 P: 5 S:fb pc: cfcc, reg_addr:   5b, cycle:   2529
cfcc 8d  0  3 STA  ABS   A:5b X:55 Y:69 P: 5 S:fb pc: cfcf, reg_addr:  300, cycle:   2533
cfcf a9 5c 8d LDA  IMM   A:5b X:55 Y:69 P: 5 S:fb pc: cfd1, reg_addr:   5c, cycle:   2535
cfd1 8d  3  3 STA  ABS   A:5c X:55 Y:69 P: 5 S:fb pc: cfd4, reg_addr:  303, cycle:   2539
cfd4 a9 5d 8d LDA  IMM   A:5c X:55 Y:69 P: 5 S:fb pc: cfd6, reg_addr:   5d, cycle:   2541
cfd6 8d  0  4 STA  ABS   A:5d X:55 Y:69 P: 5 S:fb pc: cfd9, reg_addr:  400, cycle:   2545
cfd9 a2  0 a1 LDX  IMM   A:5d X:55 Y:69 P: 5 S:fb pc: cfdb, reg_addr:    0, cycle:   2547
cfdb a1 80 c9 LDA  INDX  A:5d X: 0 Y:69 P: 7 S:fb pc: cfdd, reg_addr:  200, cycle:   2553
cfdd c9 5a d0 CMP  IMM   A:5a X: 0 Y:69 P: 5 S:fb pc: cfdf, reg_addr:   5a, cycle:   2555
cfdf d0 1f e8 BNE  REL   A:5a X: 0 Y:69 P: 7 S:fb pc: cfe1, reg_addr: d000, cycle:   2557
cfe1 e8 e8 a1 INX  IMPL  A:5a X: 0 Y:69 P: 7 S:fb pc: cfe2, reg_addr:    0, cycle:   2559
cfe2 e8 a1 80 INX  IMPL  A:5a X: 1 Y:69 P: 5 S:fb pc: cfe3, reg_addr:    0, cycle:   2561
cfe3 a1 80 c9 LDA  INDX  A:5a X: 2 Y:69 P: 5 S:fb pc: cfe5, reg_addr:  300, cycle:   2567
cfe5 c9 5b d0 CMP  IMM   A:5b X: 2 Y:69 P: 5 S:fb pc: cfe7, reg_addr:   5b, cycle:   2569
cfe7 d0 17 e8 BNE  REL   A:5b X: 2 Y:69 P: 7 S:fb pc: cfe9, reg_addr: d000, cycle:   2571
cfe9 e8 a1 80 INX  IMPL  A:5b X: 2 Y:69 P: 7 S:fb pc: cfea, reg_addr:    0, cycle:   2573
cfea a1 80 c9 LDA  INDX  A:5b X: 3 Y:69 P: 5 S:fb pc: cfec, reg_addr:  303, cycle:   2579
cfec c9 5c d0 CMP  IMM   A:5c X: 3 Y:69 P: 5 S:fb pc: cfee, reg_addr:   5c, cycle:   2581
cfee d0 10 a2 BNE  REL   A:5c X: 3 Y:69 P: 7 S:fb pc: cff0, reg_addr: d000, cycle:   2583
cff0 a2  0 a1 LDX  IMM   A:5c X: 3 Y:69 P: 7 S:fb pc: cff2, reg_addr:    0, cycle:   2585
cff2 a1 ff c9 LDA  INDX  A:5c X: 0 Y:69 P: 7 S:fb pc: cff4, reg_addr:  400, cycle:   2591
cff4 c9 5d d0 CMP  IMM   A:5d X: 0 Y:69 P: 5 S:fb pc: cff6, reg_addr:   5d, cycle:   2593
cff6 d0  8 a2 BNE  REL   A:5d X: 0 Y:69 P: 7 S:fb pc: cff8, reg_addr: d000, cycle:   2595
cff8 a2 81 a1 LDX  IMM   A:5d X: 0 Y:69 P: 7 S:fb pc: cffa, reg_addr:   81, cycle:   2597
cffa a1 ff c9 LDA  INDX  A:5d X:81 Y:69 P:85 S:fb pc: cffc, reg_addr:  200, cycle:   2603
cffc c9 5a f0 CMP  IMM   A:5a X:81 Y:69 P: 5 S:fb pc: cffe, reg_addr:   5a, cycle:   2605
cffe f0  5 a9 BEQ  REL   A:5a X:81 Y:69 P: 7 S:fb pc: d005, reg_addr: d005, cycle:   2608
d005 a9 aa a2 LDA  IMM   A:5a X:81 Y:69 P: 7 S:fb pc: d007, reg_addr:   aa, cycle:   2610
d007 a2  0 81 LDX  IMM   A:aa X:81 Y:69 P:85 S:fb pc: d009, reg_addr:    0, cycle:   2612
d009 81 80 e8 STA  INDX  A:aa X: 0 Y:69 P: 7 S:fb pc: d00b, reg_addr:  200, cycle:   2618
d00b e8 e8 a9 INX  IMPL  A:aa X: 0 Y:69 P: 7 S:fb pc: d00c, reg_addr:    0, cycle:   2620
d00c e8 a9 ab INX  IMPL  A:aa X: 1 Y:69 P: 5 S:fb pc: d00d, reg_addr:    0, cycle:   2622
d00d a9 ab 81 LDA  IMM   A:aa X: 2 Y:69 P: 5 S:fb pc: d00f, reg_addr:   ab, cycle:   2624
d00f 81 80 e8 STA  INDX  A:ab X: 2 Y:69 P:85 S:fb pc: d011, reg_addr:  300, cycle:   2630
d011 e8 a9 ac INX  IMPL  A:ab X: 2 Y:69 P:85 S:fb pc: d012, reg_addr:    0, cycle:   2632
d012 a9 ac 81 LDA  IMM   A:ab X: 3 Y:69 P: 5 S:fb pc: d014, reg_addr:   ac, cycle:   2634
d014 81 80 a2 STA  INDX  A:ac X: 3 Y:69 P:85 S:fb pc: d016, reg_addr:  303, cycle:   2640
d016 a2  0 a9 LDX  IMM   A:ac X: 3 Y:69 P:85 S:fb pc: d018, reg_addr:    0, cycle:   2642
d018 a9 ad 81 LDA  IMM   A:ac X: 0 Y:69 P: 7 S:fb pc: d01a, reg_addr:   ad, cycle:   2644
d01a 81 ff ad STA  INDX  A:ad X: 0 Y:69 P:85 S:fb pc: d01c, reg_addr:  400, cycle:   2650
d01c ad  0  2 LDA  ABS   A:ad X: 0 Y:69 P:85 S:fb pc: d01f, reg_addr:  200, cycle:   2654
d01f c9 aa d0 CMP  IMM   A:aa X: 0 Y:69 P:85 S:fb pc: d021, reg_addr:   aa, cycle:   2656
d021 d0 15 ad BNE  REL   A:aa X: 0 Y:69 P: 7 S:fb pc: d023, reg_addr: d038, cycle:   2658
d023 ad  0  3 LDA  ABS   A:aa X: 0 Y:69 P: 7 S:fb pc: d026, reg_addr:  300, cycle:   2662
d026 c9 ab d0 CMP  IMM   A:ab X: 0 Y:69 P:85 S:fb pc: d028, reg_addr:   ab, cycle:   2664
d028 d0  e ad BNE  REL   A:ab X: 0 Y:69 P: 7 S:fb pc: d02a, reg_addr: d038, cycle:   2666
d02a ad  3  3 LDA  ABS   A:ab X: 0 Y:69 P: 7 S:fb pc: d02d, reg_addr:  303, cycle:   2670
d02d c9 ac d0 CMP  IMM   A:ac X: 0 Y:69 P:85 S:fb pc: d02f, reg_addr:   ac, cycle:   2672
d02f d0  7 ad BNE  REL   A:ac X: 0 Y:69 P: 7 S:fb pc: d031, reg_addr: d038, cycle:   2674
d031 ad  0  4 LDA  ABS   A:ac X: 0 Y:69 P: 7 S:fb pc: d034, reg_addr:  400, cycle:   2678
d034 c9 ad f0 CMP  IMM   A:ad X: 0 Y:69 P:85 S:fb pc: d036, reg_addr:   ad, cycle:   2680
d036 f0  5 a9 BEQ  REL   A:ad X: 0 Y:69 P: 7 S:fb pc: d03d, reg_addr: d03d, cycle:   2683
d03d ad ff  7 LDA  ABS   A:ad X: 0 Y:69 P: 7 S:fb pc: d040, reg_addr:  7ff, cycle:   2687
d040 85  0 a9 STA  ZP    A: 0 X: 0 Y:69 P: 7 S:fb pc: d042, reg_addr:    0, cycle:   2690
d042 a9  0 8d LDA  IMM   A: 0 X: 0 Y:69 P: 7 S:fb pc: d044, reg_addr:    0, cycle:   2692
d044 8d  0  3 STA  ABS   A: 0 X: 0 Y:69 P: 7 S:fb pc: d047, reg_addr:  300, cycle:   2696
d047 a9 aa 8d LDA  IMM   A: 0 X: 0 Y:69 P: 7 S:fb pc: d049, reg_addr:   aa, cycle:   2698
d049 8d  0  2 STA  ABS   A:aa X: 0 Y:69 P:85 S:fb pc: d04c, reg_addr:  200, cycle:   2702
d04c a2  0 a0 LDX  IMM   A:aa X: 0 Y:69 P:85 S:fb pc: d04e, reg_addr:    0, cycle:   2704
d04e a0 5a 20 LDY  IMM   A:aa X: 0 Y:69 P: 7 S:fb pc: d050, reg_addr:   5a, cycle:   2706
d050 20 b6 f7 JSR  ABS   A:aa X: 0 Y:5a P: 5 S:fb pc: f7b6, reg_addr: f7b6, cycle:   2712
f7b6 18 a9 ff CLC  IMPL  A:aa X: 0 Y:5a P: 5 S:f9 pc: f7b7, reg_addr:    0, cycle:   2714
f7b7 a9 ff 85 LDA  IMM   A:aa X: 0 Y:5a P: 4 S:f9 pc: f7b9, reg_addr:   ff, cycle:   2716
f7b9 85  1 24 STA  ZP    A:ff X: 0 Y:5a P:84 S:f9 pc: f7bb, reg_addr:    1, cycle:   2719
f7bb 24  1 a9 BIT  ZP    A:ff X: 0 Y:5a P:84 S:f9 pc: f7bd, reg_addr:    1, cycle:   2722
f7bd a9 55 60 LDA  IMM   A:ff X: 0 Y:5a P:c4 S:f9 pc: f7bf, reg_addr:   55, cycle:   2724
f7bf 60 b0  9 RTS  IMPL  A:55 X: 0 Y:5a P:44 S:f9 pc: d053, reg_addr:    0, cycle:   2730
d053  1 80 20 ORA  INDX  A:55 X: 0 Y:5a P:44 S:fb pc: d055, reg_addr:  200, cycle:   2736
d055 20 c0 f7 JSR  ABS   A:ff X: 0 Y:5a P:c4 S:fb pc: f7c0, reg_addr: f7c0, cycle:   2742
f7c0 b0  9 10 BCS  REL   A:ff X: 0 Y:5a P:c4 S:f9 pc: f7c2, reg_addr: f7cb, cycle:   2744
f7c2 10  7 c9 BPL  REL   A:ff X: 0 Y:5a P:c4 S:f9 pc: f7c4, reg_addr: f7cb, cycle:   2746
f7c4 c9 ff d0 CMP  IMM   A:ff X: 0 Y:5a P:c4 S:f9 pc: f7c6, reg_addr:   ff, cycle:   2748
f7c6 d0  3 50 BNE  REL   A:ff X: 0 Y:5a P:47 S:f9 pc: f7c8, reg_addr: f7cb, cycle:   2750
f7c8 50  1 60 BVC  REL   A:ff X: 0 Y:5a P:47 S:f9 pc: f7ca, reg_addr: f7cb, cycle:   2752
f7ca 60 84  0 RTS  IMPL  A:ff X: 0 Y:5a P:47 S:f9 pc: d058, reg_addr:    0, cycle:   2758
d058 c8 20 ce INY  IMPL  A:ff X: 0 Y:5a P:47 S:fb pc: d059, reg_addr:    0, cycle:   2760
d059 20 ce f7 JSR  ABS   A:ff X: 0 Y:5b P:45 S:fb pc: f7ce, reg_addr: f7ce, cycle:   2766
f7ce 38 b8 a9 SEC  IMPL  A:ff X: 0 Y:5b P:45 S:f9 pc: f7cf, reg_addr:    0, cycle:   2768
f7cf b8 a9  0 CLV  IMPL  A:ff X: 0 Y:5b P:45 S:f9 pc: f7d0, reg_addr:    0, cycle:   2770
f7d0 a9  0 60 LDA  IMM   A:ff X: 0 Y:5b P: 5 S:f9 pc: f7d2, reg_addr:    0, cycle:   2772
f7d2 60 d0  7 RTS  IMPL  A: 0 X: 0 Y:5b P: 7 S:f9 pc: d05c, reg_addr:    0, cycle:   2778
d05c  1 82 20 ORA  INDX  A: 0 X: 0 Y:5b P: 7 S:fb pc: d05e, reg_addr:  300, cycle:   2784
d05e 20 d3 f7 JSR  ABS   A: 0 X: 0 Y:5b P: 7 S:fb pc: f7d3, reg_addr: f7d3, cycle:   2790
f7d3 d0  7 70 BNE  REL   A: 0 X: 0 Y:5b P: 7 S:f9 pc: f7d5, reg_addr: f7dc, cycle:   2792
f7d5 70  5 90 BVS  REL   A: 0 X: 0 Y:5b P: 7 S:f9 pc: f7d7, reg_addr: f7dc, cycle:   2794
f7d7 90  3 30 BCC  REL   A: 0 X: 0 Y:5b P: 7 S:f9 pc: f7d9, reg_addr: f7dc, cycle:   2796
f7d9 30  1 60 BMI  REL   A: 0 X: 0 Y:5b P: 7 S:f9 pc: f7db, reg_addr: f7dc, cycle:   2798
f7db 60 84  0 RTS  IMPL  A: 0 X: 0 Y:5b P: 7 S:f9 pc: d061, reg_addr:    0, cycle:   2804
d061 c8 20 df INY  IMPL  A: 0 X: 0 Y:5b P: 7 S:fb pc: d062, reg_addr:    0, cycle:   2806
d062 20 df f7 JSR  ABS   A: 0 X: 0 Y:5c P: 5 S:fb pc: f7df, reg_addr: f7df, cycle:   2812
f7df 18 24  1 CLC  IMPL  A: 0 X: 0 Y:5c P: 5 S:f9 pc: f7e0, reg_addr:    0, cycle:   2814
f7e0 24  1 a9 BIT  ZP    A: 0 X: 0 Y:5c P: 4 S:f9 pc: f7e2, reg_addr:    1, cycle:   2817
f7e2 a9 55 60 LDA  IMM   A: 0 X: 0 Y:5c P:c6 S:f9 pc: f7e4, reg_addr:   55, cycle:   2819
f7e4 60 d0  7 RTS  IMPL  A:55 X: 0 Y:5c P:44 S:f9 pc: d065, reg_addr:    0, cycle:   2825
d065 21 80 20 AND  INDX  A:55 X: 0 Y:5c P:44 S:fb pc: d067, reg_addr:  200, cycle:   2831
d067 20 e5 f7 JSR  ABS   A: 0 X: 0 Y:5c P:46 S:fb pc: f7e5, reg_addr: f7e5, cycle:   2837
f7e5 d0  7 50 BNE  REL   A: 0 X: 0 Y:5c P:46 S:f9 pc: f7e7, reg_addr: f7ee, cycle:   2839
f7e7 50  5 b0 BVC  REL   A: 0 X: 0 Y:5c P:46 S:f9 pc: f7e9, reg_addr: f7ee, cycle:   2841
f7e9 b0  3 30 BCS  REL   A: 0 X: 0 Y:5c P:46 S:f9 pc: f7eb, reg_addr: f7ee, cycle:   2843
f7eb 30  1 60 BMI  REL   A: 0 X: 0 Y:5c P:46 S:f9 pc: f7ed, reg_addr: f7ee, cycle:   2845
f7ed 60 84  0 RTS  IMPL  A: 0 X: 0 Y:5c P:46 S:f9 pc: d06a, reg_addr:    0, cycle:   2851
d06a c8 a9 ef INY  IMPL  A: 0 X: 0 Y:5c P:46 S:fb pc: d06b, reg_addr:    0, cycle:   2853
d06b a9 ef 8d LDA  IMM   A: 0 X: 0 Y:5d P:44 S:fb pc: d06d, reg_addr:   ef, cycle:   2855
d06d 8d  0  3 STA  ABS   A:ef X: 0 Y:5d P:c4 S:fb pc: d070, reg_addr:  300, cycle:   2859
d070 20 f1 f7 JSR  ABS   A:ef X: 0 Y:5d P:c4 S:fb pc: f7f1, reg_addr: f7f1, cycle:   2865
f7f1 38 b8 a9 SEC  IMPL  A:ef X: 0 Y:5d P:c4 S:f9 pc: f7f2, reg_addr:    0, cycle:   2867
f7f2 b8 a9 f8 CLV  IMPL  A:ef X: 0 Y:5d P:c5 S:f9 pc: f7f3, reg_addr:    0, cycle:   2869
f7f3 a9 f8 60 LDA  IMM   A:ef X: 0 Y:5d P:85 S:f9 pc: f7f5, reg_addr:   f8, cycle:   2871
f7f5 60 90  9 RTS  IMPL  A:f8 X: 0 Y:5d P:85 S:f9 pc: d073, reg_addr:    0, cycle:   2877
d073 21 82 20 AND  INDX  A:f8 X: 0 Y:5d P:85 S:fb pc: d075, reg_addr:  300, cycle:   2883
d075 20 f6 f7 JSR  ABS   A:e8 X: 0 Y:5d P:85 S:fb pc: f7f6, reg_addr: f7f6, cycle:   2889
f7f6 90  9 10 BCC  REL   A:e8 X: 0 Y:5d P:85 S:f9 pc: f7f8, reg_addr: f801, cycle:   2891
f7f8 10  7 c9 BPL  REL   A:e8 X: 0 Y:5d P:85 S:f9 pc: f7fa, reg_addr: f801, cycle:   2893
f7fa c9 e8 d0 CMP  IMM   A:e8 X: 0 Y:5d P:85 S:f9 pc: f7fc, reg_addr:   e8, cycle:   2895
f7fc d0  3 70 BNE  REL   A:e8 X: 0 Y:5d P: 7 S:f9 pc: f7fe, reg_addr: f801, cycle:   2897
f7fe 70  1 60 BVS  REL   A:e8 X: 0 Y:5d P: 7 S:f9 pc: f800, reg_addr: f801, cycle:   2899
f800 60 84  0 RTS  IMPL  A:e8 X: 0 Y:5d P: 7 S:f9 pc: d078, reg_addr:    0, cycle:   2905
d078 c8 20  4 INY  IMPL  A:e8 X: 0 Y:5d P: 7 S:fb pc: d079, reg_addr:    0, cycle:   2907
d079 20  4 f8 JSR  ABS   A:e8 X: 0 Y:5e P: 5 S:fb pc: f804, reg_addr: f804, cycle:   2913
f804 18 24  1 CLC  IMPL  A:e8 X: 0 Y:5e P: 5 S:f9 pc: f805, reg_addr:    0, cycle:   2915
f805 24  1 a9 BIT  ZP    A:e8 X: 0 Y:5e P: 4 S:f9 pc: f807, reg_addr:    1, cycle:   2918
f807 a9 5f 60 LDA  IMM   A:e8 X: 0 Y:5e P:c4 S:f9 pc: f809, reg_addr:   5f, cycle:   2920
f809 60 b0  9 RTS  IMPL  A:5f X: 0 Y:5e P:44 S:f9 pc: d07c, reg_addr:    0, cycle:   2926
d07c 41 80 20 EOR  INDX  A:5f X: 0 Y:5e P:44 S:fb pc: d07e, reg_addr:  200, cycle:   2932
d07e 20  a f8 JSR  ABS   A:f5 X: 0 Y:5e P:c4 S:fb pc: f80a, reg_addr: f80a, cycle:   2938
f80a b0  9 10 BCS  REL   A:f5 X: 0 Y:5e P:c4 S:f9 pc: f80c, reg_addr: f815, cycle:   2940
f80c 10  7 c9 BPL  REL   A:f5 X: 0 Y:5e P:c4 S:f9 pc: f80e, reg_addr: f815, cycle:   2942
f80e c9 f5 d0 CMP  IMM   A:f5 X: 0 Y:5e P:c4 S:f9 pc: f810, reg_addr:   f5, cycle:   2944
f810 d0  3 50 BNE  REL   A:f5 X: 0 Y:5e P:47 S:f9 pc: f812, reg_addr: f815, cycle:   2946
f812 50  1 60 BVC  REL   A:f5 X: 0 Y:5e P:47 S:f9 pc: f814, reg_addr: f815, cycle:   2948
f814 60 84  0 RTS  IMPL  A:f5 X: 0 Y:5e P:47 S:f9 pc: d081, reg_addr:    0, cycle:   2954
d081 c8 a9 70 INY  IMPL  A:f5 X: 0 Y:5e P:47 S:fb pc: d082, reg_addr:    0, cycle:   2956
d082 a9 70 8d LDA  IMM   A:f5 X: 0 Y:5f P:45 S:fb pc: d084, reg_addr:   70, cycle:   2958
d084 8d  0  3 STA  ABS   A:70 X: 0 Y:5f P:45 S:fb pc: d087, reg_addr:  300, cycle:   2962
d087 20 18 f8 JSR  ABS   A:70 X: 0 Y:5f P:45 S:fb pc: f818, reg_addr: f818, cycle:   2968
f818 38 b8 a9 SEC  IMPL  A:70 X: 0 Y:5f P:45 S:f9 pc: f819, reg_addr:    0, cycle:   2970
f819 b8 a9 70 CLV  IMPL  A:70 X: 0 Y:5f P:45 S:f9 pc: f81a, reg_addr:    0, cycle:   2972
f81a a9 70 60 LDA  IMM   A:70 X: 0 Y:5f P: 5 S:f9 pc: f81c, reg_addr:   70, cycle:   2974
f81c 60 d0  7 RTS  IMPL  A:70 X: 0 Y:5f P: 5 S:f9 pc: d08a, reg_addr:    0, cycle:   2980
d08a 41 82 20 EOR  INDX  A:70 X: 0 Y:5f P: 5 S:fb pc: d08c, reg_addr:  300, cycle:   2986
d08c 20 1d f8 JSR  ABS   A: 0 X: 0 Y:5f P: 7 S:fb pc: f81d, reg_addr: f81d, cycle:   2992
f81d d0  7 70 BNE  REL   A: 0 X: 0 Y:5f P: 7 S:f9 pc: f81f, reg_addr: f826, cycle:   2994
f81f 70  5 90 BVS  REL   A: 0 X: 0 Y:5f P: 7 S:f9 pc: f821, reg_addr: f826, cycle:   2996
f821 90  3 30 BCC  REL   A: 0 X: 0 Y:5f P: 7 S:f9 pc: f823, reg_addr: f826, cycle:   2998
f823 30  1 60 BMI  REL   A: 0 X: 0 Y:5f P: 7 S:f9 pc: f825, reg_addr: f826, cycle:   3000
f825 60 84  0 RTS  IMPL  A: 0 X: 0 Y:5f P: 7 S:f9 pc: d08f, reg_addr:    0, cycle:   3006
d08f c8 a9 69 INY  IMPL  A: 0 X: 0 Y:5f P: 7 S:fb pc: d090, reg_addr:    0, cycle:   3008
d090 a9 69 8d LDA  IMM   A: 0 X: 0 Y:60 P: 5 S:fb pc: d092, reg_addr:   69, cycle:   3010
d092 8d  0  2 STA  ABS   A:69 X: 0 Y:60 P: 5 S:fb pc: d095, reg_addr:  200, cycle:   3014
d095 20 29 f8 JSR  ABS   A:69 X: 0 Y:60 P: 5 S:fb pc: f829, reg_addr: f829, cycle:   3020
f829 18 24  1 CLC  IMPL  A:69 X: 0 Y:60 P: 5 S:f9 pc: f82a, reg_addr:    0, cycle:   3022
f82a 24  1 a9 BIT  ZP    A:69 X: 0 Y:60 P: 4 S:f9 pc: f82c, reg_addr:    1, cycle:   3025
f82c a9  0 60 LDA  IMM   A:69 X: 0 Y:60 P:c4 S:f9 pc: f82e, reg_addr:    0, cycle:   3027
f82e 60 30  9 RTS  IMPL  A: 0 X: 0 Y:60 P:46 S:f9 pc: d098, reg_addr:    0, cycle:   3033
d098 61 80 20 ADC  INDX  A: 0 X: 0 Y:60 P:46 S:fb pc: d09a, reg_addr:  200, cycle:   3039
d09a 20 2f f8 JSR  ABS   A:69 X: 0 Y:60 P: 4 S:fb pc: f82f, reg_addr: f82f, cycle:   3045
f82f 30  9 b0 BMI  REL   A:69 X: 0 Y:60 P: 4 S:f9 pc: f831, reg_addr: f83a, cycle:   3047
f831 b0  7 c9 BCS  REL   A:69 X: 0 Y:60 P: 4 S:f9 pc: f833, reg_addr: f83a, cycle:   3049
f833 c9 69 d0 CMP  IMM   A:69 X: 0 Y:60 P: 4 S:f9 pc: f835, reg_addr:   69, cycle:   3051
f835 d0  3 70 BNE  REL   A:69 X: 0 Y:60 P: 7 S:f9 pc: f837, reg_addr: f83a, cycle:   3053
f837 70  1 60 BVS  REL   A:69 X: 0 Y:60 P: 7 S:f9 pc: f839, reg_addr: f83a, cycle:   3055
f839 60 84  0 RTS  IMPL  A:69 X: 0 Y:60 P: 7 S:f9 pc: d09d, reg_addr:    0, cycle:   3061
d09d c8 20 3d INY  IMPL  A:69 X: 0 Y:60 P: 7 S:fb pc: d09e, reg_addr:    0, cycle:   3063
d09e 20 3d f8 JSR  ABS   A:69 X: 0 Y:61 P: 5 S:fb pc: f83d, reg_addr: f83d, cycle:   3069
f83d 38 24  1 SEC  IMPL  A:69 X: 0 Y:61 P: 5 S:f9 pc: f83e, reg_addr:    0, cycle:   3071
f83e 24  1 a9 BIT  ZP    A:69 X: 0 Y:61 P: 5 S:f9 pc: f840, reg_addr:    1, cycle:   3074
f840 a9  0 60 LDA  IMM   A:69 X: 0 Y:61 P:c5 S:f9 pc: f842, reg_addr:    0, cycle:   3076
f842 60 30  9 RTS  IMPL  A: 0 X: 0 Y:61 P:47 S:f9 pc: d0a1, reg_addr:    0, cycle:   3082
d0a1 61 80 20 ADC  INDX  A: 0 X: 0 Y:61 P:47 S:fb pc: d0a3, reg_addr:  200, cycle:   3088
d0a3 20 43 f8 JSR  ABS   A:6a X: 0 Y:61 P: 4 S:fb pc: f843, reg_addr: f843, cycle:   3094
f843 30  9 b0 BMI  REL   A:6a X: 0 Y:61 P: 4 S:f9 pc: f845, reg_addr: f84e, cycle:   3096
f845 b0  7 c9 BCS  REL   A:6a X: 0 Y:61 P: 4 S:f9 pc: f847, reg_addr: f84e, cycle:   3098
f847 c9 6a d0 CMP  IMM   A:6a X: 0 Y:61 P: 4 S:f9 pc: f849, reg_addr:   6a, cycle:   3100
f849 d0  3 70 BNE  REL   A:6a X: 0 Y:61 P: 7 S:f9 pc: f84b, reg_addr: f84e, cycle:   3102
f84b 70  1 60 BVS  REL   A:6a X: 0 Y:61 P: 7 S:f9 pc: f84d, reg_addr: f84e, cycle:   3104
f84d 60 84  0 RTS  IMPL  A:6a X: 0 Y:61 P: 7 S:f9 pc: d0a6, reg_addr:    0, cycle:   3110
d0a6 c8 a9 7f INY  IMPL  A:6a X: 0 Y:61 P: 7 S:fb pc: d0a7, reg_addr:    0, cycle:   3112
d0a7 a9 7f 8d LDA  IMM   A:6a X: 0 Y:62 P: 5 S:fb pc: d0a9, reg_addr:   7f, cycle:   3114
d0a9 8d  0  2 STA  ABS   A:7f X: 0 Y:62 P: 5 S:fb pc: d0ac, reg_addr:  200, cycle:   3118
d0ac 20 51 f8 JSR  ABS   A:7f X: 0 Y:62 P: 5 S:fb pc: f851, reg_addr: f851, cycle:   3124
f851 38 b8 a9 SEC  IMPL  A:7f X: 0 Y:62 P: 5 S:f9 pc: f852, reg_addr:    0, cycle:   3126
f852 b8 a9 7f CLV  IMPL  A:7f X: 0 Y:62 P: 5 S:f9 pc: f853, reg_addr:    0, cycle:   3128
f853 a9 7f 60 LDA  IMM   A:7f X: 0 Y:62 P: 5 S:f9 pc: f855, reg_addr:   7f, cycle:   3130
f855 60 10  9 RTS  IMPL  A:7f X: 0 Y:62 P: 5 S:f9 pc: d0af, reg_addr:    0, cycle:   3136
d0af 61 80 20 ADC  INDX  A:7f X: 0 Y:62 P: 5 S:fb pc: d0b1, reg_addr:  200, cycle:   3142
d0b1 20 56 f8 JSR  ABS   A:ff X: 0 Y:62 P:c4 S:fb pc: f856, reg_addr: f856, cycle:   3148
f856 10  9 b0 BPL  REL   A:ff X: 0 Y:62 P:c4 S:f9 pc: f858, reg_addr: f861, cycle:   3150
f858 b0  7 c9 BCS  REL   A:ff X: 0 Y:62 P:c4 S:f9 pc: f85a, reg_addr: f861, cycle:   3152
f85a c9 ff d0 CMP  IMM   A:ff X: 0 Y:62 P:c4 S:f9 pc: f85c, reg_addr:   ff, cycle:   3154
f85c d0  3 50 BNE  REL   A:ff X: 0 Y:62 P:47 S:f9 pc: f85e, reg_addr: f861, cycle:   3156
f85e 50  1 60 BVC  REL   A:ff X: 0 Y:62 P:47 S:f9 pc: f860, reg_addr: f861, cycle:   3158
f860 60 84  0 RTS  IMPL  A:ff X: 0 Y:62 P:47 S:f9 pc: d0b4, reg_addr:    0, cycle:   3164
d0b4 c8 a9 80 INY  IMPL  A:ff X: 0 Y:62 P:47 S:fb pc: d0b5, reg_addr:    0, cycle:   3166
d0b5 a9 80 8d LDA  IMM   A:ff X: 0 Y:63 P:45 S:fb pc: d0b7, reg_addr:   80, cycle:   3168
d0b7 8d  0  2 STA  ABS   A:80 X: 0 Y:63 P:c5 S:fb pc: d0ba, reg_addr:  200, cycle:   3172
d0ba 20 64 f8 JSR  ABS   A:80 X: 0 Y:63 P:c5 S:fb pc: f864, reg_addr: f864, cycle:   3178
f864 18 24  1 CLC  IMPL  A:80 X: 0 Y:63 P:c5 S:f9 pc: f865, reg_addr:    0, cycle:   3180
f865 24  1 a9 BIT  ZP    A:80 X: 0 Y:63 P:c4 S:f9 pc: f867, reg_addr:    1, cycle:   3183
f867 a9 7f 60 LDA  IMM   A:80 X: 0 Y:63 P:c4 S:f9 pc: f869, reg_addr:   7f, cycle:   3185
f869 60 10  9 RTS  IMPL  A:7f X: 0 Y:63 P:44 S:f9 pc: d0bd, reg_addr:    0, cycle:   3191
d0bd 61 80 20 ADC  INDX  A:7f X: 0 Y:63 P:44 S:fb pc: d0bf, reg_addr:  200, cycle:   3197
d0bf 20 6a f8 JSR  ABS   A:ff X: 0 Y:63 P:84 S:fb pc: f86a, reg_addr: f86a, cycle:   3203
f86a 10  9 b0 BPL  REL   A:ff X: 0 Y:63 P:84 S:f9 pc: f86c, reg_addr: f875, cycle:   3205
f86c b0  7 c9 BCS  REL   A:ff X: 0 Y:63 P:84 S:f9 pc: f86e, reg_addr: f875, cycle:   3207
f86e c9 ff d0 CMP  IMM   A:ff X: 0 Y:63 P:84 S:f9 pc: f870, reg_addr:   ff, cycle:   3209
f870 d0  3 70 BNE  REL   A:ff X: 0 Y:63 P: 7 S:f9 pc: f872, reg_addr: f875, cycle:   3211
f872 70  1 60 BVS  REL   A:ff X: 0 Y:63 P: 7 S:f9 pc: f874, reg_addr: f875, cycle:   3213
f874 60 84  0 RTS  IMPL  A:ff X: 0 Y:63 P: 7 S:f9 pc: d0c2, reg_addr:    0, cycle:   3219
d0c2 c8 20 78 INY  IMPL  A:ff X: 0 Y:63 P: 7 S:fb pc: d0c3, reg_addr:    0, cycle:   3221
d0c3 20 78 f8 JSR  ABS   A:ff X: 0 Y:64 P: 5 S:fb pc: f878, reg_addr: f878, cycle:   3227
f878 38 b8 a9 SEC  IMPL  A:ff X: 0 Y:64 P: 5 S:f9 pc: f879, reg_addr:    0, cycle:   3229
f879 b8 a9 7f CLV  IMPL  A:ff X: 0 Y:64 P: 5 S:f9 pc: f87a, reg_addr:    0, cycle:   3231
f87a a9 7f 60 LDA  IMM   A:ff X: 0 Y:64 P: 5 S:f9 pc: f87c, reg_addr:   7f, cycle:   3233
f87c 60 d0  7 RTS  IMPL  A:7f X: 0 Y:64 P: 5 S:f9 pc: d0c6, reg_addr:    0, cycle:   3239
d0c6 61 80 20 ADC  INDX  A:7f X: 0 Y:64 P: 5 S:fb pc: d0c8, reg_addr:  200, cycle:   3245
d0c8 20 7d f8 JSR  ABS   A: 0 X: 0 Y:64 P: 7 S:fb pc: f87d, reg_addr: f87d, cycle:   3251
f87d d0  7 30 BNE  REL   A: 0 X: 0 Y:64 P: 7 S:f9 pc: f87f, reg_addr: f886, cycle:   3253
f87f 30  5 70 BMI  REL   A: 0 X: 0 Y:64 P: 7 S:f9 pc: f881, reg_addr: f886, cycle:   3255
f881 70  3 90 BVS  REL   A: 0 X: 0 Y:64 P: 7 S:f9 pc: f883, reg_addr: f886, cycle:   3257
f883 90  1 60 BCC  REL   A: 0 X: 0 Y:64 P: 7 S:f9 pc: f885, reg_addr: f886, cycle:   3259
f885 60 84  0 RTS  IMPL  A: 0 X: 0 Y:64 P: 7 S:f9 pc: d0cb, reg_addr:    0, cycle:   3265
d0cb c8 a9 40 INY  IMPL  A: 0 X: 0 Y:64 P: 7 S:fb pc: d0cc, reg_addr:    0, cycle:   3267
d0cc a9 40 8d LDA  IMM   A: 0 X: 0 Y:65 P: 5 S:fb pc: d0ce, reg_addr:   40, cycle:   3269
d0ce 8d  0  2 STA  ABS   A:40 X: 0 Y:65 P: 5 S:fb pc: d0d1, reg_addr:  200, cycle:   3273
d0d1 20 89 f8 JSR  ABS   A:40 X: 0 Y:65 P: 5 S:fb pc: f889, reg_addr: f889, cycle:   3279
f889 24  1 a9 BIT  ZP    A:40 X: 0 Y:65 P: 5 S:f9 pc: f88b, reg_addr:    1, cycle:   3282
f88b a9 40 60 LDA  IMM   A:40 X: 0 Y:65 P:c5 S:f9 pc: f88d, reg_addr:   40, cycle:   3284
f88d 60 30  7 RTS  IMPL  A:40 X: 0 Y:65 P:45 S:f9 pc: d0d4, reg_addr:    0, cycle:   3290
d0d4 c1 80 20 CMP  INDX  A:40 X: 0 Y:65 P:45 S:fb pc: d0d6, reg_addr:  200, cycle:   3296
d0d6 20 8e f8 JSR  ABS   A:40 X: 0 Y:65 P:47 S:fb pc: f88e, reg_addr: f88e, cycle:   3302
f88e 30  7 90 BMI  REL   A:40 X: 0 Y:65 P:47 S:f9 pc: f890, reg_addr: f897, cycle:   3304
f890 90  5 d0 BCC  REL   A:40 X: 0 Y:65 P:47 S:f9 pc: f892, reg_addr: f897, cycle:   3306
f892 d0  3 50 BNE  REL   A:40 X: 0 Y:65 P:47 S:f9 pc: f894, reg_addr: f897, cycle:   3308
f894 50  1 60 BVC  REL   A:40 X: 0 Y:65 P:47 S:f9 pc: f896, reg_addr: f897, cycle:   3310
f896 60 84  0 RTS  IMPL  A:40 X: 0 Y:65 P:47 S:f9 pc: d0d9, reg_addr:    0, cycle:   3316
d0d9 c8 48 a9 INY  IMPL  A:40 X: 0 Y:65 P:47 S:fb pc: d0da, reg_addr:    0, cycle:   3318
d0da 48 a9 3f PHA  IMPL  A:40 X: 0 Y:66 P:45 S:fb pc: d0db, reg_addr:    0, cycle:   3321
d0db a9 3f 8d LDA  IMM   A:40 X: 0 Y:66 P:45 S:fa pc: d0dd, reg_addr:   3f, cycle:   3323
d0dd 8d  0  2 STA  ABS   A:3f X: 0 Y:66 P:45 S:fa pc: d0e0, reg_addr:  200, cycle:   3327
d0e0 68 20 9a PLA  IMPL  A:3f X: 0 Y:66 P:45 S:fa pc: d0e1, reg_addr:    0, cycle:   3331
d0e1 20 9a f8 JSR  ABS   A:40 X: 0 Y:66 P:45 S:fb pc: f89a, reg_addr: f89a, cycle:   3337
f89a b8 60 f0 CLV  IMPL  A:40 X: 0 Y:66 P:45 S:f9 pc: f89b, reg_addr:    0, cycle:   3339
f89b 60 f0  7 RTS  IMPL  A:40 X: 0 Y:66 P: 5 S:f9 pc: d0e4, reg_addr:    0, cycle:   3345
d0e4 c1 80 20 CMP  INDX  A:40 X: 0 Y:66 P: 5 S:fb pc: d0e6, reg_addr:  200, cycle:   3351
d0e6 20 9c f8 JSR  ABS   A:40 X: 0 Y:66 P: 5 S:fb pc: f89c, reg_addr: f89c, cycle:   3357
f89c f0  7 30 BEQ  REL   A:40 X: 0 Y:66 P: 5 S:f9 pc: f89e, reg_addr: f8a5, cycle:   3359
f89e 30  5 90 BMI  REL   A:40 X: 0 Y:66 P: 5 S:f9 pc: f8a0, reg_addr: f8a5, cycle:   3361
f8a0 90  3 70 BCC  REL   A:40 X: 0 Y:66 P: 5 S:f9 pc: f8a2, reg_addr: f8a5, cycle:   3363
f8a2 70  1 60 BVS  REL   A:40 X: 0 Y:66 P: 5 S:f9 pc: f8a4, reg_addr: f8a5, cycle:   3365
f8a4 60 84  0 RTS  IMPL  A:40 X: 0 Y:66 P: 5 S:f9 pc: d0e9, reg_addr:    0, cycle:   3371
d0e9 c8 48 a9 INY  IMPL  A:40 X: 0 Y:66 P: 5 S:fb pc: d0ea, reg_addr:    0, cycle:   3373
d0ea 48 a9 41 PHA  IMPL  A:40 X: 0 Y:67 P: 5 S:fb pc: d0eb, reg_addr:    0, cycle:   3376
d0eb a9 41 8d LDA  IMM   A:40 X: 0 Y:67 P: 5 S:fa pc: d0ed, reg_addr:   41, cycle:   3378
d0ed 8d  0  2 STA  ABS   A:41 X: 0 Y:67 P: 5 S:fa pc: d0f0, reg_addr:  200, cycle:   3382
d0f0 68 c1 80 PLA  IMPL  A:41 X: 0 Y:67 P: 5 S:fa pc: d0f1, reg_addr:    0, cycle:   3386
d0f1 c1 80 20 CMP  INDX  A:40 X: 0 Y:67 P: 5 S:fb pc: d0f3, reg_addr:  200, cycle:   3392
d0f3 20 a8 f8 JSR  ABS   A:40 X: 0 Y:67 P:84 S:fb pc: f8a8, reg_addr: f8a8, cycle:   3398
f8a8 f0  5 10 BEQ  REL   A:40 X: 0 Y:67 P:84 S:f9 pc: f8aa, reg_addr: f8af, cycle:   3400
f8aa 10  3 10 BPL  REL   A:40 X: 0 Y:67 P:84 S:f9 pc: f8ac, reg_addr: f8af, cycle:   3402
f8ac 10  1 60 BPL  REL   A:40 X: 0 Y:67 P:84 S:f9 pc: f8ae, reg_addr: f8af, cycle:   3404
f8ae 60 84  0 RTS  IMPL  A:40 X: 0 Y:67 P:84 S:f9 pc: d0f6, reg_addr:    0, cycle:   3410
d0f6 c8 48 a9 INY  IMPL  A:40 X: 0 Y:67 P:84 S:fb pc: d0f7, reg_addr:    0, cycle:   3412
d0f7 48 a9  0 PHA  IMPL  A:40 X: 0 Y:68 P: 4 S:fb pc: d0f8, reg_addr:    0, cycle:   3415
d0f8 a9  0 8d LDA  IMM   A:40 X: 0 Y:68 P: 4 S:fa pc: d0fa, reg_addr:    0, cycle:   3417
d0fa 8d  0  2 STA  ABS   A: 0 X: 0 Y:68 P: 6 S:fa pc: d0fd, reg_addr:  200, cycle:   3421
d0fd 68 20 b2 PLA  IMPL  A: 0 X: 0 Y:68 P: 6 S:fa pc: d0fe, reg_addr:    0, cycle:   3425
d0fe 20 b2 f8 JSR  ABS   A:40 X: 0 Y:68 P: 4 S:fb pc: f8b2, reg_addr: f8b2, cycle:   3431
f8b2 a9 80 60 LDA  IMM   A:40 X: 0 Y:68 P: 4 S:f9 pc: f8b4, reg_addr:   80, cycle:   3433
f8b4 60 f0  5 RTS  IMPL  A:80 X: 0 Y:68 P:84 S:f9 pc: d101, reg_addr:    0, cycle:   3439
d101 c1 80 20 CMP  INDX  A:80 X: 0 Y:68 P:84 S:fb pc: d103, reg_addr:  200, cycle:   3445
d103 20 b5 f8 JSR  ABS   A:80 X: 0 Y:68 P:85 S:fb pc: f8b5, reg_addr: f8b5, cycle:   3451
f8b5 f0  5 10 BEQ  REL   A:80 X: 0 Y:68 P:85 S:f9 pc: f8b7, reg_addr: f8bc, cycle:   3453
f8b7 10  3 90 BPL  REL   A:80 X: 0 Y:68 P:85 S:f9 pc: f8b9, reg_addr: f8bc, cycle:   3455
f8b9 90  1 60 BCC  REL   A:80 X: 0 Y:68 P:85 S:f9 pc: f8bb, reg_addr: f8bc, cycle:   3457
f8bb 60 84  0 RTS  IMPL  A:80 X: 0 Y:68 P:85 S:f9 pc: d106, reg_addr:    0, cycle:   3463
d106 c8 48 a9 INY  IMPL  A:80 X: 0 Y:68 P:85 S:fb pc: d107, reg_addr:    0, cycle:   3465
d107 48 a9 80 PHA  IMPL  A:80 X: 0 Y:69 P: 5 S:fb pc: d108, reg_addr:    0, cycle:   3468
d108 a9 80 8d LDA  IMM   A:80 X: 0 Y:69 P: 5 S:fa pc: d10a, reg_addr:   80, cycle:   3470
d10a 8d  0  2 STA  ABS   A:80 X: 0 Y:69 P:85 S:fa pc: d10d, reg_addr:  200, cycle:   3474
d10d 68 c1 80 PLA  IMPL  A:80 X: 0 Y:69 P:85 S:fa pc: d10e, reg_addr:    0, cycle:   3478
d10e c1 80 20 CMP  INDX  A:80 X: 0 Y:69 P:85 S:fb pc: d110, reg_addr:  200, cycle:   3484
d110 20 bf f8 JSR  ABS   A:80 X: 0 Y:69 P: 7 S:fb pc: f8bf, reg_addr: f8bf, cycle:   3490
f8bf d0  5 30 BNE  REL   A:80 X: 0 Y:69 P: 7 S:f9 pc: f8c1, reg_addr: f8c6, cycle:   3492
f8c1 30  3 90 BMI  REL   A:80 X: 0 Y:69 P: 7 S:f9 pc: f8c3, reg_addr: f8c6, cycle:   3494
f8c3 90  1 60 BCC  REL   A:80 X: 0 Y:69 P: 7 S:f9 pc: f8c5, reg_addr: f8c6, cycle:   3496
f8c5 60 84  0 RTS  IMPL  A:80 X: 0 Y:69 P: 7 S:f9 pc: d113, reg_addr:    0, cycle:   3502
d113 c8 48 a9 INY  IMPL  A:80 X: 0 Y:69 P: 7 S:fb pc: d114, reg_addr:    0, cycle:   3504
d114 48 a9 81 PHA  IMPL  A:80 X: 0 Y:6a P: 5 S:fb pc: d115, reg_addr:    0, cycle:   3507
d115 a9 81 8d LDA  IMM   A:80 X: 0 Y:6a P: 5 S:fa pc: d117, reg_addr:   81, cycle:   3509
d117 8d  0  2 STA  ABS   A:81 X: 0 Y:6a P:85 S:fa pc: d11a, reg_addr:  200, cycle:   3513
d11a 68 c1 80 PLA  IMPL  A:81 X: 0 Y:6a P:85 S:fa pc: d11b, reg_addr:    0, cycle:   3517
d11b c1 80 20 CMP  INDX  A:80 X: 0 Y:6a P:85 S:fb pc: d11d, reg_addr:  200, cycle:   3523
d11d 20 c9 f8 JSR  ABS   A:80 X: 0 Y:6a P:84 S:fb pc: f8c9, reg_addr: f8c9, cycle:   3529
f8c9 b0  5 f0 BCS  REL   A:80 X: 0 Y:6a P:84 S:f9 pc: f8cb, reg_addr: f8d0, cycle:   3531
f8cb f0  3 10 BEQ  REL   A:80 X: 0 Y:6a P:84 S:f9 pc: f8cd, reg_addr: f8d0, cycle:   3533
f8cd 10  1 60 BPL  REL   A:80 X: 0 Y:6a P:84 S:f9 pc: f8cf, reg_addr: f8d0, cycle:   3535
f8cf 60 84  0 RTS  IMPL  A:80 X: 0 Y:6a P:84 S:f9 pc: d120, reg_addr:    0, cycle:   3541
d120 c8 48 a9 INY  IMPL  A:80 X: 0 Y:6a P:84 S:fb pc: d121, reg_addr:    0, cycle:   3543
d121 48 a9 7f PHA  IMPL  A:80 X: 0 Y:6b P: 4 S:fb pc: d122, reg_addr:    0, cycle:   3546
d122 a9 7f 8d LDA  IMM   A:80 X: 0 Y:6b P: 4 S:fa pc: d124, reg_addr:   7f, cycle:   3548
d124 8d  0  2 STA  ABS   A:7f X: 0 Y:6b P: 4 S:fa pc: d127, reg_addr:  200, cycle:   3552
d127 68 c1 80 PLA  IMPL  A:7f X: 0 Y:6b P: 4 S:fa pc: d128, reg_addr:    0, cycle:   3556
d128 c1 80 20 CMP  INDX  A:80 X: 0 Y:6b P:84 S:fb pc: d12a, reg_addr:  200, cycle:   3562
d12a 20 d3 f8 JSR  ABS   A:80 X: 0 Y:6b P: 5 S:fb pc: f8d3, reg_addr: f8d3, cycle:   3568
f8d3 90  5 f0 BCC  REL   A:80 X: 0 Y:6b P: 5 S:f9 pc: f8d5, reg_addr: f8da, cycle:   3570
f8d5 f0  3 30 BEQ  REL   A:80 X: 0 Y:6b P: 5 S:f9 pc: f8d7, reg_addr: f8da, cycle:   3572
f8d7 30  1 60 BMI  REL   A:80 X: 0 Y:6b P: 5 S:f9 pc: f8d9, reg_addr: f8da, cycle:   3574
f8d9 60 84  0 RTS  IMPL  A:80 X: 0 Y:6b P: 5 S:f9 pc: d12d, reg_addr:    0, cycle:   3580
d12d c8 a9 40 INY  IMPL  A:80 X: 0 Y:6b P: 5 S:fb pc: d12e, reg_addr:    0, cycle:   3582
d12e a9 40 8d LDA  IMM   A:80 X: 0 Y:6c P: 5 S:fb pc: d130, reg_addr:   40, cycle:   3584
d130 8d  0  2 STA  ABS   A:40 X: 0 Y:6c P: 5 S:fb pc: d133, reg_addr:  200, cycle:   3588
d133 20 31 f9 JSR  ABS   A:40 X: 0 Y:6c P: 5 S:fb pc: f931, reg_addr: f931, cycle:   3594
f931 24  1 a9 BIT  ZP    A:40 X: 0 Y:6c P: 5 S:f9 pc: f933, reg_addr:    1, cycle:   3597
f933 a9 40 38 LDA  IMM   A:40 X: 0 Y:6c P:c5 S:f9 pc: f935, reg_addr:   40, cycle:   3599
f935 38 60 30 SEC  IMPL  A:40 X: 0 Y:6c P:45 S:f9 pc: f936, reg_addr:    0, cycle:   3601
f936 60 30  b RTS  IMPL  A:40 X: 0 Y:6c P:45 S:f9 pc: d136, reg_addr:    0, cycle:   3607
d136 e1 80 20 SBC  INDX  A:40 X: 0 Y:6c P:45 S:fb pc: d138, reg_addr:  200, cycle:   3613
d138 20 37 f9 JSR  ABS   A: 0 X: 0 Y:6c P: 7 S:fb pc: f937, reg_addr: f937, cycle:   3619
f937 30  b 90 BMI  REL   A: 0 X: 0 Y:6c P: 7 S:f9 pc: f939, reg_addr: f944, cycle:   3621
f939 90  9 d0 BCC  REL   A: 0 X: 0 Y:6c P: 7 S:f9 pc: f93b, reg_addr: f944, cycle:   3623
f93b d0  7 70 BNE  REL   A: 0 X: 0 Y:6c P: 7 S:f9 pc: f93d, reg_addr: f944, cycle:   3625
f93d 70  5 c9 BVS  REL   A: 0 X: 0 Y:6c P: 7 S:f9 pc: f93f, reg_addr: f944, cycle:   3627
f93f c9  0 d0 CMP  IMM   A: 0 X: 0 Y:6c P: 7 S:f9 pc: f941, reg_addr:    0, cycle:   3629
f941 d0  1 60 BNE  REL   A: 0 X: 0 Y:6c P: 7 S:f9 pc: f943, reg_addr: f944, cycle:   3631
f943 60 84  0 RTS  IMPL  A: 0 X: 0 Y:6c P: 7 S:f9 pc: d13b, reg_addr:    0, cycle:   3637
d13b c8 a9 3f INY  IMPL  A: 0 X: 0 Y:6c P: 7 S:fb pc: d13c, reg_addr:    0, cycle:   3639
d13c a9 3f 8d LDA  IMM   A: 0 X: 0 Y:6d P: 5 S:fb pc: d13e, reg_addr:   3f, cycle:   3641
d13e 8d  0  2 STA  ABS   A:3f X: 0 Y:6d P: 5 S:fb pc: d141, reg_addr:  200, cycle:   3645
d141 20 47 f9 JSR  ABS   A:3f X: 0 Y:6d P: 5 S:fb pc: f947, reg_addr: f947, cycle:   3651
f947 b8 38 a9 CLV  IMPL  A:3f X: 0 Y:6d P: 5 S:f9 pc: f948, reg_addr:    0, cycle:   3653
f948 38 a9 40 SEC  IMPL  A:3f X: 0 Y:6d P: 5 S:f9 pc: f949, reg_addr:    0, cycle:   3655
f949 a9 40 60 LDA  IMM   A:3f X: 0 Y:6d P: 5 S:f9 pc: f94b, reg_addr:   40, cycle:   3657
f94b 60 f0  b RTS  IMPL  A:40 X: 0 Y:6d P: 5 S:f9 pc: d144, reg_addr:    0, cycle:   3663
d144 e1 80 20 SBC  INDX  A:40 X: 0 Y:6d P: 5 S:fb pc: d146, reg_addr:  200, cycle:   3669
d146 20 4c f9 JSR  ABS   A: 1 X: 0 Y:6d P: 5 S:fb pc: f94c, reg_addr: f94c, cycle:   3675
f94c f0  b 30 BEQ  REL   A: 1 X: 0 Y:6d P: 5 S:f9 pc: f94e, reg_addr: f959, cycle:   3677
f94e 30  9 90 BMI  REL   A: 1 X: 0 Y:6d P: 5 S:f9 pc: f950, reg_addr: f959, cycle:   3679
f950 90  7 70 BCC  REL   A: 1 X: 0 Y:6d P: 5 S:f9 pc: f952, reg_addr: f959, cycle:   3681
f952 70  5 c9 BVS  REL   A: 1 X: 0 Y:6d P: 5 S:f9 pc: f954, reg_addr: f959, cycle:   3683
f954 c9  1 d0 CMP  IMM   A: 1 X: 0 Y:6d P: 5 S:f9 pc: f956, reg_addr:    1, cycle:   3685
f956 d0  1 60 BNE  REL   A: 1 X: 0 Y:6d P: 7 S:f9 pc: f958, reg_addr: f959, cycle:   3687
f958 60 84  0 RTS  IMPL  A: 1 X: 0 Y:6d P: 7 S:f9 pc: d149, reg_addr:    0, cycle:   3693
d149 c8 a9 41 INY  IMPL  A: 1 X: 0 Y:6d P: 7 S:fb pc: d14a, reg_addr:    0, cycle:   3695
d14a a9 41 8d LDA  IMM   A: 1 X: 0 Y:6e P: 5 S:fb pc: d14c, reg_addr:   41, cycle:   3697
d14c 8d  0  2 STA  ABS   A:41 X: 0 Y:6e P: 5 S:fb pc: d14f, reg_addr:  200, cycle:   3701
d14f 20 5c f9 JSR  ABS   A:41 X: 0 Y:6e P: 5 S:fb pc: f95c, reg_addr: f95c, cycle:   3707
f95c a9 40 38 LDA  IMM   A:41 X: 0 Y:6e P: 5 S:f9 pc: f95e, reg_addr:   40, cycle:   3709
f95e 38 24  1 SEC  IMPL  A:40 X: 0 Y:6e P: 5 S:f9 pc: f95f, reg_addr:    0, cycle:   3711
f95f 24  1 60 BIT  ZP    A:40 X: 0 Y:6e P: 5 S:f9 pc: f961, reg_addr:    1, cycle:   3714
f961 60 b0  b RTS  IMPL  A:40 X: 0 Y:6e P:c5 S:f9 pc: d152, reg_addr:    0, cycle:   3720
d152 e1 80 20 SBC  INDX  A:40 X: 0 Y:6e P:c5 S:fb pc: d154, reg_addr:  200, cycle:   3726
d154 20 62 f9 JSR  ABS   A:ff X: 0 Y:6e P:84 S:fb pc: f962, reg_addr: f962, cycle:   3732
f962 b0  b f0 BCS  REL   A:ff X: 0 Y:6e P:84 S:f9 pc: f964, reg_addr: f96f, cycle:   3734
f964 f0  9 10 BEQ  REL   A:ff X: 0 Y:6e P:84 S:f9 pc: f966, reg_addr: f96f, cycle:   3736
f966 10  7 70 BPL  REL   A:ff X: 0 Y:6e P:84 S:f9 pc: f968, reg_addr: f96f, cycle:   3738
f968 70  5 c9 BVS  REL   A:ff X: 0 Y:6e P:84 S:f9 pc: f96a, reg_addr: f96f, cycle:   3740
f96a c9 ff d0 CMP  IMM   A:ff X: 0 Y:6e P:84 S:f9 pc: f96c, reg_addr:   ff, cycle:   3742
f96c d0  1 60 BNE  REL   A:ff X: 0 Y:6e P: 7 S:f9 pc: f96e, reg_addr: f96f, cycle:   3744
f96e 60 84  0 RTS  IMPL  A:ff X: 0 Y:6e P: 7 S:f9 pc: d157, reg_addr:    0, cycle:   3750
d157 c8 a9  0 INY  IMPL  A:ff X: 0 Y:6e P: 7 S:fb pc: d158, reg_addr:    0, cycle:   3752
d158 a9  0 8d LDA  IMM   A:ff X: 0 Y:6f P: 5 S:fb pc: d15a, reg_addr:    0, cycle:   3754
d15a 8d  0  2 STA  ABS   A: 0 X: 0 Y:6f P: 7 S:fb pc: d15d, reg_addr:  200, cycle:   3758
d15d 20 72 f9 JSR  ABS   A: 0 X: 0 Y:6f P: 7 S:fb pc: f972, reg_addr: f972, cycle:   3764
f972 18 a9 80 CLC  IMPL  A: 0 X: 0 Y:6f P: 7 S:f9 pc: f973, reg_addr:    0, cycle:   3766
f973 a9 80 60 LDA  IMM   A: 0 X: 0 Y:6f P: 6 S:f9 pc: f975, reg_addr:   80, cycle:   3768
f975 60 90  5 RTS  IMPL  A:80 X: 0 Y:6f P:84 S:f9 pc: d160, reg_addr:    0, cycle:   3774
d160 e1 80 20 SBC  INDX  A:80 X: 0 Y:6f P:84 S:fb pc: d162, reg_addr:  200, cycle:   3780
d162 20 76 f9 JSR  ABS   A:7f X: 0 Y:6f P:45 S:fb pc: f976, reg_addr: f976, cycle:   3786
f976 90  5 c9 BCC  REL   A:7f X: 0 Y:6f P:45 S:f9 pc: f978, reg_addr: f97d, cycle:   3788
f978 c9 7f d0 CMP  IMM   A:7f X: 0 Y:6f P:45 S:f9 pc: f97a, reg_addr:   7f, cycle:   3790
f97a d0  1 60 BNE  REL   A:7f X: 0 Y:6f P:47 S:f9 pc: f97c, reg_addr: f97d, cycle:   3792
f97c 60 84  0 RTS  IMPL  A:7f X: 0 Y:6f P:47 S:f9 pc: d165, reg_addr:    0, cycle:   3798
d165 c8 a9 7f INY  IMPL  A:7f X: 0 Y:6f P:47 S:fb pc: d166, reg_addr:    0, cycle:   3800
d166 a9 7f 8d LDA  IMM   A:7f X: 0 Y:70 P:45 S:fb pc: d168, reg_addr:   7f, cycle:   3802
d168 8d  0  2 STA  ABS   A:7f X: 0 Y:70 P:45 S:fb pc: d16b, reg_addr:  200, cycle:   3806
d16b 20 80 f9 JSR  ABS   A:7f X: 0 Y:70 P:45 S:fb pc: f980, reg_addr: f980, cycle:   3812
f980 38 a9 81 SEC  IMPL  A:7f X: 0 Y:70 P:45 S:f9 pc: f981, reg_addr:    0, cycle:   3814
f981 a9 81 60 LDA  IMM   A:7f X: 0 Y:70 P:45 S:f9 pc: f983, reg_addr:   81, cycle:   3816
f983 60 50  7 RTS  IMPL  A:81 X: 0 Y:70 P:c5 S:f9 pc: d16e, reg_addr:    0, cycle:   3822
d16e e1 80 20 SBC  INDX  A:81 X: 0 Y:70 P:c5 S:fb pc: d170, reg_addr:  200, cycle:   3828
d170 20 84 f9 JSR  ABS   A: 2 X: 0 Y:70 P:45 S:fb pc: f984, reg_addr: f984, cycle:   3834
f984 50  7 90 BVC  REL   A: 2 X: 0 Y:70 P:45 S:f9 pc: f986, reg_addr: f98d, cycle:   3836
f986 90  5 c9 BCC  REL   A: 2 X: 0 Y:70 P:45 S:f9 pc: f988, reg_addr: f98d, cycle:   3838
f988 c9  2 d0 CMP  IMM   A: 2 X: 0 Y:70 P:45 S:f9 pc: f98a, reg_addr:    2, cycle:   3840
f98a d0  1 60 BNE  REL   A: 2 X: 0 Y:70 P:47 S:f9 pc: f98c, reg_addr: f98d, cycle:   3842
f98c 60 84  0 RTS  IMPL  A: 2 X: 0 Y:70 P:47 S:f9 pc: d173, reg_addr:    0, cycle:   3848
d173 60 a9 55 RTS  IMPL  A: 2 X: 0 Y:70 P:47 S:fb pc: c612, reg_addr:    0, cycle:   3854
c612 20 74 d1 JSR  ABS   A: 2 X: 0 Y:70 P:47 S:fd pc: d174, reg_addr: d174, cycle:   3860
d174 a9 55 85 LDA  IMM   A: 2 X: 0 Y:70 P:47 S:fb pc: d176, reg_addr:   55, cycle:   3862
d176 85 78 a9 STA  ZP    A:55 X: 0 Y:70 P:45 S:fb pc: d178, reg_addr:   78, cycle:   3865
d178 a9 ff 85 LDA  IMM   A:55 X: 0 Y:70 P:45 S:fb pc: d17a, reg_addr:   ff, cycle:   3867
d17a 85  1 24 STA  ZP    A:ff X: 0 Y:70 P:c5 S:fb pc: d17c, reg_addr:    1, cycle:   3870
d17c 24  1 a0 BIT  ZP    A:ff X: 0 Y:70 P:c5 S:fb pc: d17e, reg_addr:    1, cycle:   3873
d17e a0 11 a2 LDY  IMM   A:ff X: 0 Y:70 P:c5 S:fb pc: d180, reg_addr:   11, cycle:   3875
d180 a2 23 a9 LDX  IMM   A:ff X: 0 Y:11 P:45 S:fb pc: d182, reg_addr:   23, cycle:   3877
d182 a9  0 a5 LDA  IMM   A:ff X:23 Y:11 P:45 S:fb pc: d184, reg_addr:    0, cycle:   3879
d184 a5 78 f0 LDA  ZP    A: 0 X:23 Y:11 P:47 S:fb pc: d186, reg_addr:   78, cycle:   3882
d186 f0 10 30 BEQ  REL   A:55 X:23 Y:11 P:45 S:fb pc: d188, reg_addr: d198, cycle:   3884
d188 30  e c9 BMI  REL   A:55 X:23 Y:11 P:45 S:fb pc: d18a, reg_addr: d198, cycle:   3886
d18a c9 55 d0 CMP  IMM   A:55 X:23 Y:11 P:45 S:fb pc: d18c, reg_addr:   55, cycle:   3888
d18c d0  a c0 BNE  REL   A:55 X:23 Y:11 P:47 S:fb pc: d18e, reg_addr: d198, cycle:   3890
d18e c0 11 d0 CPY  IMM   A:55 X:23 Y:11 P:47 S:fb pc: d190, reg_addr:   11, cycle:   3892
d190 d0  6 e0 BNE  REL   A:55 X:23 Y:11 P:47 S:fb pc: d192, reg_addr: d198, cycle:   3894
d192 e0 23 50 CPX  IMM   A:55 X:23 Y:11 P:47 S:fb pc: d194, reg_addr:   23, cycle:   3896
d194 50  2 f0 BVC  REL   A:55 X:23 Y:11 P:47 S:fb pc: d196, reg_addr: d198, cycle:   3898
d196 f0  4 a9 BEQ  REL   A:55 X:23 Y:11 P:47 S:fb pc: d19c, reg_addr: d19c, cycle:   3901
d19c a9 46 24 LDA  IMM   A:55 X:23 Y:11 P:47 S:fb pc: d19e, reg_addr:   46, cycle:   3903
d19e 24  1 85 BIT  ZP    A:46 X:23 Y:11 P:45 S:fb pc: d1a0, reg_addr:    1, cycle:   3906
d1a0 85 78 f0 STA  ZP    A:46 X:23 Y:11 P:c5 S:fb pc: d1a2, reg_addr:   78, cycle:   3909
d1a2 f0  a 10 BEQ  REL   A:46 X:23 Y:11 P:c5 S:fb pc: d1a4, reg_addr: d1ae, cycle:   3911
d1a4 10  8 50 BPL  REL   A:46 X:23 Y:11 P:c5 S:fb pc: d1a6, reg_addr: d1ae, cycle:   3913
d1a6 50  6 a5 BVC  REL   A:46 X:23 Y:11 P:c5 S:fb pc: d1a8, reg_addr: d1ae, cycle:   3915
d1a8 a5 78 c9 LDA  ZP    A:46 X:23 Y:11 P:c5 S:fb pc: d1aa, reg_addr:   78, cycle:   3918
d1aa c9 46 f0 CMP  IMM   A:46 X:23 Y:11 P:45 S:fb pc: d1ac, reg_addr:   46, cycle:   3920
d1ac f0  4 a9 BEQ  REL   A:46 X:23 Y:11 P:47 S:fb pc: d1b2, reg_addr: d1b2, cycle:   3923
d1b2 a9 55 85 LDA  IMM   A:46 X:23 Y:11 P:47 S:fb pc: d1b4, reg_addr:   55, cycle:   3925
d1b4 85 78 24 STA  ZP    A:55 X:23 Y:11 P:45 S:fb pc: d1b6, reg_addr:   78, cycle:   3928
d1b6 24  1 a9 BIT  ZP    A:55 X:23 Y:11 P:45 S:fb pc: d1b8, reg_addr:    1, cycle:   3931
d1b8 a9 11 a2 LDA  IMM   A:55 X:23 Y:11 P:c5 S:fb pc: d1ba, reg_addr:   11, cycle:   3933
d1ba a2 23 a0 LDX  IMM   A:11 X:23 Y:11 P:45 S:fb pc: d1bc, reg_addr:   23, cycle:   3935
d1bc a0  0 a4 LDY  IMM   A:11 X:23 Y:11 P:45 S:fb pc: d1be, reg_addr:    0, cycle:   3937
d1be a4 78 f0 LDY  ZP    A:11 X:23 Y: 0 P:47 S:fb pc: d1c0, reg_addr:   78, cycle:   3940
d1c0 f0 10 30 BEQ  REL   A:11 X:23 Y:55 P:45 S:fb pc: d1c2, reg_addr: d1d2, cycle:   3942
d1c2 30  e c0 BMI  REL   A:11 X:23 Y:55 P:45 S:fb pc: d1c4, reg_addr: d1d2, cycle:   3944
d1c4 c0 55 d0 CPY  IMM   A:11 X:23 Y:55 P:45 S:fb pc: d1c6, reg_addr:   55, cycle:   3946
d1c6 d0  a c9 BNE  REL   A:11 X:23 Y:55 P:47 S:fb pc: d1c8, reg_addr: d1d2, cycle:   3948
d1c8 c9 11 d0 CMP  IMM   A:11 X:23 Y:55 P:47 S:fb pc: d1ca, reg_addr:   11, cycle:   3950
d1ca d0  6 e0 BNE  REL   A:11 X:23 Y:55 P:47 S:fb pc: d1cc, reg_addr: d1d2, cycle:   3952
d1cc e0 23 50 CPX  IMM   A:11 X:23 Y:55 P:47 S:fb pc: d1ce, reg_addr:   23, cycle:   3954
d1ce 50  2 f0 BVC  REL   A:11 X:23 Y:55 P:47 S:fb pc: d1d0, reg_addr: d1d2, cycle:   3956
d1d0 f0  4 a9 BEQ  REL   A:11 X:23 Y:55 P:47 S:fb pc: d1d6, reg_addr: d1d6, cycle:   3959
d1d6 a0 46 24 LDY  IMM   A:11 X:23 Y:55 P:47 S:fb pc: d1d8, reg_addr:   46, cycle:   3961
d1d8 24  1 84 BIT  ZP    A:11 X:23 Y:46 P:45 S:fb pc: d1da, reg_addr:    1, cycle:   3964
d1da 84 78 f0 STY  ZP    A:11 X:23 Y:46 P:c5 S:fb pc: d1dc, reg_addr:   78, cycle:   3967
d1dc f0  a 10 BEQ  REL   A:11 X:23 Y:46 P:c5 S:fb pc: d1de, reg_addr: d1e8, cycle:   3969
d1de 10  8 50 BPL  REL   A:11 X:23 Y:46 P:c5 S:fb pc: d1e0, reg_addr: d1e8, cycle:   3971
d1e0 50  6 a4 BVC  REL   A:11 X:23 Y:46 P:c5 S:fb pc: d1e2, reg_addr: d1e8, cycle:   3973
d1e2 a4 78 c0 LDY  ZP    A:11 X:23 Y:46 P:c5 S:fb pc: d1e4, reg_addr:   78, cycle:   3976
d1e4 c0 46 f0 CPY  IMM   A:11 X:23 Y:46 P:45 S:fb pc: d1e6, reg_addr:   46, cycle:   3978
d1e6 f0  4 a9 BEQ  REL   A:11 X:23 Y:46 P:47 S:fb pc: d1ec, reg_addr: d1ec, cycle:   3981
d1ec 24  1 a9 BIT  ZP    A:11 X:23 Y:46 P:47 S:fb pc: d1ee, reg_addr:    1, cycle:   3984
d1ee a9 55 85 LDA  IMM   A:11 X:23 Y:46 P:c5 S:fb pc: d1f0, reg_addr:   55, cycle:   3986
d1f0 85 78 a0 STA  ZP    A:55 X:23 Y:46 P:45 S:fb pc: d1f2, reg_addr:   78, cycle:   3989
d1f2 a0 11 a9 LDY  IMM   A:55 X:23 Y:46 P:45 S:fb pc: d1f4, reg_addr:   11, cycle:   3991
d1f4 a9 23 a2 LDA  IMM   A:55 X:23 Y:11 P:45 S:fb pc: d1f6, reg_addr:   23, cycle:   3993
d1f6 a2  0 a6 LDX  IMM   A:23 X:23 Y:11 P:45 S:fb pc: d1f8, reg_addr:    0, cycle:   3995
d1f8 a6 78 f0 LDX  ZP    A:23 X: 0 Y:11 P:47 S:fb pc: d1fa, reg_addr:   78, cycle:   3998
d1fa f0 10 30 BEQ  REL   A:23 X:55 Y:11 P:45 S:fb pc: d1fc, reg_addr: d20c, cycle:   4000
d1fc 30  e e0 BMI  REL   A:23 X:55 Y:11 P:45 S:fb pc: d1fe, reg_addr: d20c, cycle:   4002
d1fe e0 55 d0 CPX  IMM   A:23 X:55 Y:11 P:45 S:fb pc: d200, reg_addr:   55, cycle:   4004
d200 d0  a c0 BNE  REL   A:23 X:55 Y:11 P:47 S:fb pc: d202, reg_addr: d20c, cycle:   4006
d202 c0 11 d0 CPY  IMM   A:23 X:55 Y:11 P:47 S:fb pc: d204, reg_addr:   11, cycle:   4008
d204 d0  6 c9 BNE  REL   A:23 X:55 Y:11 P:47 S:fb pc: d206, reg_addr: d20c, cycle:   4010
d206 c9 23 50 CMP  IMM   A:23 X:55 Y:11 P:47 S:fb pc: d208, reg_addr:   23, cycle:   4012
d208 50  2 f0 BVC  REL   A:23 X:55 Y:11 P:47 S:fb pc: d20a, reg_addr: d20c, cycle:   4014
d20a f0  4 a9 BEQ  REL   A:23 X:55 Y:11 P:47 S:fb pc: d210, reg_addr: d210, cycle:   4017
d210 a2 46 24 LDX  IMM   A:23 X:55 Y:11 P:47 S:fb pc: d212, reg_addr:   46, cycle:   4019
d212 24  1 86 BIT  ZP    A:23 X:46 Y:11 P:45 S:fb pc: d214, reg_addr:    1, cycle:   4022
d214 86 78 f0 STX  ZP    A:23 X:46 Y:11 P:c5 S:fb pc: d216, reg_addr:   78, cycle:   4025
d216 f0  a 10 BEQ  REL   A:23 X:46 Y:11 P:c5 S:fb pc: d218, reg_addr: d222, cycle:   4027
d218 10  8 50 BPL  REL   A:23 X:46 Y:11 P:c5 S:fb pc: d21a, reg_addr: d222, cycle:   4029
d21a 50  6 a6 BVC  REL   A:23 X:46 Y:11 P:c5 S:fb pc: d21c, reg_addr: d222, cycle:   4031
d21c a6 78 e0 LDX  ZP    A:23 X:46 Y:11 P:c5 S:fb pc: d21e, reg_addr:   78, cycle:   4034
d21e e0 46 f0 CPX  IMM   A:23 X:46 Y:11 P:45 S:fb pc: d220, reg_addr:   46, cycle:   4036
d220 f0  4 a9 BEQ  REL   A:23 X:46 Y:11 P:47 S:fb pc: d226, reg_addr: d226, cycle:   4039
d226 a9 c0 85 LDA  IMM   A:23 X:46 Y:11 P:47 S:fb pc: d228, reg_addr:   c0, cycle:   4041
d228 85 78 a2 STA  ZP    A:c0 X:46 Y:11 P:c5 S:fb pc: d22a, reg_addr:   78, cycle:   4044
d22a a2 33 a0 LDX  IMM   A:c0 X:46 Y:11 P:c5 S:fb pc: d22c, reg_addr:   33, cycle:   4046
d22c a0 88 a9 LDY  IMM   A:c0 X:33 Y:11 P:45 S:fb pc: d22e, reg_addr:   88, cycle:   4048
d22e a9  5 24 LDA  IMM   A:c0 X:33 Y:88 P:c5 S:fb pc: d230, reg_addr:    5, cycle:   4050
d230 24 78 10 BIT  ZP    A: 5 X:33 Y:88 P:45 S:fb pc: d232, reg_addr:   78, cycle:   4053
d232 10 10 50 BPL  REL   A: 5 X:33 Y:88 P:c7 S:fb pc: d234, reg_addr: d244, cycle:   4055
d234 50  e d0 BVC  REL   A: 5 X:33 Y:88 P:c7 S:fb pc: d236, reg_addr: d244, cycle:   4057
d236 d0  c c9 BNE  REL   A: 5 X:33 Y:88 P:c7 S:fb pc: d238, reg_addr: d244, cycle:   4059
d238 c9  5 d0 CMP  IMM   A: 5 X:33 Y:88 P:c7 S:fb pc: d23a, reg_addr:    5, cycle:   4061
d23a d0  8 e0 BNE  REL   A: 5 X:33 Y:88 P:47 S:fb pc: d23c, reg_addr: d244, cycle:   4063
d23c e0 33 d0 CPX  IMM   A: 5 X:33 Y:88 P:47 S:fb pc: d23e, reg_addr:   33, cycle:   4065
d23e d0  4 c0 BNE  REL   A: 5 X:33 Y:88 P:47 S:fb pc: d240, reg_addr: d244, cycle:   4067
d240 c0 88 f0 CPY  IMM   A: 5 X:33 Y:88 P:47 S:fb pc: d242, reg_addr:   88, cycle:   4069
d242 f0  4 a9 BEQ  REL   A: 5 X:33 Y:88 P:47 S:fb pc: d248, reg_addr: d248, cycle:   4072
d248 a9  3 85 LDA  IMM   A: 5 X:33 Y:88 P:47 S:fb pc: d24a, reg_addr:    3, cycle:   4074
d24a 85 78 a9 STA  ZP    A: 3 X:33 Y:88 P:45 S:fb pc: d24c, reg_addr:   78, cycle:   4077
d24c a9  1 24 LDA  IMM   A: 3 X:33 Y:88 P:45 S:fb pc: d24e, reg_addr:    1, cycle:   4079
d24e 24 78 30 BIT  ZP    A: 1 X:33 Y:88 P:45 S:fb pc: d250, reg_addr:   78, cycle:   4082
d250 30  8 70 BMI  REL   A: 1 X:33 Y:88 P: 5 S:fb pc: d252, reg_addr: d25a, cycle:   4084
d252 70  6 f0 BVS  REL   A: 1 X:33 Y:88 P: 5 S:fb pc: d254, reg_addr: d25a, cycle:   4086
d254 f0  4 c9 BEQ  REL   A: 1 X:33 Y:88 P: 5 S:fb pc: d256, reg_addr: d25a, cycle:   4088
d256 c9  1 f0 CMP  IMM   A: 1 X:33 Y:88 P: 5 S:fb pc: d258, reg_addr:    1, cycle:   4090
d258 f0  4 a9 BEQ  REL   A: 1 X:33 Y:88 P: 7 S:fb pc: d25e, reg_addr: d25e, cycle:   4093
d25e a0 7e a9 LDY  IMM   A: 1 X:33 Y:88 P: 7 S:fb pc: d260, reg_addr:   7e, cycle:   4095
d260 a9 aa 85 LDA  IMM   A: 1 X:33 Y:7e P: 5 S:fb pc: d262, reg_addr:   aa, cycle:   4097
d262 85 78 20 STA  ZP    A:aa X:33 Y:7e P:85 S:fb pc: d264, reg_addr:   78, cycle:   4100
d264 20 b6 f7 JSR  ABS   A:aa X:33 Y:7e P:85 S:fb pc: f7b6, reg_addr: f7b6, cycle:   4106
f7b6 18 a9 ff CLC  IMPL  A:aa X:33 Y:7e P:85 S:f9 pc: f7b7, reg_addr:    0, cycle:   4108
f7b7 a9 ff 85 LDA  IMM   A:aa X:33 Y:7e P:84 S:f9 pc: f7b9, reg_addr:   ff, cycle:   4110
f7b9 85  1 24 STA  ZP    A:ff X:33 Y:7e P:84 S:f9 pc: f7bb, reg_addr:    1, cycle:   4113
f7bb 24  1 a9 BIT  ZP    A:ff X:33 Y:7e P:84 S:f9 pc: f7bd, reg_addr:    1, cycle:   4116
f7bd a9 55 60 LDA  IMM   A:ff X:33 Y:7e P:c4 S:f9 pc: f7bf, reg_addr:   55, cycle:   4118
f7bf 60 b0  9 RTS  IMPL  A:55 X:33 Y:7e P:44 S:f9 pc: d267, reg_addr:    0, cycle:   4124
d267  5 78 20 ORA  ZP    A:55 X:33 Y:7e P:44 S:fb pc: d269, reg_addr:   78, cycle:   4127
d269 20 c0 f7 JSR  ABS   A:ff X:33 Y:7e P:c4 S:fb pc: f7c0, reg_addr: f7c0, cycle:   4133
f7c0 b0  9 10 BCS  REL   A:ff X:33 Y:7e P:c4 S:f9 pc: f7c2, reg_addr: f7cb, cycle:   4135
f7c2 10  7 c9 BPL  REL   A:ff X:33 Y:7e P:c4 S:f9 pc: f7c4, reg_addr: f7cb, cycle:   4137
f7c4 c9 ff d0 CMP  IMM   A:ff X:33 Y:7e P:c4 S:f9 pc: f7c6, reg_addr:   ff, cycle:   4139
f7c6 d0  3 50 BNE  REL   A:ff X:33 Y:7e P:47 S:f9 pc: f7c8, reg_addr: f7cb, cycle:   4141
f7c8 50  1 60 BVC  REL   A:ff X:33 Y:7e P:47 S:f9 pc: f7ca, reg_addr: f7cb, cycle:   4143
f7ca 60 84  0 RTS  IMPL  A:ff X:33 Y:7e P:47 S:f9 pc: d26c, reg_addr:    0, cycle:   4149
d26c c8 a9  0 INY  IMPL  A:ff X:33 Y:7e P:47 S:fb pc: d26d, reg_addr:    0, cycle:   4151
d26d a9  0 85 LDA  IMM   A:ff X:33 Y:7f P:45 S:fb pc: d26f, reg_addr:    0, cycle:   4153
d26f 85 78 20 STA  ZP    A: 0 X:33 Y:7f P:47 S:fb pc: d271, reg_addr:   78, cycle:   4156
d271 20 ce f7 JSR  ABS   A: 0 X:33 Y:7f P:47 S:fb pc: f7ce, reg_addr: f7ce, cycle:   4162
f7ce 38 b8 a9 SEC  IMPL  A: 0 X:33 Y:7f P:47 S:f9 pc: f7cf, reg_addr:    0, cycle:   4164
f7cf b8 a9  0 CLV  IMPL  A: 0 X:33 Y:7f P:47 S:f9 pc: f7d0, reg_addr:    0, cycle:   4166
f7d0 a9  0 60 LDA  IMM   A: 0 X:33 Y:7f P: 7 S:f9 pc: f7d2, reg_addr:    0, cycle:   4168
f7d2 60 d0  7 RTS  IMPL  A: 0 X:33 Y:7f P: 7 S:f9 pc: d274, reg_addr:    0, cycle:   4174
d274  5 78 20 ORA  ZP    A: 0 X:33 Y:7f P: 7 S:fb pc: d276, reg_addr:   78, cycle:   4177
d276 20 d3 f7 JSR  ABS   A: 0 X:33 Y:7f P: 7 S:fb pc: f7d3, reg_addr: f7d3, cycle:   4183
f7d3 d0  7 70 BNE  REL   A: 0 X:33 Y:7f P: 7 S:f9 pc: f7d5, reg_addr: f7dc, cycle:   4185
f7d5 70  5 90 BVS  REL   A: 0 X:33 Y:7f P: 7 S:f9 pc: f7d7, reg_addr: f7dc, cycle:   4187
f7d7 90  3 30 BCC  REL   A: 0 X:33 Y:7f P: 7 S:f9 pc: f7d9, reg_addr: f7dc, cycle:   4189
f7d9 30  1 60 BMI  REL   A: 0 X:33 Y:7f P: 7 S:f9 pc: f7db, reg_addr: f7dc, cycle:   4191
f7db 60 84  0 RTS  IMPL  A: 0 X:33 Y:7f P: 7 S:f9 pc: d279, reg_addr:    0, cycle:   4197
d279 c8 a9 aa INY  IMPL  A: 0 X:33 Y:7f P: 7 S:fb pc: d27a, reg_addr:    0, cycle:   4199
d27a a9 aa 85 LDA  IMM   A: 0 X:33 Y:80 P:85 S:fb pc: d27c, reg_addr:   aa, cycle:   4201
d27c 85 78 20 STA  ZP    A:aa X:33 Y:80 P:85 S:fb pc: d27e, reg_addr:   78, cycle:   4204
d27e 20 df f7 JSR  ABS   A:aa X:33 Y:80 P:85 S:fb pc: f7df, reg_addr: f7df, cycle:   4210
f7df 18 24  1 CLC  IMPL  A:aa X:33 Y:80 P:85 S:f9 pc: f7e0, reg_addr:    0, cycle:   4212
f7e0 24  1 a9 BIT  ZP    A:aa X:33 Y:80 P:84 S:f9 pc: f7e2, reg_addr:    1, cycle:   4215
f7e2 a9 55 60 LDA  IMM   A:aa X:33 Y:80 P:c4 S:f9 pc: f7e4, reg_addr:   55, cycle:   4217
f7e4 60 d0  7 RTS  IMPL  A:55 X:33 Y:80 P:44 S:f9 pc: d281, reg_addr:    0, cycle:   4223
d281 25 78 20 AND  ZP    A:55 X:33 Y:80 P:44 S:fb pc: d283, reg_addr:   78, cycle:   4226
d283 20 e5 f7 JSR  ABS   A: 0 X:33 Y:80 P:46 S:fb pc: f7e5, reg_addr: f7e5, cycle:   4232
f7e5 d0  7 50 BNE  REL   A: 0 X:33 Y:80 P:46 S:f9 pc: f7e7, reg_addr: f7ee, cycle:   4234
f7e7 50  5 b0 BVC  REL   A: 0 X:33 Y:80 P:46 S:f9 pc: f7e9, reg_addr: f7ee, cycle:   4236
f7e9 b0  3 30 BCS  REL   A: 0 X:33 Y:80 P:46 S:f9 pc: f7eb, reg_addr: f7ee, cycle:   4238
f7eb 30  1 60 BMI  REL   A: 0 X:33 Y:80 P:46 S:f9 pc: f7ed, reg_addr: f7ee, cycle:   4240
f7ed 60 84  0 RTS  IMPL  A: 0 X:33 Y:80 P:46 S:f9 pc: d286, reg_addr:    0, cycle:   4246
d286 c8 a9 ef INY  IMPL  A: 0 X:33 Y:80 P:46 S:fb pc: d287, reg_addr:    0, cycle:   4248
d287 a9 ef 85 LDA  IMM   A: 0 X:33 Y:81 P:c4 S:fb pc: d289, reg_addr:   ef, cycle:   4250
d289 85 78 20 STA  ZP    A:ef X:33 Y:81 P:c4 S:fb pc: d28b, reg_addr:   78, cycle:   4253
d28b 20 f1 f7 JSR  ABS   A:ef X:33 Y:81 P:c4 S:fb pc: f7f1, reg_addr: f7f1, cycle:   4259
f7f1 38 b8 a9 SEC  IMPL  A:ef X:33 Y:81 P:c4 S:f9 pc: f7f2, reg_addr:    0, cycle:   4261
f7f2 b8 a9 f8 CLV  IMPL  A:ef X:33 Y:81 P:c5 S:f9 pc: f7f3, reg_addr:    0, cycle:   4263
f7f3 a9 f8 60 LDA  IMM   A:ef X:33 Y:81 P:85 S:f9 pc: f7f5, reg_addr:   f8, cycle:   4265
f7f5 60 90  9 RTS  IMPL  A:f8 X:33 Y:81 P:85 S:f9 pc: d28e, reg_addr:    0, cycle:   4271
d28e 25 78 20 AND  ZP    A:f8 X:33 Y:81 P:85 S:fb pc: d290, reg_addr:   78, cycle:   4274
d290 20 f6 f7 JSR  ABS   A:e8 X:33 Y:81 P:85 S:fb pc: f7f6, reg_addr: f7f6, cycle:   4280
f7f6 90  9 10 BCC  REL   A:e8 X:33 Y:81 P:85 S:f9 pc: f7f8, reg_addr: f801, cycle:   4282
f7f8 10  7 c9 BPL  REL   A:e8 X:33 Y:81 P:85 S:f9 pc: f7fa, reg_addr: f801, cycle:   4284
f7fa c9 e8 d0 CMP  IMM   A:e8 X:33 Y:81 P:85 S:f9 pc: f7fc, reg_addr:   e8, cycle:   4286
f7fc d0  3 70 BNE  REL   A:e8 X:33 Y:81 P: 7 S:f9 pc: f7fe, reg_addr: f801, cycle:   4288
f7fe 70  1 60 BVS  REL   A:e8 X:33 Y:81 P: 7 S:f9 pc: f800, reg_addr: f801, cycle:   4290
f800 60 84  0 RTS  IMPL  A:e8 X:33 Y:81 P: 7 S:f9 pc: d293, reg_addr:    0, cycle:   4296
d293 c8 a9 aa INY  IMPL  A:e8 X:33 Y:81 P: 7 S:fb pc: d294, reg_addr:    0, cycle:   4298
d294 a9 aa 85 LDA  IMM   A:e8 X:33 Y:82 P:85 S:fb pc: d296, reg_addr:   aa, cycle:   4300
d296 85 78 20 STA  ZP    A:aa X:33 Y:82 P:85 S:fb pc: d298, reg_addr:   78, cycle:   4303
d298 20  4 f8 JSR  ABS   A:aa X:33 Y:82 P:85 S:fb pc: f804, reg_addr: f804, cycle:   4309
f804 18 24  1 CLC  IMPL  A:aa X:33 Y:82 P:85 S:f9 pc: f805, reg_addr:    0, cycle:   4311
f805 24  1 a9 BIT  ZP    A:aa X:33 Y:82 P:84 S:f9 pc: f807, reg_addr:    1, cycle:   4314
f807 a9 5f 60 LDA  IMM   A:aa X:33 Y:82 P:c4 S:f9 pc: f809, reg_addr:   5f, cycle:   4316
f809 60 b0  9 RTS  IMPL  A:5f X:33 Y:82 P:44 S:f9 pc: d29b, reg_addr:    0, cycle:   4322
d29b 45 78 20 EOR  ZP    A:5f X:33 Y:82 P:44 S:fb pc: d29d, reg_addr:   78, cycle:   4325
d29d 20  a f8 JSR  ABS   A:f5 X:33 Y:82 P:c4 S:fb pc: f80a, reg_addr: f80a, cycle:   4331
f80a b0  9 10 BCS  REL   A:f5 X:33 Y:82 P:c4 S:f9 pc: f80c, reg_addr: f815, cycle:   4333
f80c 10  7 c9 BPL  REL   A:f5 X:33 Y:82 P:c4 S:f9 pc: f80e, reg_addr: f815, cycle:   4335
f80e c9 f5 d0 CMP  IMM   A:f5 X:33 Y:82 P:c4 S:f9 pc: f810, reg_addr:   f5, cycle:   4337
f810 d0  3 50 BNE  REL   A:f5 X:33 Y:82 P:47 S:f9 pc: f812, reg_addr: f815, cycle:   4339
f812 50  1 60 BVC  REL   A:f5 X:33 Y:82 P:47 S:f9 pc: f814, reg_addr: f815, cycle:   4341
f814 60 84  0 RTS  IMPL  A:f5 X:33 Y:82 P:47 S:f9 pc: d2a0, reg_addr:    0, cycle:   4347
d2a0 c8 a9 70 INY  IMPL  A:f5 X:33 Y:82 P:47 S:fb pc: d2a1, reg_addr:    0, cycle:   4349
d2a1 a9 70 85 LDA  IMM   A:f5 X:33 Y:83 P:c5 S:fb pc: d2a3, reg_addr:   70, cycle:   4351
d2a3 85 78 20 STA  ZP    A:70 X:33 Y:83 P:45 S:fb pc: d2a5, reg_addr:   78, cycle:   4354
d2a5 20 18 f8 JSR  ABS   A:70 X:33 Y:83 P:45 S:fb pc: f818, reg_addr: f818, cycle:   4360
f818 38 b8 a9 SEC  IMPL  A:70 X:33 Y:83 P:45 S:f9 pc: f819, reg_addr:    0, cycle:   4362
f819 b8 a9 70 CLV  IMPL  A:70 X:33 Y:83 P:45 S:f9 pc: f81a, reg_addr:    0, cycle:   4364
f81a a9 70 60 LDA  IMM   A:70 X:33 Y:83 P: 5 S:f9 pc: f81c, reg_addr:   70, cycle:   4366
f81c 60 d0  7 RTS  IMPL  A:70 X:33 Y:83 P: 5 S:f9 pc: d2a8, reg_addr:    0, cycle:   4372
d2a8 45 78 20 EOR  ZP    A:70 X:33 Y:83 P: 5 S:fb pc: d2aa, reg_addr:   78, cycle:   4375
d2aa 20 1d f8 JSR  ABS   A: 0 X:33 Y:83 P: 7 S:fb pc: f81d, reg_addr: f81d, cycle:   4381
f81d d0  7 70 BNE  REL   A: 0 X:33 Y:83 P: 7 S:f9 pc: f81f, reg_addr: f826, cycle:   4383
f81f 70  5 90 BVS  REL   A: 0 X:33 Y:83 P: 7 S:f9 pc: f821, reg_addr: f826, cycle:   4385
f821 90  3 30 BCC  REL   A: 0 X:33 Y:83 P: 7 S:f9 pc: f823, reg_addr: f826, cycle:   4387
f823 30  1 60 BMI  REL   A: 0 X:33 Y:83 P: 7 S:f9 pc: f825, reg_addr: f826, cycle:   4389
f825 60 84  0 RTS  IMPL  A: 0 X:33 Y:83 P: 7 S:f9 pc: d2ad, reg_addr:    0, cycle:   4395
d2ad c8 a9 69 INY  IMPL  A: 0 X:33 Y:83 P: 7 S:fb pc: d2ae, reg_addr:    0, cycle:   4397
d2ae a9 69 85 LDA  IMM   A: 0 X:33 Y:84 P:85 S:fb pc: d2b0, reg_addr:   69, cycle:   4399
d2b0 85 78 20 STA  ZP    A:69 X:33 Y:84 P: 5 S:fb pc: d2b2, reg_addr:   78, cycle:   4402
d2b2 20 29 f8 JSR  ABS   A:69 X:33 Y:84 P: 5 S:fb pc: f829, reg_addr: f829, cycle:   4408
f829 18 24  1 CLC  IMPL  A:69 X:33 Y:84 P: 5 S:f9 pc: f82a, reg_addr:    0, cycle:   4410
f82a 24  1 a9 BIT  ZP    A:69 X:33 Y:84 P: 4 S:f9 pc: f82c, reg_addr:    1, cycle:   4413
f82c a9  0 60 LDA  IMM   A:69 X:33 Y:84 P:c4 S:f9 pc: f82e, reg_addr:    0, cycle:   4415
f82e 60 30  9 RTS  IMPL  A: 0 X:33 Y:84 P:46 S:f9 pc: d2b5, reg_addr:    0, cycle:   4421
d2b5 65 78 20 ADC  ZP    A: 0 X:33 Y:84 P:46 S:fb pc: d2b7, reg_addr:   78, cycle:   4424
d2b7 20 2f f8 JSR  ABS   A:69 X:33 Y:84 P: 4 S:fb pc: f82f, reg_addr: f82f, cycle:   4430
f82f 30  9 b0 BMI  REL   A:69 X:33 Y:84 P: 4 S:f9 pc: f831, reg_addr: f83a, cycle:   4432
f831 b0  7 c9 BCS  REL   A:69 X:33 Y:84 P: 4 S:f9 pc: f833, reg_addr: f83a, cycle:   4434
f833 c9 69 d0 CMP  IMM   A:69 X:33 Y:84 P: 4 S:f9 pc: f835, reg_addr:   69, cycle:   4436
f835 d0  3 70 BNE  REL   A:69 X:33 Y:84 P: 7 S:f9 pc: f837, reg_addr: f83a, cycle:   4438
f837 70  1 60 BVS  REL   A:69 X:33 Y:84 P: 7 S:f9 pc: f839, reg_addr: f83a, cycle:   4440
f839 60 84  0 RTS  IMPL  A:69 X:33 Y:84 P: 7 S:f9 pc: d2ba, reg_addr:    0, cycle:   4446
d2ba c8 20 3d INY  IMPL  A:69 X:33 Y:84 P: 7 S:fb pc: d2bb, reg_addr:    0, cycle:   4448
d2bb 20 3d f8 JSR  ABS   A:69 X:33 Y:85 P:85 S:fb pc: f83d, reg_addr: f83d, cycle:   4454
f83d 38 24  1 SEC  IMPL  A:69 X:33 Y:85 P:85 S:f9 pc: f83e, reg_addr:    0, cycle:   4456
f83e 24  1 a9 BIT  ZP    A:69 X:33 Y:85 P:85 S:f9 pc: f840, reg_addr:    1, cycle:   4459
f840 a9  0 60 LDA  IMM   A:69 X:33 Y:85 P:c5 S:f9 pc: f842, reg_addr:    0, cycle:   4461
f842 60 30  9 RTS  IMPL  A: 0 X:33 Y:85 P:47 S:f9 pc: d2be, reg_addr:    0, cycle:   4467
d2be 65 78 20 ADC  ZP    A: 0 X:33 Y:85 P:47 S:fb pc: d2c0, reg_addr:   78, cycle:   4470
d2c0 20 43 f8 JSR  ABS   A:6a X:33 Y:85 P: 4 S:fb pc: f843, reg_addr: f843, cycle:   4476
f843 30  9 b0 BMI  REL   A:6a X:33 Y:85 P: 4 S:f9 pc: f845, reg_addr: f84e, cycle:   4478
f845 b0  7 c9 BCS  REL   A:6a X:33 Y:85 P: 4 S:f9 pc: f847, reg_addr: f84e, cycle:   4480
f847 c9 6a d0 CMP  IMM   A:6a X:33 Y:85 P: 4 S:f9 pc: f849, reg_addr:   6a, cycle:   4482
f849 d0  3 70 BNE  REL   A:6a X:33 Y:85 P: 7 S:f9 pc: f84b, reg_addr: f84e, cycle:   4484
f84b 70  1 60 BVS  REL   A:6a X:33 Y:85 P: 7 S:f9 pc: f84d, reg_addr: f84e, cycle:   4486
f84d 60 84  0 RTS  IMPL  A:6a X:33 Y:85 P: 7 S:f9 pc: d2c3, reg_addr:    0, cycle:   4492
d2c3 c8 a9 7f INY  IMPL  A:6a X:33 Y:85 P: 7 S:fb pc: d2c4, reg_addr:    0, cycle:   4494
d2c4 a9 7f 85 LDA  IMM   A:6a X:33 Y:86 P:85 S:fb pc: d2c6, reg_addr:   7f, cycle:   4496
d2c6 85 78 20 STA  ZP    A:7f X:33 Y:86 P: 5 S:fb pc: d2c8, reg_addr:   78, cycle:   4499
d2c8 20 51 f8 JSR  ABS   A:7f X:33 Y:86 P: 5 S:fb pc: f851, reg_addr: f851, cycle:   4505
f851 38 b8 a9 SEC  IMPL  A:7f X:33 Y:86 P: 5 S:f9 pc: f852, reg_addr:    0, cycle:   4507
f852 b8 a9 7f CLV  IMPL  A:7f X:33 Y:86 P: 5 S:f9 pc: f853, reg_addr:    0, cycle:   4509
f853 a9 7f 60 LDA  IMM   A:7f X:33 Y:86 P: 5 S:f9 pc: f855, reg_addr:   7f, cycle:   4511
f855 60 10  9 RTS  IMPL  A:7f X:33 Y:86 P: 5 S:f9 pc: d2cb, reg_addr:    0, cycle:   4517
d2cb 65 78 20 ADC  ZP    A:7f X:33 Y:86 P: 5 S:fb pc: d2cd, reg_addr:   78, cycle:   4520
d2cd 20 56 f8 JSR  ABS   A:ff X:33 Y:86 P:c4 S:fb pc: f856, reg_addr: f856, cycle:   4526
f856 10  9 b0 BPL  REL   A:ff X:33 Y:86 P:c4 S:f9 pc: f858, reg_addr: f861, cycle:   4528
f858 b0  7 c9 BCS  REL   A:ff X:33 Y:86 P:c4 S:f9 pc: f85a, reg_addr: f861, cycle:   4530
f85a c9 ff d0 CMP  IMM   A:ff X:33 Y:86 P:c4 S:f9 pc: f85c, reg_addr:   ff, cycle:   4532
f85c d0  3 50 BNE  REL   A:ff X:33 Y:86 P:47 S:f9 pc: f85e, reg_addr: f861, cycle:   4534
f85e 50  1 60 BVC  REL   A:ff X:33 Y:86 P:47 S:f9 pc: f860, reg_addr: f861, cycle:   4536
f860 60 84  0 RTS  IMPL  A:ff X:33 Y:86 P:47 S:f9 pc: d2d0, reg_addr:    0, cycle:   4542
d2d0 c8 a9 80 INY  IMPL  A:ff X:33 Y:86 P:47 S:fb pc: d2d1, reg_addr:    0, cycle:   4544
d2d1 a9 80 85 LDA  IMM   A:ff X:33 Y:87 P:c5 S:fb pc: d2d3, reg_addr:   80, cycle:   4546
d2d3 85 78 20 STA  ZP    A:80 X:33 Y:87 P:c5 S:fb pc: d2d5, reg_addr:   78, cycle:   4549
d2d5 20 64 f8 JSR  ABS   A:80 X:33 Y:87 P:c5 S:fb pc: f864, reg_addr: f864, cycle:   4555
f864 18 24  1 CLC  IMPL  A:80 X:33 Y:87 P:c5 S:f9 pc: f865, reg_addr:    0, cycle:   4557
f865 24  1 a9 BIT  ZP    A:80 X:33 Y:87 P:c4 S:f9 pc: f867, reg_addr:    1, cycle:   4560
f867 a9 7f 60 LDA  IMM   A:80 X:33 Y:87 P:c4 S:f9 pc: f869, reg_addr:   7f, cycle:   4562
f869 60 10  9 RTS  IMPL  A:7f X:33 Y:87 P:44 S:f9 pc: d2d8, reg_addr:    0, cycle:   4568
d2d8 65 78 20 ADC  ZP    A:7f X:33 Y:87 P:44 S:fb pc: d2da, reg_addr:   78, cycle:   4571
d2da 20 6a f8 JSR  ABS   A:ff X:33 Y:87 P:84 S:fb pc: f86a, reg_addr: f86a, cycle:   4577
f86a 10  9 b0 BPL  REL   A:ff X:33 Y:87 P:84 S:f9 pc: f86c, reg_addr: f875, cycle:   4579
f86c b0  7 c9 BCS  REL   A:ff X:33 Y:87 P:84 S:f9 pc: f86e, reg_addr: f875, cycle:   4581
f86e c9 ff d0 CMP  IMM   A:ff X:33 Y:87 P:84 S:f9 pc: f870, reg_addr:   ff, cycle:   4583
f870 d0  3 70 BNE  REL   A:ff X:33 Y:87 P: 7 S:f9 pc: f872, reg_addr: f875, cycle:   4585
f872 70  1 60 BVS  REL   A:ff X:33 Y:87 P: 7 S:f9 pc: f874, reg_addr: f875, cycle:   4587
f874 60 84  0 RTS  IMPL  A:ff X:33 Y:87 P: 7 S:f9 pc: d2dd, reg_addr:    0, cycle:   4593
d2dd c8 20 78 INY  IMPL  A:ff X:33 Y:87 P: 7 S:fb pc: d2de, reg_addr:    0, cycle:   4595
d2de 20 78 f8 JSR  ABS   A:ff X:33 Y:88 P:85 S:fb pc: f878, reg_addr: f878, cycle:   4601
f878 38 b8 a9 SEC  IMPL  A:ff X:33 Y:88 P:85 S:f9 pc: f879, reg_addr:    0, cycle:   4603
f879 b8 a9 7f CLV  IMPL  A:ff X:33 Y:88 P:85 S:f9 pc: f87a, reg_addr:    0, cycle:   4605
f87a a9 7f 60 LDA  IMM   A:ff X:33 Y:88 P:85 S:f9 pc: f87c, reg_addr:   7f, cycle:   4607
f87c 60 d0  7 RTS  IMPL  A:7f X:33 Y:88 P: 5 S:f9 pc: d2e1, reg_addr:    0, cycle:   4613
d2e1 65 78 20 ADC  ZP    A:7f X:33 Y:88 P: 5 S:fb pc: d2e3, reg_addr:   78, cycle:   4616
d2e3 20 7d f8 JSR  ABS   A: 0 X:33 Y:88 P: 7 S:fb pc: f87d, reg_addr: f87d, cycle:   4622
f87d d0  7 30 BNE  REL   A: 0 X:33 Y:88 P: 7 S:f9 pc: f87f, reg_addr: f886, cycle:   4624
f87f 30  5 70 BMI  REL   A: 0 X:33 Y:88 P: 7 S:f9 pc: f881, reg_addr: f886, cycle:   4626
f881 70  3 90 BVS  REL   A: 0 X:33 Y:88 P: 7 S:f9 pc: f883, reg_addr: f886, cycle:   4628
f883 90  1 60 BCC  REL   A: 0 X:33 Y:88 P: 7 S:f9 pc: f885, reg_addr: f886, cycle:   4630
f885 60 84  0 RTS  IMPL  A: 0 X:33 Y:88 P: 7 S:f9 pc: d2e6, reg_addr:    0, cycle:   4636
d2e6 c8 a9 40 INY  IMPL  A: 0 X:33 Y:88 P: 7 S:fb pc: d2e7, reg_addr:    0, cycle:   4638
d2e7 a9 40 85 LDA  IMM   A: 0 X:33 Y:89 P:85 S:fb pc: d2e9, reg_addr:   40, cycle:   4640
d2e9 85 78 20 STA  ZP    A:40 X:33 Y:89 P: 5 S:fb pc: d2eb, reg_addr:   78, cycle:   4643
d2eb 20 89 f8 JSR  ABS   A:40 X:33 Y:89 P: 5 S:fb pc: f889, reg_addr: f889, cycle:   4649
f889 24  1 a9 BIT  ZP    A:40 X:33 Y:89 P: 5 S:f9 pc: f88b, reg_addr:    1, cycle:   4652
f88b a9 40 60 LDA  IMM   A:40 X:33 Y:89 P:c5 S:f9 pc: f88d, reg_addr:   40, cycle:   4654
f88d 60 30  7 RTS  IMPL  A:40 X:33 Y:89 P:45 S:f9 pc: d2ee, reg_addr:    0, cycle:   4660
d2ee c5 78 20 CMP  ZP    A:40 X:33 Y:89 P:45 S:fb pc: d2f0, reg_addr:   78, cycle:   4663
d2f0 20 8e f8 JSR  ABS   A:40 X:33 Y:89 P:47 S:fb pc: f88e, reg_addr: f88e, cycle:   4669
f88e 30  7 90 BMI  REL   A:40 X:33 Y:89 P:47 S:f9 pc: f890, reg_addr: f897, cycle:   4671
f890 90  5 d0 BCC  REL   A:40 X:33 Y:89 P:47 S:f9 pc: f892, reg_addr: f897, cycle:   4673
f892 d0  3 50 BNE  REL   A:40 X:33 Y:89 P:47 S:f9 pc: f894, reg_addr: f897, cycle:   4675
f894 50  1 60 BVC  REL   A:40 X:33 Y:89 P:47 S:f9 pc: f896, reg_addr: f897, cycle:   4677
f896 60 84  0 RTS  IMPL  A:40 X:33 Y:89 P:47 S:f9 pc: d2f3, reg_addr:    0, cycle:   4683
d2f3 c8 48 a9 INY  IMPL  A:40 X:33 Y:89 P:47 S:fb pc: d2f4, reg_addr:    0, cycle:   4685
d2f4 48 a9 3f PHA  IMPL  A:40 X:33 Y:8a P:c5 S:fb pc: d2f5, reg_addr:    0, cycle:   4688
d2f5 a9 3f 85 LDA  IMM   A:40 X:33 Y:8a P:c5 S:fa pc: d2f7, reg_addr:   3f, cycle:   4690
d2f7 85 78 68 STA  ZP    A:3f X:33 Y:8a P:45 S:fa pc: d2f9, reg_addr:   78, cycle:   4693
d2f9 68 20 9a PLA  IMPL  A:3f X:33 Y:8a P:45 S:fa pc: d2fa, reg_addr:    0, cycle:   4697
d2fa 20 9a f8 JSR  ABS   A:40 X:33 Y:8a P:45 S:fb pc: f89a, reg_addr: f89a, cycle:   4703
f89a b8 60 f0 CLV  IMPL  A:40 X:33 Y:8a P:45 S:f9 pc: f89b, reg_addr:    0, cycle:   4705
f89b 60 f0  7 RTS  IMPL  A:40 X:33 Y:8a P: 5 S:f9 pc: d2fd, reg_addr:    0, cycle:   4711
d2fd c5 78 20 CMP  ZP    A:40 X:33 Y:8a P: 5 S:fb pc: d2ff, reg_addr:   78, cycle:   4714
d2ff 20 9c f8 JSR  ABS   A:40 X:33 Y:8a P: 5 S:fb pc: f89c, reg_addr: f89c, cycle:   4720
f89c f0  7 30 BEQ  REL   A:40 X:33 Y:8a P: 5 S:f9 pc: f89e, reg_addr: f8a5, cycle:   4722
f89e 30  5 90 BMI  REL   A:40 X:33 Y:8a P: 5 S:f9 pc: f8a0, reg_addr: f8a5, cycle:   4724
f8a0 90  3 70 BCC  REL   A:40 X:33 Y:8a P: 5 S:f9 pc: f8a2, reg_addr: f8a5, cycle:   4726
f8a2 70  1 60 BVS  REL   A:40 X:33 Y:8a P: 5 S:f9 pc: f8a4, reg_addr: f8a5, cycle:   4728
f8a4 60 84  0 RTS  IMPL  A:40 X:33 Y:8a P: 5 S:f9 pc: d302, reg_addr:    0, cycle:   4734
d302 c8 48 a9 INY  IMPL  A:40 X:33 Y:8a P: 5 S:fb pc: d303, reg_addr:    0, cycle:   4736
d303 48 a9 41 PHA  IMPL  A:40 X:33 Y:8b P:85 S:fb pc: d304, reg_addr:    0, cycle:   4739
d304 a9 41 85 LDA  IMM   A:40 X:33 Y:8b P:85 S:fa pc: d306, reg_addr:   41, cycle:   4741
d306 85 78 68 STA  ZP    A:41 X:33 Y:8b P: 5 S:fa pc: d308, reg_addr:   78, cycle:   4744
d308 68 c5 78 PLA  IMPL  A:41 X:33 Y:8b P: 5 S:fa pc: d309, reg_addr:    0, cycle:   4748
d309 c5 78 20 CMP  ZP    A:40 X:33 Y:8b P: 5 S:fb pc: d30b, reg_addr:   78, cycle:   4751
d30b 20 a8 f8 JSR  ABS   A:40 X:33 Y:8b P:84 S:fb pc: f8a8, reg_addr: f8a8, cycle:   4757
f8a8 f0  5 10 BEQ  REL   A:40 X:33 Y:8b P:84 S:f9 pc: f8aa, reg_addr: f8af, cycle:   4759
f8aa 10  3 10 BPL  REL   A:40 X:33 Y:8b P:84 S:f9 pc: f8ac, reg_addr: f8af, cycle:   4761
f8ac 10  1 60 BPL  REL   A:40 X:33 Y:8b P:84 S:f9 pc: f8ae, reg_addr: f8af, cycle:   4763
f8ae 60 84  0 RTS  IMPL  A:40 X:33 Y:8b P:84 S:f9 pc: d30e, reg_addr:    0, cycle:   4769
d30e c8 48 a9 INY  IMPL  A:40 X:33 Y:8b P:84 S:fb pc: d30f, reg_addr:    0, cycle:   4771
d30f 48 a9  0 PHA  IMPL  A:40 X:33 Y:8c P:84 S:fb pc: d310, reg_addr:    0, cycle:   4774
d310 a9  0 85 LDA  IMM   A:40 X:33 Y:8c P:84 S:fa pc: d312, reg_addr:    0, cycle:   4776
d312 85 78 68 STA  ZP    A: 0 X:33 Y:8c P: 6 S:fa pc: d314, reg_addr:   78, cycle:   4779
d314 68 20 b2 PLA  IMPL  A: 0 X:33 Y:8c P: 6 S:fa pc: d315, reg_addr:    0, cycle:   4783
d315 20 b2 f8 JSR  ABS   A:40 X:33 Y:8c P: 4 S:fb pc: f8b2, reg_addr: f8b2, cycle:   4789
f8b2 a9 80 60 LDA  IMM   A:40 X:33 Y:8c P: 4 S:f9 pc: f8b4, reg_addr:   80, cycle:   4791
f8b4 60 f0  5 RTS  IMPL  A:80 X:33 Y:8c P:84 S:f9 pc: d318, reg_addr:    0, cycle:   4797
d318 c5 78 20 CMP  ZP    A:80 X:33 Y:8c P:84 S:fb pc: d31a, reg_addr:   78, cycle:   4800
d31a 20 b5 f8 JSR  ABS   A:80 X:33 Y:8c P:85 S:fb pc: f8b5, reg_addr: f8b5, cycle:   4806
f8b5 f0  5 10 BEQ  REL   A:80 X:33 Y:8c P:85 S:f9 pc: f8b7, reg_addr: f8bc, cycle:   4808
f8b7 10  3 90 BPL  REL   A:80 X:33 Y:8c P:85 S:f9 pc: f8b9, reg_addr: f8bc, cycle:   4810
f8b9 90  1 60 BCC  REL   A:80 X:33 Y:8c P:85 S:f9 pc: f8bb, reg_addr: f8bc, cycle:   4812
f8bb 60 84  0 RTS  IMPL  A:80 X:33 Y:8c P:85 S:f9 pc: d31d, reg_addr:    0, cycle:   4818
d31d c8 48 a9 INY  IMPL  A:80 X:33 Y:8c P:85 S:fb pc: d31e, reg_addr:    0, cycle:   4820
d31e 48 a9 80 PHA  IMPL  A:80 X:33 Y:8d P:85 S:fb pc: d31f, reg_addr:    0, cycle:   4823
d31f a9 80 85 LDA  IMM   A:80 X:33 Y:8d P:85 S:fa pc: d321, reg_addr:   80, cycle:   4825
d321 85 78 68 STA  ZP    A:80 X:33 Y:8d P:85 S:fa pc: d323, reg_addr:   78, cycle:   4828
d323 68 c5 78 PLA  IMPL  A:80 X:33 Y:8d P:85 S:fa pc: d324, reg_addr:    0, cycle:   4832
d324 c5 78 20 CMP  ZP    A:80 X:33 Y:8d P:85 S:fb pc: d326, reg_addr:   78, cycle:   4835
d326 20 bf f8 JSR  ABS   A:80 X:33 Y:8d P: 7 S:fb pc: f8bf, reg_addr: f8bf, cycle:   4841
f8bf d0  5 30 BNE  REL   A:80 X:33 Y:8d P: 7 S:f9 pc: f8c1, reg_addr: f8c6, cycle:   4843
f8c1 30  3 90 BMI  REL   A:80 X:33 Y:8d P: 7 S:f9 pc: f8c3, reg_addr: f8c6, cycle:   4845
f8c3 90  1 60 BCC  REL   A:80 X:33 Y:8d P: 7 S:f9 pc: f8c5, reg_addr: f8c6, cycle:   4847
f8c5 60 84  0 RTS  IMPL  A:80 X:33 Y:8d P: 7 S:f9 pc: d329, reg_addr:    0, cycle:   4853
d329 c8 48 a9 INY  IMPL  A:80 X:33 Y:8d P: 7 S:fb pc: d32a, reg_addr:    0, cycle:   4855
d32a 48 a9 81 PHA  IMPL  A:80 X:33 Y:8e P:85 S:fb pc: d32b, reg_addr:    0, cycle:   4858
d32b a9 81 85 LDA  IMM   A:80 X:33 Y:8e P:85 S:fa pc: d32d, reg_addr:   81, cycle:   4860
d32d 85 78 68 STA  ZP    A:81 X:33 Y:8e P:85 S:fa pc: d32f, reg_addr:   78, cycle:   4863
d32f 68 c5 78 PLA  IMPL  A:81 X:33 Y:8e P:85 S:fa pc: d330, reg_addr:    0, cycle:   4867
d330 c5 78 20 CMP  ZP    A:80 X:33 Y:8e P:85 S:fb pc: d332, reg_addr:   78, cycle:   4870
d332 20 c9 f8 JSR  ABS   A:80 X:33 Y:8e P:84 S:fb pc: f8c9, reg_addr: f8c9, cycle:   4876
f8c9 b0  5 f0 BCS  REL   A:80 X:33 Y:8e P:84 S:f9 pc: f8cb, reg_addr: f8d0, cycle:   4878
f8cb f0  3 10 BEQ  REL   A:80 X:33 Y:8e P:84 S:f9 pc: f8cd, reg_addr: f8d0, cycle:   4880
f8cd 10  1 60 BPL  REL   A:80 X:33 Y:8e P:84 S:f9 pc: f8cf, reg_addr: f8d0, cycle:   4882
f8cf 60 84  0 RTS  IMPL  A:80 X:33 Y:8e P:84 S:f9 pc: d335, reg_addr:    0, cycle:   4888
d335 c8 48 a9 INY  IMPL  A:80 X:33 Y:8e P:84 S:fb pc: d336, reg_addr:    0, cycle:   4890
d336 48 a9 7f PHA  IMPL  A:80 X:33 Y:8f P:84 S:fb pc: d337, reg_addr:    0, cycle:   4893
d337 a9 7f 85 LDA  IMM   A:80 X:33 Y:8f P:84 S:fa pc: d339, reg_addr:   7f, cycle:   4895
d339 85 78 68 STA  ZP    A:7f X:33 Y:8f P: 4 S:fa pc: d33b, reg_addr:   78, cycle:   4898
d33b 68 c5 78 PLA  IMPL  A:7f X:33 Y:8f P: 4 S:fa pc: d33c, reg_addr:    0, cycle:   4902
d33c c5 78 20 CMP  ZP    A:80 X:33 Y:8f P:84 S:fb pc: d33e, reg_addr:   78, cycle:   4905
d33e 20 d3 f8 JSR  ABS   A:80 X:33 Y:8f P: 5 S:fb pc: f8d3, reg_addr: f8d3, cycle:   4911
f8d3 90  5 f0 BCC  REL   A:80 X:33 Y:8f P: 5 S:f9 pc: f8d5, reg_addr: f8da, cycle:   4913
f8d5 f0  3 30 BEQ  REL   A:80 X:33 Y:8f P: 5 S:f9 pc: f8d7, reg_addr: f8da, cycle:   4915
f8d7 30  1 60 BMI  REL   A:80 X:33 Y:8f P: 5 S:f9 pc: f8d9, reg_addr: f8da, cycle:   4917
f8d9 60 84  0 RTS  IMPL  A:80 X:33 Y:8f P: 5 S:f9 pc: d341, reg_addr:    0, cycle:   4923
d341 c8 a9 40 INY  IMPL  A:80 X:33 Y:8f P: 5 S:fb pc: d342, reg_addr:    0, cycle:   4925
d342 a9 40 85 LDA  IMM   A:80 X:33 Y:90 P:85 S:fb pc: d344, reg_addr:   40, cycle:   4927
d344 85 78 20 STA  ZP    A:40 X:33 Y:90 P: 5 S:fb pc: d346, reg_addr:   78, cycle:   4930
d346 20 31 f9 JSR  ABS   A:40 X:33 Y:90 P: 5 S:fb pc: f931, reg_addr: f931, cycle:   4936
f931 24  1 a9 BIT  ZP    A:40 X:33 Y:90 P: 5 S:f9 pc: f933, reg_addr:    1, cycle:   4939
f933 a9 40 38 LDA  IMM   A:40 X:33 Y:90 P:c5 S:f9 pc: f935, reg_addr:   40, cycle:   4941
f935 38 60 30 SEC  IMPL  A:40 X:33 Y:90 P:45 S:f9 pc: f936, reg_addr:    0, cycle:   4943
f936 60 30  b RTS  IMPL  A:40 X:33 Y:90 P:45 S:f9 pc: d349, reg_addr:    0, cycle:   4949
d349 e5 78 20 SBC  ZP    A:40 X:33 Y:90 P:45 S:fb pc: d34b, reg_addr:   78, cycle:   4952
d34b 20 37 f9 JSR  ABS   A: 0 X:33 Y:90 P: 7 S:fb pc: f937, reg_addr: f937, cycle:   4958
f937 30  b 90 BMI  REL   A: 0 X:33 Y:90 P: 7 S:f9 pc: f939, reg_addr: f944, cycle:   4960
f939 90  9 d0 BCC  REL   A: 0 X:33 Y:90 P: 7 S:f9 pc: f93b, reg_addr: f944, cycle:   4962
f93b d0  7 70 BNE  REL   A: 0 X:33 Y:90 P: 7 S:f9 pc: f93d, reg_addr: f944, cycle:   4964
f93d 70  5 c9 BVS  REL   A: 0 X:33 Y:90 P: 7 S:f9 pc: f93f, reg_addr: f944, cycle:   4966
f93f c9  0 d0 CMP  IMM   A: 0 X:33 Y:90 P: 7 S:f9 pc: f941, reg_addr:    0, cycle:   4968
f941 d0  1 60 BNE  REL   A: 0 X:33 Y:90 P: 7 S:f9 pc: f943, reg_addr: f944, cycle:   4970
f943 60 84  0 RTS  IMPL  A: 0 X:33 Y:90 P: 7 S:f9 pc: d34e, reg_addr:    0, cycle:   4976
d34e c8 a9 3f INY  IMPL  A: 0 X:33 Y:90 P: 7 S:fb pc: d34f, reg_addr:    0, cycle:   4978
d34f a9 3f 85 LDA  IMM   A: 0 X:33 Y:91 P:85 S:fb pc: d351, reg_addr:   3f, cycle:   4980
d351 85 78 20 STA  ZP    A:3f X:33 Y:91 P: 5 S:fb pc: d353, reg_addr:   78, cycle:   4983
d353 20 47 f9 JSR  ABS   A:3f X:33 Y:91 P: 5 S:fb pc: f947, reg_addr: f947, cycle:   4989
f947 b8 38 a9 CLV  IMPL  A:3f X:33 Y:91 P: 5 S:f9 pc: f948, reg_addr:    0, cycle:   4991
f948 38 a9 40 SEC  IMPL  A:3f X:33 Y:91 P: 5 S:f9 pc: f949, reg_addr:    0, cycle:   4993
f949 a9 40 60 LDA  IMM   A:3f X:33 Y:91 P: 5 S:f9 pc: f94b, reg_addr:   40, cycle:   4995
f94b 60 f0  b RTS  IMPL  A:40 X:33 Y:91 P: 5 S:f9 pc: d356, reg_addr:    0, cycle:   5001
d356 e5 78 20 SBC  ZP    A:40 X:33 Y:91 P: 5 S:fb pc: d358, reg_addr:   78, cycle:   5004
d358 20 4c f9 JSR  ABS   A: 1 X:33 Y:91 P: 5 S:fb pc: f94c, reg_addr: f94c, cycle:   5010
f94c f0  b 30 BEQ  REL   A: 1 X:33 Y:91 P: 5 S:f9 pc: f94e, reg_addr: f959, cycle:   5012
f94e 30  9 90 BMI  REL   A: 1 X:33 Y:91 P: 5 S:f9 pc: f950, reg_addr: f959, cycle:   5014
f950 90  7 70 BCC  REL   A: 1 X:33 Y:91 P: 5 S:f9 pc: f952, reg_addr: f959, cycle:   5016
f952 70  5 c9 BVS  REL   A: 1 X:33 Y:91 P: 5 S:f9 pc: f954, reg_addr: f959, cycle:   5018
f954 c9  1 d0 CMP  IMM   A: 1 X:33 Y:91 P: 5 S:f9 pc: f956, reg_addr:    1, cycle:   5020
f956 d0  1 60 BNE  REL   A: 1 X:33 Y:91 P: 7 S:f9 pc: f958, reg_addr: f959, cycle:   5022
f958 60 84  0 RTS  IMPL  A: 1 X:33 Y:91 P: 7 S:f9 pc: d35b, reg_addr:    0, cycle:   5028
d35b c8 a9 41 INY  IMPL  A: 1 X:33 Y:91 P: 7 S:fb pc: d35c, reg_addr:    0, cycle:   5030
d35c a9 41 85 LDA  IMM   A: 1 X:33 Y:92 P:85 S:fb pc: d35e, reg_addr:   41, cycle:   5032
d35e 85 78 20 STA  ZP    A:41 X:33 Y:92 P: 5 S:fb pc: d360, reg_addr:   78, cycle:   5035
d360 20 5c f9 JSR  ABS   A:41 X:33 Y:92 P: 5 S:fb pc: f95c, reg_addr: f95c, cycle:   5041
f95c a9 40 38 LDA  IMM   A:41 X:33 Y:92 P: 5 S:f9 pc: f95e, reg_addr:   40, cycle:   5043
f95e 38 24  1 SEC  IMPL  A:40 X:33 Y:92 P: 5 S:f9 pc: f95f, reg_addr:    0, cycle:   5045
f95f 24  1 60 BIT  ZP    A:40 X:33 Y:92 P: 5 S:f9 pc: f961, reg_addr:    1, cycle:   5048
f961 60 b0  b RTS  IMPL  A:40 X:33 Y:92 P:c5 S:f9 pc: d363, reg_addr:    0, cycle:   5054
d363 e5 78 20 SBC  ZP    A:40 X:33 Y:92 P:c5 S:fb pc: d365, reg_addr:   78, cycle:   5057
d365 20 62 f9 JSR  ABS   A:ff X:33 Y:92 P:84 S:fb pc: f962, reg_addr: f962, cycle:   5063
f962 b0  b f0 BCS  REL   A:ff X:33 Y:92 P:84 S:f9 pc: f964, reg_addr: f96f, cycle:   5065
f964 f0  9 10 BEQ  REL   A:ff X:33 Y:92 P:84 S:f9 pc: f966, reg_addr: f96f, cycle:   5067
f966 10  7 70 BPL  REL   A:ff X:33 Y:92 P:84 S:f9 pc: f968, reg_addr: f96f, cycle:   5069
f968 70  5 c9 BVS  REL   A:ff X:33 Y:92 P:84 S:f9 pc: f96a, reg_addr: f96f, cycle:   5071
f96a c9 ff d0 CMP  IMM   A:ff X:33 Y:92 P:84 S:f9 pc: f96c, reg_addr:   ff, cycle:   5073
f96c d0  1 60 BNE  REL   A:ff X:33 Y:92 P: 7 S:f9 pc: f96e, reg_addr: f96f, cycle:   5075
f96e 60 84  0 RTS  IMPL  A:ff X:33 Y:92 P: 7 S:f9 pc: d368, reg_addr:    0, cycle:   5081
d368 c8 a9  0 INY  IMPL  A:ff X:33 Y:92 P: 7 S:fb pc: d369, reg_addr:    0, cycle:   5083
d369 a9  0 85 LDA  IMM   A:ff X:33 Y:93 P:85 S:fb pc: d36b, reg_addr:    0, cycle:   5085
d36b 85 78 20 STA  ZP    A: 0 X:33 Y:93 P: 7 S:fb pc: d36d, reg_addr:   78, cycle:   5088
d36d 20 72 f9 JSR  ABS   A: 0 X:33 Y:93 P: 7 S:fb pc: f972, reg_addr: f972, cycle:   5094
f972 18 a9 80 CLC  IMPL  A: 0 X:33 Y:93 P: 7 S:f9 pc: f973, reg_addr:    0, cycle:   5096
f973 a9 80 60 LDA  IMM   A: 0 X:33 Y:93 P: 6 S:f9 pc: f975, reg_addr:   80, cycle:   5098
f975 60 90  5 RTS  IMPL  A:80 X:33 Y:93 P:84 S:f9 pc: d370, reg_addr:    0, cycle:   5104
d370 e5 78 20 SBC  ZP    A:80 X:33 Y:93 P:84 S:fb pc: d372, reg_addr:   78, cycle:   5107
d372 20 76 f9 JSR  ABS   A:7f X:33 Y:93 P:45 S:fb pc: f976, reg_addr: f976, cycle:   5113
f976 90  5 c9 BCC  REL   A:7f X:33 Y:93 P:45 S:f9 pc: f978, reg_addr: f97d, cycle:   5115
f978 c9 7f d0 CMP  IMM   A:7f X:33 Y:93 P:45 S:f9 pc: f97a, reg_addr:   7f, cycle:   5117
f97a d0  1 60 BNE  REL   A:7f X:33 Y:93 P:47 S:f9 pc: f97c, reg_addr: f97d, cycle:   5119
f97c 60 84  0 RTS  IMPL  A:7f X:33 Y:93 P:47 S:f9 pc: d375, reg_addr:    0, cycle:   5125
d375 c8 a9 7f INY  IMPL  A:7f X:33 Y:93 P:47 S:fb pc: d376, reg_addr:    0, cycle:   5127
d376 a9 7f 85 LDA  IMM   A:7f X:33 Y:94 P:c5 S:fb pc: d378, reg_addr:   7f, cycle:   5129
d378 85 78 20 STA  ZP    A:7f X:33 Y:94 P:45 S:fb pc: d37a, reg_addr:   78, cycle:   5132
d37a 20 80 f9 JSR  ABS   A:7f X:33 Y:94 P:45 S:fb pc: f980, reg_addr: f980, cycle:   5138
f980 38 a9 81 SEC  IMPL  A:7f X:33 Y:94 P:45 S:f9 pc: f981, reg_addr:    0, cycle:   5140
f981 a9 81 60 LDA  IMM   A:7f X:33 Y:94 P:45 S:f9 pc: f983, reg_addr:   81, cycle:   5142
f983 60 50  7 RTS  IMPL  A:81 X:33 Y:94 P:c5 S:f9 pc: d37d, reg_addr:    0, cycle:   5148
d37d e5 78 20 SBC  ZP    A:81 X:33 Y:94 P:c5 S:fb pc: d37f, reg_addr:   78, cycle:   5151
d37f 20 84 f9 JSR  ABS   A: 2 X:33 Y:94 P:45 S:fb pc: f984, reg_addr: f984, cycle:   5157
f984 50  7 90 BVC  REL   A: 2 X:33 Y:94 P:45 S:f9 pc: f986, reg_addr: f98d, cycle:   5159
f986 90  5 c9 BCC  REL   A: 2 X:33 Y:94 P:45 S:f9 pc: f988, reg_addr: f98d, cycle:   5161
f988 c9  2 d0 CMP  IMM   A: 2 X:33 Y:94 P:45 S:f9 pc: f98a, reg_addr:    2, cycle:   5163
f98a d0  1 60 BNE  REL   A: 2 X:33 Y:94 P:47 S:f9 pc: f98c, reg_addr: f98d, cycle:   5165
f98c 60 84  0 RTS  IMPL  A: 2 X:33 Y:94 P:47 S:f9 pc: d382, reg_addr:    0, cycle:   5171
d382 c8 a9 40 INY  IMPL  A: 2 X:33 Y:94 P:47 S:fb pc: d383, reg_addr:    0, cycle:   5173
d383 a9 40 85 LDA  IMM   A: 2 X:33 Y:95 P:c5 S:fb pc: d385, reg_addr:   40, cycle:   5175
d385 85 78 20 STA  ZP    A:40 X:33 Y:95 P:45 S:fb pc: d387, reg_addr:   78, cycle:   5178
d387 20 89 f8 JSR  ABS   A:40 X:33 Y:95 P:45 S:fb pc: f889, reg_addr: f889, cycle:   5184
f889 24  1 a9 BIT  ZP    A:40 X:33 Y:95 P:45 S:f9 pc: f88b, reg_addr:    1, cycle:   5187
f88b a9 40 60 LDA  IMM   A:40 X:33 Y:95 P:c5 S:f9 pc: f88d, reg_addr:   40, cycle:   5189
f88d 60 30  7 RTS  IMPL  A:40 X:33 Y:95 P:45 S:f9 pc: d38a, reg_addr:    0, cycle:   5195
d38a aa e4 78 TAX  IMPL  A:40 X:33 Y:95 P:45 S:fb pc: d38b, reg_addr:    0, cycle:   5197
d38b e4 78 20 CPX  ZP    A:40 X:40 Y:95 P:45 S:fb pc: d38d, reg_addr:   78, cycle:   5200
d38d 20 8e f8 JSR  ABS   A:40 X:40 Y:95 P:47 S:fb pc: f88e, reg_addr: f88e, cycle:   5206
f88e 30  7 90 BMI  REL   A:40 X:40 Y:95 P:47 S:f9 pc: f890, reg_addr: f897, cycle:   5208
f890 90  5 d0 BCC  REL   A:40 X:40 Y:95 P:47 S:f9 pc: f892, reg_addr: f897, cycle:   5210
f892 d0  3 50 BNE  REL   A:40 X:40 Y:95 P:47 S:f9 pc: f894, reg_addr: f897, cycle:   5212
f894 50  1 60 BVC  REL   A:40 X:40 Y:95 P:47 S:f9 pc: f896, reg_addr: f897, cycle:   5214
f896 60 84  0 RTS  IMPL  A:40 X:40 Y:95 P:47 S:f9 pc: d390, reg_addr:    0, cycle:   5220
d390 c8 a9 3f INY  IMPL  A:40 X:40 Y:95 P:47 S:fb pc: d391, reg_addr:    0, cycle:   5222
d391 a9 3f 85 LDA  IMM   A:40 X:40 Y:96 P:c5 S:fb pc: d393, reg_addr:   3f, cycle:   5224
d393 85 78 20 STA  ZP    A:3f X:40 Y:96 P:45 S:fb pc: d395, reg_addr:   78, cycle:   5227
d395 20 9a f8 JSR  ABS   A:3f X:40 Y:96 P:45 S:fb pc: f89a, reg_addr: f89a, cycle:   5233
f89a b8 60 f0 CLV  IMPL  A:3f X:40 Y:96 P:45 S:f9 pc: f89b, reg_addr:    0, cycle:   5235
f89b 60 f0  7 RTS  IMPL  A:3f X:40 Y:96 P: 5 S:f9 pc: d398, reg_addr:    0, cycle:   5241
d398 e4 78 20 CPX  ZP    A:3f X:40 Y:96 P: 5 S:fb pc: d39a, reg_addr:   78, cycle:   5244
d39a 20 9c f8 JSR  ABS   A:3f X:40 Y:96 P: 5 S:fb pc: f89c, reg_addr: f89c, cycle:   5250
f89c f0  7 30 BEQ  REL   A:3f X:40 Y:96 P: 5 S:f9 pc: f89e, reg_addr: f8a5, cycle:   5252
f89e 30  5 90 BMI  REL   A:3f X:40 Y:96 P: 5 S:f9 pc: f8a0, reg_addr: f8a5, cycle:   5254
f8a0 90  3 70 BCC  REL   A:3f X:40 Y:96 P: 5 S:f9 pc: f8a2, reg_addr: f8a5, cycle:   5256
f8a2 70  1 60 BVS  REL   A:3f X:40 Y:96 P: 5 S:f9 pc: f8a4, reg_addr: f8a5, cycle:   5258
f8a4 60 84  0 RTS  IMPL  A:3f X:40 Y:96 P: 5 S:f9 pc: d39d, reg_addr:    0, cycle:   5264
d39d c8 a9 41 INY  IMPL  A:3f X:40 Y:96 P: 5 S:fb pc: d39e, reg_addr:    0, cycle:   5266
d39e a9 41 85 LDA  IMM   A:3f X:40 Y:97 P:85 S:fb pc: d3a0, reg_addr:   41, cycle:   5268
d3a0 85 78 e4 STA  ZP    A:41 X:40 Y:97 P: 5 S:fb pc: d3a2, reg_addr:   78, cycle:   5271
d3a2 e4 78 20 CPX  ZP    A:41 X:40 Y:97 P: 5 S:fb pc: d3a4, reg_addr:   78, cycle:   5274
d3a4 20 a8 f8 JSR  ABS   A:41 X:40 Y:97 P:84 S:fb pc: f8a8, reg_addr: f8a8, cycle:   5280
f8a8 f0  5 10 BEQ  REL   A:41 X:40 Y:97 P:84 S:f9 pc: f8aa, reg_addr: f8af, cycle:   5282
f8aa 10  3 10 BPL  REL   A:41 X:40 Y:97 P:84 S:f9 pc: f8ac, reg_addr: f8af, cycle:   5284
f8ac 10  1 60 BPL  REL   A:41 X:40 Y:97 P:84 S:f9 pc: f8ae, reg_addr: f8af, cycle:   5286
f8ae 60 84  0 RTS  IMPL  A:41 X:40 Y:97 P:84 S:f9 pc: d3a7, reg_addr:    0, cycle:   5292
d3a7 c8 a9  0 INY  IMPL  A:41 X:40 Y:97 P:84 S:fb pc: d3a8, reg_addr:    0, cycle:   5294
d3a8 a9  0 85 LDA  IMM   A:41 X:40 Y:98 P:84 S:fb pc: d3aa, reg_addr:    0, cycle:   5296
d3aa 85 78 20 STA  ZP    A: 0 X:40 Y:98 P: 6 S:fb pc: d3ac, reg_addr:   78, cycle:   5299
d3ac 20 b2 f8 JSR  ABS   A: 0 X:40 Y:98 P: 6 S:fb pc: f8b2, reg_addr: f8b2, cycle:   5305
f8b2 a9 80 60 LDA  IMM   A: 0 X:40 Y:98 P: 6 S:f9 pc: f8b4, reg_addr:   80, cycle:   5307
f8b4 60 f0  5 RTS  IMPL  A:80 X:40 Y:98 P:84 S:f9 pc: d3af, reg_addr:    0, cycle:   5313
d3af aa e4 78 TAX  IMPL  A:80 X:40 Y:98 P:84 S:fb pc: d3b0, reg_addr:    0, cycle:   5315
d3b0 e4 78 20 CPX  ZP    A:80 X:80 Y:98 P:84 S:fb pc: d3b2, reg_addr:   78, cycle:   5318
d3b2 20 b5 f8 JSR  ABS   A:80 X:80 Y:98 P:85 S:fb pc: f8b5, reg_addr: f8b5, cycle:   5324
f8b5 f0  5 10 BEQ  REL   A:80 X:80 Y:98 P:85 S:f9 pc: f8b7, reg_addr: f8bc, cycle:   5326
f8b7 10  3 90 BPL  REL   A:80 X:80 Y:98 P:85 S:f9 pc: f8b9, reg_addr: f8bc, cycle:   5328
f8b9 90  1 60 BCC  REL   A:80 X:80 Y:98 P:85 S:f9 pc: f8bb, reg_addr: f8bc, cycle:   5330
f8bb 60 84  0 RTS  IMPL  A:80 X:80 Y:98 P:85 S:f9 pc: d3b5, reg_addr:    0, cycle:   5336
d3b5 c8 a9 80 INY  IMPL  A:80 X:80 Y:98 P:85 S:fb pc: d3b6, reg_addr:    0, cycle:   5338
d3b6 a9 80 85 LDA  IMM   A:80 X:80 Y:99 P:85 S:fb pc: d3b8, reg_addr:   80, cycle:   5340
d3b8 85 78 e4 STA  ZP    A:80 X:80 Y:99 P:85 S:fb pc: d3ba, reg_addr:   78, cycle:   5343
d3ba e4 78 20 CPX  ZP    A:80 X:80 Y:99 P:85 S:fb pc: d3bc, reg_addr:   78, cycle:   5346
d3bc 20 bf f8 JSR  ABS   A:80 X:80 Y:99 P: 7 S:fb pc: f8bf, reg_addr: f8bf, cycle:   5352
f8bf d0  5 30 BNE  REL   A:80 X:80 Y:99 P: 7 S:f9 pc: f8c1, reg_addr: f8c6, cycle:   5354
f8c1 30  3 90 BMI  REL   A:80 X:80 Y:99 P: 7 S:f9 pc: f8c3, reg_addr: f8c6, cycle:   5356
f8c3 90  1 60 BCC  REL   A:80 X:80 Y:99 P: 7 S:f9 pc: f8c5, reg_addr: f8c6, cycle:   5358
f8c5 60 84  0 RTS  IMPL  A:80 X:80 Y:99 P: 7 S:f9 pc: d3bf, reg_addr:    0, cycle:   5364
d3bf c8 a9 81 INY  IMPL  A:80 X:80 Y:99 P: 7 S:fb pc: d3c0, reg_addr:    0, cycle:   5366
d3c0 a9 81 85 LDA  IMM   A:80 X:80 Y:9a P:85 S:fb pc: d3c2, reg_addr:   81, cycle:   5368
d3c2 85 78 e4 STA  ZP    A:81 X:80 Y:9a P:85 S:fb pc: d3c4, reg_addr:   78, cycle:   5371
d3c4 e4 78 20 CPX  ZP    A:81 X:80 Y:9a P:85 S:fb pc: d3c6, reg_addr:   78, cycle:   5374
d3c6 20 c9 f8 JSR  ABS   A:81 X:80 Y:9a P:84 S:fb pc: f8c9, reg_addr: f8c9, cycle:   5380
f8c9 b0  5 f0 BCS  REL   A:81 X:80 Y:9a P:84 S:f9 pc: f8cb, reg_addr: f8d0, cycle:   5382
f8cb f0  3 10 BEQ  REL   A:81 X:80 Y:9a P:84 S:f9 pc: f8cd, reg_addr: f8d0, cycle:   5384
f8cd 10  1 60 BPL  REL   A:81 X:80 Y:9a P:84 S:f9 pc: f8cf, reg_addr: f8d0, cycle:   5386
f8cf 60 84  0 RTS  IMPL  A:81 X:80 Y:9a P:84 S:f9 pc: d3c9, reg_addr:    0, cycle:   5392
d3c9 c8 a9 7f INY  IMPL  A:81 X:80 Y:9a P:84 S:fb pc: d3ca, reg_addr:    0, cycle:   5394
d3ca a9 7f 85 LDA  IMM   A:81 X:80 Y:9b P:84 S:fb pc: d3cc, reg_addr:   7f, cycle:   5396
d3cc 85 78 e4 STA  ZP    A:7f X:80 Y:9b P: 4 S:fb pc: d3ce, reg_addr:   78, cycle:   5399
d3ce e4 78 20 CPX  ZP    A:7f X:80 Y:9b P: 4 S:fb pc: d3d0, reg_addr:   78, cycle:   5402
d3d0 20 d3 f8 JSR  ABS   A:7f X:80 Y:9b P: 5 S:fb pc: f8d3, reg_addr: f8d3, cycle:   5408
f8d3 90  5 f0 BCC  REL   A:7f X:80 Y:9b P: 5 S:f9 pc: f8d5, reg_addr: f8da, cycle:   5410
f8d5 f0  3 30 BEQ  REL   A:7f X:80 Y:9b P: 5 S:f9 pc: f8d7, reg_addr: f8da, cycle:   5412
f8d7 30  1 60 BMI  REL   A:7f X:80 Y:9b P: 5 S:f9 pc: f8d9, reg_addr: f8da, cycle:   5414
f8d9 60 84  0 RTS  IMPL  A:7f X:80 Y:9b P: 5 S:f9 pc: d3d3, reg_addr:    0, cycle:   5420
d3d3 c8 98 aa INY  IMPL  A:7f X:80 Y:9b P: 5 S:fb pc: d3d4, reg_addr:    0, cycle:   5422
d3d4 98 aa a9 TYA  IMPL  A:7f X:80 Y:9c P:85 S:fb pc: d3d5, reg_addr:    0, cycle:   5424
d3d5 aa a9 40 TAX  IMPL  A:9c X:80 Y:9c P:85 S:fb pc: d3d6, reg_addr:    0, cycle:   5426
d3d6 a9 40 85 LDA  IMM   A:9c X:9c Y:9c P:85 S:fb pc: d3d8, reg_addr:   40, cycle:   5428
d3d8 85 78 20 STA  ZP    A:40 X:9c Y:9c P: 5 S:fb pc: d3da, reg_addr:   78, cycle:   5431
d3da 20 dd f8 JSR  ABS   A:40 X:9c Y:9c P: 5 S:fb pc: f8dd, reg_addr: f8dd, cycle:   5437
f8dd 24  1 a0 BIT  ZP    A:40 X:9c Y:9c P: 5 S:f9 pc: f8df, reg_addr:    1, cycle:   5440
f8df a0 40 60 LDY  IMM   A:40 X:9c Y:9c P:c5 S:f9 pc: f8e1, reg_addr:   40, cycle:   5442
f8e1 60 30  7 RTS  IMPL  A:40 X:9c Y:40 P:45 S:f9 pc: d3dd, reg_addr:    0, cycle:   5448
d3dd c4 78 20 CPY  ZP    A:40 X:9c Y:40 P:45 S:fb pc: d3df, reg_addr:   78, cycle:   5451
d3df 20 e2 f8 JSR  ABS   A:40 X:9c Y:40 P:47 S:fb pc: f8e2, reg_addr: f8e2, cycle:   5457
f8e2 30  7 90 BMI  REL   A:40 X:9c Y:40 P:47 S:f9 pc: f8e4, reg_addr: f8eb, cycle:   5459
f8e4 90  5 d0 BCC  REL   A:40 X:9c Y:40 P:47 S:f9 pc: f8e6, reg_addr: f8eb, cycle:   5461
f8e6 d0  3 50 BNE  REL   A:40 X:9c Y:40 P:47 S:f9 pc: f8e8, reg_addr: f8eb, cycle:   5463
f8e8 50  1 60 BVC  REL   A:40 X:9c Y:40 P:47 S:f9 pc: f8ea, reg_addr: f8eb, cycle:   5465
f8ea 60 86  0 RTS  IMPL  A:40 X:9c Y:40 P:47 S:f9 pc: d3e2, reg_addr:    0, cycle:   5471
d3e2 e8 a9 3f INX  IMPL  A:40 X:9c Y:40 P:47 S:fb pc: d3e3, reg_addr:    0, cycle:   5473
d3e3 a9 3f 85 LDA  IMM   A:40 X:9d Y:40 P:c5 S:fb pc: d3e5, reg_addr:   3f, cycle:   5475
d3e5 85 78 20 STA  ZP    A:3f X:9d Y:40 P:45 S:fb pc: d3e7, reg_addr:   78, cycle:   5478
d3e7 20 ee f8 JSR  ABS   A:3f X:9d Y:40 P:45 S:fb pc: f8ee, reg_addr: f8ee, cycle:   5484
f8ee b8 60 f0 CLV  IMPL  A:3f X:9d Y:40 P:45 S:f9 pc: f8ef, reg_addr:    0, cycle:   5486
f8ef 60 f0  7 RTS  IMPL  A:3f X:9d Y:40 P: 5 S:f9 pc: d3ea, reg_addr:    0, cycle:   5492
d3ea c4 78 20 CPY  ZP    A:3f X:9d Y:40 P: 5 S:fb pc: d3ec, reg_addr:   78, cycle:   5495
d3ec 20 f0 f8 JSR  ABS   A:3f X:9d Y:40 P: 5 S:fb pc: f8f0, reg_addr: f8f0, cycle:   5501
f8f0 f0  7 30 BEQ  REL   A:3f X:9d Y:40 P: 5 S:f9 pc: f8f2, reg_addr: f8f9, cycle:   5503
f8f2 30  5 90 BMI  REL   A:3f X:9d Y:40 P: 5 S:f9 pc: f8f4, reg_addr: f8f9, cycle:   5505
f8f4 90  3 70 BCC  REL   A:3f X:9d Y:40 P: 5 S:f9 pc: f8f6, reg_addr: f8f9, cycle:   5507
f8f6 70  1 60 BVS  REL   A:3f X:9d Y:40 P: 5 S:f9 pc: f8f8, reg_addr: f8f9, cycle:   5509
f8f8 60 86  0 RTS  IMPL  A:3f X:9d Y:40 P: 5 S:f9 pc: d3ef, reg_addr:    0, cycle:   5515
d3ef e8 a9 41 INX  IMPL  A:3f X:9d Y:40 P: 5 S:fb pc: d3f0, reg_addr:    0, cycle:   5517
d3f0 a9 41 85 LDA  IMM   A:3f X:9e Y:40 P:85 S:fb pc: d3f2, reg_addr:   41, cycle:   5519
d3f2 85 78 c4 STA  ZP    A:41 X:9e Y:40 P: 5 S:fb pc: d3f4, reg_addr:   78, cycle:   5522
d3f4 c4 78 20 CPY  ZP    A:41 X:9e Y:40 P: 5 S:fb pc: d3f6, reg_addr:   78, cycle:   5525
d3f6 20 fc f8 JSR  ABS   A:41 X:9e Y:40 P:84 S:fb pc: f8fc, reg_addr: f8fc, cycle:   5531
f8fc f0  5 10 BEQ  REL   A:41 X:9e Y:40 P:84 S:f9 pc: f8fe, reg_addr: f903, cycle:   5533
f8fe 10  3 10 BPL  REL   A:41 X:9e Y:40 P:84 S:f9 pc: f900, reg_addr: f903, cycle:   5535
f900 10  1 60 BPL  REL   A:41 X:9e Y:40 P:84 S:f9 pc: f902, reg_addr: f903, cycle:   5537
f902 60 86  0 RTS  IMPL  A:41 X:9e Y:40 P:84 S:f9 pc: d3f9, reg_addr:    0, cycle:   5543
d3f9 e8 a9  0 INX  IMPL  A:41 X:9e Y:40 P:84 S:fb pc: d3fa, reg_addr:    0, cycle:   5545
d3fa a9  0 85 LDA  IMM   A:41 X:9f Y:40 P:84 S:fb pc: d3fc, reg_addr:    0, cycle:   5547
d3fc 85 78 20 STA  ZP    A: 0 X:9f Y:40 P: 6 S:fb pc: d3fe, reg_addr:   78, cycle:   5550
d3fe 20  6 f9 JSR  ABS   A: 0 X:9f Y:40 P: 6 S:fb pc: f906, reg_addr: f906, cycle:   5556
f906 a0 80 60 LDY  IMM   A: 0 X:9f Y:40 P: 6 S:f9 pc: f908, reg_addr:   80, cycle:   5558
f908 60 f0  5 RTS  IMPL  A: 0 X:9f Y:80 P:84 S:f9 pc: d401, reg_addr:    0, cycle:   5564
d401 c4 78 20 CPY  ZP    A: 0 X:9f Y:80 P:84 S:fb pc: d403, reg_addr:   78, cycle:   5567
d403 20  9 f9 JSR  ABS   A: 0 X:9f Y:80 P:85 S:fb pc: f909, reg_addr: f909, cycle:   5573
f909 f0  5 10 BEQ  REL   A: 0 X:9f Y:80 P:85 S:f9 pc: f90b, reg_addr: f910, cycle:   5575
f90b 10  3 90 BPL  REL   A: 0 X:9f Y:80 P:85 S:f9 pc: f90d, reg_addr: f910, cycle:   5577
f90d 90  1 60 BCC  REL   A: 0 X:9f Y:80 P:85 S:f9 pc: f90f, reg_addr: f910, cycle:   5579
f90f 60 86  0 RTS  IMPL  A: 0 X:9f Y:80 P:85 S:f9 pc: d406, reg_addr:    0, cycle:   5585
d406 e8 a9 80 INX  IMPL  A: 0 X:9f Y:80 P:85 S:fb pc: d407, reg_addr:    0, cycle:   5587
d407 a9 80 85 LDA  IMM   A: 0 X:a0 Y:80 P:85 S:fb pc: d409, reg_addr:   80, cycle:   5589
d409 85 78 c4 STA  ZP    A:80 X:a0 Y:80 P:85 S:fb pc: d40b, reg_addr:   78, cycle:   5592
d40b c4 78 20 CPY  ZP    A:80 X:a0 Y:80 P:85 S:fb pc: d40d, reg_addr:   78, cycle:   5595
d40d 20 13 f9 JSR  ABS   A:80 X:a0 Y:80 P: 7 S:fb pc: f913, reg_addr: f913, cycle:   5601
f913 d0  5 30 BNE  REL   A:80 X:a0 Y:80 P: 7 S:f9 pc: f915, reg_addr: f91a, cycle:   5603
f915 30  3 90 BMI  REL   A:80 X:a0 Y:80 P: 7 S:f9 pc: f917, reg_addr: f91a, cycle:   5605
f917 90  1 60 BCC  REL   A:80 X:a0 Y:80 P: 7 S:f9 pc: f919, reg_addr: f91a, cycle:   5607
f919 60 86  0 RTS  IMPL  A:80 X:a0 Y:80 P: 7 S:f9 pc: d410, reg_addr:    0, cycle:   5613
d410 e8 a9 81 INX  IMPL  A:80 X:a0 Y:80 P: 7 S:fb pc: d411, reg_addr:    0, cycle:   5615
d411 a9 81 85 LDA  IMM   A:80 X:a1 Y:80 P:85 S:fb pc: d413, reg_addr:   81, cycle:   5617
d413 85 78 c4 STA  ZP    A:81 X:a1 Y:80 P:85 S:fb pc: d415, reg_addr:   78, cycle:   5620
d415 c4 78 20 CPY  ZP    A:81 X:a1 Y:80 P:85 S:fb pc: d417, reg_addr:   78, cycle:   5623
d417 20 1d f9 JSR  ABS   A:81 X:a1 Y:80 P:84 S:fb pc: f91d, reg_addr: f91d, cycle:   5629
f91d b0  5 f0 BCS  REL   A:81 X:a1 Y:80 P:84 S:f9 pc: f91f, reg_addr: f924, cycle:   5631
f91f f0  3 10 BEQ  REL   A:81 X:a1 Y:80 P:84 S:f9 pc: f921, reg_addr: f924, cycle:   5633
f921 10  1 60 BPL  REL   A:81 X:a1 Y:80 P:84 S:f9 pc: f923, reg_addr: f924, cycle:   5635
f923 60 86  0 RTS  IMPL  A:81 X:a1 Y:80 P:84 S:f9 pc: d41a, reg_addr:    0, cycle:   5641
d41a e8 a9 7f INX  IMPL  A:81 X:a1 Y:80 P:84 S:fb pc: d41b, reg_addr:    0, cycle:   5643
d41b a9 7f 85 LDA  IMM   A:81 X:a2 Y:80 P:84 S:fb pc: d41d, reg_addr:   7f, cycle:   5645
d41d 85 78 c4 STA  ZP    A:7f X:a2 Y:80 P: 4 S:fb pc: d41f, reg_addr:   78, cycle:   5648
d41f c4 78 20 CPY  ZP    A:7f X:a2 Y:80 P: 4 S:fb pc: d421, reg_addr:   78, cycle:   5651
d421 20 27 f9 JSR  ABS   A:7f X:a2 Y:80 P: 5 S:fb pc: f927, reg_addr: f927, cycle:   5657
f927 90  5 f0 BCC  REL   A:7f X:a2 Y:80 P: 5 S:f9 pc: f929, reg_addr: f92e, cycle:   5659
f929 f0  3 30 BEQ  REL   A:7f X:a2 Y:80 P: 5 S:f9 pc: f92b, reg_addr: f92e, cycle:   5661
f92b 30  1 60 BMI  REL   A:7f X:a2 Y:80 P: 5 S:f9 pc: f92d, reg_addr: f92e, cycle:   5663
f92d 60 86  0 RTS  IMPL  A:7f X:a2 Y:80 P: 5 S:f9 pc: d424, reg_addr:    0, cycle:   5669
d424 e8 8a a8 INX  IMPL  A:7f X:a2 Y:80 P: 5 S:fb pc: d425, reg_addr:    0, cycle:   5671
d425 8a a8 20 TXA  IMPL  A:7f X:a3 Y:80 P:85 S:fb pc: d426, reg_addr:    0, cycle:   5673
d426 a8 20 90 TAY  IMPL  A:a3 X:a3 Y:80 P:85 S:fb pc: d427, reg_addr:    0, cycle:   5675
d427 20 90 f9 JSR  ABS   A:a3 X:a3 Y:a3 P:85 S:fb pc: f990, reg_addr: f990, cycle:   5681
f990 a2 55 a9 LDX  IMM   A:a3 X:a3 Y:a3 P:85 S:f9 pc: f992, reg_addr:   55, cycle:   5683
f992 a9 ff 85 LDA  IMM   A:a3 X:55 Y:a3 P: 5 S:f9 pc: f994, reg_addr:   ff, cycle:   5685
f994 85  1 ea STA  ZP    A:ff X:55 Y:a3 P:85 S:f9 pc: f996, reg_addr:    1, cycle:   5688
f996 ea 24  1 NOP  IMPL  A:ff X:55 Y:a3 P:85 S:f9 pc: f997, reg_addr:    0, cycle:   5690
f997 24  1 38 BIT  ZP    A:ff X:55 Y:a3 P:85 S:f9 pc: f999, reg_addr:    1, cycle:   5693
f999 38 a9  1 SEC  IMPL  A:ff X:55 Y:a3 P:c5 S:f9 pc: f99a, reg_addr:    0, cycle:   5695
f99a a9  1 60 LDA  IMM   A:ff X:55 Y:a3 P:c5 S:f9 pc: f99c, reg_addr:    1, cycle:   5697
f99c 60 90 1b RTS  IMPL  A: 1 X:55 Y:a3 P:45 S:f9 pc: d42a, reg_addr:    0, cycle:   5703
d42a 85 78 46 STA  ZP    A: 1 X:55 Y:a3 P:45 S:fb pc: d42c, reg_addr:   78, cycle:   5706
d42c 46 78 a5 LSR  ZP    A: 1 X:55 Y:a3 P:45 S:fb pc: d42e, reg_addr:   78, cycle:   5711
d42e a5 78 20 LDA  ZP    A: 1 X:55 Y:a3 P:47 S:fb pc: d430, reg_addr:   78, cycle:   5714
d430 20 9d f9 JSR  ABS   A: 0 X:55 Y:a3 P:47 S:fb pc: f99d, reg_addr: f99d, cycle:   5720
f99d 90 1b d0 BCC  REL   A: 0 X:55 Y:a3 P:47 S:f9 pc: f99f, reg_addr: f9ba, cycle:   5722
f99f d0 19 30 BNE  REL   A: 0 X:55 Y:a3 P:47 S:f9 pc: f9a1, reg_addr: f9ba, cycle:   5724
f9a1 30 17 50 BMI  REL   A: 0 X:55 Y:a3 P:47 S:f9 pc: f9a3, reg_addr: f9ba, cycle:   5726
f9a3 50 15 c9 BVC  REL   A: 0 X:55 Y:a3 P:47 S:f9 pc: f9a5, reg_addr: f9ba, cycle:   5728
f9a5 c9  0 d0 CMP  IMM   A: 0 X:55 Y:a3 P:47 S:f9 pc: f9a7, reg_addr:    0, cycle:   5730
f9a7 d0 11 b8 BNE  REL   A: 0 X:55 Y:a3 P:47 S:f9 pc: f9a9, reg_addr: f9ba, cycle:   5732
f9a9 b8 a9 aa CLV  IMPL  A: 0 X:55 Y:a3 P:47 S:f9 pc: f9aa, reg_addr:    0, cycle:   5734
f9aa a9 aa 60 LDA  IMM   A: 0 X:55 Y:a3 P: 7 S:f9 pc: f9ac, reg_addr:   aa, cycle:   5736
f9ac 60 b0  b RTS  IMPL  A:aa X:55 Y:a3 P:85 S:f9 pc: d433, reg_addr:    0, cycle:   5742
d433 c8 85 78 INY  IMPL  A:aa X:55 Y:a3 P:85 S:fb pc: d434, reg_addr:    0, cycle:   5744
d434 85 78 46 STA  ZP    A:aa X:55 Y:a4 P:85 S:fb pc: d436, reg_addr:   78, cycle:   5747
d436 46 78 a5 LSR  ZP    A:aa X:55 Y:a4 P:85 S:fb pc: d438, reg_addr:   78, cycle:   5752
d438 a5 78 20 LDA  ZP    A:aa X:55 Y:a4 P: 4 S:fb pc: d43a, reg_addr:   78, cycle:   5755
d43a 20 ad f9 JSR  ABS   A:55 X:55 Y:a4 P: 4 S:fb pc: f9ad, reg_addr: f9ad, cycle:   5761
f9ad b0  b f0 BCS  REL   A:55 X:55 Y:a4 P: 4 S:f9 pc: f9af, reg_addr: f9ba, cycle:   5763
f9af f0  9 30 BEQ  REL   A:55 X:55 Y:a4 P: 4 S:f9 pc: f9b1, reg_addr: f9ba, cycle:   5765
f9b1 30  7 70 BMI  REL   A:55 X:55 Y:a4 P: 4 S:f9 pc: f9b3, reg_addr: f9ba, cycle:   5767
f9b3 70  5 c9 BVS  REL   A:55 X:55 Y:a4 P: 4 S:f9 pc: f9b5, reg_addr: f9ba, cycle:   5769
f9b5 c9 55 d0 CMP  IMM   A:55 X:55 Y:a4 P: 4 S:f9 pc: f9b7, reg_addr:   55, cycle:   5771
f9b7 d0  1 60 BNE  REL   A:55 X:55 Y:a4 P: 7 S:f9 pc: f9b9, reg_addr: f9ba, cycle:   5773
f9b9 60 84  0 RTS  IMPL  A:55 X:55 Y:a4 P: 7 S:f9 pc: d43d, reg_addr:    0, cycle:   5779
d43d c8 20 bd INY  IMPL  A:55 X:55 Y:a4 P: 7 S:fb pc: d43e, reg_addr:    0, cycle:   5781
d43e 20 bd f9 JSR  ABS   A:55 X:55 Y:a5 P:85 S:fb pc: f9bd, reg_addr: f9bd, cycle:   5787
f9bd 24  1 38 BIT  ZP    A:55 X:55 Y:a5 P:85 S:f9 pc: f9bf, reg_addr:    1, cycle:   5790
f9bf 38 a9 80 SEC  IMPL  A:55 X:55 Y:a5 P:c5 S:f9 pc: f9c0, reg_addr:    0, cycle:   5792
f9c0 a9 80 60 LDA  IMM   A:55 X:55 Y:a5 P:c5 S:f9 pc: f9c2, reg_addr:   80, cycle:   5794
f9c2 60 90 1c RTS  IMPL  A:80 X:55 Y:a5 P:c5 S:f9 pc: d441, reg_addr:    0, cycle:   5800
d441 85 78  6 STA  ZP    A:80 X:55 Y:a5 P:c5 S:fb pc: d443, reg_addr:   78, cycle:   5803
d443  6 78 a5 ASL  ZP    A:80 X:55 Y:a5 P:c5 S:fb pc: d445, reg_addr:   78, cycle:   5808
d445 a5 78 20 LDA  ZP    A:80 X:55 Y:a5 P:47 S:fb pc: d447, reg_addr:   78, cycle:   5811
d447 20 c3 f9 JSR  ABS   A: 0 X:55 Y:a5 P:47 S:fb pc: f9c3, reg_addr: f9c3, cycle:   5817
f9c3 90 1c d0 BCC  REL   A: 0 X:55 Y:a5 P:47 S:f9 pc: f9c5, reg_addr: f9e1, cycle:   5819
f9c5 d0 1a 30 BNE  REL   A: 0 X:55 Y:a5 P:47 S:f9 pc: f9c7, reg_addr: f9e1, cycle:   5821
f9c7 30 18 50 BMI  REL   A: 0 X:55 Y:a5 P:47 S:f9 pc: f9c9, reg_addr: f9e1, cycle:   5823
f9c9 50 16 c9 BVC  REL   A: 0 X:55 Y:a5 P:47 S:f9 pc: f9cb, reg_addr: f9e1, cycle:   5825
f9cb c9  0 d0 CMP  IMM   A: 0 X:55 Y:a5 P:47 S:f9 pc: f9cd, reg_addr:    0, cycle:   5827
f9cd d0 12 b8 BNE  REL   A: 0 X:55 Y:a5 P:47 S:f9 pc: f9cf, reg_addr: f9e1, cycle:   5829
f9cf b8 a9 55 CLV  IMPL  A: 0 X:55 Y:a5 P:47 S:f9 pc: f9d0, reg_addr:    0, cycle:   5831
f9d0 a9 55 38 LDA  IMM   A: 0 X:55 Y:a5 P: 7 S:f9 pc: f9d2, reg_addr:   55, cycle:   5833
f9d2 38 60 b0 SEC  IMPL  A:55 X:55 Y:a5 P: 5 S:f9 pc: f9d3, reg_addr:    0, cycle:   5835
f9d3 60 b0  b RTS  IMPL  A:55 X:55 Y:a5 P: 5 S:f9 pc: d44a, reg_addr:    0, cycle:   5841
d44a c8 85 78 INY  IMPL  A:55 X:55 Y:a5 P: 5 S:fb pc: d44b, reg_addr:    0, cycle:   5843
d44b 85 78  6 STA  ZP    A:55 X:55 Y:a6 P:85 S:fb pc: d44d, reg_addr:   78, cycle:   5846
d44d  6 78 a5 ASL  ZP    A:55 X:55 Y:a6 P:85 S:fb pc: d44f, reg_addr:   78, cycle:   5851
d44f a5 78 20 LDA  ZP    A:55 X:55 Y:a6 P:84 S:fb pc: d451, reg_addr:   78, cycle:   5854
d451 20 d4 f9 JSR  ABS   A:aa X:55 Y:a6 P:84 S:fb pc: f9d4, reg_addr: f9d4, cycle:   5860
f9d4 b0  b f0 BCS  REL   A:aa X:55 Y:a6 P:84 S:f9 pc: f9d6, reg_addr: f9e1, cycle:   5862
f9d6 f0  9 10 BEQ  REL   A:aa X:55 Y:a6 P:84 S:f9 pc: f9d8, reg_addr: f9e1, cycle:   5864
f9d8 10  7 70 BPL  REL   A:aa X:55 Y:a6 P:84 S:f9 pc: f9da, reg_addr: f9e1, cycle:   5866
f9da 70  5 c9 BVS  REL   A:aa X:55 Y:a6 P:84 S:f9 pc: f9dc, reg_addr: f9e1, cycle:   5868
f9dc c9 aa d0 CMP  IMM   A:aa X:55 Y:a6 P:84 S:f9 pc: f9de, reg_addr:   aa, cycle:   5870
f9de d0  1 60 BNE  REL   A:aa X:55 Y:a6 P: 7 S:f9 pc: f9e0, reg_addr: f9e1, cycle:   5872
f9e0 60 84  0 RTS  IMPL  A:aa X:55 Y:a6 P: 7 S:f9 pc: d454, reg_addr:    0, cycle:   5878
d454 c8 20 e4 INY  IMPL  A:aa X:55 Y:a6 P: 7 S:fb pc: d455, reg_addr:    0, cycle:   5880
d455 20 e4 f9 JSR  ABS   A:aa X:55 Y:a7 P:85 S:fb pc: f9e4, reg_addr: f9e4, cycle:   5886
f9e4 24  1 38 BIT  ZP    A:aa X:55 Y:a7 P:85 S:f9 pc: f9e6, reg_addr:    1, cycle:   5889
f9e6 38 a9  1 SEC  IMPL  A:aa X:55 Y:a7 P:c5 S:f9 pc: f9e7, reg_addr:    0, cycle:   5891
f9e7 a9  1 60 LDA  IMM   A:aa X:55 Y:a7 P:c5 S:f9 pc: f9e9, reg_addr:    1, cycle:   5893
f9e9 60 90 1c RTS  IMPL  A: 1 X:55 Y:a7 P:45 S:f9 pc: d458, reg_addr:    0, cycle:   5899
d458 85 78 66 STA  ZP    A: 1 X:55 Y:a7 P:45 S:fb pc: d45a, reg_addr:   78, cycle:   5902
d45a 66 78 a5 ROR  ZP    A: 1 X:55 Y:a7 P:45 S:fb pc: d45c, reg_addr:   78, cycle:   5907
d45c a5 78 20 LDA  ZP    A: 1 X:55 Y:a7 P:c5 S:fb pc: d45e, reg_addr:   78, cycle:   5910
d45e 20 ea f9 JSR  ABS   A:80 X:55 Y:a7 P:c5 S:fb pc: f9ea, reg_addr: f9ea, cycle:   5916
f9ea 90 1c f0 BCC  REL   A:80 X:55 Y:a7 P:c5 S:f9 pc: f9ec, reg_addr: fa08, cycle:   5918
f9ec f0 1a 10 BEQ  REL   A:80 X:55 Y:a7 P:c5 S:f9 pc: f9ee, reg_addr: fa08, cycle:   5920
f9ee 10 18 50 BPL  REL   A:80 X:55 Y:a7 P:c5 S:f9 pc: f9f0, reg_addr: fa08, cycle:   5922
f9f0 50 16 c9 BVC  REL   A:80 X:55 Y:a7 P:c5 S:f9 pc: f9f2, reg_addr: fa08, cycle:   5924
f9f2 c9 80 d0 CMP  IMM   A:80 X:55 Y:a7 P:c5 S:f9 pc: f9f4, reg_addr:   80, cycle:   5926
f9f4 d0 12 b8 BNE  REL   A:80 X:55 Y:a7 P:47 S:f9 pc: f9f6, reg_addr: fa08, cycle:   5928
f9f6 b8 18 a9 CLV  IMPL  A:80 X:55 Y:a7 P:47 S:f9 pc: f9f7, reg_addr:    0, cycle:   5930
f9f7 18 a9 55 CLC  IMPL  A:80 X:55 Y:a7 P: 7 S:f9 pc: f9f8, reg_addr:    0, cycle:   5932
f9f8 a9 55 60 LDA  IMM   A:80 X:55 Y:a7 P: 6 S:f9 pc: f9fa, reg_addr:   55, cycle:   5934
f9fa 60 90  b RTS  IMPL  A:55 X:55 Y:a7 P: 4 S:f9 pc: d461, reg_addr:    0, cycle:   5940
d461 c8 85 78 INY  IMPL  A:55 X:55 Y:a7 P: 4 S:fb pc: d462, reg_addr:    0, cycle:   5942
d462 85 78 66 STA  ZP    A:55 X:55 Y:a8 P:84 S:fb pc: d464, reg_addr:   78, cycle:   5945
d464 66 78 a5 ROR  ZP    A:55 X:55 Y:a8 P:84 S:fb pc: d466, reg_addr:   78, cycle:   5950
d466 a5 78 20 LDA  ZP    A:55 X:55 Y:a8 P: 5 S:fb pc: d468, reg_addr:   78, cycle:   5953
d468 20 fb f9 JSR  ABS   A:2a X:55 Y:a8 P: 5 S:fb pc: f9fb, reg_addr: f9fb, cycle:   5959
f9fb 90  b f0 BCC  REL   A:2a X:55 Y:a8 P: 5 S:f9 pc: f9fd, reg_addr: fa08, cycle:   5961
f9fd f0  9 30 BEQ  REL   A:2a X:55 Y:a8 P: 5 S:f9 pc: f9ff, reg_addr: fa08, cycle:   5963
f9ff 30  7 70 BMI  REL   A:2a X:55 Y:a8 P: 5 S:f9 pc: fa01, reg_addr: fa08, cycle:   5965
fa01 70  5 c9 BVS  REL   A:2a X:55 Y:a8 P: 5 S:f9 pc: fa03, reg_addr: fa08, cycle:   5967
fa03 c9 2a d0 CMP  IMM   A:2a X:55 Y:a8 P: 5 S:f9 pc: fa05, reg_addr:   2a, cycle:   5969
fa05 d0  1 60 BNE  REL   A:2a X:55 Y:a8 P: 7 S:f9 pc: fa07, reg_addr: fa08, cycle:   5971
fa07 60 84  0 RTS  IMPL  A:2a X:55 Y:a8 P: 7 S:f9 pc: d46b, reg_addr:    0, cycle:   5977
d46b c8 20  a INY  IMPL  A:2a X:55 Y:a8 P: 7 S:fb pc: d46c, reg_addr:    0, cycle:   5979
d46c 20  a fa JSR  ABS   A:2a X:55 Y:a9 P:85 S:fb pc: fa0a, reg_addr: fa0a, cycle:   5985
fa0a 24  1 38 BIT  ZP    A:2a X:55 Y:a9 P:85 S:f9 pc: fa0c, reg_addr:    1, cycle:   5988
fa0c 38 a9 80 SEC  IMPL  A:2a X:55 Y:a9 P:c5 S:f9 pc: fa0d, reg_addr:    0, cycle:   5990
fa0d a9 80 60 LDA  IMM   A:2a X:55 Y:a9 P:c5 S:f9 pc: fa0f, reg_addr:   80, cycle:   5992
fa0f 60 90 1c RTS  IMPL  A:80 X:55 Y:a9 P:c5 S:f9 pc: d46f, reg_addr:    0, cycle:   5998
d46f 85 78 26 STA  ZP    A:80 X:55 Y:a9 P:c5 S:fb pc: d471, reg_addr:   78, cycle:   6001
d471 26 78 a5 ROL  ZP    A:80 X:55 Y:a9 P:c5 S:fb pc: d473, reg_addr:   78, cycle:   6006
d473 a5 78 20 LDA  ZP    A:80 X:55 Y:a9 P:45 S:fb pc: d475, reg_addr:   78, cycle:   6009
d475 20 10 fa JSR  ABS   A: 1 X:55 Y:a9 P:45 S:fb pc: fa10, reg_addr: fa10, cycle:   6015
fa10 90 1c f0 BCC  REL   A: 1 X:55 Y:a9 P:45 S:f9 pc: fa12, reg_addr: fa2e, cycle:   6017
fa12 f0 1a 30 BEQ  REL   A: 1 X:55 Y:a9 P:45 S:f9 pc: fa14, reg_addr: fa2e, cycle:   6019
fa14 30 18 50 BMI  REL   A: 1 X:55 Y:a9 P:45 S:f9 pc: fa16, reg_addr: fa2e, cycle:   6021
fa16 50 16 c9 BVC  REL   A: 1 X:55 Y:a9 P:45 S:f9 pc: fa18, reg_addr: fa2e, cycle:   6023
fa18 c9  1 d0 CMP  IMM   A: 1 X:55 Y:a9 P:45 S:f9 pc: fa1a, reg_addr:    1, cycle:   6025
fa1a d0 12 b8 BNE  REL   A: 1 X:55 Y:a9 P:47 S:f9 pc: fa1c, reg_addr: fa2e, cycle:   6027
fa1c b8 18 a9 CLV  IMPL  A: 1 X:55 Y:a9 P:47 S:f9 pc: fa1d, reg_addr:    0, cycle:   6029
fa1d 18 a9 55 CLC  IMPL  A: 1 X:55 Y:a9 P: 7 S:f9 pc: fa1e, reg_addr:    0, cycle:   6031
fa1e a9 55 60 LDA  IMM   A: 1 X:55 Y:a9 P: 6 S:f9 pc: fa20, reg_addr:   55, cycle:   6033
fa20 60 b0  b RTS  IMPL  A:55 X:55 Y:a9 P: 4 S:f9 pc: d478, reg_addr:    0, cycle:   6039
d478 c8 85 78 INY  IMPL  A:55 X:55 Y:a9 P: 4 S:fb pc: d479, reg_addr:    0, cycle:   6041
d479 85 78 26 STA  ZP    A:55 X:55 Y:aa P:84 S:fb pc: d47b, reg_addr:   78, cycle:   6044
d47b 26 78 a5 ROL  ZP    A:55 X:55 Y:aa P:84 S:fb pc: d47d, reg_addr:   78, cycle:   6049
d47d a5 78 20 LDA  ZP    A:55 X:55 Y:aa P:84 S:fb pc: d47f, reg_addr:   78, cycle:   6052
d47f 20 21 fa JSR  ABS   A:aa X:55 Y:aa P:84 S:fb pc: fa21, reg_addr: fa21, cycle:   6058
fa21 b0  b f0 BCS  REL   A:aa X:55 Y:aa P:84 S:f9 pc: fa23, reg_addr: fa2e, cycle:   6060
fa23 f0  9 10 BEQ  REL   A:aa X:55 Y:aa P:84 S:f9 pc: fa25, reg_addr: fa2e, cycle:   6062
fa25 10  7 70 BPL  REL   A:aa X:55 Y:aa P:84 S:f9 pc: fa27, reg_addr: fa2e, cycle:   6064
fa27 70  5 c9 BVS  REL   A:aa X:55 Y:aa P:84 S:f9 pc: fa29, reg_addr: fa2e, cycle:   6066
fa29 c9 aa d0 CMP  IMM   A:aa X:55 Y:aa P:84 S:f9 pc: fa2b, reg_addr:   aa, cycle:   6068
fa2b d0  1 60 BNE  REL   A:aa X:55 Y:aa P: 7 S:f9 pc: fa2d, reg_addr: fa2e, cycle:   6070
fa2d 60 84  0 RTS  IMPL  A:aa X:55 Y:aa P: 7 S:f9 pc: d482, reg_addr:    0, cycle:   6076
d482 a9 ff 85 LDA  IMM   A:aa X:55 Y:aa P: 7 S:fb pc: d484, reg_addr:   ff, cycle:   6078
d484 85 78 85 STA  ZP    A:ff X:55 Y:aa P:85 S:fb pc: d486, reg_addr:   78, cycle:   6081
d486 85  1 24 STA  ZP    A:ff X:55 Y:aa P:85 S:fb pc: d488, reg_addr:    1, cycle:   6084
d488 24  1 38 BIT  ZP    A:ff X:55 Y:aa P:85 S:fb pc: d48a, reg_addr:    1, cycle:   6087
d48a 38 e6 78 SEC  IMPL  A:ff X:55 Y:aa P:c5 S:fb pc: d48b, reg_addr:    0, cycle:   6089
d48b e6 78 d0 INC  ZP    A:ff X:55 Y:aa P:c5 S:fb pc: d48d, reg_addr:   78, cycle:   6094
d48d d0  c 30 BNE  REL   A:ff X:55 Y:aa P:47 S:fb pc: d48f, reg_addr: d49b, cycle:   6096
d48f 30  a 50 BMI  REL   A:ff X:55 Y:aa P:47 S:fb pc: d491, reg_addr: d49b, cycle:   6098
d491 50  8 90 BVC  REL   A:ff X:55 Y:aa P:47 S:fb pc: d493, reg_addr: d49b, cycle:   6100
d493 90  6 a5 BCC  REL   A:ff X:55 Y:aa P:47 S:fb pc: d495, reg_addr: d49b, cycle:   6102
d495 a5 78 c9 LDA  ZP    A:ff X:55 Y:aa P:47 S:fb pc: d497, reg_addr:   78, cycle:   6105
d497 c9  0 f0 CMP  IMM   A: 0 X:55 Y:aa P:47 S:fb pc: d499, reg_addr:    0, cycle:   6107
d499 f0  4 a9 BEQ  REL   A: 0 X:55 Y:aa P:47 S:fb pc: d49f, reg_addr: d49f, cycle:   6110
d49f a9 7f 85 LDA  IMM   A: 0 X:55 Y:aa P:47 S:fb pc: d4a1, reg_addr:   7f, cycle:   6112
d4a1 85 78 b8 STA  ZP    A:7f X:55 Y:aa P:45 S:fb pc: d4a3, reg_addr:   78, cycle:   6115
d4a3 b8 18 e6 CLV  IMPL  A:7f X:55 Y:aa P:45 S:fb pc: d4a4, reg_addr:    0, cycle:   6117
d4a4 18 e6 78 CLC  IMPL  A:7f X:55 Y:aa P: 5 S:fb pc: d4a5, reg_addr:    0, cycle:   6119
d4a5 e6 78 f0 INC  ZP    A:7f X:55 Y:aa P: 4 S:fb pc: d4a7, reg_addr:   78, cycle:   6124
d4a7 f0  c 10 BEQ  REL   A:7f X:55 Y:aa P:84 S:fb pc: d4a9, reg_addr: d4b5, cycle:   6126
d4a9 10  a 70 BPL  REL   A:7f X:55 Y:aa P:84 S:fb pc: d4ab, reg_addr: d4b5, cycle:   6128
d4ab 70  8 b0 BVS  REL   A:7f X:55 Y:aa P:84 S:fb pc: d4ad, reg_addr: d4b5, cycle:   6130
d4ad b0  6 a5 BCS  REL   A:7f X:55 Y:aa P:84 S:fb pc: d4af, reg_addr: d4b5, cycle:   6132
d4af a5 78 c9 LDA  ZP    A:7f X:55 Y:aa P:84 S:fb pc: d4b1, reg_addr:   78, cycle:   6135
d4b1 c9 80 f0 CMP  IMM   A:80 X:55 Y:aa P:84 S:fb pc: d4b3, reg_addr:   80, cycle:   6137
d4b3 f0  4 a9 BEQ  REL   A:80 X:55 Y:aa P: 7 S:fb pc: d4b9, reg_addr: d4b9, cycle:   6140
d4b9 a9  0 85 LDA  IMM   A:80 X:55 Y:aa P: 7 S:fb pc: d4bb, reg_addr:    0, cycle:   6142
d4bb 85 78 24 STA  ZP    A: 0 X:55 Y:aa P: 7 S:fb pc: d4bd, reg_addr:   78, cycle:   6145
d4bd 24  1 38 BIT  ZP    A: 0 X:55 Y:aa P: 7 S:fb pc: d4bf, reg_addr:    1, cycle:   6148
d4bf 38 c6 78 SEC  IMPL  A: 0 X:55 Y:aa P:c7 S:fb pc: d4c0, reg_addr:    0, cycle:   6150
d4c0 c6 78 f0 DEC  ZP    A: 0 X:55 Y:aa P:c7 S:fb pc: d4c2, reg_addr:   78, cycle:   6155
d4c2 f0  c 10 BEQ  REL   A: 0 X:55 Y:aa P:c5 S:fb pc: d4c4, reg_addr: d4d0, cycle:   6157
d4c4 10  a 50 BPL  REL   A: 0 X:55 Y:aa P:c5 S:fb pc: d4c6, reg_addr: d4d0, cycle:   6159
d4c6 50  8 90 BVC  REL   A: 0 X:55 Y:aa P:c5 S:fb pc: d4c8, reg_addr: d4d0, cycle:   6161
d4c8 90  6 a5 BCC  REL   A: 0 X:55 Y:aa P:c5 S:fb pc: d4ca, reg_addr: d4d0, cycle:   6163
d4ca a5 78 c9 LDA  ZP    A: 0 X:55 Y:aa P:c5 S:fb pc: d4cc, reg_addr:   78, cycle:   6166
d4cc c9 ff f0 CMP  IMM   A:ff X:55 Y:aa P:c5 S:fb pc: d4ce, reg_addr:   ff, cycle:   6168
d4ce f0  4 a9 BEQ  REL   A:ff X:55 Y:aa P:47 S:fb pc: d4d4, reg_addr: d4d4, cycle:   6171
d4d4 a9 80 85 LDA  IMM   A:ff X:55 Y:aa P:47 S:fb pc: d4d6, reg_addr:   80, cycle:   6173
d4d6 85 78 b8 STA  ZP    A:80 X:55 Y:aa P:c5 S:fb pc: d4d8, reg_addr:   78, cycle:   6176
d4d8 b8 18 c6 CLV  IMPL  A:80 X:55 Y:aa P:c5 S:fb pc: d4d9, reg_addr:    0, cycle:   6178
d4d9 18 c6 78 CLC  IMPL  A:80 X:55 Y:aa P:85 S:fb pc: d4da, reg_addr:    0, cycle:   6180
d4da c6 78 f0 DEC  ZP    A:80 X:55 Y:aa P:84 S:fb pc: d4dc, reg_addr:   78, cycle:   6185
d4dc f0  c 30 BEQ  REL   A:80 X:55 Y:aa P: 4 S:fb pc: d4de, reg_addr: d4ea, cycle:   6187
d4de 30  a 70 BMI  REL   A:80 X:55 Y:aa P: 4 S:fb pc: d4e0, reg_addr: d4ea, cycle:   6189
d4e0 70  8 b0 BVS  REL   A:80 X:55 Y:aa P: 4 S:fb pc: d4e2, reg_addr: d4ea, cycle:   6191
d4e2 b0  6 a5 BCS  REL   A:80 X:55 Y:aa P: 4 S:fb pc: d4e4, reg_addr: d4ea, cycle:   6193
d4e4 a5 78 c9 LDA  ZP    A:80 X:55 Y:aa P: 4 S:fb pc: d4e6, reg_addr:   78, cycle:   6196
d4e6 c9 7f f0 CMP  IMM   A:7f X:55 Y:aa P: 4 S:fb pc: d4e8, reg_addr:   7f, cycle:   6198
d4e8 f0  4 a9 BEQ  REL   A:7f X:55 Y:aa P: 7 S:fb pc: d4ee, reg_addr: d4ee, cycle:   6201
d4ee a9  1 85 LDA  IMM   A:7f X:55 Y:aa P: 7 S:fb pc: d4f0, reg_addr:    1, cycle:   6203
d4f0 85 78 c6 STA  ZP    A: 1 X:55 Y:aa P: 5 S:fb pc: d4f2, reg_addr:   78, cycle:   6206
d4f2 c6 78 f0 DEC  ZP    A: 1 X:55 Y:aa P: 5 S:fb pc: d4f4, reg_addr:   78, cycle:   6211
d4f4 f0  4 a9 BEQ  REL   A: 1 X:55 Y:aa P: 7 S:fb pc: d4fa, reg_addr: d4fa, cycle:   6214
d4fa 60 a9 55 RTS  IMPL  A: 1 X:55 Y:aa P: 7 S:fb pc: c615, reg_addr:    0, cycle:   6220
c615 20 fb d4 JSR  ABS   A: 1 X:55 Y:aa P: 7 S:fd pc: d4fb, reg_addr: d4fb, cycle:   6226
d4fb a9 55 8d LDA  IMM   A: 1 X:55 Y:aa P: 7 S:fb pc: d4fd, reg_addr:   55, cycle:   6228
d4fd 8d 78  6 STA  ABS   A:55 X:55 Y:aa P: 5 S:fb pc: d500, reg_addr:  678, cycle:   6232
d500 a9 ff 85 LDA  IMM   A:55 X:55 Y:aa P: 5 S:fb pc: d502, reg_addr:   ff, cycle:   6234
d502 85  1 24 STA  ZP    A:ff X:55 Y:aa P:85 S:fb pc: d504, reg_addr:    1, cycle:   6237
d504 24  1 a0 BIT  ZP    A:ff X:55 Y:aa P:85 S:fb pc: d506, reg_addr:    1, cycle:   6240
d506 a0 11 a2 LDY  IMM   A:ff X:55 Y:aa P:c5 S:fb pc: d508, reg_addr:   11, cycle:   6242
d508 a2 23 a9 LDX  IMM   A:ff X:55 Y:11 P:45 S:fb pc: d50a, reg_addr:   23, cycle:   6244
d50a a9  0 ad LDA  IMM   A:ff X:23 Y:11 P:45 S:fb pc: d50c, reg_addr:    0, cycle:   6246
d50c ad 78  6 LDA  ABS   A: 0 X:23 Y:11 P:47 S:fb pc: d50f, reg_addr:  678, cycle:   6250
d50f f0 10 30 BEQ  REL   A:55 X:23 Y:11 P:45 S:fb pc: d511, reg_addr: d521, cycle:   6252
d511 30  e c9 BMI  REL   A:55 X:23 Y:11 P:45 S:fb pc: d513, reg_addr: d521, cycle:   6254
d513 c9 55 d0 CMP  IMM   A:55 X:23 Y:11 P:45 S:fb pc: d515, reg_addr:   55, cycle:   6256
d515 d0  a c0 BNE  REL   A:55 X:23 Y:11 P:47 S:fb pc: d517, reg_addr: d521, cycle:   6258
d517 c0 11 d0 CPY  IMM   A:55 X:23 Y:11 P:47 S:fb pc: d519, reg_addr:   11, cycle:   6260
d519 d0  6 e0 BNE  REL   A:55 X:23 Y:11 P:47 S:fb pc: d51b, reg_addr: d521, cycle:   6262
d51b e0 23 50 CPX  IMM   A:55 X:23 Y:11 P:47 S:fb pc: d51d, reg_addr:   23, cycle:   6264
d51d 50  2 f0 BVC  REL   A:55 X:23 Y:11 P:47 S:fb pc: d51f, reg_addr: d521, cycle:   6266
d51f f0  4 a9 BEQ  REL   A:55 X:23 Y:11 P:47 S:fb pc: d525, reg_addr: d525, cycle:   6269
d525 a9 46 24 LDA  IMM   A:55 X:23 Y:11 P:47 S:fb pc: d527, reg_addr:   46, cycle:   6271
d527 24  1 8d BIT  ZP    A:46 X:23 Y:11 P:45 S:fb pc: d529, reg_addr:    1, cycle:   6274
d529 8d 78  6 STA  ABS   A:46 X:23 Y:11 P:c5 S:fb pc: d52c, reg_addr:  678, cycle:   6278
d52c f0  b 10 BEQ  REL   A:46 X:23 Y:11 P:c5 S:fb pc: d52e, reg_addr: d539, cycle:   6280
d52e 10  9 50 BPL  REL   A:46 X:23 Y:11 P:c5 S:fb pc: d530, reg_addr: d539, cycle:   6282
d530 50  7 ad BVC  REL   A:46 X:23 Y:11 P:c5 S:fb pc: d532, reg_addr: d539, cycle:   6284
d532 ad 78  6 LDA  ABS   A:46 X:23 Y:11 P:c5 S:fb pc: d535, reg_addr:  678, cycle:   6288
d535 c9 46 f0 CMP  IMM   A:46 X:23 Y:11 P:45 S:fb pc: d537, reg_addr:   46, cycle:   6290
d537 f0  4 a9 BEQ  REL   A:46 X:23 Y:11 P:47 S:fb pc: d53d, reg_addr: d53d, cycle:   6293
d53d a9 55 8d LDA  IMM   A:46 X:23 Y:11 P:47 S:fb pc: d53f, reg_addr:   55, cycle:   6295
d53f 8d 78  6 STA  ABS   A:55 X:23 Y:11 P:45 S:fb pc: d542, reg_addr:  678, cycle:   6299
d542 24  1 a9 BIT  ZP    A:55 X:23 Y:11 P:45 S:fb pc: d544, reg_addr:    1, cycle:   6302
d544 a9 11 a2 LDA  IMM   A:55 X:23 Y:11 P:c5 S:fb pc: d546, reg_addr:   11, cycle:   6304
d546 a2 23 a0 LDX  IMM   A:11 X:23 Y:11 P:45 S:fb pc: d548, reg_addr:   23, cycle:   6306
d548 a0  0 ac LDY  IMM   A:11 X:23 Y:11 P:45 S:fb pc: d54a, reg_addr:    0, cycle:   6308
d54a ac 78  6 LDY  ABS   A:11 X:23 Y: 0 P:47 S:fb pc: d54d, reg_addr:  678, cycle:   6312
d54d f0 10 30 BEQ  REL   A:11 X:23 Y:55 P:45 S:fb pc: d54f, reg_addr: d55f, cycle:   6314
d54f 30  e c0 BMI  REL   A:11 X:23 Y:55 P:45 S:fb pc: d551, reg_addr: d55f, cycle:   6316
d551 c0 55 d0 CPY  IMM   A:11 X:23 Y:55 P:45 S:fb pc: d553, reg_addr:   55, cycle:   6318
d553 d0  a c9 BNE  REL   A:11 X:23 Y:55 P:47 S:fb pc: d555, reg_addr: d55f, cycle:   6320
d555 c9 11 d0 CMP  IMM   A:11 X:23 Y:55 P:47 S:fb pc: d557, reg_addr:   11, cycle:   6322
d557 d0  6 e0 BNE  REL   A:11 X:23 Y:55 P:47 S:fb pc: d559, reg_addr: d55f, cycle:   6324
d559 e0 23 50 CPX  IMM   A:11 X:23 Y:55 P:47 S:fb pc: d55b, reg_addr:   23, cycle:   6326
d55b 50  2 f0 BVC  REL   A:11 X:23 Y:55 P:47 S:fb pc: d55d, reg_addr: d55f, cycle:   6328
d55d f0  4 a9 BEQ  REL   A:11 X:23 Y:55 P:47 S:fb pc: d563, reg_addr: d563, cycle:   6331
d563 a0 46 24 LDY  IMM   A:11 X:23 Y:55 P:47 S:fb pc: d565, reg_addr:   46, cycle:   6333
d565 24  1 8c BIT  ZP    A:11 X:23 Y:46 P:45 S:fb pc: d567, reg_addr:    1, cycle:   6336
d567 8c 78  6 STY  ABS   A:11 X:23 Y:46 P:c5 S:fb pc: d56a, reg_addr:  678, cycle:   6340
d56a f0  b 10 BEQ  REL   A:11 X:23 Y:46 P:c5 S:fb pc: d56c, reg_addr: d577, cycle:   6342
d56c 10  9 50 BPL  REL   A:11 X:23 Y:46 P:c5 S:fb pc: d56e, reg_addr: d577, cycle:   6344
d56e 50  7 ac BVC  REL   A:11 X:23 Y:46 P:c5 S:fb pc: d570, reg_addr: d577, cycle:   6346
d570 ac 78  6 LDY  ABS   A:11 X:23 Y:46 P:c5 S:fb pc: d573, reg_addr:  678, cycle:   6350
d573 c0 46 f0 CPY  IMM   A:11 X:23 Y:46 P:45 S:fb pc: d575, reg_addr:   46, cycle:   6352
d575 f0  4 a9 BEQ  REL   A:11 X:23 Y:46 P:47 S:fb pc: d57b, reg_addr: d57b, cycle:   6355
d57b 24  1 a9 BIT  ZP    A:11 X:23 Y:46 P:47 S:fb pc: d57d, reg_addr:    1, cycle:   6358
d57d a9 55 8d LDA  IMM   A:11 X:23 Y:46 P:c5 S:fb pc: d57f, reg_addr:   55, cycle:   6360
d57f 8d 78  6 STA  ABS   A:55 X:23 Y:46 P:45 S:fb pc: d582, reg_addr:  678, cycle:   6364
d582 a0 11 a9 LDY  IMM   A:55 X:23 Y:46 P:45 S:fb pc: d584, reg_addr:   11, cycle:   6366
d584 a9 23 a2 LDA  IMM   A:55 X:23 Y:11 P:45 S:fb pc: d586, reg_addr:   23, cycle:   6368
d586 a2  0 ae LDX  IMM   A:23 X:23 Y:11 P:45 S:fb pc: d588, reg_addr:    0, cycle:   6370
d588 ae 78  6 LDX  ABS   A:23 X: 0 Y:11 P:47 S:fb pc: d58b, reg_addr:  678, cycle:   6374
d58b f0 10 30 BEQ  REL   A:23 X:55 Y:11 P:45 S:fb pc: d58d, reg_addr: d59d, cycle:   6376
d58d 30  e e0 BMI  REL   A:23 X:55 Y:11 P:45 S:fb pc: d58f, reg_addr: d59d, cycle:   6378
d58f e0 55 d0 CPX  IMM   A:23 X:55 Y:11 P:45 S:fb pc: d591, reg_addr:   55, cycle:   6380
d591 d0  a c0 BNE  REL   A:23 X:55 Y:11 P:47 S:fb pc: d593, reg_addr: d59d, cycle:   6382
d593 c0 11 d0 CPY  IMM   A:23 X:55 Y:11 P:47 S:fb pc: d595, reg_addr:   11, cycle:   6384
d595 d0  6 c9 BNE  REL   A:23 X:55 Y:11 P:47 S:fb pc: d597, reg_addr: d59d, cycle:   6386
d597 c9 23 50 CMP  IMM   A:23 X:55 Y:11 P:47 S:fb pc: d599, reg_addr:   23, cycle:   6388
d599 50  2 f0 BVC  REL   A:23 X:55 Y:11 P:47 S:fb pc: d59b, reg_addr: d59d, cycle:   6390
d59b f0  4 a9 BEQ  REL   A:23 X:55 Y:11 P:47 S:fb pc: d5a1, reg_addr: d5a1, cycle:   6393
d5a1 a2 46 24 LDX  IMM   A:23 X:55 Y:11 P:47 S:fb pc: d5a3, reg_addr:   46, cycle:   6395
d5a3 24  1 8e BIT  ZP    A:23 X:46 Y:11 P:45 S:fb pc: d5a5, reg_addr:    1, cycle:   6398
d5a5 8e 78  6 STX  ABS   A:23 X:46 Y:11 P:c5 S:fb pc: d5a8, reg_addr:  678, cycle:   6402
d5a8 f0  b 10 BEQ  REL   A:23 X:46 Y:11 P:c5 S:fb pc: d5aa, reg_addr: d5b5, cycle:   6404
d5aa 10  9 50 BPL  REL   A:23 X:46 Y:11 P:c5 S:fb pc: d5ac, reg_addr: d5b5, cycle:   6406
d5ac 50  7 ae BVC  REL   A:23 X:46 Y:11 P:c5 S:fb pc: d5ae, reg_addr: d5b5, cycle:   6408
d5ae ae 78  6 LDX  ABS   A:23 X:46 Y:11 P:c5 S:fb pc: d5b1, reg_addr:  678, cycle:   6412
d5b1 e0 46 f0 CPX  IMM   A:23 X:46 Y:11 P:45 S:fb pc: d5b3, reg_addr:   46, cycle:   6414
d5b3 f0  4 a9 BEQ  REL   A:23 X:46 Y:11 P:47 S:fb pc: d5b9, reg_addr: d5b9, cycle:   6417
d5b9 a9 c0 8d LDA  IMM   A:23 X:46 Y:11 P:47 S:fb pc: d5bb, reg_addr:   c0, cycle:   6419
d5bb 8d 78  6 STA  ABS   A:c0 X:46 Y:11 P:c5 S:fb pc: d5be, reg_addr:  678, cycle:   6423
d5be a2 33 a0 LDX  IMM   A:c0 X:46 Y:11 P:c5 S:fb pc: d5c0, reg_addr:   33, cycle:   6425
d5c0 a0 88 a9 LDY  IMM   A:c0 X:33 Y:11 P:45 S:fb pc: d5c2, reg_addr:   88, cycle:   6427
d5c2 a9  5 2c LDA  IMM   A:c0 X:33 Y:88 P:c5 S:fb pc: d5c4, reg_addr:    5, cycle:   6429
d5c4 2c 78  6 BIT  ABS   A: 5 X:33 Y:88 P:45 S:fb pc: d5c7, reg_addr:  678, cycle:   6433
d5c7 10 10 50 BPL  REL   A: 5 X:33 Y:88 P:c7 S:fb pc: d5c9, reg_addr: d5d9, cycle:   6435
d5c9 50  e d0 BVC  REL   A: 5 X:33 Y:88 P:c7 S:fb pc: d5cb, reg_addr: d5d9, cycle:   6437
d5cb d0  c c9 BNE  REL   A: 5 X:33 Y:88 P:c7 S:fb pc: d5cd, reg_addr: d5d9, cycle:   6439
d5cd c9  5 d0 CMP  IMM   A: 5 X:33 Y:88 P:c7 S:fb pc: d5cf, reg_addr:    5, cycle:   6441
d5cf d0  8 e0 BNE  REL   A: 5 X:33 Y:88 P:47 S:fb pc: d5d1, reg_addr: d5d9, cycle:   6443
d5d1 e0 33 d0 CPX  IMM   A: 5 X:33 Y:88 P:47 S:fb pc: d5d3, reg_addr:   33, cycle:   6445
d5d3 d0  4 c0 BNE  REL   A: 5 X:33 Y:88 P:47 S:fb pc: d5d5, reg_addr: d5d9, cycle:   6447
d5d5 c0 88 f0 CPY  IMM   A: 5 X:33 Y:88 P:47 S:fb pc: d5d7, reg_addr:   88, cycle:   6449
d5d7 f0  4 a9 BEQ  REL   A: 5 X:33 Y:88 P:47 S:fb pc: d5dd, reg_addr: d5dd, cycle:   6452
d5dd a9  3 8d LDA  IMM   A: 5 X:33 Y:88 P:47 S:fb pc: d5df, reg_addr:    3, cycle:   6454
d5df 8d 78  6 STA  ABS   A: 3 X:33 Y:88 P:45 S:fb pc: d5e2, reg_addr:  678, cycle:   6458
d5e2 a9  1 2c LDA  IMM   A: 3 X:33 Y:88 P:45 S:fb pc: d5e4, reg_addr:    1, cycle:   6460
d5e4 2c 78  6 BIT  ABS   A: 1 X:33 Y:88 P:45 S:fb pc: d5e7, reg_addr:  678, cycle:   6464
d5e7 30  8 70 BMI  REL   A: 1 X:33 Y:88 P: 5 S:fb pc: d5e9, reg_addr: d5f1, cycle:   6466
d5e9 70  6 f0 BVS  REL   A: 1 X:33 Y:88 P: 5 S:fb pc: d5eb, reg_addr: d5f1, cycle:   6468
d5eb f0  4 c9 BEQ  REL   A: 1 X:33 Y:88 P: 5 S:fb pc: d5ed, reg_addr: d5f1, cycle:   6470
d5ed c9  1 f0 CMP  IMM   A: 1 X:33 Y:88 P: 5 S:fb pc: d5ef, reg_addr:    1, cycle:   6472
d5ef f0  4 a9 BEQ  REL   A: 1 X:33 Y:88 P: 7 S:fb pc: d5f5, reg_addr: d5f5, cycle:   6475
d5f5 a0 b8 a9 LDY  IMM   A: 1 X:33 Y:88 P: 7 S:fb pc: d5f7, reg_addr:   b8, cycle:   6477
d5f7 a9 aa 8d LDA  IMM   A: 1 X:33 Y:b8 P:85 S:fb pc: d5f9, reg_addr:   aa, cycle:   6479
d5f9 8d 78  6 STA  ABS   A:aa X:33 Y:b8 P:85 S:fb pc: d5fc, reg_addr:  678, cycle:   6483
d5fc 20 b6 f7 JSR  ABS   A:aa X:33 Y:b8 P:85 S:fb pc: f7b6, reg_addr: f7b6, cycle:   6489
f7b6 18 a9 ff CLC  IMPL  A:aa X:33 Y:b8 P:85 S:f9 pc: f7b7, reg_addr:    0, cycle:   6491
f7b7 a9 ff 85 LDA  IMM   A:aa X:33 Y:b8 P:84 S:f9 pc: f7b9, reg_addr:   ff, cycle:   6493
f7b9 85  1 24 STA  ZP    A:ff X:33 Y:b8 P:84 S:f9 pc: f7bb, reg_addr:    1, cycle:   6496
f7bb 24  1 a9 BIT  ZP    A:ff X:33 Y:b8 P:84 S:f9 pc: f7bd, reg_addr:    1, cycle:   6499
f7bd a9 55 60 LDA  IMM   A:ff X:33 Y:b8 P:c4 S:f9 pc: f7bf, reg_addr:   55, cycle:   6501
f7bf 60 b0  9 RTS  IMPL  A:55 X:33 Y:b8 P:44 S:f9 pc: d5ff, reg_addr:    0, cycle:   6507
d5ff  d 78  6 ORA  ABS   A:55 X:33 Y:b8 P:44 S:fb pc: d602, reg_addr:  678, cycle:   6511
d602 20 c0 f7 JSR  ABS   A:ff X:33 Y:b8 P:c4 S:fb pc: f7c0, reg_addr: f7c0, cycle:   6517
f7c0 b0  9 10 BCS  REL   A:ff X:33 Y:b8 P:c4 S:f9 pc: f7c2, reg_addr: f7cb, cycle:   6519
f7c2 10  7 c9 BPL  REL   A:ff X:33 Y:b8 P:c4 S:f9 pc: f7c4, reg_addr: f7cb, cycle:   6521
f7c4 c9 ff d0 CMP  IMM   A:ff X:33 Y:b8 P:c4 S:f9 pc: f7c6, reg_addr:   ff, cycle:   6523
f7c6 d0  3 50 BNE  REL   A:ff X:33 Y:b8 P:47 S:f9 pc: f7c8, reg_addr: f7cb, cycle:   6525
f7c8 50  1 60 BVC  REL   A:ff X:33 Y:b8 P:47 S:f9 pc: f7ca, reg_addr: f7cb, cycle:   6527
f7ca 60 84  0 RTS  IMPL  A:ff X:33 Y:b8 P:47 S:f9 pc: d605, reg_addr:    0, cycle:   6533
d605 c8 a9  0 INY  IMPL  A:ff X:33 Y:b8 P:47 S:fb pc: d606, reg_addr:    0, cycle:   6535
d606 a9  0 8d LDA  IMM   A:ff X:33 Y:b9 P:c5 S:fb pc: d608, reg_addr:    0, cycle:   6537
d608 8d 78  6 STA  ABS   A: 0 X:33 Y:b9 P:47 S:fb pc: d60b, reg_addr:  678, cycle:   6541
d60b 20 ce f7 JSR  ABS   A: 0 X:33 Y:b9 P:47 S:fb pc: f7ce, reg_addr: f7ce, cycle:   6547
f7ce 38 b8 a9 SEC  IMPL  A: 0 X:33 Y:b9 P:47 S:f9 pc: f7cf, reg_addr:    0, cycle:   6549
f7cf b8 a9  0 CLV  IMPL  A: 0 X:33 Y:b9 P:47 S:f9 pc: f7d0, reg_addr:    0, cycle:   6551
f7d0 a9  0 60 LDA  IMM   A: 0 X:33 Y:b9 P: 7 S:f9 pc: f7d2, reg_addr:    0, cycle:   6553
f7d2 60 d0  7 RTS  IMPL  A: 0 X:33 Y:b9 P: 7 S:f9 pc: d60e, reg_addr:    0, cycle:   6559
d60e  d 78  6 ORA  ABS   A: 0 X:33 Y:b9 P: 7 S:fb pc: d611, reg_addr:  678, cycle:   6563
d611 20 d3 f7 JSR  ABS   A: 0 X:33 Y:b9 P: 7 S:fb pc: f7d3, reg_addr: f7d3, cycle:   6569
f7d3 d0  7 70 BNE  REL   A: 0 X:33 Y:b9 P: 7 S:f9 pc: f7d5, reg_addr: f7dc, cycle:   6571
f7d5 70  5 90 BVS  REL   A: 0 X:33 Y:b9 P: 7 S:f9 pc: f7d7, reg_addr: f7dc, cycle:   6573
f7d7 90  3 30 BCC  REL   A: 0 X:33 Y:b9 P: 7 S:f9 pc: f7d9, reg_addr: f7dc, cycle:   6575
f7d9 30  1 60 BMI  REL   A: 0 X:33 Y:b9 P: 7 S:f9 pc: f7db, reg_addr: f7dc, cycle:   6577
f7db 60 84  0 RTS  IMPL  A: 0 X:33 Y:b9 P: 7 S:f9 pc: d614, reg_addr:    0, cycle:   6583
d614 c8 a9 aa INY  IMPL  A: 0 X:33 Y:b9 P: 7 S:fb pc: d615, reg_addr:    0, cycle:   6585
d615 a9 aa 8d LDA  IMM   A: 0 X:33 Y:ba P:85 S:fb pc: d617, reg_addr:   aa, cycle:   6587
d617 8d 78  6 STA  ABS   A:aa X:33 Y:ba P:85 S:fb pc: d61a, reg_addr:  678, cycle:   6591
d61a 20 df f7 JSR  ABS   A:aa X:33 Y:ba P:85 S:fb pc: f7df, reg_addr: f7df, cycle:   6597
f7df 18 24  1 CLC  IMPL  A:aa X:33 Y:ba P:85 S:f9 pc: f7e0, reg_addr:    0, cycle:   6599
f7e0 24  1 a9 BIT  ZP    A:aa X:33 Y:ba P:84 S:f9 pc: f7e2, reg_addr:    1, cycle:   6602
f7e2 a9 55 60 LDA  IMM   A:aa X:33 Y:ba P:c4 S:f9 pc: f7e4, reg_addr:   55, cycle:   6604
f7e4 60 d0  7 RTS  IMPL  A:55 X:33 Y:ba P:44 S:f9 pc: d61d, reg_addr:    0, cycle:   6610
d61d 2d 78  6 AND  ABS   A:55 X:33 Y:ba P:44 S:fb pc: d620, reg_addr:  678, cycle:   6614
d620 20 e5 f7 JSR  ABS   A: 0 X:33 Y:ba P:46 S:fb pc: f7e5, reg_addr: f7e5, cycle:   6620
f7e5 d0  7 50 BNE  REL   A: 0 X:33 Y:ba P:46 S:f9 pc: f7e7, reg_addr: f7ee, cycle:   6622
f7e7 50  5 b0 BVC  REL   A: 0 X:33 Y:ba P:46 S:f9 pc: f7e9, reg_addr: f7ee, cycle:   6624
f7e9 b0  3 30 BCS  REL   A: 0 X:33 Y:ba P:46 S:f9 pc: f7eb, reg_addr: f7ee, cycle:   6626
f7eb 30  1 60 BMI  REL   A: 0 X:33 Y:ba P:46 S:f9 pc: f7ed, reg_addr: f7ee, cycle:   6628
f7ed 60 84  0 RTS  IMPL  A: 0 X:33 Y:ba P:46 S:f9 pc: d623, reg_addr:    0, cycle:   6634
d623 c8 a9 ef INY  IMPL  A: 0 X:33 Y:ba P:46 S:fb pc: d624, reg_addr:    0, cycle:   6636
d624 a9 ef 8d LDA  IMM   A: 0 X:33 Y:bb P:c4 S:fb pc: d626, reg_addr:   ef, cycle:   6638
d626 8d 78  6 STA  ABS   A:ef X:33 Y:bb P:c4 S:fb pc: d629, reg_addr:  678, cycle:   6642
d629 20 f1 f7 JSR  ABS   A:ef X:33 Y:bb P:c4 S:fb pc: f7f1, reg_addr: f7f1, cycle:   6648
f7f1 38 b8 a9 SEC  IMPL  A:ef X:33 Y:bb P:c4 S:f9 pc: f7f2, reg_addr:    0, cycle:   6650
f7f2 b8 a9 f8 CLV  IMPL  A:ef X:33 Y:bb P:c5 S:f9 pc: f7f3, reg_addr:    0, cycle:   6652
f7f3 a9 f8 60 LDA  IMM   A:ef X:33 Y:bb P:85 S:f9 pc: f7f5, reg_addr:   f8, cycle:   6654
f7f5 60 90  9 RTS  IMPL  A:f8 X:33 Y:bb P:85 S:f9 pc: d62c, reg_addr:    0, cycle:   6660
d62c 2d 78  6 AND  ABS   A:f8 X:33 Y:bb P:85 S:fb pc: d62f, reg_addr:  678, cycle:   6664
d62f 20 f6 f7 JSR  ABS   A:e8 X:33 Y:bb P:85 S:fb pc: f7f6, reg_addr: f7f6, cycle:   6670
f7f6 90  9 10 BCC  REL   A:e8 X:33 Y:bb P:85 S:f9 pc: f7f8, reg_addr: f801, cycle:   6672
f7f8 10  7 c9 BPL  REL   A:e8 X:33 Y:bb P:85 S:f9 pc: f7fa, reg_addr: f801, cycle:   6674
f7fa c9 e8 d0 CMP  IMM   A:e8 X:33 Y:bb P:85 S:f9 pc: f7fc, reg_addr:   e8, cycle:   6676
f7fc d0  3 70 BNE  REL   A:e8 X:33 Y:bb P: 7 S:f9 pc: f7fe, reg_addr: f801, cycle:   6678
f7fe 70  1 60 BVS  REL   A:e8 X:33 Y:bb P: 7 S:f9 pc: f800, reg_addr: f801, cycle:   6680
f800 60 84  0 RTS  IMPL  A:e8 X:33 Y:bb P: 7 S:f9 pc: d632, reg_addr:    0, cycle:   6686
d632 c8 a9 aa INY  IMPL  A:e8 X:33 Y:bb P: 7 S:fb pc: d633, reg_addr:    0, cycle:   6688
d633 a9 aa 8d LDA  IMM   A:e8 X:33 Y:bc P:85 S:fb pc: d635, reg_addr:   aa, cycle:   6690
d635 8d 78  6 STA  ABS   A:aa X:33 Y:bc P:85 S:fb pc: d638, reg_addr:  678, cycle:   6694
d638 20  4 f8 JSR  ABS   A:aa X:33 Y:bc P:85 S:fb pc: f804, reg_addr: f804, cycle:   6700
f804 18 24  1 CLC  IMPL  A:aa X:33 Y:bc P:85 S:f9 pc: f805, reg_addr:    0, cycle:   6702
f805 24  1 a9 BIT  ZP    A:aa X:33 Y:bc P:84 S:f9 pc: f807, reg_addr:    1, cycle:   6705
f807 a9 5f 60 LDA  IMM   A:aa X:33 Y:bc P:c4 S:f9 pc: f809, reg_addr:   5f, cycle:   6707
f809 60 b0  9 RTS  IMPL  A:5f X:33 Y:bc P:44 S:f9 pc: d63b, reg_addr:    0, cycle:   6713
d63b 4d 78  6 EOR  ABS   A:5f X:33 Y:bc P:44 S:fb pc: d63e, reg_addr:  678, cycle:   6717
d63e 20  a f8 JSR  ABS   A:f5 X:33 Y:bc P:c4 S:fb pc: f80a, reg_addr: f80a, cycle:   6723
f80a b0  9 10 BCS  REL   A:f5 X:33 Y:bc P:c4 S:f9 pc: f80c, reg_addr: f815, cycle:   6725
f80c 10  7 c9 BPL  REL   A:f5 X:33 Y:bc P:c4 S:f9 pc: f80e, reg_addr: f815, cycle:   6727
f80e c9 f5 d0 CMP  IMM   A:f5 X:33 Y:bc P:c4 S:f9 pc: f810, reg_addr:   f5, cycle:   6729
f810 d0  3 50 BNE  REL   A:f5 X:33 Y:bc P:47 S:f9 pc: f812, reg_addr: f815, cycle:   6731
f812 50  1 60 BVC  REL   A:f5 X:33 Y:bc P:47 S:f9 pc: f814, reg_addr: f815, cycle:   6733
f814 60 84  0 RTS  IMPL  A:f5 X:33 Y:bc P:47 S:f9 pc: d641, reg_addr:    0, cycle:   6739
d641 c8 a9 70 INY  IMPL  A:f5 X:33 Y:bc P:47 S:fb pc: d642, reg_addr:    0, cycle:   6741
d642 a9 70 8d LDA  IMM   A:f5 X:33 Y:bd P:c5 S:fb pc: d644, reg_addr:   70, cycle:   6743
d644 8d 78  6 STA  ABS   A:70 X:33 Y:bd P:45 S:fb pc: d647, reg_addr:  678, cycle:   6747
d647 20 18 f8 JSR  ABS   A:70 X:33 Y:bd P:45 S:fb pc: f818, reg_addr: f818, cycle:   6753
f818 38 b8 a9 SEC  IMPL  A:70 X:33 Y:bd P:45 S:f9 pc: f819, reg_addr:    0, cycle:   6755
f819 b8 a9 70 CLV  IMPL  A:70 X:33 Y:bd P:45 S:f9 pc: f81a, reg_addr:    0, cycle:   6757
f81a a9 70 60 LDA  IMM   A:70 X:33 Y:bd P: 5 S:f9 pc: f81c, reg_addr:   70, cycle:   6759
f81c 60 d0  7 RTS  IMPL  A:70 X:33 Y:bd P: 5 S:f9 pc: d64a, reg_addr:    0, cycle:   6765
d64a 4d 78  6 EOR  ABS   A:70 X:33 Y:bd P: 5 S:fb pc: d64d, reg_addr:  678, cycle:   6769
d64d 20 1d f8 JSR  ABS   A: 0 X:33 Y:bd P: 7 S:fb pc: f81d, reg_addr: f81d, cycle:   6775
f81d d0  7 70 BNE  REL   A: 0 X:33 Y:bd P: 7 S:f9 pc: f81f, reg_addr: f826, cycle:   6777
f81f 70  5 90 BVS  REL   A: 0 X:33 Y:bd P: 7 S:f9 pc: f821, reg_addr: f826, cycle:   6779
f821 90  3 30 BCC  REL   A: 0 X:33 Y:bd P: 7 S:f9 pc: f823, reg_addr: f826, cycle:   6781
f823 30  1 60 BMI  REL   A: 0 X:33 Y:bd P: 7 S:f9 pc: f825, reg_addr: f826, cycle:   6783
f825 60 84  0 RTS  IMPL  A: 0 X:33 Y:bd P: 7 S:f9 pc: d650, reg_addr:    0, cycle:   6789
d650 c8 a9 69 INY  IMPL  A: 0 X:33 Y:bd P: 7 S:fb pc: d651, reg_addr:    0, cycle:   6791
d651 a9 69 8d LDA  IMM   A: 0 X:33 Y:be P:85 S:fb pc: d653, reg_addr:   69, cycle:   6793
d653 8d 78  6 STA  ABS   A:69 X:33 Y:be P: 5 S:fb pc: d656, reg_addr:  678, cycle:   6797
d656 20 29 f8 JSR  ABS   A:69 X:33 Y:be P: 5 S:fb pc: f829, reg_addr: f829, cycle:   6803
f829 18 24  1 CLC  IMPL  A:69 X:33 Y:be P: 5 S:f9 pc: f82a, reg_addr:    0, cycle:   6805
f82a 24  1 a9 BIT  ZP    A:69 X:33 Y:be P: 4 S:f9 pc: f82c, reg_addr:    1, cycle:   6808
f82c a9  0 60 LDA  IMM   A:69 X:33 Y:be P:c4 S:f9 pc: f82e, reg_addr:    0, cycle:   6810
f82e 60 30  9 RTS  IMPL  A: 0 X:33 Y:be P:46 S:f9 pc: d659, reg_addr:    0, cycle:   6816
d659 6d 78  6 ADC  ABS   A: 0 X:33 Y:be P:46 S:fb pc: d65c, reg_addr:  678, cycle:   6820
d65c 20 2f f8 JSR  ABS   A:69 X:33 Y:be P: 4 S:fb pc: f82f, reg_addr: f82f, cycle:   6826
f82f 30  9 b0 BMI  REL   A:69 X:33 Y:be P: 4 S:f9 pc: f831, reg_addr: f83a, cycle:   6828
f831 b0  7 c9 BCS  REL   A:69 X:33 Y:be P: 4 S:f9 pc: f833, reg_addr: f83a, cycle:   6830
f833 c9 69 d0 CMP  IMM   A:69 X:33 Y:be P: 4 S:f9 pc: f835, reg_addr:   69, cycle:   6832
f835 d0  3 70 BNE  REL   A:69 X:33 Y:be P: 7 S:f9 pc: f837, reg_addr: f83a, cycle:   6834
f837 70  1 60 BVS  REL   A:69 X:33 Y:be P: 7 S:f9 pc: f839, reg_addr: f83a, cycle:   6836
f839 60 84  0 RTS  IMPL  A:69 X:33 Y:be P: 7 S:f9 pc: d65f, reg_addr:    0, cycle:   6842
d65f c8 20 3d INY  IMPL  A:69 X:33 Y:be P: 7 S:fb pc: d660, reg_addr:    0, cycle:   6844
d660 20 3d f8 JSR  ABS   A:69 X:33 Y:bf P:85 S:fb pc: f83d, reg_addr: f83d, cycle:   6850
f83d 38 24  1 SEC  IMPL  A:69 X:33 Y:bf P:85 S:f9 pc: f83e, reg_addr:    0, cycle:   6852
f83e 24  1 a9 BIT  ZP    A:69 X:33 Y:bf P:85 S:f9 pc: f840, reg_addr:    1, cycle:   6855
f840 a9  0 60 LDA  IMM   A:69 X:33 Y:bf P:c5 S:f9 pc: f842, reg_addr:    0, cycle:   6857
f842 60 30  9 RTS  IMPL  A: 0 X:33 Y:bf P:47 S:f9 pc: d663, reg_addr:    0, cycle:   6863
d663 6d 78  6 ADC  ABS   A: 0 X:33 Y:bf P:47 S:fb pc: d666, reg_addr:  678, cycle:   6867
d666 20 43 f8 JSR  ABS   A:6a X:33 Y:bf P: 4 S:fb pc: f843, reg_addr: f843, cycle:   6873
f843 30  9 b0 BMI  REL   A:6a X:33 Y:bf P: 4 S:f9 pc: f845, reg_addr: f84e, cycle:   6875
f845 b0  7 c9 BCS  REL   A:6a X:33 Y:bf P: 4 S:f9 pc: f847, reg_addr: f84e, cycle:   6877
f847 c9 6a d0 CMP  IMM   A:6a X:33 Y:bf P: 4 S:f9 pc: f849, reg_addr:   6a, cycle:   6879
f849 d0  3 70 BNE  REL   A:6a X:33 Y:bf P: 7 S:f9 pc: f84b, reg_addr: f84e, cycle:   6881
f84b 70  1 60 BVS  REL   A:6a X:33 Y:bf P: 7 S:f9 pc: f84d, reg_addr: f84e, cycle:   6883
f84d 60 84  0 RTS  IMPL  A:6a X:33 Y:bf P: 7 S:f9 pc: d669, reg_addr:    0, cycle:   6889
d669 c8 a9 7f INY  IMPL  A:6a X:33 Y:bf P: 7 S:fb pc: d66a, reg_addr:    0, cycle:   6891
d66a a9 7f 8d LDA  IMM   A:6a X:33 Y:c0 P:85 S:fb pc: d66c, reg_addr:   7f, cycle:   6893
d66c 8d 78  6 STA  ABS   A:7f X:33 Y:c0 P: 5 S:fb pc: d66f, reg_addr:  678, cycle:   6897
d66f 20 51 f8 JSR  ABS   A:7f X:33 Y:c0 P: 5 S:fb pc: f851, reg_addr: f851, cycle:   6903
f851 38 b8 a9 SEC  IMPL  A:7f X:33 Y:c0 P: 5 S:f9 pc: f852, reg_addr:    0, cycle:   6905
f852 b8 a9 7f CLV  IMPL  A:7f X:33 Y:c0 P: 5 S:f9 pc: f853, reg_addr:    0, cycle:   6907
f853 a9 7f 60 LDA  IMM   A:7f X:33 Y:c0 P: 5 S:f9 pc: f855, reg_addr:   7f, cycle:   6909
f855 60 10  9 RTS  IMPL  A:7f X:33 Y:c0 P: 5 S:f9 pc: d672, reg_addr:    0, cycle:   6915
d672 6d 78  6 ADC  ABS   A:7f X:33 Y:c0 P: 5 S:fb pc: d675, reg_addr:  678, cycle:   6919
d675 20 56 f8 JSR  ABS   A:ff X:33 Y:c0 P:c4 S:fb pc: f856, reg_addr: f856, cycle:   6925
f856 10  9 b0 BPL  REL   A:ff X:33 Y:c0 P:c4 S:f9 pc: f858, reg_addr: f861, cycle:   6927
f858 b0  7 c9 BCS  REL   A:ff X:33 Y:c0 P:c4 S:f9 pc: f85a, reg_addr: f861, cycle:   6929
f85a c9 ff d0 CMP  IMM   A:ff X:33 Y:c0 P:c4 S:f9 pc: f85c, reg_addr:   ff, cycle:   6931
f85c d0  3 50 BNE  REL   A:ff X:33 Y:c0 P:47 S:f9 pc: f85e, reg_addr: f861, cycle:   6933
f85e 50  1 60 BVC  REL   A:ff X:33 Y:c0 P:47 S:f9 pc: f860, reg_addr: f861, cycle:   6935
f860 60 84  0 RTS  IMPL  A:ff X:33 Y:c0 P:47 S:f9 pc: d678, reg_addr:    0, cycle:   6941
d678 c8 a9 80 INY  IMPL  A:ff X:33 Y:c0 P:47 S:fb pc: d679, reg_addr:    0, cycle:   6943
d679 a9 80 8d LDA  IMM   A:ff X:33 Y:c1 P:c5 S:fb pc: d67b, reg_addr:   80, cycle:   6945
d67b 8d 78  6 STA  ABS   A:80 X:33 Y:c1 P:c5 S:fb pc: d67e, reg_addr:  678, cycle:   6949
d67e 20 64 f8 JSR  ABS   A:80 X:33 Y:c1 P:c5 S:fb pc: f864, reg_addr: f864, cycle:   6955
f864 18 24  1 CLC  IMPL  A:80 X:33 Y:c1 P:c5 S:f9 pc: f865, reg_addr:    0, cycle:   6957
f865 24  1 a9 BIT  ZP    A:80 X:33 Y:c1 P:c4 S:f9 pc: f867, reg_addr:    1, cycle:   6960
f867 a9 7f 60 LDA  IMM   A:80 X:33 Y:c1 P:c4 S:f9 pc: f869, reg_addr:   7f, cycle:   6962
f869 60 10  9 RTS  IMPL  A:7f X:33 Y:c1 P:44 S:f9 pc: d681, reg_addr:    0, cycle:   6968
d681 6d 78  6 ADC  ABS   A:7f X:33 Y:c1 P:44 S:fb pc: d684, reg_addr:  678, cycle:   6972
d684 20 6a f8 JSR  ABS   A:ff X:33 Y:c1 P:84 S:fb pc: f86a, reg_addr: f86a, cycle:   6978
f86a 10  9 b0 BPL  REL   A:ff X:33 Y:c1 P:84 S:f9 pc: f86c, reg_addr: f875, cycle:   6980
f86c b0  7 c9 BCS  REL   A:ff X:33 Y:c1 P:84 S:f9 pc: f86e, reg_addr: f875, cycle:   6982
f86e c9 ff d0 CMP  IMM   A:ff X:33 Y:c1 P:84 S:f9 pc: f870, reg_addr:   ff, cycle:   6984
f870 d0  3 70 BNE  REL   A:ff X:33 Y:c1 P: 7 S:f9 pc: f872, reg_addr: f875, cycle:   6986
f872 70  1 60 BVS  REL   A:ff X:33 Y:c1 P: 7 S:f9 pc: f874, reg_addr: f875, cycle:   6988
f874 60 84  0 RTS  IMPL  A:ff X:33 Y:c1 P: 7 S:f9 pc: d687, reg_addr:    0, cycle:   6994
d687 c8 20 78 INY  IMPL  A:ff X:33 Y:c1 P: 7 S:fb pc: d688, reg_addr:    0, cycle:   6996
d688 20 78 f8 JSR  ABS   A:ff X:33 Y:c2 P:85 S:fb pc: f878, reg_addr: f878, cycle:   7002
f878 38 b8 a9 SEC  IMPL  A:ff X:33 Y:c2 P:85 S:f9 pc: f879, reg_addr:    0, cycle:   7004
f879 b8 a9 7f CLV  IMPL  A:ff X:33 Y:c2 P:85 S:f9 pc: f87a, reg_addr:    0, cycle:   7006
f87a a9 7f 60 LDA  IMM   A:ff X:33 Y:c2 P:85 S:f9 pc: f87c, reg_addr:   7f, cycle:   7008
f87c 60 d0  7 RTS  IMPL  A:7f X:33 Y:c2 P: 5 S:f9 pc: d68b, reg_addr:    0, cycle:   7014
d68b 6d 78  6 ADC  ABS   A:7f X:33 Y:c2 P: 5 S:fb pc: d68e, reg_addr:  678, cycle:   7018
d68e 20 7d f8 JSR  ABS   A: 0 X:33 Y:c2 P: 7 S:fb pc: f87d, reg_addr: f87d, cycle:   7024
f87d d0  7 30 BNE  REL   A: 0 X:33 Y:c2 P: 7 S:f9 pc: f87f, reg_addr: f886, cycle:   7026
f87f 30  5 70 BMI  REL   A: 0 X:33 Y:c2 P: 7 S:f9 pc: f881, reg_addr: f886, cycle:   7028
f881 70  3 90 BVS  REL   A: 0 X:33 Y:c2 P: 7 S:f9 pc: f883, reg_addr: f886, cycle:   7030
f883 90  1 60 BCC  REL   A: 0 X:33 Y:c2 P: 7 S:f9 pc: f885, reg_addr: f886, cycle:   7032
f885 60 84  0 RTS  IMPL  A: 0 X:33 Y:c2 P: 7 S:f9 pc: d691, reg_addr:    0, cycle:   7038
d691 c8 a9 40 INY  IMPL  A: 0 X:33 Y:c2 P: 7 S:fb pc: d692, reg_addr:    0, cycle:   7040
d692 a9 40 8d LDA  IMM   A: 0 X:33 Y:c3 P:85 S:fb pc: d694, reg_addr:   40, cycle:   7042
d694 8d 78  6 STA  ABS   A:40 X:33 Y:c3 P: 5 S:fb pc: d697, reg_addr:  678, cycle:   7046
d697 20 89 f8 JSR  ABS   A:40 X:33 Y:c3 P: 5 S:fb pc: f889, reg_addr: f889, cycle:   7052
f889 24  1 a9 BIT  ZP    A:40 X:33 Y:c3 P: 5 S:f9 pc: f88b, reg_addr:    1, cycle:   7055
f88b a9 40 60 LDA  IMM   A:40 X:33 Y:c3 P:c5 S:f9 pc: f88d, reg_addr:   40, cycle:   7057
f88d 60 30  7 RTS  IMPL  A:40 X:33 Y:c3 P:45 S:f9 pc: d69a, reg_addr:    0, cycle:   7063
d69a cd 78  6 CMP  ABS   A:40 X:33 Y:c3 P:45 S:fb pc: d69d, reg_addr:  678, cycle:   7067
d69d 20 8e f8 JSR  ABS   A:40 X:33 Y:c3 P:47 S:fb pc: f88e, reg_addr: f88e, cycle:   7073
f88e 30  7 90 BMI  REL   A:40 X:33 Y:c3 P:47 S:f9 pc: f890, reg_addr: f897, cycle:   7075
f890 90  5 d0 BCC  REL   A:40 X:33 Y:c3 P:47 S:f9 pc: f892, reg_addr: f897, cycle:   7077
f892 d0  3 50 BNE  REL   A:40 X:33 Y:c3 P:47 S:f9 pc: f894, reg_addr: f897, cycle:   7079
f894 50  1 60 BVC  REL   A:40 X:33 Y:c3 P:47 S:f9 pc: f896, reg_addr: f897, cycle:   7081
f896 60 84  0 RTS  IMPL  A:40 X:33 Y:c3 P:47 S:f9 pc: d6a0, reg_addr:    0, cycle:   7087
d6a0 c8 48 a9 INY  IMPL  A:40 X:33 Y:c3 P:47 S:fb pc: d6a1, reg_addr:    0, cycle:   7089
d6a1 48 a9 3f PHA  IMPL  A:40 X:33 Y:c4 P:c5 S:fb pc: d6a2, reg_addr:    0, cycle:   7092
d6a2 a9 3f 8d LDA  IMM   A:40 X:33 Y:c4 P:c5 S:fa pc: d6a4, reg_addr:   3f, cycle:   7094
d6a4 8d 78  6 STA  ABS   A:3f X:33 Y:c4 P:45 S:fa pc: d6a7, reg_addr:  678, cycle:   7098
d6a7 68 20 9a PLA  IMPL  A:3f X:33 Y:c4 P:45 S:fa pc: d6a8, reg_addr:    0, cycle:   7102
d6a8 20 9a f8 JSR  ABS   A:40 X:33 Y:c4 P:45 S:fb pc: f89a, reg_addr: f89a, cycle:   7108
f89a b8 60 f0 CLV  IMPL  A:40 X:33 Y:c4 P:45 S:f9 pc: f89b, reg_addr:    0, cycle:   7110
f89b 60 f0  7 RTS  IMPL  A:40 X:33 Y:c4 P: 5 S:f9 pc: d6ab, reg_addr:    0, cycle:   7116
d6ab cd 78  6 CMP  ABS   A:40 X:33 Y:c4 P: 5 S:fb pc: d6ae, reg_addr:  678, cycle:   7120
d6ae 20 9c f8 JSR  ABS   A:40 X:33 Y:c4 P: 5 S:fb pc: f89c, reg_addr: f89c, cycle:   7126
f89c f0  7 30 BEQ  REL   A:40 X:33 Y:c4 P: 5 S:f9 pc: f89e, reg_addr: f8a5, cycle:   7128
f89e 30  5 90 BMI  REL   A:40 X:33 Y:c4 P: 5 S:f9 pc: f8a0, reg_addr: f8a5, cycle:   7130
f8a0 90  3 70 BCC  REL   A:40 X:33 Y:c4 P: 5 S:f9 pc: f8a2, reg_addr: f8a5, cycle:   7132
f8a2 70  1 60 BVS  REL   A:40 X:33 Y:c4 P: 5 S:f9 pc: f8a4, reg_addr: f8a5, cycle:   7134
f8a4 60 84  0 RTS  IMPL  A:40 X:33 Y:c4 P: 5 S:f9 pc: d6b1, reg_addr:    0, cycle:   7140
d6b1 c8 48 a9 INY  IMPL  A:40 X:33 Y:c4 P: 5 S:fb pc: d6b2, reg_addr:    0, cycle:   7142
d6b2 48 a9 41 PHA  IMPL  A:40 X:33 Y:c5 P:85 S:fb pc: d6b3, reg_addr:    0, cycle:   7145
d6b3 a9 41 8d LDA  IMM   A:40 X:33 Y:c5 P:85 S:fa pc: d6b5, reg_addr:   41, cycle:   7147
d6b5 8d 78  6 STA  ABS   A:41 X:33 Y:c5 P: 5 S:fa pc: d6b8, reg_addr:  678, cycle:   7151
d6b8 68 cd 78 PLA  IMPL  A:41 X:33 Y:c5 P: 5 S:fa pc: d6b9, reg_addr:    0, cycle:   7155
d6b9 cd 78  6 CMP  ABS   A:40 X:33 Y:c5 P: 5 S:fb pc: d6bc, reg_addr:  678, cycle:   7159
d6bc 20 a8 f8 JSR  ABS   A:40 X:33 Y:c5 P:84 S:fb pc: f8a8, reg_addr: f8a8, cycle:   7165
f8a8 f0  5 10 BEQ  REL   A:40 X:33 Y:c5 P:84 S:f9 pc: f8aa, reg_addr: f8af, cycle:   7167
f8aa 10  3 10 BPL  REL   A:40 X:33 Y:c5 P:84 S:f9 pc: f8ac, reg_addr: f8af, cycle:   7169
f8ac 10  1 60 BPL  REL   A:40 X:33 Y:c5 P:84 S:f9 pc: f8ae, reg_addr: f8af, cycle:   7171
f8ae 60 84  0 RTS  IMPL  A:40 X:33 Y:c5 P:84 S:f9 pc: d6bf, reg_addr:    0, cycle:   7177
d6bf c8 48 a9 INY  IMPL  A:40 X:33 Y:c5 P:84 S:fb pc: d6c0, reg_addr:    0, cycle:   7179
d6c0 48 a9  0 PHA  IMPL  A:40 X:33 Y:c6 P:84 S:fb pc: d6c1, reg_addr:    0, cycle:   7182
d6c1 a9  0 8d LDA  IMM   A:40 X:33 Y:c6 P:84 S:fa pc: d6c3, reg_addr:    0, cycle:   7184
d6c3 8d 78  6 STA  ABS   A: 0 X:33 Y:c6 P: 6 S:fa pc: d6c6, reg_addr:  678, cycle:   7188
d6c6 68 20 b2 PLA  IMPL  A: 0 X:33 Y:c6 P: 6 S:fa pc: d6c7, reg_addr:    0, cycle:   7192
d6c7 20 b2 f8 JSR  ABS   A:40 X:33 Y:c6 P: 4 S:fb pc: f8b2, reg_addr: f8b2, cycle:   7198
f8b2 a9 80 60 LDA  IMM   A:40 X:33 Y:c6 P: 4 S:f9 pc: f8b4, reg_addr:   80, cycle:   7200
f8b4 60 f0  5 RTS  IMPL  A:80 X:33 Y:c6 P:84 S:f9 pc: d6ca, reg_addr:    0, cycle:   7206
d6ca cd 78  6 CMP  ABS   A:80 X:33 Y:c6 P:84 S:fb pc: d6cd, reg_addr:  678, cycle:   7210
d6cd 20 b5 f8 JSR  ABS   A:80 X:33 Y:c6 P:85 S:fb pc: f8b5, reg_addr: f8b5, cycle:   7216
f8b5 f0  5 10 BEQ  REL   A:80 X:33 Y:c6 P:85 S:f9 pc: f8b7, reg_addr: f8bc, cycle:   7218
f8b7 10  3 90 BPL  REL   A:80 X:33 Y:c6 P:85 S:f9 pc: f8b9, reg_addr: f8bc, cycle:   7220
f8b9 90  1 60 BCC  REL   A:80 X:33 Y:c6 P:85 S:f9 pc: f8bb, reg_addr: f8bc, cycle:   7222
f8bb 60 84  0 RTS  IMPL  A:80 X:33 Y:c6 P:85 S:f9 pc: d6d0, reg_addr:    0, cycle:   7228
d6d0 c8 48 a9 INY  IMPL  A:80 X:33 Y:c6 P:85 S:fb pc: d6d1, reg_addr:    0, cycle:   7230
d6d1 48 a9 80 PHA  IMPL  A:80 X:33 Y:c7 P:85 S:fb pc: d6d2, reg_addr:    0, cycle:   7233
d6d2 a9 80 8d LDA  IMM   A:80 X:33 Y:c7 P:85 S:fa pc: d6d4, reg_addr:   80, cycle:   7235
d6d4 8d 78  6 STA  ABS   A:80 X:33 Y:c7 P:85 S:fa pc: d6d7, reg_addr:  678, cycle:   7239
d6d7 68 cd 78 PLA  IMPL  A:80 X:33 Y:c7 P:85 S:fa pc: d6d8, reg_addr:    0, cycle:   7243
d6d8 cd 78  6 CMP  ABS   A:80 X:33 Y:c7 P:85 S:fb pc: d6db, reg_addr:  678, cycle:   7247
d6db 20 bf f8 JSR  ABS   A:80 X:33 Y:c7 P: 7 S:fb pc: f8bf, reg_addr: f8bf, cycle:   7253
f8bf d0  5 30 BNE  REL   A:80 X:33 Y:c7 P: 7 S:f9 pc: f8c1, reg_addr: f8c6, cycle:   7255
f8c1 30  3 90 BMI  REL   A:80 X:33 Y:c7 P: 7 S:f9 pc: f8c3, reg_addr: f8c6, cycle:   7257
f8c3 90  1 60 BCC  REL   A:80 X:33 Y:c7 P: 7 S:f9 pc: f8c5, reg_addr: f8c6, cycle:   7259
f8c5 60 84  0 RTS  IMPL  A:80 X:33 Y:c7 P: 7 S:f9 pc: d6de, reg_addr:    0, cycle:   7265
d6de c8 48 a9 INY  IMPL  A:80 X:33 Y:c7 P: 7 S:fb pc: d6df, reg_addr:    0, cycle:   7267
d6df 48 a9 81 PHA  IMPL  A:80 X:33 Y:c8 P:85 S:fb pc: d6e0, reg_addr:    0, cycle:   7270
d6e0 a9 81 8d LDA  IMM   A:80 X:33 Y:c8 P:85 S:fa pc: d6e2, reg_addr:   81, cycle:   7272
d6e2 8d 78  6 STA  ABS   A:81 X:33 Y:c8 P:85 S:fa pc: d6e5, reg_addr:  678, cycle:   7276
d6e5 68 cd 78 PLA  IMPL  A:81 X:33 Y:c8 P:85 S:fa pc: d6e6, reg_addr:    0, cycle:   7280
d6e6 cd 78  6 CMP  ABS   A:80 X:33 Y:c8 P:85 S:fb pc: d6e9, reg_addr:  678, cycle:   7284
d6e9 20 c9 f8 JSR  ABS   A:80 X:33 Y:c8 P:84 S:fb pc: f8c9, reg_addr: f8c9, cycle:   7290
f8c9 b0  5 f0 BCS  REL   A:80 X:33 Y:c8 P:84 S:f9 pc: f8cb, reg_addr: f8d0, cycle:   7292
f8cb f0  3 10 BEQ  REL   A:80 X:33 Y:c8 P:84 S:f9 pc: f8cd, reg_addr: f8d0, cycle:   7294
f8cd 10  1 60 BPL  REL   A:80 X:33 Y:c8 P:84 S:f9 pc: f8cf, reg_addr: f8d0, cycle:   7296
f8cf 60 84  0 RTS  IMPL  A:80 X:33 Y:c8 P:84 S:f9 pc: d6ec, reg_addr:    0, cycle:   7302
d6ec c8 48 a9 INY  IMPL  A:80 X:33 Y:c8 P:84 S:fb pc: d6ed, reg_addr:    0, cycle:   7304
d6ed 48 a9 7f PHA  IMPL  A:80 X:33 Y:c9 P:84 S:fb pc: d6ee, reg_addr:    0, cycle:   7307
d6ee a9 7f 8d LDA  IMM   A:80 X:33 Y:c9 P:84 S:fa pc: d6f0, reg_addr:   7f, cycle:   7309
d6f0 8d 78  6 STA  ABS   A:7f X:33 Y:c9 P: 4 S:fa pc: d6f3, reg_addr:  678, cycle:   7313
d6f3 68 cd 78 PLA  IMPL  A:7f X:33 Y:c9 P: 4 S:fa pc: d6f4, reg_addr:    0, cycle:   7317
d6f4 cd 78  6 CMP  ABS   A:80 X:33 Y:c9 P:84 S:fb pc: d6f7, reg_addr:  678, cycle:   7321
d6f7 20 d3 f8 JSR  ABS   A:80 X:33 Y:c9 P: 5 S:fb pc: f8d3, reg_addr: f8d3, cycle:   7327
f8d3 90  5 f0 BCC  REL   A:80 X:33 Y:c9 P: 5 S:f9 pc: f8d5, reg_addr: f8da, cycle:   7329
f8d5 f0  3 30 BEQ  REL   A:80 X:33 Y:c9 P: 5 S:f9 pc: f8d7, reg_addr: f8da, cycle:   7331
f8d7 30  1 60 BMI  REL   A:80 X:33 Y:c9 P: 5 S:f9 pc: f8d9, reg_addr: f8da, cycle:   7333
f8d9 60 84  0 RTS  IMPL  A:80 X:33 Y:c9 P: 5 S:f9 pc: d6fa, reg_addr:    0, cycle:   7339
d6fa c8 a9 40 INY  IMPL  A:80 X:33 Y:c9 P: 5 S:fb pc: d6fb, reg_addr:    0, cycle:   7341
d6fb a9 40 8d LDA  IMM   A:80 X:33 Y:ca P:85 S:fb pc: d6fd, reg_addr:   40, cycle:   7343
d6fd 8d 78  6 STA  ABS   A:40 X:33 Y:ca P: 5 S:fb pc: d700, reg_addr:  678, cycle:   7347
d700 20 31 f9 JSR  ABS   A:40 X:33 Y:ca P: 5 S:fb pc: f931, reg_addr: f931, cycle:   7353
f931 24  1 a9 BIT  ZP    A:40 X:33 Y:ca P: 5 S:f9 pc: f933, reg_addr:    1, cycle:   7356
f933 a9 40 38 LDA  IMM   A:40 X:33 Y:ca P:c5 S:f9 pc: f935, reg_addr:   40, cycle:   7358
f935 38 60 30 SEC  IMPL  A:40 X:33 Y:ca P:45 S:f9 pc: f936, reg_addr:    0, cycle:   7360
f936 60 30  b RTS  IMPL  A:40 X:33 Y:ca P:45 S:f9 pc: d703, reg_addr:    0, cycle:   7366
d703 ed 78  6 SBC  ABS   A:40 X:33 Y:ca P:45 S:fb pc: d706, reg_addr:  678, cycle:   7370
d706 20 37 f9 JSR  ABS   A: 0 X:33 Y:ca P: 7 S:fb pc: f937, reg_addr: f937, cycle:   7376
f937 30  b 90 BMI  REL   A: 0 X:33 Y:ca P: 7 S:f9 pc: f939, reg_addr: f944, cycle:   7378
f939 90  9 d0 BCC  REL   A: 0 X:33 Y:ca P: 7 S:f9 pc: f93b, reg_addr: f944, cycle:   7380
f93b d0  7 70 BNE  REL   A: 0 X:33 Y:ca P: 7 S:f9 pc: f93d, reg_addr: f944, cycle:   7382
f93d 70  5 c9 BVS  REL   A: 0 X:33 Y:ca P: 7 S:f9 pc: f93f, reg_addr: f944, cycle:   7384
f93f c9  0 d0 CMP  IMM   A: 0 X:33 Y:ca P: 7 S:f9 pc: f941, reg_addr:    0, cycle:   7386
f941 d0  1 60 BNE  REL   A: 0 X:33 Y:ca P: 7 S:f9 pc: f943, reg_addr: f944, cycle:   7388
f943 60 84  0 RTS  IMPL  A: 0 X:33 Y:ca P: 7 S:f9 pc: d709, reg_addr:    0, cycle:   7394
d709 c8 a9 3f INY  IMPL  A: 0 X:33 Y:ca P: 7 S:fb pc: d70a, reg_addr:    0, cycle:   7396
d70a a9 3f 8d LDA  IMM   A: 0 X:33 Y:cb P:85 S:fb pc: d70c, reg_addr:   3f, cycle:   7398
d70c 8d 78  6 STA  ABS   A:3f X:33 Y:cb P: 5 S:fb pc: d70f, reg_addr:  678, cycle:   7402
d70f 20 47 f9 JSR  ABS   A:3f X:33 Y:cb P: 5 S:fb pc: f947, reg_addr: f947, cycle:   7408
f947 b8 38 a9 CLV  IMPL  A:3f X:33 Y:cb P: 5 S:f9 pc: f948, reg_addr:    0, cycle:   7410
f948 38 a9 40 SEC  IMPL  A:3f X:33 Y:cb P: 5 S:f9 pc: f949, reg_addr:    0, cycle:   7412
f949 a9 40 60 LDA  IMM   A:3f X:33 Y:cb P: 5 S:f9 pc: f94b, reg_addr:   40, cycle:   7414
f94b 60 f0  b RTS  IMPL  A:40 X:33 Y:cb P: 5 S:f9 pc: d712, reg_addr:    0, cycle:   7420
d712 ed 78  6 SBC  ABS   A:40 X:33 Y:cb P: 5 S:fb pc: d715, reg_addr:  678, cycle:   7424
d715 20 4c f9 JSR  ABS   A: 1 X:33 Y:cb P: 5 S:fb pc: f94c, reg_addr: f94c, cycle:   7430
f94c f0  b 30 BEQ  REL   A: 1 X:33 Y:cb P: 5 S:f9 pc: f94e, reg_addr: f959, cycle:   7432
f94e 30  9 90 BMI  REL   A: 1 X:33 Y:cb P: 5 S:f9 pc: f950, reg_addr: f959, cycle:   7434
f950 90  7 70 BCC  REL   A: 1 X:33 Y:cb P: 5 S:f9 pc: f952, reg_addr: f959, cycle:   7436
f952 70  5 c9 BVS  REL   A: 1 X:33 Y:cb P: 5 S:f9 pc: f954, reg_addr: f959, cycle:   7438
f954 c9  1 d0 CMP  IMM   A: 1 X:33 Y:cb P: 5 S:f9 pc: f956, reg_addr:    1, cycle:   7440
f956 d0  1 60 BNE  REL   A: 1 X:33 Y:cb P: 7 S:f9 pc: f958, reg_addr: f959, cycle:   7442
f958 60 84  0 RTS  IMPL  A: 1 X:33 Y:cb P: 7 S:f9 pc: d718, reg_addr:    0, cycle:   7448
d718 c8 a9 41 INY  IMPL  A: 1 X:33 Y:cb P: 7 S:fb pc: d719, reg_addr:    0, cycle:   7450
d719 a9 41 8d LDA  IMM   A: 1 X:33 Y:cc P:85 S:fb pc: d71b, reg_addr:   41, cycle:   7452
d71b 8d 78  6 STA  ABS   A:41 X:33 Y:cc P: 5 S:fb pc: d71e, reg_addr:  678, cycle:   7456
d71e 20 5c f9 JSR  ABS   A:41 X:33 Y:cc P: 5 S:fb pc: f95c, reg_addr: f95c, cycle:   7462
f95c a9 40 38 LDA  IMM   A:41 X:33 Y:cc P: 5 S:f9 pc: f95e, reg_addr:   40, cycle:   7464
f95e 38 24  1 SEC  IMPL  A:40 X:33 Y:cc P: 5 S:f9 pc: f95f, reg_addr:    0, cycle:   7466
f95f 24  1 60 BIT  ZP    A:40 X:33 Y:cc P: 5 S:f9 pc: f961, reg_addr:    1, cycle:   7469
f961 60 b0  b RTS  IMPL  A:40 X:33 Y:cc P:c5 S:f9 pc: d721, reg_addr:    0, cycle:   7475
d721 ed 78  6 SBC  ABS   A:40 X:33 Y:cc P:c5 S:fb pc: d724, reg_addr:  678, cycle:   7479
d724 20 62 f9 JSR  ABS   A:ff X:33 Y:cc P:84 S:fb pc: f962, reg_addr: f962, cycle:   7485
f962 b0  b f0 BCS  REL   A:ff X:33 Y:cc P:84 S:f9 pc: f964, reg_addr: f96f, cycle:   7487
f964 f0  9 10 BEQ  REL   A:ff X:33 Y:cc P:84 S:f9 pc: f966, reg_addr: f96f, cycle:   7489
f966 10  7 70 BPL  REL   A:ff X:33 Y:cc P:84 S:f9 pc: f968, reg_addr: f96f, cycle:   7491
f968 70  5 c9 BVS  REL   A:ff X:33 Y:cc P:84 S:f9 pc: f96a, reg_addr: f96f, cycle:   7493
f96a c9 ff d0 CMP  IMM   A:ff X:33 Y:cc P:84 S:f9 pc: f96c, reg_addr:   ff, cycle:   7495
f96c d0  1 60 BNE  REL   A:ff X:33 Y:cc P: 7 S:f9 pc: f96e, reg_addr: f96f, cycle:   7497
f96e 60 84  0 RTS  IMPL  A:ff X:33 Y:cc P: 7 S:f9 pc: d727, reg_addr:    0, cycle:   7503
d727 c8 a9  0 INY  IMPL  A:ff X:33 Y:cc P: 7 S:fb pc: d728, reg_addr:    0, cycle:   7505
d728 a9  0 8d LDA  IMM   A:ff X:33 Y:cd P:85 S:fb pc: d72a, reg_addr:    0, cycle:   7507
d72a 8d 78  6 STA  ABS   A: 0 X:33 Y:cd P: 7 S:fb pc: d72d, reg_addr:  678, cycle:   7511
d72d 20 72 f9 JSR  ABS   A: 0 X:33 Y:cd P: 7 S:fb pc: f972, reg_addr: f972, cycle:   7517
f972 18 a9 80 CLC  IMPL  A: 0 X:33 Y:cd P: 7 S:f9 pc: f973, reg_addr:    0, cycle:   7519
f973 a9 80 60 LDA  IMM   A: 0 X:33 Y:cd P: 6 S:f9 pc: f975, reg_addr:   80, cycle:   7521
f975 60 90  5 RTS  IMPL  A:80 X:33 Y:cd P:84 S:f9 pc: d730, reg_addr:    0, cycle:   7527
d730 ed 78  6 SBC  ABS   A:80 X:33 Y:cd P:84 S:fb pc: d733, reg_addr:  678, cycle:   7531
d733 20 76 f9 JSR  ABS   A:7f X:33 Y:cd P:45 S:fb pc: f976, reg_addr: f976, cycle:   7537
f976 90  5 c9 BCC  REL   A:7f X:33 Y:cd P:45 S:f9 pc: f978, reg_addr: f97d, cycle:   7539
f978 c9 7f d0 CMP  IMM   A:7f X:33 Y:cd P:45 S:f9 pc: f97a, reg_addr:   7f, cycle:   7541
f97a d0  1 60 BNE  REL   A:7f X:33 Y:cd P:47 S:f9 pc: f97c, reg_addr: f97d, cycle:   7543
f97c 60 84  0 RTS  IMPL  A:7f X:33 Y:cd P:47 S:f9 pc: d736, reg_addr:    0, cycle:   7549
d736 c8 a9 7f INY  IMPL  A:7f X:33 Y:cd P:47 S:fb pc: d737, reg_addr:    0, cycle:   7551
d737 a9 7f 8d LDA  IMM   A:7f X:33 Y:ce P:c5 S:fb pc: d739, reg_addr:   7f, cycle:   7553
d739 8d 78  6 STA  ABS   A:7f X:33 Y:ce P:45 S:fb pc: d73c, reg_addr:  678, cycle:   7557
d73c 20 80 f9 JSR  ABS   A:7f X:33 Y:ce P:45 S:fb pc: f980, reg_addr: f980, cycle:   7563
f980 38 a9 81 SEC  IMPL  A:7f X:33 Y:ce P:45 S:f9 pc: f981, reg_addr:    0, cycle:   7565
f981 a9 81 60 LDA  IMM   A:7f X:33 Y:ce P:45 S:f9 pc: f983, reg_addr:   81, cycle:   7567
f983 60 50  7 RTS  IMPL  A:81 X:33 Y:ce P:c5 S:f9 pc: d73f, reg_addr:    0, cycle:   7573
d73f ed 78  6 SBC  ABS   A:81 X:33 Y:ce P:c5 S:fb pc: d742, reg_addr:  678, cycle:   7577
d742 20 84 f9 JSR  ABS   A: 2 X:33 Y:ce P:45 S:fb pc: f984, reg_addr: f984, cycle:   7583
f984 50  7 90 BVC  REL   A: 2 X:33 Y:ce P:45 S:f9 pc: f986, reg_addr: f98d, cycle:   7585
f986 90  5 c9 BCC  REL   A: 2 X:33 Y:ce P:45 S:f9 pc: f988, reg_addr: f98d, cycle:   7587
f988 c9  2 d0 CMP  IMM   A: 2 X:33 Y:ce P:45 S:f9 pc: f98a, reg_addr:    2, cycle:   7589
f98a d0  1 60 BNE  REL   A: 2 X:33 Y:ce P:47 S:f9 pc: f98c, reg_addr: f98d, cycle:   7591
f98c 60 84  0 RTS  IMPL  A: 2 X:33 Y:ce P:47 S:f9 pc: d745, reg_addr:    0, cycle:   7597
d745 c8 a9 40 INY  IMPL  A: 2 X:33 Y:ce P:47 S:fb pc: d746, reg_addr:    0, cycle:   7599
d746 a9 40 8d LDA  IMM   A: 2 X:33 Y:cf P:c5 S:fb pc: d748, reg_addr:   40, cycle:   7601
d748 8d 78  6 STA  ABS   A:40 X:33 Y:cf P:45 S:fb pc: d74b, reg_addr:  678, cycle:   7605
d74b 20 89 f8 JSR  ABS   A:40 X:33 Y:cf P:45 S:fb pc: f889, reg_addr: f889, cycle:   7611
f889 24  1 a9 BIT  ZP    A:40 X:33 Y:cf P:45 S:f9 pc: f88b, reg_addr:    1, cycle:   7614
f88b a9 40 60 LDA  IMM   A:40 X:33 Y:cf P:c5 S:f9 pc: f88d, reg_addr:   40, cycle:   7616
f88d 60 30  7 RTS  IMPL  A:40 X:33 Y:cf P:45 S:f9 pc: d74e, reg_addr:    0, cycle:   7622
d74e aa ec 78 TAX  IMPL  A:40 X:33 Y:cf P:45 S:fb pc: d74f, reg_addr:    0, cycle:   7624
d74f ec 78  6 CPX  ABS   A:40 X:40 Y:cf P:45 S:fb pc: d752, reg_addr:  678, cycle:   7628
d752 20 8e f8 JSR  ABS   A:40 X:40 Y:cf P:47 S:fb pc: f88e, reg_addr: f88e, cycle:   7634
f88e 30  7 90 BMI  REL   A:40 X:40 Y:cf P:47 S:f9 pc: f890, reg_addr: f897, cycle:   7636
f890 90  5 d0 BCC  REL   A:40 X:40 Y:cf P:47 S:f9 pc: f892, reg_addr: f897, cycle:   7638
f892 d0  3 50 BNE  REL   A:40 X:40 Y:cf P:47 S:f9 pc: f894, reg_addr: f897, cycle:   7640
f894 50  1 60 BVC  REL   A:40 X:40 Y:cf P:47 S:f9 pc: f896, reg_addr: f897, cycle:   7642
f896 60 84  0 RTS  IMPL  A:40 X:40 Y:cf P:47 S:f9 pc: d755, reg_addr:    0, cycle:   7648
d755 c8 a9 3f INY  IMPL  A:40 X:40 Y:cf P:47 S:fb pc: d756, reg_addr:    0, cycle:   7650
d756 a9 3f 8d LDA  IMM   A:40 X:40 Y:d0 P:c5 S:fb pc: d758, reg_addr:   3f, cycle:   7652
d758 8d 78  6 STA  ABS   A:3f X:40 Y:d0 P:45 S:fb pc: d75b, reg_addr:  678, cycle:   7656
d75b 20 9a f8 JSR  ABS   A:3f X:40 Y:d0 P:45 S:fb pc: f89a, reg_addr: f89a, cycle:   7662
f89a b8 60 f0 CLV  IMPL  A:3f X:40 Y:d0 P:45 S:f9 pc: f89b, reg_addr:    0, cycle:   7664
f89b 60 f0  7 RTS  IMPL  A:3f X:40 Y:d0 P: 5 S:f9 pc: d75e, reg_addr:    0, cycle:   7670
d75e ec 78  6 CPX  ABS   A:3f X:40 Y:d0 P: 5 S:fb pc: d761, reg_addr:  678, cycle:   7674
d761 20 9c f8 JSR  ABS   A:3f X:40 Y:d0 P: 5 S:fb pc: f89c, reg_addr: f89c, cycle:   7680
f89c f0  7 30 BEQ  REL   A:3f X:40 Y:d0 P: 5 S:f9 pc: f89e, reg_addr: f8a5, cycle:   7682
f89e 30  5 90 BMI  REL   A:3f X:40 Y:d0 P: 5 S:f9 pc: f8a0, reg_addr: f8a5, cycle:   7684
f8a0 90  3 70 BCC  REL   A:3f X:40 Y:d0 P: 5 S:f9 pc: f8a2, reg_addr: f8a5, cycle:   7686
f8a2 70  1 60 BVS  REL   A:3f X:40 Y:d0 P: 5 S:f9 pc: f8a4, reg_addr: f8a5, cycle:   7688
f8a4 60 84  0 RTS  IMPL  A:3f X:40 Y:d0 P: 5 S:f9 pc: d764, reg_addr:    0, cycle:   7694
d764 c8 a9 41 INY  IMPL  A:3f X:40 Y:d0 P: 5 S:fb pc: d765, reg_addr:    0, cycle:   7696
d765 a9 41 8d LDA  IMM   A:3f X:40 Y:d1 P:85 S:fb pc: d767, reg_addr:   41, cycle:   7698
d767 8d 78  6 STA  ABS   A:41 X:40 Y:d1 P: 5 S:fb pc: d76a, reg_addr:  678, cycle:   7702
d76a ec 78  6 CPX  ABS   A:41 X:40 Y:d1 P: 5 S:fb pc: d76d, reg_addr:  678, cycle:   7706
d76d 20 a8 f8 JSR  ABS   A:41 X:40 Y:d1 P:84 S:fb pc: f8a8, reg_addr: f8a8, cycle:   7712
f8a8 f0  5 10 BEQ  REL   A:41 X:40 Y:d1 P:84 S:f9 pc: f8aa, reg_addr: f8af, cycle:   7714
f8aa 10  3 10 BPL  REL   A:41 X:40 Y:d1 P:84 S:f9 pc: f8ac, reg_addr: f8af, cycle:   7716
f8ac 10  1 60 BPL  REL   A:41 X:40 Y:d1 P:84 S:f9 pc: f8ae, reg_addr: f8af, cycle:   7718
f8ae 60 84  0 RTS  IMPL  A:41 X:40 Y:d1 P:84 S:f9 pc: d770, reg_addr:    0, cycle:   7724
d770 c8 a9  0 INY  IMPL  A:41 X:40 Y:d1 P:84 S:fb pc: d771, reg_addr:    0, cycle:   7726
d771 a9  0 8d LDA  IMM   A:41 X:40 Y:d2 P:84 S:fb pc: d773, reg_addr:    0, cycle:   7728
d773 8d 78  6 STA  ABS   A: 0 X:40 Y:d2 P: 6 S:fb pc: d776, reg_addr:  678, cycle:   7732
d776 20 b2 f8 JSR  ABS   A: 0 X:40 Y:d2 P: 6 S:fb pc: f8b2, reg_addr: f8b2, cycle:   7738
f8b2 a9 80 60 LDA  IMM   A: 0 X:40 Y:d2 P: 6 S:f9 pc: f8b4, reg_addr:   80, cycle:   7740
f8b4 60 f0  5 RTS  IMPL  A:80 X:40 Y:d2 P:84 S:f9 pc: d779, reg_addr:    0, cycle:   7746
d779 aa ec 78 TAX  IMPL  A:80 X:40 Y:d2 P:84 S:fb pc: d77a, reg_addr:    0, cycle:   7748
d77a ec 78  6 CPX  ABS   A:80 X:80 Y:d2 P:84 S:fb pc: d77d, reg_addr:  678, cycle:   7752
d77d 20 b5 f8 JSR  ABS   A:80 X:80 Y:d2 P:85 S:fb pc: f8b5, reg_addr: f8b5, cycle:   7758
f8b5 f0  5 10 BEQ  REL   A:80 X:80 Y:d2 P:85 S:f9 pc: f8b7, reg_addr: f8bc, cycle:   7760
f8b7 10  3 90 BPL  REL   A:80 X:80 Y:d2 P:85 S:f9 pc: f8b9, reg_addr: f8bc, cycle:   7762
f8b9 90  1 60 BCC  REL   A:80 X:80 Y:d2 P:85 S:f9 pc: f8bb, reg_addr: f8bc, cycle:   7764
f8bb 60 84  0 RTS  IMPL  A:80 X:80 Y:d2 P:85 S:f9 pc: d780, reg_addr:    0, cycle:   7770
d780 c8 a9 80 INY  IMPL  A:80 X:80 Y:d2 P:85 S:fb pc: d781, reg_addr:    0, cycle:   7772
d781 a9 80 8d LDA  IMM   A:80 X:80 Y:d3 P:85 S:fb pc: d783, reg_addr:   80, cycle:   7774
d783 8d 78  6 STA  ABS   A:80 X:80 Y:d3 P:85 S:fb pc: d786, reg_addr:  678, cycle:   7778
d786 ec 78  6 CPX  ABS   A:80 X:80 Y:d3 P:85 S:fb pc: d789, reg_addr:  678, cycle:   7782
d789 20 bf f8 JSR  ABS   A:80 X:80 Y:d3 P: 7 S:fb pc: f8bf, reg_addr: f8bf, cycle:   7788
f8bf d0  5 30 BNE  REL   A:80 X:80 Y:d3 P: 7 S:f9 pc: f8c1, reg_addr: f8c6, cycle:   7790
f8c1 30  3 90 BMI  REL   A:80 X:80 Y:d3 P: 7 S:f9 pc: f8c3, reg_addr: f8c6, cycle:   7792
f8c3 90  1 60 BCC  REL   A:80 X:80 Y:d3 P: 7 S:f9 pc: f8c5, reg_addr: f8c6, cycle:   7794
f8c5 60 84  0 RTS  IMPL  A:80 X:80 Y:d3 P: 7 S:f9 pc: d78c, reg_addr:    0, cycle:   7800
d78c c8 a9 81 INY  IMPL  A:80 X:80 Y:d3 P: 7 S:fb pc: d78d, reg_addr:    0, cycle:   7802
d78d a9 81 8d LDA  IMM   A:80 X:80 Y:d4 P:85 S:fb pc: d78f, reg_addr:   81, cycle:   7804
d78f 8d 78  6 STA  ABS   A:81 X:80 Y:d4 P:85 S:fb pc: d792, reg_addr:  678, cycle:   7808
d792 ec 78  6 CPX  ABS   A:81 X:80 Y:d4 P:85 S:fb pc: d795, reg_addr:  678, cycle:   7812
d795 20 c9 f8 JSR  ABS   A:81 X:80 Y:d4 P:84 S:fb pc: f8c9, reg_addr: f8c9, cycle:   7818
f8c9 b0  5 f0 BCS  REL   A:81 X:80 Y:d4 P:84 S:f9 pc: f8cb, reg_addr: f8d0, cycle:   7820
f8cb f0  3 10 BEQ  REL   A:81 X:80 Y:d4 P:84 S:f9 pc: f8cd, reg_addr: f8d0, cycle:   7822
f8cd 10  1 60 BPL  REL   A:81 X:80 Y:d4 P:84 S:f9 pc: f8cf, reg_addr: f8d0, cycle:   7824
f8cf 60 84  0 RTS  IMPL  A:81 X:80 Y:d4 P:84 S:f9 pc: d798, reg_addr:    0, cycle:   7830
d798 c8 a9 7f INY  IMPL  A:81 X:80 Y:d4 P:84 S:fb pc: d799, reg_addr:    0, cycle:   7832
d799 a9 7f 8d LDA  IMM   A:81 X:80 Y:d5 P:84 S:fb pc: d79b, reg_addr:   7f, cycle:   7834
d79b 8d 78  6 STA  ABS   A:7f X:80 Y:d5 P: 4 S:fb pc: d79e, reg_addr:  678, cycle:   7838
d79e ec 78  6 CPX  ABS   A:7f X:80 Y:d5 P: 4 S:fb pc: d7a1, reg_addr:  678, cycle:   7842
d7a1 20 d3 f8 JSR  ABS   A:7f X:80 Y:d5 P: 5 S:fb pc: f8d3, reg_addr: f8d3, cycle:   7848
f8d3 90  5 f0 BCC  REL   A:7f X:80 Y:d5 P: 5 S:f9 pc: f8d5, reg_addr: f8da, cycle:   7850
f8d5 f0  3 30 BEQ  REL   A:7f X:80 Y:d5 P: 5 S:f9 pc: f8d7, reg_addr: f8da, cycle:   7852
f8d7 30  1 60 BMI  REL   A:7f X:80 Y:d5 P: 5 S:f9 pc: f8d9, reg_addr: f8da, cycle:   7854
f8d9 60 84  0 RTS  IMPL  A:7f X:80 Y:d5 P: 5 S:f9 pc: d7a4, reg_addr:    0, cycle:   7860
d7a4 c8 98 aa INY  IMPL  A:7f X:80 Y:d5 P: 5 S:fb pc: d7a5, reg_addr:    0, cycle:   7862
d7a5 98 aa a9 TYA  IMPL  A:7f X:80 Y:d6 P:85 S:fb pc: d7a6, reg_addr:    0, cycle:   7864
d7a6 aa a9 40 TAX  IMPL  A:d6 X:80 Y:d6 P:85 S:fb pc: d7a7, reg_addr:    0, cycle:   7866
d7a7 a9 40 8d LDA  IMM   A:d6 X:d6 Y:d6 P:85 S:fb pc: d7a9, reg_addr:   40, cycle:   7868
d7a9 8d 78  6 STA  ABS   A:40 X:d6 Y:d6 P: 5 S:fb pc: d7ac, reg_addr:  678, cycle:   7872
d7ac 20 dd f8 JSR  ABS   A:40 X:d6 Y:d6 P: 5 S:fb pc: f8dd, reg_addr: f8dd, cycle:   7878
f8dd 24  1 a0 BIT  ZP    A:40 X:d6 Y:d6 P: 5 S:f9 pc: f8df, reg_addr:    1, cycle:   7881
f8df a0 40 60 LDY  IMM   A:40 X:d6 Y:d6 P:c5 S:f9 pc: f8e1, reg_addr:   40, cycle:   7883
f8e1 60 30  7 RTS  IMPL  A:40 X:d6 Y:40 P:45 S:f9 pc: d7af, reg_addr:    0, cycle:   7889
d7af cc 78  6 CPY  ABS   A:40 X:d6 Y:40 P:45 S:fb pc: d7b2, reg_addr:  678, cycle:   7893
d7b2 20 e2 f8 JSR  ABS   A:40 X:d6 Y:40 P:47 S:fb pc: f8e2, reg_addr: f8e2, cycle:   7899
f8e2 30  7 90 BMI  REL   A:40 X:d6 Y:40 P:47 S:f9 pc: f8e4, reg_addr: f8eb, cycle:   7901
f8e4 90  5 d0 BCC  REL   A:40 X:d6 Y:40 P:47 S:f9 pc: f8e6, reg_addr: f8eb, cycle:   7903
f8e6 d0  3 50 BNE  REL   A:40 X:d6 Y:40 P:47 S:f9 pc: f8e8, reg_addr: f8eb, cycle:   7905
f8e8 50  1 60 BVC  REL   A:40 X:d6 Y:40 P:47 S:f9 pc: f8ea, reg_addr: f8eb, cycle:   7907
f8ea 60 86  0 RTS  IMPL  A:40 X:d6 Y:40 P:47 S:f9 pc: d7b5, reg_addr:    0, cycle:   7913
d7b5 e8 a9 3f INX  IMPL  A:40 X:d6 Y:40 P:47 S:fb pc: d7b6, reg_addr:    0, cycle:   7915
d7b6 a9 3f 8d LDA  IMM   A:40 X:d7 Y:40 P:c5 S:fb pc: d7b8, reg_addr:   3f, cycle:   7917
d7b8 8d 78  6 STA  ABS   A:3f X:d7 Y:40 P:45 S:fb pc: d7bb, reg_addr:  678, cycle:   7921
d7bb 20 ee f8 JSR  ABS   A:3f X:d7 Y:40 P:45 S:fb pc: f8ee, reg_addr: f8ee, cycle:   7927
f8ee b8 60 f0 CLV  IMPL  A:3f X:d7 Y:40 P:45 S:f9 pc: f8ef, reg_addr:    0, cycle:   7929
f8ef 60 f0  7 RTS  IMPL  A:3f X:d7 Y:40 P: 5 S:f9 pc: d7be, reg_addr:    0, cycle:   7935
d7be cc 78  6 CPY  ABS   A:3f X:d7 Y:40 P: 5 S:fb pc: d7c1, reg_addr:  678, cycle:   7939
d7c1 20 f0 f8 JSR  ABS   A:3f X:d7 Y:40 P: 5 S:fb pc: f8f0, reg_addr: f8f0, cycle:   7945
f8f0 f0  7 30 BEQ  REL   A:3f X:d7 Y:40 P: 5 S:f9 pc: f8f2, reg_addr: f8f9, cycle:   7947
f8f2 30  5 90 BMI  REL   A:3f X:d7 Y:40 P: 5 S:f9 pc: f8f4, reg_addr: f8f9, cycle:   7949
f8f4 90  3 70 BCC  REL   A:3f X:d7 Y:40 P: 5 S:f9 pc: f8f6, reg_addr: f8f9, cycle:   7951
f8f6 70  1 60 BVS  REL   A:3f X:d7 Y:40 P: 5 S:f9 pc: f8f8, reg_addr: f8f9, cycle:   7953
f8f8 60 86  0 RTS  IMPL  A:3f X:d7 Y:40 P: 5 S:f9 pc: d7c4, reg_addr:    0, cycle:   7959
d7c4 e8 a9 41 INX  IMPL  A:3f X:d7 Y:40 P: 5 S:fb pc: d7c5, reg_addr:    0, cycle:   7961
d7c5 a9 41 8d LDA  IMM   A:3f X:d8 Y:40 P:85 S:fb pc: d7c7, reg_addr:   41, cycle:   7963
d7c7 8d 78  6 STA  ABS   A:41 X:d8 Y:40 P: 5 S:fb pc: d7ca, reg_addr:  678, cycle:   7967
d7ca cc 78  6 CPY  ABS   A:41 X:d8 Y:40 P: 5 S:fb pc: d7cd, reg_addr:  678, cycle:   7971
d7cd 20 fc f8 JSR  ABS   A:41 X:d8 Y:40 P:84 S:fb pc: f8fc, reg_addr: f8fc, cycle:   7977
f8fc f0  5 10 BEQ  REL   A:41 X:d8 Y:40 P:84 S:f9 pc: f8fe, reg_addr: f903, cycle:   7979
f8fe 10  3 10 BPL  REL   A:41 X:d8 Y:40 P:84 S:f9 pc: f900, reg_addr: f903, cycle:   7981
f900 10  1 60 BPL  REL   A:41 X:d8 Y:40 P:84 S:f9 pc: f902, reg_addr: f903, cycle:   7983
f902 60 86  0 RTS  IMPL  A:41 X:d8 Y:40 P:84 S:f9 pc: d7d0, reg_addr:    0, cycle:   7989
d7d0 e8 a9  0 INX  IMPL  A:41 X:d8 Y:40 P:84 S:fb pc: d7d1, reg_addr:    0, cycle:   7991
d7d1 a9  0 8d LDA  IMM   A:41 X:d9 Y:40 P:84 S:fb pc: d7d3, reg_addr:    0, cycle:   7993
d7d3 8d 78  6 STA  ABS   A: 0 X:d9 Y:40 P: 6 S:fb pc: d7d6, reg_addr:  678, cycle:   7997
d7d6 20  6 f9 JSR  ABS   A: 0 X:d9 Y:40 P: 6 S:fb pc: f906, reg_addr: f906, cycle:   8003
f906 a0 80 60 LDY  IMM   A: 0 X:d9 Y:40 P: 6 S:f9 pc: f908, reg_addr:   80, cycle:   8005
f908 60 f0  5 RTS  IMPL  A: 0 X:d9 Y:80 P:84 S:f9 pc: d7d9, reg_addr:    0, cycle:   8011
d7d9 cc 78  6 CPY  ABS   A: 0 X:d9 Y:80 P:84 S:fb pc: d7dc, reg_addr:  678, cycle:   8015
d7dc 20  9 f9 JSR  ABS   A: 0 X:d9 Y:80 P:85 S:fb pc: f909, reg_addr: f909, cycle:   8021
f909 f0  5 10 BEQ  REL   A: 0 X:d9 Y:80 P:85 S:f9 pc: f90b, reg_addr: f910, cycle:   8023
f90b 10  3 90 BPL  REL   A: 0 X:d9 Y:80 P:85 S:f9 pc: f90d, reg_addr: f910, cycle:   8025
f90d 90  1 60 BCC  REL   A: 0 X:d9 Y:80 P:85 S:f9 pc: f90f, reg_addr: f910, cycle:   8027
f90f 60 86  0 RTS  IMPL  A: 0 X:d9 Y:80 P:85 S:f9 pc: d7df, reg_addr:    0, cycle:   8033
d7df e8 a9 80 INX  IMPL  A: 0 X:d9 Y:80 P:85 S:fb pc: d7e0, reg_addr:    0, cycle:   8035
d7e0 a9 80 8d LDA  IMM   A: 0 X:da Y:80 P:85 S:fb pc: d7e2, reg_addr:   80, cycle:   8037
d7e2 8d 78  6 STA  ABS   A:80 X:da Y:80 P:85 S:fb pc: d7e5, reg_addr:  678, cycle:   8041
d7e5 cc 78  6 CPY  ABS   A:80 X:da Y:80 P:85 S:fb pc: d7e8, reg_addr:  678, cycle:   8045
d7e8 20 13 f9 JSR  ABS   A:80 X:da Y:80 P: 7 S:fb pc: f913, reg_addr: f913, cycle:   8051
f913 d0  5 30 BNE  REL   A:80 X:da Y:80 P: 7 S:f9 pc: f915, reg_addr: f91a, cycle:   8053
f915 30  3 90 BMI  REL   A:80 X:da Y:80 P: 7 S:f9 pc: f917, reg_addr: f91a, cycle:   8055
f917 90  1 60 BCC  REL   A:80 X:da Y:80 P: 7 S:f9 pc: f919, reg_addr: f91a, cycle:   8057
f919 60 86  0 RTS  IMPL  A:80 X:da Y:80 P: 7 S:f9 pc: d7eb, reg_addr:    0, cycle:   8063
d7eb e8 a9 81 INX  IMPL  A:80 X:da Y:80 P: 7 S:fb pc: d7ec, reg_addr:    0, cycle:   8065
d7ec a9 81 8d LDA  IMM   A:80 X:db Y:80 P:85 S:fb pc: d7ee, reg_addr:   81, cycle:   8067
d7ee 8d 78  6 STA  ABS   A:81 X:db Y:80 P:85 S:fb pc: d7f1, reg_addr:  678, cycle:   8071
d7f1 cc 78  6 CPY  ABS   A:81 X:db Y:80 P:85 S:fb pc: d7f4, reg_addr:  678, cycle:   8075
d7f4 20 1d f9 JSR  ABS   A:81 X:db Y:80 P:84 S:fb pc: f91d, reg_addr: f91d, cycle:   8081
f91d b0  5 f0 BCS  REL   A:81 X:db Y:80 P:84 S:f9 pc: f91f, reg_addr: f924, cycle:   8083
f91f f0  3 10 BEQ  REL   A:81 X:db Y:80 P:84 S:f9 pc: f921, reg_addr: f924, cycle:   8085
f921 10  1 60 BPL  REL   A:81 X:db Y:80 P:84 S:f9 pc: f923, reg_addr: f924, cycle:   8087
f923 60 86  0 RTS  IMPL  A:81 X:db Y:80 P:84 S:f9 pc: d7f7, reg_addr:    0, cycle:   8093
d7f7 e8 a9 7f INX  IMPL  A:81 X:db Y:80 P:84 S:fb pc: d7f8, reg_addr:    0, cycle:   8095
d7f8 a9 7f 8d LDA  IMM   A:81 X:dc Y:80 P:84 S:fb pc: d7fa, reg_addr:   7f, cycle:   8097
d7fa 8d 78  6 STA  ABS   A:7f X:dc Y:80 P: 4 S:fb pc: d7fd, reg_addr:  678, cycle:   8101
d7fd cc 78  6 CPY  ABS   A:7f X:dc Y:80 P: 4 S:fb pc: d800, reg_addr:  678, cycle:   8105
d800 20 27 f9 JSR  ABS   A:7f X:dc Y:80 P: 5 S:fb pc: f927, reg_addr: f927, cycle:   8111
f927 90  5 f0 BCC  REL   A:7f X:dc Y:80 P: 5 S:f9 pc: f929, reg_addr: f92e, cycle:   8113
f929 f0  3 30 BEQ  REL   A:7f X:dc Y:80 P: 5 S:f9 pc: f92b, reg_addr: f92e, cycle:   8115
f92b 30  1 60 BMI  REL   A:7f X:dc Y:80 P: 5 S:f9 pc: f92d, reg_addr: f92e, cycle:   8117
f92d 60 86  0 RTS  IMPL  A:7f X:dc Y:80 P: 5 S:f9 pc: d803, reg_addr:    0, cycle:   8123
d803 e8 8a a8 INX  IMPL  A:7f X:dc Y:80 P: 5 S:fb pc: d804, reg_addr:    0, cycle:   8125
d804 8a a8 20 TXA  IMPL  A:7f X:dd Y:80 P:85 S:fb pc: d805, reg_addr:    0, cycle:   8127
d805 a8 20 90 TAY  IMPL  A:dd X:dd Y:80 P:85 S:fb pc: d806, reg_addr:    0, cycle:   8129
d806 20 90 f9 JSR  ABS   A:dd X:dd Y:dd P:85 S:fb pc: f990, reg_addr: f990, cycle:   8135
f990 a2 55 a9 LDX  IMM   A:dd X:dd Y:dd P:85 S:f9 pc: f992, reg_addr:   55, cycle:   8137
f992 a9 ff 85 LDA  IMM   A:dd X:55 Y:dd P: 5 S:f9 pc: f994, reg_addr:   ff, cycle:   8139
f994 85  1 ea STA  ZP    A:ff X:55 Y:dd P:85 S:f9 pc: f996, reg_addr:    1, cycle:   8142
f996 ea 24  1 NOP  IMPL  A:ff X:55 Y:dd P:85 S:f9 pc: f997, reg_addr:    0, cycle:   8144
f997 24  1 38 BIT  ZP    A:ff X:55 Y:dd P:85 S:f9 pc: f999, reg_addr:    1, cycle:   8147
f999 38 a9  1 SEC  IMPL  A:ff X:55 Y:dd P:c5 S:f9 pc: f99a, reg_addr:    0, cycle:   8149
f99a a9  1 60 LDA  IMM   A:ff X:55 Y:dd P:c5 S:f9 pc: f99c, reg_addr:    1, cycle:   8151
f99c 60 90 1b RTS  IMPL  A: 1 X:55 Y:dd P:45 S:f9 pc: d809, reg_addr:    0, cycle:   8157
d809 8d 78  6 STA  ABS   A: 1 X:55 Y:dd P:45 S:fb pc: d80c, reg_addr:  678, cycle:   8161
d80c 4e 78  6 LSR  ABS   A: 1 X:55 Y:dd P:45 S:fb pc: d80f, reg_addr:  678, cycle:   8167
d80f ad 78  6 LDA  ABS   A: 1 X:55 Y:dd P:47 S:fb pc: d812, reg_addr:  678, cycle:   8171
d812 20 9d f9 JSR  ABS   A: 0 X:55 Y:dd P:47 S:fb pc: f99d, reg_addr: f99d, cycle:   8177
f99d 90 1b d0 BCC  REL   A: 0 X:55 Y:dd P:47 S:f9 pc: f99f, reg_addr: f9ba, cycle:   8179
f99f d0 19 30 BNE  REL   A: 0 X:55 Y:dd P:47 S:f9 pc: f9a1, reg_addr: f9ba, cycle:   8181
f9a1 30 17 50 BMI  REL   A: 0 X:55 Y:dd P:47 S:f9 pc: f9a3, reg_addr: f9ba, cycle:   8183
f9a3 50 15 c9 BVC  REL   A: 0 X:55 Y:dd P:47 S:f9 pc: f9a5, reg_addr: f9ba, cycle:   8185
f9a5 c9  0 d0 CMP  IMM   A: 0 X:55 Y:dd P:47 S:f9 pc: f9a7, reg_addr:    0, cycle:   8187
f9a7 d0 11 b8 BNE  REL   A: 0 X:55 Y:dd P:47 S:f9 pc: f9a9, reg_addr: f9ba, cycle:   8189
f9a9 b8 a9 aa CLV  IMPL  A: 0 X:55 Y:dd P:47 S:f9 pc: f9aa, reg_addr:    0, cycle:   8191
f9aa a9 aa 60 LDA  IMM   A: 0 X:55 Y:dd P: 7 S:f9 pc: f9ac, reg_addr:   aa, cycle:   8193
f9ac 60 b0  b RTS  IMPL  A:aa X:55 Y:dd P:85 S:f9 pc: d815, reg_addr:    0, cycle:   8199
d815 c8 8d 78 INY  IMPL  A:aa X:55 Y:dd P:85 S:fb pc: d816, reg_addr:    0, cycle:   8201
d816 8d 78  6 STA  ABS   A:aa X:55 Y:de P:85 S:fb pc: d819, reg_addr:  678, cycle:   8205
d819 4e 78  6 LSR  ABS   A:aa X:55 Y:de P:85 S:fb pc: d81c, reg_addr:  678, cycle:   8211
d81c ad 78  6 LDA  ABS   A:aa X:55 Y:de P: 4 S:fb pc: d81f, reg_addr:  678, cycle:   8215
d81f 20 ad f9 JSR  ABS   A:55 X:55 Y:de P: 4 S:fb pc: f9ad, reg_addr: f9ad, cycle:   8221
f9ad b0  b f0 BCS  REL   A:55 X:55 Y:de P: 4 S:f9 pc: f9af, reg_addr: f9ba, cycle:   8223
f9af f0  9 30 BEQ  REL   A:55 X:55 Y:de P: 4 S:f9 pc: f9b1, reg_addr: f9ba, cycle:   8225
f9b1 30  7 70 BMI  REL   A:55 X:55 Y:de P: 4 S:f9 pc: f9b3, reg_addr: f9ba, cycle:   8227
f9b3 70  5 c9 BVS  REL   A:55 X:55 Y:de P: 4 S:f9 pc: f9b5, reg_addr: f9ba, cycle:   8229
f9b5 c9 55 d0 CMP  IMM   A:55 X:55 Y:de P: 4 S:f9 pc: f9b7, reg_addr:   55, cycle:   8231
f9b7 d0  1 60 BNE  REL   A:55 X:55 Y:de P: 7 S:f9 pc: f9b9, reg_addr: f9ba, cycle:   8233
f9b9 60 84  0 RTS  IMPL  A:55 X:55 Y:de P: 7 S:f9 pc: d822, reg_addr:    0, cycle:   8239
d822 c8 20 bd INY  IMPL  A:55 X:55 Y:de P: 7 S:fb pc: d823, reg_addr:    0, cycle:   8241
d823 20 bd f9 JSR  ABS   A:55 X:55 Y:df P:85 S:fb pc: f9bd, reg_addr: f9bd, cycle:   8247
f9bd 24  1 38 BIT  ZP    A:55 X:55 Y:df P:85 S:f9 pc: f9bf, reg_addr:    1, cycle:   8250
f9bf 38 a9 80 SEC  IMPL  A:55 X:55 Y:df P:c5 S:f9 pc: f9c0, reg_addr:    0, cycle:   8252
f9c0 a9 80 60 LDA  IMM   A:55 X:55 Y:df P:c5 S:f9 pc: f9c2, reg_addr:   80, cycle:   8254
f9c2 60 90 1c RTS  IMPL  A:80 X:55 Y:df P:c5 S:f9 pc: d826, reg_addr:    0, cycle:   8260
d826 8d 78  6 STA  ABS   A:80 X:55 Y:df P:c5 S:fb pc: d829, reg_addr:  678, cycle:   8264
d829  e 78  6 ASL  ABS   A:80 X:55 Y:df P:c5 S:fb pc: d82c, reg_addr:  678, cycle:   8270
d82c ad 78  6 LDA  ABS   A:80 X:55 Y:df P:47 S:fb pc: d82f, reg_addr:  678, cycle:   8274
d82f 20 c3 f9 JSR  ABS   A: 0 X:55 Y:df P:47 S:fb pc: f9c3, reg_addr: f9c3, cycle:   8280
f9c3 90 1c d0 BCC  REL   A: 0 X:55 Y:df P:47 S:f9 pc: f9c5, reg_addr: f9e1, cycle:   8282
f9c5 d0 1a 30 BNE  REL   A: 0 X:55 Y:df P:47 S:f9 pc: f9c7, reg_addr: f9e1, cycle:   8284
f9c7 30 18 50 BMI  REL   A: 0 X:55 Y:df P:47 S:f9 pc: f9c9, reg_addr: f9e1, cycle:   8286
f9c9 50 16 c9 BVC  REL   A: 0 X:55 Y:df P:47 S:f9 pc: f9cb, reg_addr: f9e1, cycle:   8288
f9cb c9  0 d0 CMP  IMM   A: 0 X:55 Y:df P:47 S:f9 pc: f9cd, reg_addr:    0, cycle:   8290
f9cd d0 12 b8 BNE  REL   A: 0 X:55 Y:df P:47 S:f9 pc: f9cf, reg_addr: f9e1, cycle:   8292
f9cf b8 a9 55 CLV  IMPL  A: 0 X:55 Y:df P:47 S:f9 pc: f9d0, reg_addr:    0, cycle:   8294
f9d0 a9 55 38 LDA  IMM   A: 0 X:55 Y:df P: 7 S:f9 pc: f9d2, reg_addr:   55, cycle:   8296
f9d2 38 60 b0 SEC  IMPL  A:55 X:55 Y:df P: 5 S:f9 pc: f9d3, reg_addr:    0, cycle:   8298
f9d3 60 b0  b RTS  IMPL  A:55 X:55 Y:df P: 5 S:f9 pc: d832, reg_addr:    0, cycle:   8304
d832 c8 8d 78 INY  IMPL  A:55 X:55 Y:df P: 5 S:fb pc: d833, reg_addr:    0, cycle:   8306
d833 8d 78  6 STA  ABS   A:55 X:55 Y:e0 P:85 S:fb pc: d836, reg_addr:  678, cycle:   8310
d836  e 78  6 ASL  ABS   A:55 X:55 Y:e0 P:85 S:fb pc: d839, reg_addr:  678, cycle:   8316
d839 ad 78  6 LDA  ABS   A:55 X:55 Y:e0 P:84 S:fb pc: d83c, reg_addr:  678, cycle:   8320
d83c 20 d4 f9 JSR  ABS   A:aa X:55 Y:e0 P:84 S:fb pc: f9d4, reg_addr: f9d4, cycle:   8326
f9d4 b0  b f0 BCS  REL   A:aa X:55 Y:e0 P:84 S:f9 pc: f9d6, reg_addr: f9e1, cycle:   8328
f9d6 f0  9 10 BEQ  REL   A:aa X:55 Y:e0 P:84 S:f9 pc: f9d8, reg_addr: f9e1, cycle:   8330
f9d8 10  7 70 BPL  REL   A:aa X:55 Y:e0 P:84 S:f9 pc: f9da, reg_addr: f9e1, cycle:   8332
f9da 70  5 c9 BVS  REL   A:aa X:55 Y:e0 P:84 S:f9 pc: f9dc, reg_addr: f9e1, cycle:   8334
f9dc c9 aa d0 CMP  IMM   A:aa X:55 Y:e0 P:84 S:f9 pc: f9de, reg_addr:   aa, cycle:   8336
f9de d0  1 60 BNE  REL   A:aa X:55 Y:e0 P: 7 S:f9 pc: f9e0, reg_addr: f9e1, cycle:   8338
f9e0 60 84  0 RTS  IMPL  A:aa X:55 Y:e0 P: 7 S:f9 pc: d83f, reg_addr:    0, cycle:   8344
d83f c8 20 e4 INY  IMPL  A:aa X:55 Y:e0 P: 7 S:fb pc: d840, reg_addr:    0, cycle:   8346
d840 20 e4 f9 JSR  ABS   A:aa X:55 Y:e1 P:85 S:fb pc: f9e4, reg_addr: f9e4, cycle:   8352
f9e4 24  1 38 BIT  ZP    A:aa X:55 Y:e1 P:85 S:f9 pc: f9e6, reg_addr:    1, cycle:   8355
f9e6 38 a9  1 SEC  IMPL  A:aa X:55 Y:e1 P:c5 S:f9 pc: f9e7, reg_addr:    0, cycle:   8357
f9e7 a9  1 60 LDA  IMM   A:aa X:55 Y:e1 P:c5 S:f9 pc: f9e9, reg_addr:    1, cycle:   8359
f9e9 60 90 1c RTS  IMPL  A: 1 X:55 Y:e1 P:45 S:f9 pc: d843, reg_addr:    0, cycle:   8365
d843 8d 78  6 STA  ABS   A: 1 X:55 Y:e1 P:45 S:fb pc: d846, reg_addr:  678, cycle:   8369
d846 6e 78  6 ROR  ABS   A: 1 X:55 Y:e1 P:45 S:fb pc: d849, reg_addr:  678, cycle:   8375
d849 ad 78  6 LDA  ABS   A: 1 X:55 Y:e1 P:c5 S:fb pc: d84c, reg_addr:  678, cycle:   8379
d84c 20 ea f9 JSR  ABS   A:80 X:55 Y:e1 P:c5 S:fb pc: f9ea, reg_addr: f9ea, cycle:   8385
f9ea 90 1c f0 BCC  REL   A:80 X:55 Y:e1 P:c5 S:f9 pc: f9ec, reg_addr: fa08, cycle:   8387
f9ec f0 1a 10 BEQ  REL   A:80 X:55 Y:e1 P:c5 S:f9 pc: f9ee, reg_addr: fa08, cycle:   8389
f9ee 10 18 50 BPL  REL   A:80 X:55 Y:e1 P:c5 S:f9 pc: f9f0, reg_addr: fa08, cycle:   8391
f9f0 50 16 c9 BVC  REL   A:80 X:55 Y:e1 P:c5 S:f9 pc: f9f2, reg_addr: fa08, cycle:   8393
f9f2 c9 80 d0 CMP  IMM   A:80 X:55 Y:e1 P:c5 S:f9 pc: f9f4, reg_addr:   80, cycle:   8395
f9f4 d0 12 b8 BNE  REL   A:80 X:55 Y:e1 P:47 S:f9 pc: f9f6, reg_addr: fa08, cycle:   8397
f9f6 b8 18 a9 CLV  IMPL  A:80 X:55 Y:e1 P:47 S:f9 pc: f9f7, reg_addr:    0, cycle:   8399
f9f7 18 a9 55 CLC  IMPL  A:80 X:55 Y:e1 P: 7 S:f9 pc: f9f8, reg_addr:    0, cycle:   8401
f9f8 a9 55 60 LDA  IMM   A:80 X:55 Y:e1 P: 6 S:f9 pc: f9fa, reg_addr:   55, cycle:   8403
f9fa 60 90  b RTS  IMPL  A:55 X:55 Y:e1 P: 4 S:f9 pc: d84f, reg_addr:    0, cycle:   8409
d84f c8 8d 78 INY  IMPL  A:55 X:55 Y:e1 P: 4 S:fb pc: d850, reg_addr:    0, cycle:   8411
d850 8d 78  6 STA  ABS   A:55 X:55 Y:e2 P:84 S:fb pc: d853, reg_addr:  678, cycle:   8415
d853 6e 78  6 ROR  ABS   A:55 X:55 Y:e2 P:84 S:fb pc: d856, reg_addr:  678, cycle:   8421
d856 ad 78  6 LDA  ABS   A:55 X:55 Y:e2 P: 5 S:fb pc: d859, reg_addr:  678, cycle:   8425
d859 20 fb f9 JSR  ABS   A:2a X:55 Y:e2 P: 5 S:fb pc: f9fb, reg_addr: f9fb, cycle:   8431
f9fb 90  b f0 BCC  REL   A:2a X:55 Y:e2 P: 5 S:f9 pc: f9fd, reg_addr: fa08, cycle:   8433
f9fd f0  9 30 BEQ  REL   A:2a X:55 Y:e2 P: 5 S:f9 pc: f9ff, reg_addr: fa08, cycle:   8435
f9ff 30  7 70 BMI  REL   A:2a X:55 Y:e2 P: 5 S:f9 pc: fa01, reg_addr: fa08, cycle:   8437
fa01 70  5 c9 BVS  REL   A:2a X:55 Y:e2 P: 5 S:f9 pc: fa03, reg_addr: fa08, cycle:   8439
fa03 c9 2a d0 CMP  IMM   A:2a X:55 Y:e2 P: 5 S:f9 pc: fa05, reg_addr:   2a, cycle:   8441
fa05 d0  1 60 BNE  REL   A:2a X:55 Y:e2 P: 7 S:f9 pc: fa07, reg_addr: fa08, cycle:   8443
fa07 60 84  0 RTS  IMPL  A:2a X:55 Y:e2 P: 7 S:f9 pc: d85c, reg_addr:    0, cycle:   8449
d85c c8 20  a INY  IMPL  A:2a X:55 Y:e2 P: 7 S:fb pc: d85d, reg_addr:    0, cycle:   8451
d85d 20  a fa JSR  ABS   A:2a X:55 Y:e3 P:85 S:fb pc: fa0a, reg_addr: fa0a, cycle:   8457
fa0a 24  1 38 BIT  ZP    A:2a X:55 Y:e3 P:85 S:f9 pc: fa0c, reg_addr:    1, cycle:   8460
fa0c 38 a9 80 SEC  IMPL  A:2a X:55 Y:e3 P:c5 S:f9 pc: fa0d, reg_addr:    0, cycle:   8462
fa0d a9 80 60 LDA  IMM   A:2a X:55 Y:e3 P:c5 S:f9 pc: fa0f, reg_addr:   80, cycle:   8464
fa0f 60 90 1c RTS  IMPL  A:80 X:55 Y:e3 P:c5 S:f9 pc: d860, reg_addr:    0, cycle:   8470
d860 8d 78  6 STA  ABS   A:80 X:55 Y:e3 P:c5 S:fb pc: d863, reg_addr:  678, cycle:   8474
d863 2e 78  6 ROL  ABS   A:80 X:55 Y:e3 P:c5 S:fb pc: d866, reg_addr:  678, cycle:   8480
d866 ad 78  6 LDA  ABS   A:80 X:55 Y:e3 P:45 S:fb pc: d869, reg_addr:  678, cycle:   8484
d869 20 10 fa JSR  ABS   A: 1 X:55 Y:e3 P:45 S:fb pc: fa10, reg_addr: fa10, cycle:   8490
fa10 90 1c f0 BCC  REL   A: 1 X:55 Y:e3 P:45 S:f9 pc: fa12, reg_addr: fa2e, cycle:   8492
fa12 f0 1a 30 BEQ  REL   A: 1 X:55 Y:e3 P:45 S:f9 pc: fa14, reg_addr: fa2e, cycle:   8494
fa14 30 18 50 BMI  REL   A: 1 X:55 Y:e3 P:45 S:f9 pc: fa16, reg_addr: fa2e, cycle:   8496
fa16 50 16 c9 BVC  REL   A: 1 X:55 Y:e3 P:45 S:f9 pc: fa18, reg_addr: fa2e, cycle:   8498
fa18 c9  1 d0 CMP  IMM   A: 1 X:55 Y:e3 P:45 S:f9 pc: fa1a, reg_addr:    1, cycle:   8500
fa1a d0 12 b8 BNE  REL   A: 1 X:55 Y:e3 P:47 S:f9 pc: fa1c, reg_addr: fa2e, cycle:   8502
fa1c b8 18 a9 CLV  IMPL  A: 1 X:55 Y:e3 P:47 S:f9 pc: fa1d, reg_addr:    0, cycle:   8504
fa1d 18 a9 55 CLC  IMPL  A: 1 X:55 Y:e3 P: 7 S:f9 pc: fa1e, reg_addr:    0, cycle:   8506
fa1e a9 55 60 LDA  IMM   A: 1 X:55 Y:e3 P: 6 S:f9 pc: fa20, reg_addr:   55, cycle:   8508
fa20 60 b0  b RTS  IMPL  A:55 X:55 Y:e3 P: 4 S:f9 pc: d86c, reg_addr:    0, cycle:   8514
d86c c8 8d 78 INY  IMPL  A:55 X:55 Y:e3 P: 4 S:fb pc: d86d, reg_addr:    0, cycle:   8516
d86d 8d 78  6 STA  ABS   A:55 X:55 Y:e4 P:84 S:fb pc: d870, reg_addr:  678, cycle:   8520
d870 2e 78  6 ROL  ABS   A:55 X:55 Y:e4 P:84 S:fb pc: d873, reg_addr:  678, cycle:   8526
d873 ad 78  6 LDA  ABS   A:55 X:55 Y:e4 P:84 S:fb pc: d876, reg_addr:  678, cycle:   8530
d876 20 21 fa JSR  ABS   A:aa X:55 Y:e4 P:84 S:fb pc: fa21, reg_addr: fa21, cycle:   8536
fa21 b0  b f0 BCS  REL   A:aa X:55 Y:e4 P:84 S:f9 pc: fa23, reg_addr: fa2e, cycle:   8538
fa23 f0  9 10 BEQ  REL   A:aa X:55 Y:e4 P:84 S:f9 pc: fa25, reg_addr: fa2e, cycle:   8540
fa25 10  7 70 BPL  REL   A:aa X:55 Y:e4 P:84 S:f9 pc: fa27, reg_addr: fa2e, cycle:   8542
fa27 70  5 c9 BVS  REL   A:aa X:55 Y:e4 P:84 S:f9 pc: fa29, reg_addr: fa2e, cycle:   8544
fa29 c9 aa d0 CMP  IMM   A:aa X:55 Y:e4 P:84 S:f9 pc: fa2b, reg_addr:   aa, cycle:   8546
fa2b d0  1 60 BNE  REL   A:aa X:55 Y:e4 P: 7 S:f9 pc: fa2d, reg_addr: fa2e, cycle:   8548
fa2d 60 84  0 RTS  IMPL  A:aa X:55 Y:e4 P: 7 S:f9 pc: d879, reg_addr:    0, cycle:   8554
d879 a9 ff 8d LDA  IMM   A:aa X:55 Y:e4 P: 7 S:fb pc: d87b, reg_addr:   ff, cycle:   8556
d87b 8d 78  6 STA  ABS   A:ff X:55 Y:e4 P:85 S:fb pc: d87e, reg_addr:  678, cycle:   8560
d87e 85  1 24 STA  ZP    A:ff X:55 Y:e4 P:85 S:fb pc: d880, reg_addr:    1, cycle:   8563
d880 24  1 38 BIT  ZP    A:ff X:55 Y:e4 P:85 S:fb pc: d882, reg_addr:    1, cycle:   8566
d882 38 ee 78 SEC  IMPL  A:ff X:55 Y:e4 P:c5 S:fb pc: d883, reg_addr:    0, cycle:   8568
d883 ee 78  6 INC  ABS   A:ff X:55 Y:e4 P:c5 S:fb pc: d886, reg_addr:  678, cycle:   8574
d886 d0  d 30 BNE  REL   A:ff X:55 Y:e4 P:47 S:fb pc: d888, reg_addr: d895, cycle:   8576
d888 30  b 50 BMI  REL   A:ff X:55 Y:e4 P:47 S:fb pc: d88a, reg_addr: d895, cycle:   8578
d88a 50  9 90 BVC  REL   A:ff X:55 Y:e4 P:47 S:fb pc: d88c, reg_addr: d895, cycle:   8580
d88c 90  7 ad BCC  REL   A:ff X:55 Y:e4 P:47 S:fb pc: d88e, reg_addr: d895, cycle:   8582
d88e ad 78  6 LDA  ABS   A:ff X:55 Y:e4 P:47 S:fb pc: d891, reg_addr:  678, cycle:   8586
d891 c9  0 f0 CMP  IMM   A: 0 X:55 Y:e4 P:47 S:fb pc: d893, reg_addr:    0, cycle:   8588
d893 f0  4 a9 BEQ  REL   A: 0 X:55 Y:e4 P:47 S:fb pc: d899, reg_addr: d899, cycle:   8591
d899 a9 7f 8d LDA  IMM   A: 0 X:55 Y:e4 P:47 S:fb pc: d89b, reg_addr:   7f, cycle:   8593
d89b 8d 78  6 STA  ABS   A:7f X:55 Y:e4 P:45 S:fb pc: d89e, reg_addr:  678, cycle:   8597
d89e b8 18 ee CLV  IMPL  A:7f X:55 Y:e4 P:45 S:fb pc: d89f, reg_addr:    0, cycle:   8599
d89f 18 ee 78 CLC  IMPL  A:7f X:55 Y:e4 P: 5 S:fb pc: d8a0, reg_addr:    0, cycle:   8601
d8a0 ee 78  6 INC  ABS   A:7f X:55 Y:e4 P: 4 S:fb pc: d8a3, reg_addr:  678, cycle:   8607
d8a3 f0  d 10 BEQ  REL   A:7f X:55 Y:e4 P:84 S:fb pc: d8a5, reg_addr: d8b2, cycle:   8609
d8a5 10  b 70 BPL  REL   A:7f X:55 Y:e4 P:84 S:fb pc: d8a7, reg_addr: d8b2, cycle:   8611
d8a7 70  9 b0 BVS  REL   A:7f X:55 Y:e4 P:84 S:fb pc: d8a9, reg_addr: d8b2, cycle:   8613
d8a9 b0  7 ad BCS  REL   A:7f X:55 Y:e4 P:84 S:fb pc: d8ab, reg_addr: d8b2, cycle:   8615
d8ab ad 78  6 LDA  ABS   A:7f X:55 Y:e4 P:84 S:fb pc: d8ae, reg_addr:  678, cycle:   8619
d8ae c9 80 f0 CMP  IMM   A:80 X:55 Y:e4 P:84 S:fb pc: d8b0, reg_addr:   80, cycle:   8621
d8b0 f0  4 a9 BEQ  REL   A:80 X:55 Y:e4 P: 7 S:fb pc: d8b6, reg_addr: d8b6, cycle:   8624
d8b6 a9  0 8d LDA  IMM   A:80 X:55 Y:e4 P: 7 S:fb pc: d8b8, reg_addr:    0, cycle:   8626
d8b8 8d 78  6 STA  ABS   A: 0 X:55 Y:e4 P: 7 S:fb pc: d8bb, reg_addr:  678, cycle:   8630
d8bb 24  1 38 BIT  ZP    A: 0 X:55 Y:e4 P: 7 S:fb pc: d8bd, reg_addr:    1, cycle:   8633
d8bd 38 ce 78 SEC  IMPL  A: 0 X:55 Y:e4 P:c7 S:fb pc: d8be, reg_addr:    0, cycle:   8635
d8be ce 78  6 DEC  ABS   A: 0 X:55 Y:e4 P:c7 S:fb pc: d8c1, reg_addr:  678, cycle:   8641
d8c1 f0  d 10 BEQ  REL   A: 0 X:55 Y:e4 P:c5 S:fb pc: d8c3, reg_addr: d8d0, cycle:   8643
d8c3 10  b 50 BPL  REL   A: 0 X:55 Y:e4 P:c5 S:fb pc: d8c5, reg_addr: d8d0, cycle:   8645
d8c5 50  9 90 BVC  REL   A: 0 X:55 Y:e4 P:c5 S:fb pc: d8c7, reg_addr: d8d0, cycle:   8647
d8c7 90  7 ad BCC  REL   A: 0 X:55 Y:e4 P:c5 S:fb pc: d8c9, reg_addr: d8d0, cycle:   8649
d8c9 ad 78  6 LDA  ABS   A: 0 X:55 Y:e4 P:c5 S:fb pc: d8cc, reg_addr:  678, cycle:   8653
d8cc c9 ff f0 CMP  IMM   A:ff X:55 Y:e4 P:c5 S:fb pc: d8ce, reg_addr:   ff, cycle:   8655
d8ce f0  4 a9 BEQ  REL   A:ff X:55 Y:e4 P:47 S:fb pc: d8d4, reg_addr: d8d4, cycle:   8658
d8d4 a9 80 8d LDA  IMM   A:ff X:55 Y:e4 P:47 S:fb pc: d8d6, reg_addr:   80, cycle:   8660
d8d6 8d 78  6 STA  ABS   A:80 X:55 Y:e4 P:c5 S:fb pc: d8d9, reg_addr:  678, cycle:   8664
d8d9 b8 18 ce CLV  IMPL  A:80 X:55 Y:e4 P:c5 S:fb pc: d8da, reg_addr:    0, cycle:   8666
d8da 18 ce 78 CLC  IMPL  A:80 X:55 Y:e4 P:85 S:fb pc: d8db, reg_addr:    0, cycle:   8668
d8db ce 78  6 DEC  ABS   A:80 X:55 Y:e4 P:84 S:fb pc: d8de, reg_addr:  678, cycle:   8674
d8de f0  d 30 BEQ  REL   A:80 X:55 Y:e4 P: 4 S:fb pc: d8e0, reg_addr: d8ed, cycle:   8676
d8e0 30  b 70 BMI  REL   A:80 X:55 Y:e4 P: 4 S:fb pc: d8e2, reg_addr: d8ed, cycle:   8678
d8e2 70  9 b0 BVS  REL   A:80 X:55 Y:e4 P: 4 S:fb pc: d8e4, reg_addr: d8ed, cycle:   8680
d8e4 b0  7 ad BCS  REL   A:80 X:55 Y:e4 P: 4 S:fb pc: d8e6, reg_addr: d8ed, cycle:   8682
d8e6 ad 78  6 LDA  ABS   A:80 X:55 Y:e4 P: 4 S:fb pc: d8e9, reg_addr:  678, cycle:   8686
d8e9 c9 7f f0 CMP  IMM   A:7f X:55 Y:e4 P: 4 S:fb pc: d8eb, reg_addr:   7f, cycle:   8688
d8eb f0  4 a9 BEQ  REL   A:7f X:55 Y:e4 P: 7 S:fb pc: d8f1, reg_addr: d8f1, cycle:   8691
d8f1 a9  1 8d LDA  IMM   A:7f X:55 Y:e4 P: 7 S:fb pc: d8f3, reg_addr:    1, cycle:   8693
d8f3 8d 78  6 STA  ABS   A: 1 X:55 Y:e4 P: 5 S:fb pc: d8f6, reg_addr:  678, cycle:   8697
d8f6 ce 78  6 DEC  ABS   A: 1 X:55 Y:e4 P: 5 S:fb pc: d8f9, reg_addr:  678, cycle:   8703
d8f9 f0  4 a9 BEQ  REL   A: 1 X:55 Y:e4 P: 7 S:fb pc: d8ff, reg_addr: d8ff, cycle:   8706
d8ff 60 a9 a3 RTS  IMPL  A: 1 X:55 Y:e4 P: 7 S:fb pc: c618, reg_addr:    0, cycle:   8712
c618 20  0 d9 JSR  ABS   A: 1 X:55 Y:e4 P: 7 S:fd pc: d900, reg_addr: d900, cycle:   8718
d900 a9 a3 85 LDA  IMM   A: 1 X:55 Y:e4 P: 7 S:fb pc: d902, reg_addr:   a3, cycle:   8720
d902 85 33 a9 STA  ZP    A:a3 X:55 Y:e4 P:85 S:fb pc: d904, reg_addr:   33, cycle:   8723
d904 a9 89 8d LDA  IMM   A:a3 X:55 Y:e4 P:85 S:fb pc: d906, reg_addr:   89, cycle:   8725
d906 8d  0  3 STA  ABS   A:89 X:55 Y:e4 P:85 S:fb pc: d909, reg_addr:  300, cycle:   8729
d909 a9 12 8d LDA  IMM   A:89 X:55 Y:e4 P:85 S:fb pc: d90b, reg_addr:   12, cycle:   8731
d90b 8d 45  2 STA  ABS   A:12 X:55 Y:e4 P: 5 S:fb pc: d90e, reg_addr:  245, cycle:   8735
d90e a9 ff 85 LDA  IMM   A:12 X:55 Y:e4 P: 5 S:fb pc: d910, reg_addr:   ff, cycle:   8737
d910 85  1 a2 STA  ZP    A:ff X:55 Y:e4 P:85 S:fb pc: d912, reg_addr:    1, cycle:   8740
d912 a2 65 a9 LDX  IMM   A:ff X:55 Y:e4 P:85 S:fb pc: d914, reg_addr:   65, cycle:   8742
d914 a9  0 85 LDA  IMM   A:ff X:65 Y:e4 P: 5 S:fb pc: d916, reg_addr:    0, cycle:   8744
d916 85 89 a9 STA  ZP    A: 0 X:65 Y:e4 P: 7 S:fb pc: d918, reg_addr:   89, cycle:   8747
d918 a9  3 85 LDA  IMM   A: 0 X:65 Y:e4 P: 7 S:fb pc: d91a, reg_addr:    3, cycle:   8749
d91a 85 8a a0 STA  ZP    A: 3 X:65 Y:e4 P: 5 S:fb pc: d91c, reg_addr:   8a, cycle:   8752
d91c a0  0 38 LDY  IMM   A: 3 X:65 Y:e4 P: 5 S:fb pc: d91e, reg_addr:    0, cycle:   8754
d91e 38 a9  0 SEC  IMPL  A: 3 X:65 Y: 0 P: 7 S:fb pc: d91f, reg_addr:    0, cycle:   8756
d91f a9  0 b8 LDA  IMM   A: 3 X:65 Y: 0 P: 7 S:fb pc: d921, reg_addr:    0, cycle:   8758
d921 b8 b1 89 CLV  IMPL  A: 0 X:65 Y: 0 P: 7 S:fb pc: d922, reg_addr:    0, cycle:   8760
d922 b1 89 f0 LDA  INDY  A: 0 X:65 Y: 0 P: 7 S:fb pc: d924, reg_addr:  300, cycle:   8765
d924 f0  c 90 BEQ  REL   A:89 X:65 Y: 0 P:85 S:fb pc: d926, reg_addr: d932, cycle:   8767
d926 90  a 70 BCC  REL   A:89 X:65 Y: 0 P:85 S:fb pc: d928, reg_addr: d932, cycle:   8769
d928 70  8 c9 BVS  REL   A:89 X:65 Y: 0 P:85 S:fb pc: d92a, reg_addr: d932, cycle:   8771
d92a c9 89 d0 CMP  IMM   A:89 X:65 Y: 0 P:85 S:fb pc: d92c, reg_addr:   89, cycle:   8773
d92c d0  4 e0 BNE  REL   A:89 X:65 Y: 0 P: 7 S:fb pc: d92e, reg_addr: d932, cycle:   8775
d92e e0 65 f0 CPX  IMM   A:89 X:65 Y: 0 P: 7 S:fb pc: d930, reg_addr:   65, cycle:   8777
d930 f0  4 a9 BEQ  REL   A:89 X:65 Y: 0 P: 7 S:fb pc: d936, reg_addr: d936, cycle:   8780
d936 a9 ff 85 LDA  IMM   A:89 X:65 Y: 0 P: 7 S:fb pc: d938, reg_addr:   ff, cycle:   8782
d938 85 97 85 STA  ZP    A:ff X:65 Y: 0 P:85 S:fb pc: d93a, reg_addr:   97, cycle:   8785
d93a 85 98 24 STA  ZP    A:ff X:65 Y: 0 P:85 S:fb pc: d93c, reg_addr:   98, cycle:   8788
d93c 24 98 a0 BIT  ZP    A:ff X:65 Y: 0 P:85 S:fb pc: d93e, reg_addr:   98, cycle:   8791
d93e a0 34 b1 LDY  IMM   A:ff X:65 Y: 0 P:c5 S:fb pc: d940, reg_addr:   34, cycle:   8793
d940 b1 97 c9 LDA  INDY  A:ff X:65 Y:34 P:45 S:fb pc: d942, reg_addr:   33, cycle:   8798
d942 c9 a3 d0 CMP  IMM   A:a3 X:65 Y:34 P:c5 S:fb pc: d944, reg_addr:   a3, cycle:   8800
d944 d0  2 b0 BNE  REL   A:a3 X:65 Y:34 P:47 S:fb pc: d946, reg_addr: d948, cycle:   8802
d946 b0  4 a9 BCS  REL   A:a3 X:65 Y:34 P:47 S:fb pc: d94c, reg_addr: d94c, cycle:   8805
d94c a5  0 48 LDA  ZP    A:a3 X:65 Y:34 P:47 S:fb pc: d94e, reg_addr:    0, cycle:   8808
d94e 48 a9 46 PHA  IMPL  A: 0 X:65 Y:34 P:47 S:fb pc: d94f, reg_addr:    0, cycle:   8811
d94f a9 46 85 LDA  IMM   A: 0 X:65 Y:34 P:47 S:fa pc: d951, reg_addr:   46, cycle:   8813
d951 85 ff a9 STA  ZP    A:46 X:65 Y:34 P:45 S:fa pc: d953, reg_addr:   ff, cycle:   8816
d953 a9  1 85 LDA  IMM   A:46 X:65 Y:34 P:45 S:fa pc: d955, reg_addr:    1, cycle:   8818
d955 85  0 a0 STA  ZP    A: 1 X:65 Y:34 P:45 S:fa pc: d957, reg_addr:    0, cycle:   8821
d957 a0 ff b1 LDY  IMM   A: 1 X:65 Y:34 P:45 S:fa pc: d959, reg_addr:   ff, cycle:   8823
d959 b1 ff c9 LDA  INDY  A: 1 X:65 Y:ff P:c5 S:fa pc: d95b, reg_addr:  245, cycle:   8829
d95b c9 12 f0 CMP  IMM   A:12 X:65 Y:ff P:45 S:fa pc: d95d, reg_addr:   12, cycle:   8831
d95d f0  4 68 BEQ  REL   A:12 X:65 Y:ff P:47 S:fa pc: d963, reg_addr: d963, cycle:   8834
d963 68 85  0 PLA  IMPL  A:12 X:65 Y:ff P:47 S:fa pc: d964, reg_addr:    0, cycle:   8838
d964 85  0 a2 STA  ZP    A: 0 X:65 Y:ff P:47 S:fb pc: d966, reg_addr:    0, cycle:   8841
d966 a2 ed a9 LDX  IMM   A: 0 X:65 Y:ff P:47 S:fb pc: d968, reg_addr:   ed, cycle:   8843
d968 a9  0 85 LDA  IMM   A: 0 X:ed Y:ff P:c5 S:fb pc: d96a, reg_addr:    0, cycle:   8845
d96a 85 33 a9 STA  ZP    A: 0 X:ed Y:ff P:47 S:fb pc: d96c, reg_addr:   33, cycle:   8848
d96c a9  4 85 LDA  IMM   A: 0 X:ed Y:ff P:47 S:fb pc: d96e, reg_addr:    4, cycle:   8850
d96e 85 34 a0 STA  ZP    A: 4 X:ed Y:ff P:45 S:fb pc: d970, reg_addr:   34, cycle:   8853
d970 a0  0 18 LDY  IMM   A: 4 X:ed Y:ff P:45 S:fb pc: d972, reg_addr:    0, cycle:   8855
d972 18 a9 ff CLC  IMPL  A: 4 X:ed Y: 0 P:47 S:fb pc: d973, reg_addr:    0, cycle:   8857
d973 a9 ff 85 LDA  IMM   A: 4 X:ed Y: 0 P:46 S:fb pc: d975, reg_addr:   ff, cycle:   8859
d975 85  1 24 STA  ZP    A:ff X:ed Y: 0 P:c4 S:fb pc: d977, reg_addr:    1, cycle:   8862
d977 24  1 a9 BIT  ZP    A:ff X:ed Y: 0 P:c4 S:fb pc: d979, reg_addr:    1, cycle:   8865
d979 a9 aa 8d LDA  IMM   A:ff X:ed Y: 0 P:c4 S:fb pc: d97b, reg_addr:   aa, cycle:   8867
d97b 8d  0  4 STA  ABS   A:aa X:ed Y: 0 P:c4 S:fb pc: d97e, reg_addr:  400, cycle:   8871
d97e a9 55 11 LDA  IMM   A:aa X:ed Y: 0 P:c4 S:fb pc: d980, reg_addr:   55, cycle:   8873
d980 11 33 b0 ORA  INDY  A:55 X:ed Y: 0 P:44 S:fb pc: d982, reg_addr:  400, cycle:   8878
d982 b0  8 10 BCS  REL   A:ff X:ed Y: 0 P:c4 S:fb pc: d984, reg_addr: d98c, cycle:   8880
d984 10  6 c9 BPL  REL   A:ff X:ed Y: 0 P:c4 S:fb pc: d986, reg_addr: d98c, cycle:   8882
d986 c9 ff d0 CMP  IMM   A:ff X:ed Y: 0 P:c4 S:fb pc: d988, reg_addr:   ff, cycle:   8884
d988 d0  2 70 BNE  REL   A:ff X:ed Y: 0 P:47 S:fb pc: d98a, reg_addr: d98c, cycle:   8886
d98a 70  2 86 BVS  REL   A:ff X:ed Y: 0 P:47 S:fb pc: d98e, reg_addr: d98e, cycle:   8889
d98e e8 38 b8 INX  IMPL  A:ff X:ed Y: 0 P:47 S:fb pc: d98f, reg_addr:    0, cycle:   8891
d98f 38 b8 a9 SEC  IMPL  A:ff X:ee Y: 0 P:c5 S:fb pc: d990, reg_addr:    0, cycle:   8893
d990 b8 a9  0 CLV  IMPL  A:ff X:ee Y: 0 P:c5 S:fb pc: d991, reg_addr:    0, cycle:   8895
d991 a9  0 11 LDA  IMM   A:ff X:ee Y: 0 P:85 S:fb pc: d993, reg_addr:    0, cycle:   8897
d993 11 33 f0 ORA  INDY  A: 0 X:ee Y: 0 P: 7 S:fb pc: d995, reg_addr:  400, cycle:   8902
d995 f0  6 70 BEQ  REL   A:aa X:ee Y: 0 P:85 S:fb pc: d997, reg_addr: d99d, cycle:   8904
d997 70  4 90 BVS  REL   A:aa X:ee Y: 0 P:85 S:fb pc: d999, reg_addr: d99d, cycle:   8906
d999 90  2 30 BCC  REL   A:aa X:ee Y: 0 P:85 S:fb pc: d99b, reg_addr: d99d, cycle:   8908
d99b 30  2 86 BMI  REL   A:aa X:ee Y: 0 P:85 S:fb pc: d99f, reg_addr: d99f, cycle:   8911
d99f e8 18 24 INX  IMPL  A:aa X:ee Y: 0 P:85 S:fb pc: d9a0, reg_addr:    0, cycle:   8913
d9a0 18 24  1 CLC  IMPL  A:aa X:ef Y: 0 P:85 S:fb pc: d9a1, reg_addr:    0, cycle:   8915
d9a1 24  1 a9 BIT  ZP    A:aa X:ef Y: 0 P:84 S:fb pc: d9a3, reg_addr:    1, cycle:   8918
d9a3 a9 55 31 LDA  IMM   A:aa X:ef Y: 0 P:c4 S:fb pc: d9a5, reg_addr:   55, cycle:   8920
d9a5 31 33 d0 AND  INDY  A:55 X:ef Y: 0 P:44 S:fb pc: d9a7, reg_addr:  400, cycle:   8925
d9a7 d0  6 50 BNE  REL   A: 0 X:ef Y: 0 P:46 S:fb pc: d9a9, reg_addr: d9af, cycle:   8927
d9a9 50  4 b0 BVC  REL   A: 0 X:ef Y: 0 P:46 S:fb pc: d9ab, reg_addr: d9af, cycle:   8929
d9ab b0  2 10 BCS  REL   A: 0 X:ef Y: 0 P:46 S:fb pc: d9ad, reg_addr: d9af, cycle:   8931
d9ad 10  2 86 BPL  REL   A: 0 X:ef Y: 0 P:46 S:fb pc: d9b1, reg_addr: d9b1, cycle:   8934
d9b1 e8 38 b8 INX  IMPL  A: 0 X:ef Y: 0 P:46 S:fb pc: d9b2, reg_addr:    0, cycle:   8936
d9b2 38 b8 a9 SEC  IMPL  A: 0 X:f0 Y: 0 P:c4 S:fb pc: d9b3, reg_addr:    0, cycle:   8938
d9b3 b8 a9 ef CLV  IMPL  A: 0 X:f0 Y: 0 P:c5 S:fb pc: d9b4, reg_addr:    0, cycle:   8940
d9b4 a9 ef 8d LDA  IMM   A: 0 X:f0 Y: 0 P:85 S:fb pc: d9b6, reg_addr:   ef, cycle:   8942
d9b6 8d  0  4 STA  ABS   A:ef X:f0 Y: 0 P:85 S:fb pc: d9b9, reg_addr:  400, cycle:   8946
d9b9 a9 f8 31 LDA  IMM   A:ef X:f0 Y: 0 P:85 S:fb pc: d9bb, reg_addr:   f8, cycle:   8948
d9bb 31 33 90 AND  INDY  A:f8 X:f0 Y: 0 P:85 S:fb pc: d9bd, reg_addr:  400, cycle:   8953
d9bd 90  8 10 BCC  REL   A:e8 X:f0 Y: 0 P:85 S:fb pc: d9bf, reg_addr: d9c7, cycle:   8955
d9bf 10  6 c9 BPL  REL   A:e8 X:f0 Y: 0 P:85 S:fb pc: d9c1, reg_addr: d9c7, cycle:   8957
d9c1 c9 e8 d0 CMP  IMM   A:e8 X:f0 Y: 0 P:85 S:fb pc: d9c3, reg_addr:   e8, cycle:   8959
d9c3 d0  2 50 BNE  REL   A:e8 X:f0 Y: 0 P: 7 S:fb pc: d9c5, reg_addr: d9c7, cycle:   8961
d9c5 50  2 86 BVC  REL   A:e8 X:f0 Y: 0 P: 7 S:fb pc: d9c9, reg_addr: d9c9, cycle:   8964
d9c9 e8 18 24 INX  IMPL  A:e8 X:f0 Y: 0 P: 7 S:fb pc: d9ca, reg_addr:    0, cycle:   8966
d9ca 18 24  1 CLC  IMPL  A:e8 X:f1 Y: 0 P:85 S:fb pc: d9cb, reg_addr:    0, cycle:   8968
d9cb 24  1 a9 BIT  ZP    A:e8 X:f1 Y: 0 P:84 S:fb pc: d9cd, reg_addr:    1, cycle:   8971
d9cd a9 aa 8d LDA  IMM   A:e8 X:f1 Y: 0 P:c4 S:fb pc: d9cf, reg_addr:   aa, cycle:   8973
d9cf 8d  0  4 STA  ABS   A:aa X:f1 Y: 0 P:c4 S:fb pc: d9d2, reg_addr:  400, cycle:   8977
d9d2 a9 5f 51 LDA  IMM   A:aa X:f1 Y: 0 P:c4 S:fb pc: d9d4, reg_addr:   5f, cycle:   8979
d9d4 51 33 b0 EOR  INDY  A:5f X:f1 Y: 0 P:44 S:fb pc: d9d6, reg_addr:  400, cycle:   8984
d9d6 b0  8 10 BCS  REL   A:f5 X:f1 Y: 0 P:c4 S:fb pc: d9d8, reg_addr: d9e0, cycle:   8986
d9d8 10  6 c9 BPL  REL   A:f5 X:f1 Y: 0 P:c4 S:fb pc: d9da, reg_addr: d9e0, cycle:   8988
d9da c9 f5 d0 CMP  IMM   A:f5 X:f1 Y: 0 P:c4 S:fb pc: d9dc, reg_addr:   f5, cycle:   8990
d9dc d0  2 70 BNE  REL   A:f5 X:f1 Y: 0 P:47 S:fb pc: d9de, reg_addr: d9e0, cycle:   8992
d9de 70  2 86 BVS  REL   A:f5 X:f1 Y: 0 P:47 S:fb pc: d9e2, reg_addr: d9e2, cycle:   8995
d9e2 e8 38 b8 INX  IMPL  A:f5 X:f1 Y: 0 P:47 S:fb pc: d9e3, reg_addr:    0, cycle:   8997
d9e3 38 b8 a9 SEC  IMPL  A:f5 X:f2 Y: 0 P:c5 S:fb pc: d9e4, reg_addr:    0, cycle:   8999
d9e4 b8 a9 70 CLV  IMPL  A:f5 X:f2 Y: 0 P:c5 S:fb pc: d9e5, reg_addr:    0, cycle:   9001
d9e5 a9 70 8d LDA  IMM   A:f5 X:f2 Y: 0 P:85 S:fb pc: d9e7, reg_addr:   70, cycle:   9003
d9e7 8d  0  4 STA  ABS   A:70 X:f2 Y: 0 P: 5 S:fb pc: d9ea, reg_addr:  400, cycle:   9007
d9ea 51 33 d0 EOR  INDY  A:70 X:f2 Y: 0 P: 5 S:fb pc: d9ec, reg_addr:  400, cycle:   9012
d9ec d0  6 70 BNE  REL   A: 0 X:f2 Y: 0 P: 7 S:fb pc: d9ee, reg_addr: d9f4, cycle:   9014
d9ee 70  4 90 BVS  REL   A: 0 X:f2 Y: 0 P: 7 S:fb pc: d9f0, reg_addr: d9f4, cycle:   9016
d9f0 90  2 10 BCC  REL   A: 0 X:f2 Y: 0 P: 7 S:fb pc: d9f2, reg_addr: d9f4, cycle:   9018
d9f2 10  2 86 BPL  REL   A: 0 X:f2 Y: 0 P: 7 S:fb pc: d9f6, reg_addr: d9f6, cycle:   9021
d9f6 e8 18 24 INX  IMPL  A: 0 X:f2 Y: 0 P: 7 S:fb pc: d9f7, reg_addr:    0, cycle:   9023
d9f7 18 24  1 CLC  IMPL  A: 0 X:f3 Y: 0 P:85 S:fb pc: d9f8, reg_addr:    0, cycle:   9025
d9f8 24  1 a9 BIT  ZP    A: 0 X:f3 Y: 0 P:84 S:fb pc: d9fa, reg_addr:    1, cycle:   9028
d9fa a9 69 8d LDA  IMM   A: 0 X:f3 Y: 0 P:c6 S:fb pc: d9fc, reg_addr:   69, cycle:   9030
d9fc 8d  0  4 STA  ABS   A:69 X:f3 Y: 0 P:44 S:fb pc: d9ff, reg_addr:  400, cycle:   9034
d9ff a9  0 71 LDA  IMM   A:69 X:f3 Y: 0 P:44 S:fb pc: da01, reg_addr:    0, cycle:   9036
da01 71 33 30 ADC  INDY  A: 0 X:f3 Y: 0 P:46 S:fb pc: da03, reg_addr:  400, cycle:   9041
da03 30  8 b0 BMI  REL   A:69 X:f3 Y: 0 P: 4 S:fb pc: da05, reg_addr: da0d, cycle:   9043
da05 b0  6 c9 BCS  REL   A:69 X:f3 Y: 0 P: 4 S:fb pc: da07, reg_addr: da0d, cycle:   9045
da07 c9 69 d0 CMP  IMM   A:69 X:f3 Y: 0 P: 4 S:fb pc: da09, reg_addr:   69, cycle:   9047
da09 d0  2 50 BNE  REL   A:69 X:f3 Y: 0 P: 7 S:fb pc: da0b, reg_addr: da0d, cycle:   9049
da0b 50  2 86 BVC  REL   A:69 X:f3 Y: 0 P: 7 S:fb pc: da0f, reg_addr: da0f, cycle:   9052
da0f e8 38 24 INX  IMPL  A:69 X:f3 Y: 0 P: 7 S:fb pc: da10, reg_addr:    0, cycle:   9054
da10 38 24  1 SEC  IMPL  A:69 X:f4 Y: 0 P:85 S:fb pc: da11, reg_addr:    0, cycle:   9056
da11 24  1 a9 BIT  ZP    A:69 X:f4 Y: 0 P:85 S:fb pc: da13, reg_addr:    1, cycle:   9059
da13 a9  0 71 LDA  IMM   A:69 X:f4 Y: 0 P:c5 S:fb pc: da15, reg_addr:    0, cycle:   9061
da15 71 33 30 ADC  INDY  A: 0 X:f4 Y: 0 P:47 S:fb pc: da17, reg_addr:  400, cycle:   9066
da17 30  8 b0 BMI  REL   A:6a X:f4 Y: 0 P: 4 S:fb pc: da19, reg_addr: da21, cycle:   9068
da19 b0  6 c9 BCS  REL   A:6a X:f4 Y: 0 P: 4 S:fb pc: da1b, reg_addr: da21, cycle:   9070
da1b c9 6a d0 CMP  IMM   A:6a X:f4 Y: 0 P: 4 S:fb pc: da1d, reg_addr:   6a, cycle:   9072
da1d d0  2 50 BNE  REL   A:6a X:f4 Y: 0 P: 7 S:fb pc: da1f, reg_addr: da21, cycle:   9074
da1f 50  2 86 BVC  REL   A:6a X:f4 Y: 0 P: 7 S:fb pc: da23, reg_addr: da23, cycle:   9077
da23 e8 38 b8 INX  IMPL  A:6a X:f4 Y: 0 P: 7 S:fb pc: da24, reg_addr:    0, cycle:   9079
da24 38 b8 a9 SEC  IMPL  A:6a X:f5 Y: 0 P:85 S:fb pc: da25, reg_addr:    0, cycle:   9081
da25 b8 a9 7f CLV  IMPL  A:6a X:f5 Y: 0 P:85 S:fb pc: da26, reg_addr:    0, cycle:   9083
da26 a9 7f 8d LDA  IMM   A:6a X:f5 Y: 0 P:85 S:fb pc: da28, reg_addr:   7f, cycle:   9085
da28 8d  0  4 STA  ABS   A:7f X:f5 Y: 0 P: 5 S:fb pc: da2b, reg_addr:  400, cycle:   9089
da2b 71 33 10 ADC  INDY  A:7f X:f5 Y: 0 P: 5 S:fb pc: da2d, reg_addr:  400, cycle:   9094
da2d 10  8 b0 BPL  REL   A:ff X:f5 Y: 0 P:c4 S:fb pc: da2f, reg_addr: da37, cycle:   9096
da2f b0  6 c9 BCS  REL   A:ff X:f5 Y: 0 P:c4 S:fb pc: da31, reg_addr: da37, cycle:   9098
da31 c9 ff d0 CMP  IMM   A:ff X:f5 Y: 0 P:c4 S:fb pc: da33, reg_addr:   ff, cycle:   9100
da33 d0  2 70 BNE  REL   A:ff X:f5 Y: 0 P:47 S:fb pc: da35, reg_addr: da37, cycle:   9102
da35 70  2 86 BVS  REL   A:ff X:f5 Y: 0 P:47 S:fb pc: da39, reg_addr: da39, cycle:   9105
da39 e8 18 24 INX  IMPL  A:ff X:f5 Y: 0 P:47 S:fb pc: da3a, reg_addr:    0, cycle:   9107
da3a 18 24  1 CLC  IMPL  A:ff X:f6 Y: 0 P:c5 S:fb pc: da3b, reg_addr:    0, cycle:   9109
da3b 24  1 a9 BIT  ZP    A:ff X:f6 Y: 0 P:c4 S:fb pc: da3d, reg_addr:    1, cycle:   9112
da3d a9 80 8d LDA  IMM   A:ff X:f6 Y: 0 P:c4 S:fb pc: da3f, reg_addr:   80, cycle:   9114
da3f 8d  0  4 STA  ABS   A:80 X:f6 Y: 0 P:c4 S:fb pc: da42, reg_addr:  400, cycle:   9118
da42 a9 7f 71 LDA  IMM   A:80 X:f6 Y: 0 P:c4 S:fb pc: da44, reg_addr:   7f, cycle:   9120
da44 71 33 10 ADC  INDY  A:7f X:f6 Y: 0 P:44 S:fb pc: da46, reg_addr:  400, cycle:   9125
da46 10  8 b0 BPL  REL   A:ff X:f6 Y: 0 P:84 S:fb pc: da48, reg_addr: da50, cycle:   9127
da48 b0  6 c9 BCS  REL   A:ff X:f6 Y: 0 P:84 S:fb pc: da4a, reg_addr: da50, cycle:   9129
da4a c9 ff d0 CMP  IMM   A:ff X:f6 Y: 0 P:84 S:fb pc: da4c, reg_addr:   ff, cycle:   9131
da4c d0  2 50 BNE  REL   A:ff X:f6 Y: 0 P: 7 S:fb pc: da4e, reg_addr: da50, cycle:   9133
da4e 50  2 86 BVC  REL   A:ff X:f6 Y: 0 P: 7 S:fb pc: da52, reg_addr: da52, cycle:   9136
da52 e8 38 b8 INX  IMPL  A:ff X:f6 Y: 0 P: 7 S:fb pc: da53, reg_addr:    0, cycle:   9138
da53 38 b8 a9 SEC  IMPL  A:ff X:f7 Y: 0 P:85 S:fb pc: da54, reg_addr:    0, cycle:   9140
da54 b8 a9 80 CLV  IMPL  A:ff X:f7 Y: 0 P:85 S:fb pc: da55, reg_addr:    0, cycle:   9142
da55 a9 80 8d LDA  IMM   A:ff X:f7 Y: 0 P:85 S:fb pc: da57, reg_addr:   80, cycle:   9144
da57 8d  0  4 STA  ABS   A:80 X:f7 Y: 0 P:85 S:fb pc: da5a, reg_addr:  400, cycle:   9148
da5a a9 7f 71 LDA  IMM   A:80 X:f7 Y: 0 P:85 S:fb pc: da5c, reg_addr:   7f, cycle:   9150
da5c 71 33 d0 ADC  INDY  A:7f X:f7 Y: 0 P: 5 S:fb pc: da5e, reg_addr:  400, cycle:   9155
da5e d0  6 30 BNE  REL   A: 0 X:f7 Y: 0 P: 7 S:fb pc: da60, reg_addr: da66, cycle:   9157
da60 30  4 70 BMI  REL   A: 0 X:f7 Y: 0 P: 7 S:fb pc: da62, reg_addr: da66, cycle:   9159
da62 70  2 b0 BVS  REL   A: 0 X:f7 Y: 0 P: 7 S:fb pc: da64, reg_addr: da66, cycle:   9161
da64 b0  2 86 BCS  REL   A: 0 X:f7 Y: 0 P: 7 S:fb pc: da68, reg_addr: da68, cycle:   9164
da68 e8 24  1 INX  IMPL  A: 0 X:f7 Y: 0 P: 7 S:fb pc: da69, reg_addr:    0, cycle:   9166
da69 24  1 a9 BIT  ZP    A: 0 X:f8 Y: 0 P:85 S:fb pc: da6b, reg_addr:    1, cycle:   9169
da6b a9 40 8d LDA  IMM   A: 0 X:f8 Y: 0 P:c7 S:fb pc: da6d, reg_addr:   40, cycle:   9171
da6d 8d  0  4 STA  ABS   A:40 X:f8 Y: 0 P:45 S:fb pc: da70, reg_addr:  400, cycle:   9175
da70 d1 33 30 CMP  INDY  A:40 X:f8 Y: 0 P:45 S:fb pc: da72, reg_addr:  400, cycle:   9180
da72 30  6 90 BMI  REL   A:40 X:f8 Y: 0 P:47 S:fb pc: da74, reg_addr: da7a, cycle:   9182
da74 90  4 d0 BCC  REL   A:40 X:f8 Y: 0 P:47 S:fb pc: da76, reg_addr: da7a, cycle:   9184
da76 d0  2 70 BNE  REL   A:40 X:f8 Y: 0 P:47 S:fb pc: da78, reg_addr: da7a, cycle:   9186
da78 70  2 86 BVS  REL   A:40 X:f8 Y: 0 P:47 S:fb pc: da7c, reg_addr: da7c, cycle:   9189
da7c e8 b8 ce INX  IMPL  A:40 X:f8 Y: 0 P:47 S:fb pc: da7d, reg_addr:    0, cycle:   9191
da7d b8 ce  0 CLV  IMPL  A:40 X:f9 Y: 0 P:c5 S:fb pc: da7e, reg_addr:    0, cycle:   9193
da7e ce  0  4 DEC  ABS   A:40 X:f9 Y: 0 P:85 S:fb pc: da81, reg_addr:  400, cycle:   9199
da81 d1 33 f0 CMP  INDY  A:40 X:f9 Y: 0 P: 5 S:fb pc: da83, reg_addr:  400, cycle:   9204
da83 f0  6 30 BEQ  REL   A:40 X:f9 Y: 0 P: 5 S:fb pc: da85, reg_addr: da8b, cycle:   9206
da85 30  4 90 BMI  REL   A:40 X:f9 Y: 0 P: 5 S:fb pc: da87, reg_addr: da8b, cycle:   9208
da87 90  2 50 BCC  REL   A:40 X:f9 Y: 0 P: 5 S:fb pc: da89, reg_addr: da8b, cycle:   9210
da89 50  2 86 BVC  REL   A:40 X:f9 Y: 0 P: 5 S:fb pc: da8d, reg_addr: da8d, cycle:   9213
da8d e8 ee  0 INX  IMPL  A:40 X:f9 Y: 0 P: 5 S:fb pc: da8e, reg_addr:    0, cycle:   9215
da8e ee  0  4 INC  ABS   A:40 X:fa Y: 0 P:85 S:fb pc: da91, reg_addr:  400, cycle:   9221
da91 ee  0  4 INC  ABS   A:40 X:fa Y: 0 P: 5 S:fb pc: da94, reg_addr:  400, cycle:   9227
da94 d1 33 f0 CMP  INDY  A:40 X:fa Y: 0 P: 5 S:fb pc: da96, reg_addr:  400, cycle:   9232
da96 f0  2 30 BEQ  REL   A:40 X:fa Y: 0 P:84 S:fb pc: da98, reg_addr: da9a, cycle:   9234
da98 30  2 86 BMI  REL   A:40 X:fa Y: 0 P:84 S:fb pc: da9c, reg_addr: da9c, cycle:   9237
da9c e8 a9  0 INX  IMPL  A:40 X:fa Y: 0 P:84 S:fb pc: da9d, reg_addr:    0, cycle:   9239
da9d a9  0 8d LDA  IMM   A:40 X:fb Y: 0 P:84 S:fb pc: da9f, reg_addr:    0, cycle:   9241
da9f 8d  0  4 STA  ABS   A: 0 X:fb Y: 0 P: 6 S:fb pc: daa2, reg_addr:  400, cycle:   9245
daa2 a9 80 d1 LDA  IMM   A: 0 X:fb Y: 0 P: 6 S:fb pc: daa4, reg_addr:   80, cycle:   9247
daa4 d1 33 f0 CMP  INDY  A:80 X:fb Y: 0 P:84 S:fb pc: daa6, reg_addr:  400, cycle:   9252
daa6 f0  4 10 BEQ  REL   A:80 X:fb Y: 0 P:85 S:fb pc: daa8, reg_addr: daac, cycle:   9254
daa8 10  2 b0 BPL  REL   A:80 X:fb Y: 0 P:85 S:fb pc: daaa, reg_addr: daac, cycle:   9256
daaa b0  2 86 BCS  REL   A:80 X:fb Y: 0 P:85 S:fb pc: daae, reg_addr: daae, cycle:   9259
daae e8 a0 80 INX  IMPL  A:80 X:fb Y: 0 P:85 S:fb pc: daaf, reg_addr:    0, cycle:   9261
daaf a0 80 8c LDY  IMM   A:80 X:fc Y: 0 P:85 S:fb pc: dab1, reg_addr:   80, cycle:   9263
dab1 8c  0  4 STY  ABS   A:80 X:fc Y:80 P:85 S:fb pc: dab4, reg_addr:  400, cycle:   9267
dab4 a0  0 d1 LDY  IMM   A:80 X:fc Y:80 P:85 S:fb pc: dab6, reg_addr:    0, cycle:   9269
dab6 d1 33 d0 CMP  INDY  A:80 X:fc Y: 0 P: 7 S:fb pc: dab8, reg_addr:  400, cycle:   9274
dab8 d0  4 30 BNE  REL   A:80 X:fc Y: 0 P: 7 S:fb pc: daba, reg_addr: dabe, cycle:   9276
daba 30  2 b0 BMI  REL   A:80 X:fc Y: 0 P: 7 S:fb pc: dabc, reg_addr: dabe, cycle:   9278
dabc b0  2 86 BCS  REL   A:80 X:fc Y: 0 P: 7 S:fb pc: dac0, reg_addr: dac0, cycle:   9281
dac0 e8 ee  0 INX  IMPL  A:80 X:fc Y: 0 P: 7 S:fb pc: dac1, reg_addr:    0, cycle:   9283
dac1 ee  0  4 INC  ABS   A:80 X:fd Y: 0 P:85 S:fb pc: dac4, reg_addr:  400, cycle:   9289
dac4 d1 33 b0 CMP  INDY  A:80 X:fd Y: 0 P:85 S:fb pc: dac6, reg_addr:  400, cycle:   9294
dac6 b0  4 f0 BCS  REL   A:80 X:fd Y: 0 P:84 S:fb pc: dac8, reg_addr: dacc, cycle:   9296
dac8 f0  2 30 BEQ  REL   A:80 X:fd Y: 0 P:84 S:fb pc: daca, reg_addr: dacc, cycle:   9298
daca 30  2 86 BMI  REL   A:80 X:fd Y: 0 P:84 S:fb pc: dace, reg_addr: dace, cycle:   9301
dace e8 ce  0 INX  IMPL  A:80 X:fd Y: 0 P:84 S:fb pc: dacf, reg_addr:    0, cycle:   9303
dacf ce  0  4 DEC  ABS   A:80 X:fe Y: 0 P:84 S:fb pc: dad2, reg_addr:  400, cycle:   9309
dad2 ce  0  4 DEC  ABS   A:80 X:fe Y: 0 P:84 S:fb pc: dad5, reg_addr:  400, cycle:   9315
dad5 d1 33 90 CMP  INDY  A:80 X:fe Y: 0 P: 4 S:fb pc: dad7, reg_addr:  400, cycle:   9320
dad7 90  4 f0 BCC  REL   A:80 X:fe Y: 0 P: 5 S:fb pc: dad9, reg_addr: dadd, cycle:   9322
dad9 f0  2 10 BEQ  REL   A:80 X:fe Y: 0 P: 5 S:fb pc: dadb, reg_addr: dadd, cycle:   9324
dadb 10  2 86 BPL  REL   A:80 X:fe Y: 0 P: 5 S:fb pc: dadf, reg_addr: dadf, cycle:   9327
dadf 60 a9  0 RTS  IMPL  A:80 X:fe Y: 0 P: 5 S:fb pc: c61b, reg_addr:    0, cycle:   9333
c61b a5  0 85 LDA  ZP    A:80 X:fe Y: 0 P: 5 S:fd pc: c61d, reg_addr:    0, cycle:   9336
c61d 85 10 a9 STA  ZP    A: 0 X:fe Y: 0 P: 7 S:fd pc: c61f, reg_addr:   10, cycle:   9339
c61f a9  0 85 LDA  IMM   A: 0 X:fe Y: 0 P: 7 S:fd pc: c621, reg_addr:    0, cycle:   9341
c621 85  0 20 STA  ZP    A: 0 X:fe Y: 0 P: 7 S:fd pc: c623, reg_addr:    0, cycle:   9344
c623 20 e0 da JSR  ABS   A: 0 X:fe Y: 0 P: 7 S:fd pc: dae0, reg_addr: dae0, cycle:   9350
dae0 a9  0 85 LDA  IMM   A: 0 X:fe Y: 0 P: 7 S:fb pc: dae2, reg_addr:    0, cycle:   9352
dae2 85 33 a9 STA  ZP    A: 0 X:fe Y: 0 P: 7 S:fb pc: dae4, reg_addr:   33, cycle:   9355
dae4 a9  4 85 LDA  IMM   A: 0 X:fe Y: 0 P: 7 S:fb pc: dae6, reg_addr:    4, cycle:   9357
dae6 85 34 a0 STA  ZP    A: 4 X:fe Y: 0 P: 5 S:fb pc: dae8, reg_addr:   34, cycle:   9360
dae8 a0  0 a2 LDY  IMM   A: 4 X:fe Y: 0 P: 5 S:fb pc: daea, reg_addr:    0, cycle:   9362
daea a2  1 24 LDX  IMM   A: 4 X:fe Y: 0 P: 7 S:fb pc: daec, reg_addr:    1, cycle:   9364
daec 24  1 a9 BIT  ZP    A: 4 X: 1 Y: 0 P: 5 S:fb pc: daee, reg_addr:    1, cycle:   9367
daee a9 40 8d LDA  IMM   A: 4 X: 1 Y: 0 P:c5 S:fb pc: daf0, reg_addr:   40, cycle:   9369
daf0 8d  0  4 STA  ABS   A:40 X: 1 Y: 0 P:45 S:fb pc: daf3, reg_addr:  400, cycle:   9373
daf3 38 f1 33 SEC  IMPL  A:40 X: 1 Y: 0 P:45 S:fb pc: daf4, reg_addr:    0, cycle:   9375
daf4 f1 33 30 SBC  INDY  A:40 X: 1 Y: 0 P:45 S:fb pc: daf6, reg_addr:  400, cycle:   9380
daf6 30  a 90 BMI  REL   A: 0 X: 1 Y: 0 P: 7 S:fb pc: daf8, reg_addr: db02, cycle:   9382
daf8 90  8 d0 BCC  REL   A: 0 X: 1 Y: 0 P: 7 S:fb pc: dafa, reg_addr: db02, cycle:   9384
dafa d0  6 70 BNE  REL   A: 0 X: 1 Y: 0 P: 7 S:fb pc: dafc, reg_addr: db02, cycle:   9386
dafc 70  4 c9 BVS  REL   A: 0 X: 1 Y: 0 P: 7 S:fb pc: dafe, reg_addr: db02, cycle:   9388
dafe c9  0 f0 CMP  IMM   A: 0 X: 1 Y: 0 P: 7 S:fb pc: db00, reg_addr:    0, cycle:   9390
db00 f0  2 86 BEQ  REL   A: 0 X: 1 Y: 0 P: 7 S:fb pc: db04, reg_addr: db04, cycle:   9393
db04 e8 b8 38 INX  IMPL  A: 0 X: 1 Y: 0 P: 7 S:fb pc: db05, reg_addr:    0, cycle:   9395
db05 b8 38 a9 CLV  IMPL  A: 0 X: 2 Y: 0 P: 5 S:fb pc: db06, reg_addr:    0, cycle:   9397
db06 38 a9 40 SEC  IMPL  A: 0 X: 2 Y: 0 P: 5 S:fb pc: db07, reg_addr:    0, cycle:   9399
db07 a9 40 ce LDA  IMM   A: 0 X: 2 Y: 0 P: 5 S:fb pc: db09, reg_addr:   40, cycle:   9401
db09 ce  0  4 DEC  ABS   A:40 X: 2 Y: 0 P: 5 S:fb pc: db0c, reg_addr:  400, cycle:   9407
db0c f1 33 f0 SBC  INDY  A:40 X: 2 Y: 0 P: 5 S:fb pc: db0e, reg_addr:  400, cycle:   9412
db0e f0  a 30 BEQ  REL   A: 1 X: 2 Y: 0 P: 5 S:fb pc: db10, reg_addr: db1a, cycle:   9414
db10 30  8 90 BMI  REL   A: 1 X: 2 Y: 0 P: 5 S:fb pc: db12, reg_addr: db1a, cycle:   9416
db12 90  6 70 BCC  REL   A: 1 X: 2 Y: 0 P: 5 S:fb pc: db14, reg_addr: db1a, cycle:   9418
db14 70  4 c9 BVS  REL   A: 1 X: 2 Y: 0 P: 5 S:fb pc: db16, reg_addr: db1a, cycle:   9420
db16 c9  1 f0 CMP  IMM   A: 1 X: 2 Y: 0 P: 5 S:fb pc: db18, reg_addr:    1, cycle:   9422
db18 f0  2 86 BEQ  REL   A: 1 X: 2 Y: 0 P: 7 S:fb pc: db1c, reg_addr: db1c, cycle:   9425
db1c e8 a9 40 INX  IMPL  A: 1 X: 2 Y: 0 P: 7 S:fb pc: db1d, reg_addr:    0, cycle:   9427
db1d a9 40 38 LDA  IMM   A: 1 X: 3 Y: 0 P: 5 S:fb pc: db1f, reg_addr:   40, cycle:   9429
db1f 38 24  1 SEC  IMPL  A:40 X: 3 Y: 0 P: 5 S:fb pc: db20, reg_addr:    0, cycle:   9431
db20 24  1 ee BIT  ZP    A:40 X: 3 Y: 0 P: 5 S:fb pc: db22, reg_addr:    1, cycle:   9434
db22 ee  0  4 INC  ABS   A:40 X: 3 Y: 0 P:c5 S:fb pc: db25, reg_addr:  400, cycle:   9440
db25 ee  0  4 INC  ABS   A:40 X: 3 Y: 0 P: 5 S:fb pc: db28, reg_addr:  400, cycle:   9446
db28 f1 33 b0 SBC  INDY  A:40 X: 3 Y: 0 P: 5 S:fb pc: db2a, reg_addr:  400, cycle:   9451
db2a b0  a f0 BCS  REL   A:ff X: 3 Y: 0 P:84 S:fb pc: db2c, reg_addr: db36, cycle:   9453
db2c f0  8 10 BEQ  REL   A:ff X: 3 Y: 0 P:84 S:fb pc: db2e, reg_addr: db36, cycle:   9455
db2e 10  6 70 BPL  REL   A:ff X: 3 Y: 0 P:84 S:fb pc: db30, reg_addr: db36, cycle:   9457
db30 70  4 c9 BVS  REL   A:ff X: 3 Y: 0 P:84 S:fb pc: db32, reg_addr: db36, cycle:   9459
db32 c9 ff f0 CMP  IMM   A:ff X: 3 Y: 0 P:84 S:fb pc: db34, reg_addr:   ff, cycle:   9461
db34 f0  2 86 BEQ  REL   A:ff X: 3 Y: 0 P: 7 S:fb pc: db38, reg_addr: db38, cycle:   9464
db38 e8 18 a9 INX  IMPL  A:ff X: 3 Y: 0 P: 7 S:fb pc: db39, reg_addr:    0, cycle:   9466
db39 18 a9  0 CLC  IMPL  A:ff X: 4 Y: 0 P: 5 S:fb pc: db3a, reg_addr:    0, cycle:   9468
db3a a9  0 8d LDA  IMM   A:ff X: 4 Y: 0 P: 4 S:fb pc: db3c, reg_addr:    0, cycle:   9470
db3c 8d  0  4 STA  ABS   A: 0 X: 4 Y: 0 P: 6 S:fb pc: db3f, reg_addr:  400, cycle:   9474
db3f a9 80 f1 LDA  IMM   A: 0 X: 4 Y: 0 P: 6 S:fb pc: db41, reg_addr:   80, cycle:   9476
db41 f1 33 90 SBC  INDY  A:80 X: 4 Y: 0 P:84 S:fb pc: db43, reg_addr:  400, cycle:   9481
db43 90  4 c9 BCC  REL   A:7f X: 4 Y: 0 P:45 S:fb pc: db45, reg_addr: db49, cycle:   9483
db45 c9 7f f0 CMP  IMM   A:7f X: 4 Y: 0 P:45 S:fb pc: db47, reg_addr:   7f, cycle:   9485
db47 f0  2 86 BEQ  REL   A:7f X: 4 Y: 0 P:47 S:fb pc: db4b, reg_addr: db4b, cycle:   9488
db4b e8 38 a9 INX  IMPL  A:7f X: 4 Y: 0 P:47 S:fb pc: db4c, reg_addr:    0, cycle:   9490
db4c 38 a9 7f SEC  IMPL  A:7f X: 5 Y: 0 P:45 S:fb pc: db4d, reg_addr:    0, cycle:   9492
db4d a9 7f 8d LDA  IMM   A:7f X: 5 Y: 0 P:45 S:fb pc: db4f, reg_addr:   7f, cycle:   9494
db4f 8d  0  4 STA  ABS   A:7f X: 5 Y: 0 P:45 S:fb pc: db52, reg_addr:  400, cycle:   9498
db52 a9 81 f1 LDA  IMM   A:7f X: 5 Y: 0 P:45 S:fb pc: db54, reg_addr:   81, cycle:   9500
db54 f1 33 50 SBC  INDY  A:81 X: 5 Y: 0 P:c5 S:fb pc: db56, reg_addr:  400, cycle:   9505
db56 50  6 90 BVC  REL   A: 2 X: 5 Y: 0 P:45 S:fb pc: db58, reg_addr: db5e, cycle:   9507
db58 90  4 c9 BCC  REL   A: 2 X: 5 Y: 0 P:45 S:fb pc: db5a, reg_addr: db5e, cycle:   9509
db5a c9  2 f0 CMP  IMM   A: 2 X: 5 Y: 0 P:45 S:fb pc: db5c, reg_addr:    2, cycle:   9511
db5c f0  2 86 BEQ  REL   A: 2 X: 5 Y: 0 P:47 S:fb pc: db60, reg_addr: db60, cycle:   9514
db60 e8 a9  0 INX  IMPL  A: 2 X: 5 Y: 0 P:47 S:fb pc: db61, reg_addr:    0, cycle:   9516
db61 a9  0 a9 LDA  IMM   A: 2 X: 6 Y: 0 P:45 S:fb pc: db63, reg_addr:    0, cycle:   9518
db63 a9 87 91 LDA  IMM   A: 0 X: 6 Y: 0 P:47 S:fb pc: db65, reg_addr:   87, cycle:   9520
db65 91 33 ad STA  INDY  A:87 X: 6 Y: 0 P:c5 S:fb pc: db67, reg_addr:  400, cycle:   9525
db67 ad  0  4 LDA  ABS   A:87 X: 6 Y: 0 P:c5 S:fb pc: db6a, reg_addr:  400, cycle:   9529
db6a c9 87 f0 CMP  IMM   A:87 X: 6 Y: 0 P:c5 S:fb pc: db6c, reg_addr:   87, cycle:   9531
db6c f0  2 86 BEQ  REL   A:87 X: 6 Y: 0 P:47 S:fb pc: db70, reg_addr: db70, cycle:   9534
db70 e8 a9 7e INX  IMPL  A:87 X: 6 Y: 0 P:47 S:fb pc: db71, reg_addr:    0, cycle:   9536
db71 a9 7e 8d LDA  IMM   A:87 X: 7 Y: 0 P:45 S:fb pc: db73, reg_addr:   7e, cycle:   9538
db73 8d  0  2 STA  ABS   A:7e X: 7 Y: 0 P:45 S:fb pc: db76, reg_addr:  200, cycle:   9542
db76 a9 db 8d LDA  IMM   A:7e X: 7 Y: 0 P:45 S:fb pc: db78, reg_addr:   db, cycle:   9544
db78 8d  1  2 STA  ABS   A:db X: 7 Y: 0 P:c5 S:fb pc: db7b, reg_addr:  201, cycle:   9548
db7b 6c  0  2 JMP  IND   A:db X: 7 Y: 0 P:c5 S:fb pc: db7e, reg_addr: db7e, cycle:   9553
db7e a9  0 8d LDA  IMM   A:db X: 7 Y: 0 P:c5 S:fb pc: db80, reg_addr:    0, cycle:   9555
db80 8d ff  2 STA  ABS   A: 0 X: 7 Y: 0 P:47 S:fb pc: db83, reg_addr:  2ff, cycle:   9559
db83 a9  1 8d LDA  IMM   A: 0 X: 7 Y: 0 P:47 S:fb pc: db85, reg_addr:    1, cycle:   9561
db85 8d  0  3 STA  ABS   A: 1 X: 7 Y: 0 P:45 S:fb pc: db88, reg_addr:  300, cycle:   9565
db88 a9  3 8d LDA  IMM   A: 1 X: 7 Y: 0 P:45 S:fb pc: db8a, reg_addr:    3, cycle:   9567
db8a 8d  0  2 STA  ABS   A: 3 X: 7 Y: 0 P:45 S:fb pc: db8d, reg_addr:  200, cycle:   9571
db8d a9 a9 8d LDA  IMM   A: 3 X: 7 Y: 0 P:45 S:fb pc: db8f, reg_addr:   a9, cycle:   9573
db8f 8d  0  1 STA  ABS   A:a9 X: 7 Y: 0 P:c5 S:fb pc: db92, reg_addr:  100, cycle:   9577
db92 a9 55 8d LDA  IMM   A:a9 X: 7 Y: 0 P:c5 S:fb pc: db94, reg_addr:   55, cycle:   9579
db94 8d  1  1 STA  ABS   A:55 X: 7 Y: 0 P:45 S:fb pc: db97, reg_addr:  101, cycle:   9583
db97 a9 60 8d LDA  IMM   A:55 X: 7 Y: 0 P:45 S:fb pc: db99, reg_addr:   60, cycle:   9585
db99 8d  2  1 STA  ABS   A:60 X: 7 Y: 0 P:45 S:fb pc: db9c, reg_addr:  102, cycle:   9589
db9c a9 a9 8d LDA  IMM   A:60 X: 7 Y: 0 P:45 S:fb pc: db9e, reg_addr:   a9, cycle:   9591
db9e 8d  0  3 STA  ABS   A:a9 X: 7 Y: 0 P:c5 S:fb pc: dba1, reg_addr:  300, cycle:   9595
dba1 a9 aa 8d LDA  IMM   A:a9 X: 7 Y: 0 P:c5 S:fb pc: dba3, reg_addr:   aa, cycle:   9597
dba3 8d  1  3 STA  ABS   A:aa X: 7 Y: 0 P:c5 S:fb pc: dba6, reg_addr:  301, cycle:   9601
dba6 a9 60 8d LDA  IMM   A:aa X: 7 Y: 0 P:c5 S:fb pc: dba8, reg_addr:   60, cycle:   9603
dba8 8d  2  3 STA  ABS   A:60 X: 7 Y: 0 P:45 S:fb pc: dbab, reg_addr:  302, cycle:   9607
dbab 20 b5 db JSR  ABS   A:60 X: 7 Y: 0 P:45 S:fb pc: dbb5, reg_addr: dbb5, cycle:   9613
dbb5 6c ff  2 JMP  IND   A:60 X: 7 Y: 0 P:45 S:f9 pc:  300, reg_addr:  300, cycle:   9618
 300 a9 aa 60 LDA  IMM   A:60 X: 7 Y: 0 P:45 S:f9 pc:  302, reg_addr:   aa, cycle:   9620
 302 60 ac  0 RTS  IMPL  A:aa X: 7 Y: 0 P:c5 S:f9 pc: dbae, reg_addr:    0, cycle:   9626
dbae c9 aa f0 CMP  IMM   A:aa X: 7 Y: 0 P:c5 S:fb pc: dbb0, reg_addr:   aa, cycle:   9628
dbb0 f0  2 86 BEQ  REL   A:aa X: 7 Y: 0 P:47 S:fb pc: dbb4, reg_addr: dbb4, cycle:   9631
dbb4 60 6c ff RTS  IMPL  A:aa X: 7 Y: 0 P:47 S:fb pc: c626, reg_addr:    0, cycle:   9637
c626 20 4a df JSR  ABS   A:aa X: 7 Y: 0 P:47 S:fd pc: df4a, reg_addr: df4a, cycle:   9643
df4a a9 89 8d LDA  IMM   A:aa X: 7 Y: 0 P:47 S:fb pc: df4c, reg_addr:   89, cycle:   9645
df4c 8d  0  3 STA  ABS   A:89 X: 7 Y: 0 P:c5 S:fb pc: df4f, reg_addr:  300, cycle:   9649
df4f a9 a3 85 LDA  IMM   A:89 X: 7 Y: 0 P:c5 S:fb pc: df51, reg_addr:   a3, cycle:   9651
df51 85 33 a9 STA  ZP    A:a3 X: 7 Y: 0 P:c5 S:fb pc: df53, reg_addr:   33, cycle:   9654
df53 a9 12 8d LDA  IMM   A:a3 X: 7 Y: 0 P:c5 S:fb pc: df55, reg_addr:   12, cycle:   9656
df55 8d 45  2 STA  ABS   A:12 X: 7 Y: 0 P:45 S:fb pc: df58, reg_addr:  245, cycle:   9660
df58 a2 65 a0 LDX  IMM   A:12 X: 7 Y: 0 P:45 S:fb pc: df5a, reg_addr:   65, cycle:   9662
df5a a0  0 38 LDY  IMM   A:12 X:65 Y: 0 P:45 S:fb pc: df5c, reg_addr:    0, cycle:   9664
df5c 38 a9  0 SEC  IMPL  A:12 X:65 Y: 0 P:47 S:fb pc: df5d, reg_addr:    0, cycle:   9666
df5d a9  0 b8 LDA  IMM   A:12 X:65 Y: 0 P:47 S:fb pc: df5f, reg_addr:    0, cycle:   9668
df5f b8 b9  0 CLV  IMPL  A: 0 X:65 Y: 0 P:47 S:fb pc: df60, reg_addr:    0, cycle:   9670
df60 b9  0  3 LDA  ABSY  A: 0 X:65 Y: 0 P: 7 S:fb pc: df63, reg_addr:  300, cycle:   9674
df63 f0  c 90 BEQ  REL   A:89 X:65 Y: 0 P:85 S:fb pc: df65, reg_addr: df71, cycle:   9676
df65 90  a 70 BCC  REL   A:89 X:65 Y: 0 P:85 S:fb pc: df67, reg_addr: df71, cycle:   9678
df67 70  8 c9 BVS  REL   A:89 X:65 Y: 0 P:85 S:fb pc: df69, reg_addr: df71, cycle:   9680
df69 c9 89 d0 CMP  IMM   A:89 X:65 Y: 0 P:85 S:fb pc: df6b, reg_addr:   89, cycle:   9682
df6b d0  4 e0 BNE  REL   A:89 X:65 Y: 0 P: 7 S:fb pc: df6d, reg_addr: df71, cycle:   9684
df6d e0 65 f0 CPX  IMM   A:89 X:65 Y: 0 P: 7 S:fb pc: df6f, reg_addr:   65, cycle:   9686
df6f f0  4 a9 BEQ  REL   A:89 X:65 Y: 0 P: 7 S:fb pc: df75, reg_addr: df75, cycle:   9689
df75 a9 ff 85 LDA  IMM   A:89 X:65 Y: 0 P: 7 S:fb pc: df77, reg_addr:   ff, cycle:   9691
df77 85  1 24 STA  ZP    A:ff X:65 Y: 0 P:85 S:fb pc: df79, reg_addr:    1, cycle:   9694
df79 24  1 a0 BIT  ZP    A:ff X:65 Y: 0 P:85 S:fb pc: df7b, reg_addr:    1, cycle:   9697
df7b a0 34 b9 LDY  IMM   A:ff X:65 Y: 0 P:c5 S:fb pc: df7d, reg_addr:   34, cycle:   9699
df7d b9 ff ff LDA  ABSY  A:ff X:65 Y:34 P:45 S:fb pc: df80, reg_addr:   33, cycle:   9703
df80 c9 a3 d0 CMP  IMM   A:a3 X:65 Y:34 P:c5 S:fb pc: df82, reg_addr:   a3, cycle:   9705
df82 d0  2 b0 BNE  REL   A:a3 X:65 Y:34 P:47 S:fb pc: df84, reg_addr: df86, cycle:   9707
df84 b0  4 a9 BCS  REL   A:a3 X:65 Y:34 P:47 S:fb pc: df8a, reg_addr: df8a, cycle:   9710
df8a a9 46 85 LDA  IMM   A:a3 X:65 Y:34 P:47 S:fb pc: df8c, reg_addr:   46, cycle:   9712
df8c 85 ff a0 STA  ZP    A:46 X:65 Y:34 P:45 S:fb pc: df8e, reg_addr:   ff, cycle:   9715
df8e a0 ff b9 LDY  IMM   A:46 X:65 Y:34 P:45 S:fb pc: df90, reg_addr:   ff, cycle:   9717
df90 b9 46  1 LDA  ABSY  A:46 X:65 Y:ff P:c5 S:fb pc: df93, reg_addr:  245, cycle:   9722
df93 c9 12 f0 CMP  IMM   A:12 X:65 Y:ff P:45 S:fb pc: df95, reg_addr:   12, cycle:   9724
df95 f0  4 a9 BEQ  REL   A:12 X:65 Y:ff P:47 S:fb pc: df9b, reg_addr: df9b, cycle:   9727
df9b a2 39 18 LDX  IMM   A:12 X:65 Y:ff P:47 S:fb pc: df9d, reg_addr:   39, cycle:   9729
df9d 18 a9 ff CLC  IMPL  A:12 X:39 Y:ff P:45 S:fb pc: df9e, reg_addr:    0, cycle:   9731
df9e a9 ff 85 LDA  IMM   A:12 X:39 Y:ff P:44 S:fb pc: dfa0, reg_addr:   ff, cycle:   9733
dfa0 85  1 24 STA  ZP    A:ff X:39 Y:ff P:c4 S:fb pc: dfa2, reg_addr:    1, cycle:   9736
dfa2 24  1 a9 BIT  ZP    A:ff X:39 Y:ff P:c4 S:fb pc: dfa4, reg_addr:    1, cycle:   9739
dfa4 a9 aa 8d LDA  IMM   A:ff X:39 Y:ff P:c4 S:fb pc: dfa6, reg_addr:   aa, cycle:   9741
dfa6 8d  0  4 STA  ABS   A:aa X:39 Y:ff P:c4 S:fb pc: dfa9, reg_addr:  400, cycle:   9745
dfa9 a9 55 a0 LDA  IMM   A:aa X:39 Y:ff P:c4 S:fb pc: dfab, reg_addr:   55, cycle:   9747
dfab a0  0 19 LDY  IMM   A:55 X:39 Y:ff P:44 S:fb pc: dfad, reg_addr:    0, cycle:   9749
dfad 19  0  4 ORA  ABSY  A:55 X:39 Y: 0 P:46 S:fb pc: dfb0, reg_addr:  400, cycle:   9753
dfb0 b0  8 10 BCS  REL   A:ff X:39 Y: 0 P:c4 S:fb pc: dfb2, reg_addr: dfba, cycle:   9755
dfb2 10  6 c9 BPL  REL   A:ff X:39 Y: 0 P:c4 S:fb pc: dfb4, reg_addr: dfba, cycle:   9757
dfb4 c9 ff d0 CMP  IMM   A:ff X:39 Y: 0 P:c4 S:fb pc: dfb6, reg_addr:   ff, cycle:   9759
dfb6 d0  2 70 BNE  REL   A:ff X:39 Y: 0 P:47 S:fb pc: dfb8, reg_addr: dfba, cycle:   9761
dfb8 70  2 86 BVS  REL   A:ff X:39 Y: 0 P:47 S:fb pc: dfbc, reg_addr: dfbc, cycle:   9764
dfbc e8 38 b8 INX  IMPL  A:ff X:39 Y: 0 P:47 S:fb pc: dfbd, reg_addr:    0, cycle:   9766
dfbd 38 b8 a9 SEC  IMPL  A:ff X:3a Y: 0 P:45 S:fb pc: dfbe, reg_addr:    0, cycle:   9768
dfbe b8 a9  0 CLV  IMPL  A:ff X:3a Y: 0 P:45 S:fb pc: dfbf, reg_addr:    0, cycle:   9770
dfbf a9  0 19 LDA  IMM   A:ff X:3a Y: 0 P: 5 S:fb pc: dfc1, reg_addr:    0, cycle:   9772
dfc1 19  0  4 ORA  ABSY  A: 0 X:3a Y: 0 P: 7 S:fb pc: dfc4, reg_addr:  400, cycle:   9776
dfc4 f0  6 70 BEQ  REL   A:aa X:3a Y: 0 P:85 S:fb pc: dfc6, reg_addr: dfcc, cycle:   9778
dfc6 70  4 90 BVS  REL   A:aa X:3a Y: 0 P:85 S:fb pc: dfc8, reg_addr: dfcc, cycle:   9780
dfc8 90  2 30 BCC  REL   A:aa X:3a Y: 0 P:85 S:fb pc: dfca, reg_addr: dfcc, cycle:   9782
dfca 30  2 86 BMI  REL   A:aa X:3a Y: 0 P:85 S:fb pc: dfce, reg_addr: dfce, cycle:   9785
dfce e8 18 24 INX  IMPL  A:aa X:3a Y: 0 P:85 S:fb pc: dfcf, reg_addr:    0, cycle:   9787
dfcf 18 24  1 CLC  IMPL  A:aa X:3b Y: 0 P: 5 S:fb pc: dfd0, reg_addr:    0, cycle:   9789
dfd0 24  1 a9 BIT  ZP    A:aa X:3b Y: 0 P: 4 S:fb pc: dfd2, reg_addr:    1, cycle:   9792
dfd2 a9 55 39 LDA  IMM   A:aa X:3b Y: 0 P:c4 S:fb pc: dfd4, reg_addr:   55, cycle:   9794
dfd4 39  0  4 AND  ABSY  A:55 X:3b Y: 0 P:44 S:fb pc: dfd7, reg_addr:  400, cycle:   9798
dfd7 d0  6 50 BNE  REL   A: 0 X:3b Y: 0 P:46 S:fb pc: dfd9, reg_addr: dfdf, cycle:   9800
dfd9 50  4 b0 BVC  REL   A: 0 X:3b Y: 0 P:46 S:fb pc: dfdb, reg_addr: dfdf, cycle:   9802
dfdb b0  2 10 BCS  REL   A: 0 X:3b Y: 0 P:46 S:fb pc: dfdd, reg_addr: dfdf, cycle:   9804
dfdd 10  2 86 BPL  REL   A: 0 X:3b Y: 0 P:46 S:fb pc: dfe1, reg_addr: dfe1, cycle:   9807
dfe1 e8 38 b8 INX  IMPL  A: 0 X:3b Y: 0 P:46 S:fb pc: dfe2, reg_addr:    0, cycle:   9809
dfe2 38 b8 a9 SEC  IMPL  A: 0 X:3c Y: 0 P:44 S:fb pc: dfe3, reg_addr:    0, cycle:   9811
dfe3 b8 a9 ef CLV  IMPL  A: 0 X:3c Y: 0 P:45 S:fb pc: dfe4, reg_addr:    0, cycle:   9813
dfe4 a9 ef 8d LDA  IMM   A: 0 X:3c Y: 0 P: 5 S:fb pc: dfe6, reg_addr:   ef, cycle:   9815
dfe6 8d  0  4 STA  ABS   A:ef X:3c Y: 0 P:85 S:fb pc: dfe9, reg_addr:  400, cycle:   9819
dfe9 a9 f8 39 LDA  IMM   A:ef X:3c Y: 0 P:85 S:fb pc: dfeb, reg_addr:   f8, cycle:   9821
dfeb 39  0  4 AND  ABSY  A:f8 X:3c Y: 0 P:85 S:fb pc: dfee, reg_addr:  400, cycle:   9825
dfee 90  8 10 BCC  REL   A:e8 X:3c Y: 0 P:85 S:fb pc: dff0, reg_addr: dff8, cycle:   9827
dff0 10  6 c9 BPL  REL   A:e8 X:3c Y: 0 P:85 S:fb pc: dff2, reg_addr: dff8, cycle:   9829
dff2 c9 e8 d0 CMP  IMM   A:e8 X:3c Y: 0 P:85 S:fb pc: dff4, reg_addr:   e8, cycle:   9831
dff4 d0  2 50 BNE  REL   A:e8 X:3c Y: 0 P: 7 S:fb pc: dff6, reg_addr: dff8, cycle:   9833
dff6 50  2 86 BVC  REL   A:e8 X:3c Y: 0 P: 7 S:fb pc: dffa, reg_addr: dffa, cycle:   9836
dffa e8 18 24 INX  IMPL  A:e8 X:3c Y: 0 P: 7 S:fb pc: dffb, reg_addr:    0, cycle:   9838
dffb 18 24  1 CLC  IMPL  A:e8 X:3d Y: 0 P: 5 S:fb pc: dffc, reg_addr:    0, cycle:   9840
dffc 24  1 a9 BIT  ZP    A:e8 X:3d Y: 0 P: 4 S:fb pc: dffe, reg_addr:    1, cycle:   9843
dffe a9 aa 8d LDA  IMM   A:e8 X:3d Y: 0 P:c4 S:fb pc: e000, reg_addr:   aa, cycle:   9845
e000 8d  0  4 STA  ABS   A:aa X:3d Y: 0 P:c4 S:fb pc: e003, reg_addr:  400, cycle:   9849
e003 a9 5f 59 LDA  IMM   A:aa X:3d Y: 0 P:c4 S:fb pc: e005, reg_addr:   5f, cycle:   9851
e005 59  0  4 EOR  ABSY  A:5f X:3d Y: 0 P:44 S:fb pc: e008, reg_addr:  400, cycle:   9855
e008 b0  8 10 BCS  REL   A:f5 X:3d Y: 0 P:c4 S:fb pc: e00a, reg_addr: e012, cycle:   9857
e00a 10  6 c9 BPL  REL   A:f5 X:3d Y: 0 P:c4 S:fb pc: e00c, reg_addr: e012, cycle:   9859
e00c c9 f5 d0 CMP  IMM   A:f5 X:3d Y: 0 P:c4 S:fb pc: e00e, reg_addr:   f5, cycle:   9861
e00e d0  2 70 BNE  REL   A:f5 X:3d Y: 0 P:47 S:fb pc: e010, reg_addr: e012, cycle:   9863
e010 70  2 86 BVS  REL   A:f5 X:3d Y: 0 P:47 S:fb pc: e014, reg_addr: e014, cycle:   9866
e014 e8 38 b8 INX  IMPL  A:f5 X:3d Y: 0 P:47 S:fb pc: e015, reg_addr:    0, cycle:   9868
e015 38 b8 a9 SEC  IMPL  A:f5 X:3e Y: 0 P:45 S:fb pc: e016, reg_addr:    0, cycle:   9870
e016 b8 a9 70 CLV  IMPL  A:f5 X:3e Y: 0 P:45 S:fb pc: e017, reg_addr:    0, cycle:   9872
e017 a9 70 8d LDA  IMM   A:f5 X:3e Y: 0 P: 5 S:fb pc: e019, reg_addr:   70, cycle:   9874
e019 8d  0  4 STA  ABS   A:70 X:3e Y: 0 P: 5 S:fb pc: e01c, reg_addr:  400, cycle:   9878
e01c 59  0  4 EOR  ABSY  A:70 X:3e Y: 0 P: 5 S:fb pc: e01f, reg_addr:  400, cycle:   9882
e01f d0  6 70 BNE  REL   A: 0 X:3e Y: 0 P: 7 S:fb pc: e021, reg_addr: e027, cycle:   9884
e021 70  4 90 BVS  REL   A: 0 X:3e Y: 0 P: 7 S:fb pc: e023, reg_addr: e027, cycle:   9886
e023 90  2 10 BCC  REL   A: 0 X:3e Y: 0 P: 7 S:fb pc: e025, reg_addr: e027, cycle:   9888
e025 10  2 86 BPL  REL   A: 0 X:3e Y: 0 P: 7 S:fb pc: e029, reg_addr: e029, cycle:   9891
e029 e8 18 24 INX  IMPL  A: 0 X:3e Y: 0 P: 7 S:fb pc: e02a, reg_addr:    0, cycle:   9893
e02a 18 24  1 CLC  IMPL  A: 0 X:3f Y: 0 P: 5 S:fb pc: e02b, reg_addr:    0, cycle:   9895
e02b 24  1 a9 BIT  ZP    A: 0 X:3f Y: 0 P: 4 S:fb pc: e02d, reg_addr:    1, cycle:   9898
e02d a9 69 8d LDA  IMM   A: 0 X:3f Y: 0 P:c6 S:fb pc: e02f, reg_addr:   69, cycle:   9900
e02f 8d  0  4 STA  ABS   A:69 X:3f Y: 0 P:44 S:fb pc: e032, reg_addr:  400, cycle:   9904
e032 a9  0 79 LDA  IMM   A:69 X:3f Y: 0 P:44 S:fb pc: e034, reg_addr:    0, cycle:   9906
e034 79  0  4 ADC  ABSY  A: 0 X:3f Y: 0 P:46 S:fb pc: e037, reg_addr:  400, cycle:   9910
e037 30  8 b0 BMI  REL   A:69 X:3f Y: 0 P: 4 S:fb pc: e039, reg_addr: e041, cycle:   9912
e039 b0  6 c9 BCS  REL   A:69 X:3f Y: 0 P: 4 S:fb pc: e03b, reg_addr: e041, cycle:   9914
e03b c9 69 d0 CMP  IMM   A:69 X:3f Y: 0 P: 4 S:fb pc: e03d, reg_addr:   69, cycle:   9916
e03d d0  2 50 BNE  REL   A:69 X:3f Y: 0 P: 7 S:fb pc: e03f, reg_addr: e041, cycle:   9918
e03f 50  2 86 BVC  REL   A:69 X:3f Y: 0 P: 7 S:fb pc: e043, reg_addr: e043, cycle:   9921
e043 e8 38 24 INX  IMPL  A:69 X:3f Y: 0 P: 7 S:fb pc: e044, reg_addr:    0, cycle:   9923
e044 38 24  1 SEC  IMPL  A:69 X:40 Y: 0 P: 5 S:fb pc: e045, reg_addr:    0, cycle:   9925
e045 24  1 a9 BIT  ZP    A:69 X:40 Y: 0 P: 5 S:fb pc: e047, reg_addr:    1, cycle:   9928
e047 a9  0 79 LDA  IMM   A:69 X:40 Y: 0 P:c5 S:fb pc: e049, reg_addr:    0, cycle:   9930
e049 79  0  4 ADC  ABSY  A: 0 X:40 Y: 0 P:47 S:fb pc: e04c, reg_addr:  400, cycle:   9934
e04c 30  8 b0 BMI  REL   A:6a X:40 Y: 0 P: 4 S:fb pc: e04e, reg_addr: e056, cycle:   9936
e04e b0  6 c9 BCS  REL   A:6a X:40 Y: 0 P: 4 S:fb pc: e050, reg_addr: e056, cycle:   9938
e050 c9 6a d0 CMP  IMM   A:6a X:40 Y: 0 P: 4 S:fb pc: e052, reg_addr:   6a, cycle:   9940
e052 d0  2 50 BNE  REL   A:6a X:40 Y: 0 P: 7 S:fb pc: e054, reg_addr: e056, cycle:   9942
e054 50  2 86 BVC  REL   A:6a X:40 Y: 0 P: 7 S:fb pc: e058, reg_addr: e058, cycle:   9945
e058 e8 38 b8 INX  IMPL  A:6a X:40 Y: 0 P: 7 S:fb pc: e059, reg_addr:    0, cycle:   9947
e059 38 b8 a9 SEC  IMPL  A:6a X:41 Y: 0 P: 5 S:fb pc: e05a, reg_addr:    0, cycle:   9949
e05a b8 a9 7f CLV  IMPL  A:6a X:41 Y: 0 P: 5 S:fb pc: e05b, reg_addr:    0, cycle:   9951
e05b a9 7f 8d LDA  IMM   A:6a X:41 Y: 0 P: 5 S:fb pc: e05d, reg_addr:   7f, cycle:   9953
e05d 8d  0  4 STA  ABS   A:7f X:41 Y: 0 P: 5 S:fb pc: e060, reg_addr:  400, cycle:   9957
e060 79  0  4 ADC  ABSY  A:7f X:41 Y: 0 P: 5 S:fb pc: e063, reg_addr:  400, cycle:   9961
e063 10  8 b0 BPL  REL   A:ff X:41 Y: 0 P:c4 S:fb pc: e065, reg_addr: e06d, cycle:   9963
e065 b0  6 c9 BCS  REL   A:ff X:41 Y: 0 P:c4 S:fb pc: e067, reg_addr: e06d, cycle:   9965
e067 c9 ff d0 CMP  IMM   A:ff X:41 Y: 0 P:c4 S:fb pc: e069, reg_addr:   ff, cycle:   9967
e069 d0  2 70 BNE  REL   A:ff X:41 Y: 0 P:47 S:fb pc: e06b, reg_addr: e06d, cycle:   9969
e06b 70  2 86 BVS  REL   A:ff X:41 Y: 0 P:47 S:fb pc: e06f, reg_addr: e06f, cycle:   9972
e06f e8 18 24 INX  IMPL  A:ff X:41 Y: 0 P:47 S:fb pc: e070, reg_addr:    0, cycle:   9974
e070 18 24  1 CLC  IMPL  A:ff X:42 Y: 0 P:45 S:fb pc: e071, reg_addr:    0, cycle:   9976
e071 24  1 a9 BIT  ZP    A:ff X:42 Y: 0 P:44 S:fb pc: e073, reg_addr:    1, cycle:   9979
e073 a9 80 8d LDA  IMM   A:ff X:42 Y: 0 P:c4 S:fb pc: e075, reg_addr:   80, cycle:   9981
e075 8d  0  4 STA  ABS   A:80 X:42 Y: 0 P:c4 S:fb pc: e078, reg_addr:  400, cycle:   9985
e078 a9 7f 79 LDA  IMM   A:80 X:42 Y: 0 P:c4 S:fb pc: e07a, reg_addr:   7f, cycle:   9987
e07a 79  0  4 ADC  ABSY  A:7f X:42 Y: 0 P:44 S:fb pc: e07d, reg_addr:  400, cycle:   9991
e07d 10  8 b0 BPL  REL   A:ff X:42 Y: 0 P:84 S:fb pc: e07f, reg_addr: e087, cycle:   9993
e07f b0  6 c9 BCS  REL   A:ff X:42 Y: 0 P:84 S:fb pc: e081, reg_addr: e087, cycle:   9995
e081 c9 ff d0 CMP  IMM   A:ff X:42 Y: 0 P:84 S:fb pc: e083, reg_addr:   ff, cycle:   9997
e083 d0  2 50 BNE  REL   A:ff X:42 Y: 0 P: 7 S:fb pc: e085, reg_addr: e087, cycle:   9999
e085 50  2 86 BVC  REL   A:ff X:42 Y: 0 P: 7 S:fb pc: e089, reg_addr: e089, cycle:  10002
e089 e8 38 b8 INX  IMPL  A:ff X:42 Y: 0 P: 7 S:fb pc: e08a, reg_addr:    0, cycle:  10004
e08a 38 b8 a9 SEC  IMPL  A:ff X:43 Y: 0 P: 5 S:fb pc: e08b, reg_addr:    0, cycle:  10006
e08b b8 a9 80 CLV  IMPL  A:ff X:43 Y: 0 P: 5 S:fb pc: e08c, reg_addr:    0, cycle:  10008
e08c a9 80 8d LDA  IMM   A:ff X:43 Y: 0 P: 5 S:fb pc: e08e, reg_addr:   80, cycle:  10010
e08e 8d  0  4 STA  ABS   A:80 X:43 Y: 0 P:85 S:fb pc: e091, reg_addr:  400, cycle:  10014
e091 a9 7f 79 LDA  IMM   A:80 X:43 Y: 0 P:85 S:fb pc: e093, reg_addr:   7f, cycle:  10016
e093 79  0  4 ADC  ABSY  A:7f X:43 Y: 0 P: 5 S:fb pc: e096, reg_addr:  400, cycle:  10020
e096 d0  6 30 BNE  REL   A: 0 X:43 Y: 0 P: 7 S:fb pc: e098, reg_addr: e09e, cycle:  10022
e098 30  4 70 BMI  REL   A: 0 X:43 Y: 0 P: 7 S:fb pc: e09a, reg_addr: e09e, cycle:  10024
e09a 70  2 b0 BVS  REL   A: 0 X:43 Y: 0 P: 7 S:fb pc: e09c, reg_addr: e09e, cycle:  10026
e09c b0  2 86 BCS  REL   A: 0 X:43 Y: 0 P: 7 S:fb pc: e0a0, reg_addr: e0a0, cycle:  10029
e0a0 e8 24  1 INX  IMPL  A: 0 X:43 Y: 0 P: 7 S:fb pc: e0a1, reg_addr:    0, cycle:  10031
e0a1 24  1 a9 BIT  ZP    A: 0 X:44 Y: 0 P: 5 S:fb pc: e0a3, reg_addr:    1, cycle:  10034
e0a3 a9 40 8d LDA  IMM   A: 0 X:44 Y: 0 P:c7 S:fb pc: e0a5, reg_addr:   40, cycle:  10036
e0a5 8d  0  4 STA  ABS   A:40 X:44 Y: 0 P:45 S:fb pc: e0a8, reg_addr:  400, cycle:  10040
e0a8 d9  0  4 CMP  ABSY  A:40 X:44 Y: 0 P:45 S:fb pc: e0ab, reg_addr:  400, cycle:  10044
e0ab 30  6 90 BMI  REL   A:40 X:44 Y: 0 P:47 S:fb pc: e0ad, reg_addr: e0b3, cycle:  10046
e0ad 90  4 d0 BCC  REL   A:40 X:44 Y: 0 P:47 S:fb pc: e0af, reg_addr: e0b3, cycle:  10048
e0af d0  2 70 BNE  REL   A:40 X:44 Y: 0 P:47 S:fb pc: e0b1, reg_addr: e0b3, cycle:  10050
e0b1 70  2 86 BVS  REL   A:40 X:44 Y: 0 P:47 S:fb pc: e0b5, reg_addr: e0b5, cycle:  10053
e0b5 e8 b8 ce INX  IMPL  A:40 X:44 Y: 0 P:47 S:fb pc: e0b6, reg_addr:    0, cycle:  10055
e0b6 b8 ce  0 CLV  IMPL  A:40 X:45 Y: 0 P:45 S:fb pc: e0b7, reg_addr:    0, cycle:  10057
e0b7 ce  0  4 DEC  ABS   A:40 X:45 Y: 0 P: 5 S:fb pc: e0ba, reg_addr:  400, cycle:  10063
e0ba d9  0  4 CMP  ABSY  A:40 X:45 Y: 0 P: 5 S:fb pc: e0bd, reg_addr:  400, cycle:  10067
e0bd f0  6 30 BEQ  REL   A:40 X:45 Y: 0 P: 5 S:fb pc: e0bf, reg_addr: e0c5, cycle:  10069
e0bf 30  4 90 BMI  REL   A:40 X:45 Y: 0 P: 5 S:fb pc: e0c1, reg_addr: e0c5, cycle:  10071
e0c1 90  2 50 BCC  REL   A:40 X:45 Y: 0 P: 5 S:fb pc: e0c3, reg_addr: e0c5, cycle:  10073
e0c3 50  2 86 BVC  REL   A:40 X:45 Y: 0 P: 5 S:fb pc: e0c7, reg_addr: e0c7, cycle:  10076
e0c7 e8 ee  0 INX  IMPL  A:40 X:45 Y: 0 P: 5 S:fb pc: e0c8, reg_addr:    0, cycle:  10078
e0c8 ee  0  4 INC  ABS   A:40 X:46 Y: 0 P: 5 S:fb pc: e0cb, reg_addr:  400, cycle:  10084
e0cb ee  0  4 INC  ABS   A:40 X:46 Y: 0 P: 5 S:fb pc: e0ce, reg_addr:  400, cycle:  10090
e0ce d9  0  4 CMP  ABSY  A:40 X:46 Y: 0 P: 5 S:fb pc: e0d1, reg_addr:  400, cycle:  10094
e0d1 f0  2 30 BEQ  REL   A:40 X:46 Y: 0 P:84 S:fb pc: e0d3, reg_addr: e0d5, cycle:  10096
e0d3 30  2 86 BMI  REL   A:40 X:46 Y: 0 P:84 S:fb pc: e0d7, reg_addr: e0d7, cycle:  10099
e0d7 e8 a9  0 INX  IMPL  A:40 X:46 Y: 0 P:84 S:fb pc: e0d8, reg_addr:    0, cycle:  10101
e0d8 a9  0 8d LDA  IMM   A:40 X:47 Y: 0 P: 4 S:fb pc: e0da, reg_addr:    0, cycle:  10103
e0da 8d  0  4 STA  ABS   A: 0 X:47 Y: 0 P: 6 S:fb pc: e0dd, reg_addr:  400, cycle:  10107
e0dd a9 80 d9 LDA  IMM   A: 0 X:47 Y: 0 P: 6 S:fb pc: e0df, reg_addr:   80, cycle:  10109
e0df d9  0  4 CMP  ABSY  A:80 X:47 Y: 0 P:84 S:fb pc: e0e2, reg_addr:  400, cycle:  10113
e0e2 f0  4 10 BEQ  REL   A:80 X:47 Y: 0 P:85 S:fb pc: e0e4, reg_addr: e0e8, cycle:  10115
e0e4 10  2 b0 BPL  REL   A:80 X:47 Y: 0 P:85 S:fb pc: e0e6, reg_addr: e0e8, cycle:  10117
e0e6 b0  2 86 BCS  REL   A:80 X:47 Y: 0 P:85 S:fb pc: e0ea, reg_addr: e0ea, cycle:  10120
e0ea e8 a0 80 INX  IMPL  A:80 X:47 Y: 0 P:85 S:fb pc: e0eb, reg_addr:    0, cycle:  10122
e0eb a0 80 8c LDY  IMM   A:80 X:48 Y: 0 P: 5 S:fb pc: e0ed, reg_addr:   80, cycle:  10124
e0ed 8c  0  4 STY  ABS   A:80 X:48 Y:80 P:85 S:fb pc: e0f0, reg_addr:  400, cycle:  10128
e0f0 a0  0 d9 LDY  IMM   A:80 X:48 Y:80 P:85 S:fb pc: e0f2, reg_addr:    0, cycle:  10130
e0f2 d9  0  4 CMP  ABSY  A:80 X:48 Y: 0 P: 7 S:fb pc: e0f5, reg_addr:  400, cycle:  10134
e0f5 d0  4 30 BNE  REL   A:80 X:48 Y: 0 P: 7 S:fb pc: e0f7, reg_addr: e0fb, cycle:  10136
e0f7 30  2 b0 BMI  REL   A:80 X:48 Y: 0 P: 7 S:fb pc: e0f9, reg_addr: e0fb, cycle:  10138
e0f9 b0  2 86 BCS  REL   A:80 X:48 Y: 0 P: 7 S:fb pc: e0fd, reg_addr: e0fd, cycle:  10141
e0fd e8 ee  0 INX  IMPL  A:80 X:48 Y: 0 P: 7 S:fb pc: e0fe, reg_addr:    0, cycle:  10143
e0fe ee  0  4 INC  ABS   A:80 X:49 Y: 0 P: 5 S:fb pc: e101, reg_addr:  400, cycle:  10149
e101 d9  0  4 CMP  ABSY  A:80 X:49 Y: 0 P:85 S:fb pc: e104, reg_addr:  400, cycle:  10153
e104 b0  4 f0 BCS  REL   A:80 X:49 Y: 0 P:84 S:fb pc: e106, reg_addr: e10a, cycle:  10155
e106 f0  2 30 BEQ  REL   A:80 X:49 Y: 0 P:84 S:fb pc: e108, reg_addr: e10a, cycle:  10157
e108 30  2 86 BMI  REL   A:80 X:49 Y: 0 P:84 S:fb pc: e10c, reg_addr: e10c, cycle:  10160
e10c e8 ce  0 INX  IMPL  A:80 X:49 Y: 0 P:84 S:fb pc: e10d, reg_addr:    0, cycle:  10162
e10d ce  0  4 DEC  ABS   A:80 X:4a Y: 0 P: 4 S:fb pc: e110, reg_addr:  400, cycle:  10168
e110 ce  0  4 DEC  ABS   A:80 X:4a Y: 0 P:84 S:fb pc: e113, reg_addr:  400, cycle:  10174
e113 d9  0  4 CMP  ABSY  A:80 X:4a Y: 0 P: 4 S:fb pc: e116, reg_addr:  400, cycle:  10178
e116 90  4 f0 BCC  REL   A:80 X:4a Y: 0 P: 5 S:fb pc: e118, reg_addr: e11c, cycle:  10180
e118 f0  2 10 BEQ  REL   A:80 X:4a Y: 0 P: 5 S:fb pc: e11a, reg_addr: e11c, cycle:  10182
e11a 10  2 86 BPL  REL   A:80 X:4a Y: 0 P: 5 S:fb pc: e11e, reg_addr: e11e, cycle:  10185
e11e e8 24  1 INX  IMPL  A:80 X:4a Y: 0 P: 5 S:fb pc: e11f, reg_addr:    0, cycle:  10187
e11f 24  1 a9 BIT  ZP    A:80 X:4b Y: 0 P: 5 S:fb pc: e121, reg_addr:    1, cycle:  10190
e121 a9 40 8d LDA  IMM   A:80 X:4b Y: 0 P:c5 S:fb pc: e123, reg_addr:   40, cycle:  10192
e123 8d  0  4 STA  ABS   A:40 X:4b Y: 0 P:45 S:fb pc: e126, reg_addr:  400, cycle:  10196
e126 38 f9  0 SEC  IMPL  A:40 X:4b Y: 0 P:45 S:fb pc: e127, reg_addr:    0, cycle:  10198
e127 f9  0  4 SBC  ABSY  A:40 X:4b Y: 0 P:45 S:fb pc: e12a, reg_addr:  400, cycle:  10202
e12a 30  a 90 BMI  REL   A: 0 X:4b Y: 0 P: 7 S:fb pc: e12c, reg_addr: e136, cycle:  10204
e12c 90  8 d0 BCC  REL   A: 0 X:4b Y: 0 P: 7 S:fb pc: e12e, reg_addr: e136, cycle:  10206
e12e d0  6 70 BNE  REL   A: 0 X:4b Y: 0 P: 7 S:fb pc: e130, reg_addr: e136, cycle:  10208
e130 70  4 c9 BVS  REL   A: 0 X:4b Y: 0 P: 7 S:fb pc: e132, reg_addr: e136, cycle:  10210
e132 c9  0 f0 CMP  IMM   A: 0 X:4b Y: 0 P: 7 S:fb pc: e134, reg_addr:    0, cycle:  10212
e134 f0  2 86 BEQ  REL   A: 0 X:4b Y: 0 P: 7 S:fb pc: e138, reg_addr: e138, cycle:  10215
e138 e8 b8 38 INX  IMPL  A: 0 X:4b Y: 0 P: 7 S:fb pc: e139, reg_addr:    0, cycle:  10217
e139 b8 38 a9 CLV  IMPL  A: 0 X:4c Y: 0 P: 5 S:fb pc: e13a, reg_addr:    0, cycle:  10219
e13a 38 a9 40 SEC  IMPL  A: 0 X:4c Y: 0 P: 5 S:fb pc: e13b, reg_addr:    0, cycle:  10221
e13b a9 40 ce LDA  IMM   A: 0 X:4c Y: 0 P: 5 S:fb pc: e13d, reg_addr:   40, cycle:  10223
e13d ce  0  4 DEC  ABS   A:40 X:4c Y: 0 P: 5 S:fb pc: e140, reg_addr:  400, cycle:  10229
e140 f9  0  4 SBC  ABSY  A:40 X:4c Y: 0 P: 5 S:fb pc: e143, reg_addr:  400, cycle:  10233
e143 f0  a 30 BEQ  REL   A: 1 X:4c Y: 0 P: 5 S:fb pc: e145, reg_addr: e14f, cycle:  10235
e145 30  8 90 BMI  REL   A: 1 X:4c Y: 0 P: 5 S:fb pc: e147, reg_addr: e14f, cycle:  10237
e147 90  6 70 BCC  REL   A: 1 X:4c Y: 0 P: 5 S:fb pc: e149, reg_addr: e14f, cycle:  10239
e149 70  4 c9 BVS  REL   A: 1 X:4c Y: 0 P: 5 S:fb pc: e14b, reg_addr: e14f, cycle:  10241
e14b c9  1 f0 CMP  IMM   A: 1 X:4c Y: 0 P: 5 S:fb pc: e14d, reg_addr:    1, cycle:  10243
e14d f0  2 86 BEQ  REL   A: 1 X:4c Y: 0 P: 7 S:fb pc: e151, reg_addr: e151, cycle:  10246
e151 e8 a9 40 INX  IMPL  A: 1 X:4c Y: 0 P: 7 S:fb pc: e152, reg_addr:    0, cycle:  10248
e152 a9 40 38 LDA  IMM   A: 1 X:4d Y: 0 P: 5 S:fb pc: e154, reg_addr:   40, cycle:  10250
e154 38 24  1 SEC  IMPL  A:40 X:4d Y: 0 P: 5 S:fb pc: e155, reg_addr:    0, cycle:  10252
e155 24  1 ee BIT  ZP    A:40 X:4d Y: 0 P: 5 S:fb pc: e157, reg_addr:    1, cycle:  10255
e157 ee  0  4 INC  ABS   A:40 X:4d Y: 0 P:c5 S:fb pc: e15a, reg_addr:  400, cycle:  10261
e15a ee  0  4 INC  ABS   A:40 X:4d Y: 0 P: 5 S:fb pc: e15d, reg_addr:  400, cycle:  10267
e15d f9  0  4 SBC  ABSY  A:40 X:4d Y: 0 P: 5 S:fb pc: e160, reg_addr:  400, cycle:  10271
e160 b0  a f0 BCS  REL   A:ff X:4d Y: 0 P:84 S:fb pc: e162, reg_addr: e16c, cycle:  10273
e162 f0  8 10 BEQ  REL   A:ff X:4d Y: 0 P:84 S:fb pc: e164, reg_addr: e16c, cycle:  10275
e164 10  6 70 BPL  REL   A:ff X:4d Y: 0 P:84 S:fb pc: e166, reg_addr: e16c, cycle:  10277
e166 70  4 c9 BVS  REL   A:ff X:4d Y: 0 P:84 S:fb pc: e168, reg_addr: e16c, cycle:  10279
e168 c9 ff f0 CMP  IMM   A:ff X:4d Y: 0 P:84 S:fb pc: e16a, reg_addr:   ff, cycle:  10281
e16a f0  2 86 BEQ  REL   A:ff X:4d Y: 0 P: 7 S:fb pc: e16e, reg_addr: e16e, cycle:  10284
e16e e8 18 a9 INX  IMPL  A:ff X:4d Y: 0 P: 7 S:fb pc: e16f, reg_addr:    0, cycle:  10286
e16f 18 a9  0 CLC  IMPL  A:ff X:4e Y: 0 P: 5 S:fb pc: e170, reg_addr:    0, cycle:  10288
e170 a9  0 8d LDA  IMM   A:ff X:4e Y: 0 P: 4 S:fb pc: e172, reg_addr:    0, cycle:  10290
e172 8d  0  4 STA  ABS   A: 0 X:4e Y: 0 P: 6 S:fb pc: e175, reg_addr:  400, cycle:  10294
e175 a9 80 f9 LDA  IMM   A: 0 X:4e Y: 0 P: 6 S:fb pc: e177, reg_addr:   80, cycle:  10296
e177 f9  0  4 SBC  ABSY  A:80 X:4e Y: 0 P:84 S:fb pc: e17a, reg_addr:  400, cycle:  10300
e17a 90  4 c9 BCC  REL   A:7f X:4e Y: 0 P:45 S:fb pc: e17c, reg_addr: e180, cycle:  10302
e17c c9 7f f0 CMP  IMM   A:7f X:4e Y: 0 P:45 S:fb pc: e17e, reg_addr:   7f, cycle:  10304
e17e f0  2 86 BEQ  REL   A:7f X:4e Y: 0 P:47 S:fb pc: e182, reg_addr: e182, cycle:  10307
e182 e8 38 a9 INX  IMPL  A:7f X:4e Y: 0 P:47 S:fb pc: e183, reg_addr:    0, cycle:  10309
e183 38 a9 7f SEC  IMPL  A:7f X:4f Y: 0 P:45 S:fb pc: e184, reg_addr:    0, cycle:  10311
e184 a9 7f 8d LDA  IMM   A:7f X:4f Y: 0 P:45 S:fb pc: e186, reg_addr:   7f, cycle:  10313
e186 8d  0  4 STA  ABS   A:7f X:4f Y: 0 P:45 S:fb pc: e189, reg_addr:  400, cycle:  10317
e189 a9 81 f9 LDA  IMM   A:7f X:4f Y: 0 P:45 S:fb pc: e18b, reg_addr:   81, cycle:  10319
e18b f9  0  4 SBC  ABSY  A:81 X:4f Y: 0 P:c5 S:fb pc: e18e, reg_addr:  400, cycle:  10323
e18e 50  6 90 BVC  REL   A: 2 X:4f Y: 0 P:45 S:fb pc: e190, reg_addr: e196, cycle:  10325
e190 90  4 c9 BCC  REL   A: 2 X:4f Y: 0 P:45 S:fb pc: e192, reg_addr: e196, cycle:  10327
e192 c9  2 f0 CMP  IMM   A: 2 X:4f Y: 0 P:45 S:fb pc: e194, reg_addr:    2, cycle:  10329
e194 f0  2 86 BEQ  REL   A: 2 X:4f Y: 0 P:47 S:fb pc: e198, reg_addr: e198, cycle:  10332
e198 e8 a9  0 INX  IMPL  A: 2 X:4f Y: 0 P:47 S:fb pc: e199, reg_addr:    0, cycle:  10334
e199 a9  0 a9 LDA  IMM   A: 2 X:50 Y: 0 P:45 S:fb pc: e19b, reg_addr:    0, cycle:  10336
e19b a9 87 99 LDA  IMM   A: 0 X:50 Y: 0 P:47 S:fb pc: e19d, reg_addr:   87, cycle:  10338
e19d 99  0  4 STA  ABSY  A:87 X:50 Y: 0 P:c5 S:fb pc: e1a0, reg_addr:  400, cycle:  10343
e1a0 ad  0  4 LDA  ABS   A:87 X:50 Y: 0 P:c5 S:fb pc: e1a3, reg_addr:  400, cycle:  10347
e1a3 c9 87 f0 CMP  IMM   A:87 X:50 Y: 0 P:c5 S:fb pc: e1a5, reg_addr:   87, cycle:  10349
e1a5 f0  2 86 BEQ  REL   A:87 X:50 Y: 0 P:47 S:fb pc: e1a9, reg_addr: e1a9, cycle:  10352
e1a9 60 a9 ff RTS  IMPL  A:87 X:50 Y: 0 P:47 S:fb pc: c629, reg_addr:    0, cycle:  10358
c629 20 b8 db JSR  ABS   A:87 X:50 Y: 0 P:47 S:fd pc: dbb8, reg_addr: dbb8, cycle:  10364
dbb8 a9 ff 85 LDA  IMM   A:87 X:50 Y: 0 P:47 S:fb pc: dbba, reg_addr:   ff, cycle:  10366
dbba 85  1 a9 STA  ZP    A:ff X:50 Y: 0 P:c5 S:fb pc: dbbc, reg_addr:    1, cycle:  10369
dbbc a9 aa 85 LDA  IMM   A:ff X:50 Y: 0 P:c5 S:fb pc: dbbe, reg_addr:   aa, cycle:  10371
dbbe 85 33 a9 STA  ZP    A:aa X:50 Y: 0 P:c5 S:fb pc: dbc0, reg_addr:   33, cycle:  10374
dbc0 a9 bb 85 LDA  IMM   A:aa X:50 Y: 0 P:c5 S:fb pc: dbc2, reg_addr:   bb, cycle:  10376
dbc2 85 89 a2 STA  ZP    A:bb X:50 Y: 0 P:c5 S:fb pc: dbc4, reg_addr:   89, cycle:  10379
dbc4 a2  0 a9 LDX  IMM   A:bb X:50 Y: 0 P:c5 S:fb pc: dbc6, reg_addr:    0, cycle:  10381
dbc6 a9 66 24 LDA  IMM   A:bb X: 0 Y: 0 P:47 S:fb pc: dbc8, reg_addr:   66, cycle:  10383
dbc8 24  1 38 BIT  ZP    A:66 X: 0 Y: 0 P:45 S:fb pc: dbca, reg_addr:    1, cycle:  10386
dbca 38 a0  0 SEC  IMPL  A:66 X: 0 Y: 0 P:c5 S:fb pc: dbcb, reg_addr:    0, cycle:  10388
dbcb a0  0 b4 LDY  IMM   A:66 X: 0 Y: 0 P:c5 S:fb pc: dbcd, reg_addr:    0, cycle:  10390
dbcd b4 33 10 LDY  ZPX   A:66 X: 0 Y: 0 P:47 S:fb pc: dbcf, reg_addr:   33, cycle:  10394
dbcf 10 12 f0 BPL  REL   A:66 X: 0 Y:aa P:c5 S:fb pc: dbd1, reg_addr: dbe3, cycle:  10396
dbd1 f0 10 50 BEQ  REL   A:66 X: 0 Y:aa P:c5 S:fb pc: dbd3, reg_addr: dbe3, cycle:  10398
dbd3 50  e 90 BVC  REL   A:66 X: 0 Y:aa P:c5 S:fb pc: dbd5, reg_addr: dbe3, cycle:  10400
dbd5 90  c c9 BCC  REL   A:66 X: 0 Y:aa P:c5 S:fb pc: dbd7, reg_addr: dbe3, cycle:  10402
dbd7 c9 66 d0 CMP  IMM   A:66 X: 0 Y:aa P:c5 S:fb pc: dbd9, reg_addr:   66, cycle:  10404
dbd9 d0  8 e0 BNE  REL   A:66 X: 0 Y:aa P:47 S:fb pc: dbdb, reg_addr: dbe3, cycle:  10406
dbdb e0  0 d0 CPX  IMM   A:66 X: 0 Y:aa P:47 S:fb pc: dbdd, reg_addr:    0, cycle:  10408
dbdd d0  4 c0 BNE  REL   A:66 X: 0 Y:aa P:47 S:fb pc: dbdf, reg_addr: dbe3, cycle:  10410
dbdf c0 aa f0 CPY  IMM   A:66 X: 0 Y:aa P:47 S:fb pc: dbe1, reg_addr:   aa, cycle:  10412
dbe1 f0  4 a9 BEQ  REL   A:66 X: 0 Y:aa P:47 S:fb pc: dbe7, reg_addr: dbe7, cycle:  10415
dbe7 a2 8a a9 LDX  IMM   A:66 X: 0 Y:aa P:47 S:fb pc: dbe9, reg_addr:   8a, cycle:  10417
dbe9 a9 66 b8 LDA  IMM   A:66 X:8a Y:aa P:c5 S:fb pc: dbeb, reg_addr:   66, cycle:  10419
dbeb b8 18 a0 CLV  IMPL  A:66 X:8a Y:aa P:45 S:fb pc: dbec, reg_addr:    0, cycle:  10421
dbec 18 a0  0 CLC  IMPL  A:66 X:8a Y:aa P: 5 S:fb pc: dbed, reg_addr:    0, cycle:  10423
dbed a0  0 b4 LDY  IMM   A:66 X:8a Y:aa P: 4 S:fb pc: dbef, reg_addr:    0, cycle:  10425
dbef b4 ff 10 LDY  ZPX   A:66 X:8a Y: 0 P: 6 S:fb pc: dbf1, reg_addr:   89, cycle:  10429
dbf1 10 12 f0 BPL  REL   A:66 X:8a Y:bb P:84 S:fb pc: dbf3, reg_addr: dc05, cycle:  10431
dbf3 f0 10 70 BEQ  REL   A:66 X:8a Y:bb P:84 S:fb pc: dbf5, reg_addr: dc05, cycle:  10433
dbf5 70  e b0 BVS  REL   A:66 X:8a Y:bb P:84 S:fb pc: dbf7, reg_addr: dc05, cycle:  10435
dbf7 b0  c c0 BCS  REL   A:66 X:8a Y:bb P:84 S:fb pc: dbf9, reg_addr: dc05, cycle:  10437
dbf9 c0 bb d0 CPY  IMM   A:66 X:8a Y:bb P:84 S:fb pc: dbfb, reg_addr:   bb, cycle:  10439
dbfb d0  8 c9 BNE  REL   A:66 X:8a Y:bb P: 7 S:fb pc: dbfd, reg_addr: dc05, cycle:  10441
dbfd c9 66 d0 CMP  IMM   A:66 X:8a Y:bb P: 7 S:fb pc: dbff, reg_addr:   66, cycle:  10443
dbff d0  4 e0 BNE  REL   A:66 X:8a Y:bb P: 7 S:fb pc: dc01, reg_addr: dc05, cycle:  10445
dc01 e0 8a f0 CPX  IMM   A:66 X:8a Y:bb P: 7 S:fb pc: dc03, reg_addr:   8a, cycle:  10447
dc03 f0  4 a9 BEQ  REL   A:66 X:8a Y:bb P: 7 S:fb pc: dc09, reg_addr: dc09, cycle:  10450
dc09 24  1 38 BIT  ZP    A:66 X:8a Y:bb P: 7 S:fb pc: dc0b, reg_addr:    1, cycle:  10453
dc0b 38 a0 44 SEC  IMPL  A:66 X:8a Y:bb P:c5 S:fb pc: dc0c, reg_addr:    0, cycle:  10455
dc0c a0 44 a2 LDY  IMM   A:66 X:8a Y:bb P:c5 S:fb pc: dc0e, reg_addr:   44, cycle:  10457
dc0e a2  0 94 LDX  IMM   A:66 X:8a Y:44 P:45 S:fb pc: dc10, reg_addr:    0, cycle:  10459
dc10 94 33 a5 STY  ZPX   A:66 X: 0 Y:44 P:47 S:fb pc: dc12, reg_addr:   33, cycle:  10463
dc12 a5 33 90 LDA  ZP    A:66 X: 0 Y:44 P:47 S:fb pc: dc14, reg_addr:   33, cycle:  10466
dc14 90 18 c9 BCC  REL   A:44 X: 0 Y:44 P:45 S:fb pc: dc16, reg_addr: dc2e, cycle:  10468
dc16 c9 44 d0 CMP  IMM   A:44 X: 0 Y:44 P:45 S:fb pc: dc18, reg_addr:   44, cycle:  10470
dc18 d0 14 50 BNE  REL   A:44 X: 0 Y:44 P:47 S:fb pc: dc1a, reg_addr: dc2e, cycle:  10472
dc1a 50 12 18 BVC  REL   A:44 X: 0 Y:44 P:47 S:fb pc: dc1c, reg_addr: dc2e, cycle:  10474
dc1c 18 b8 a0 CLC  IMPL  A:44 X: 0 Y:44 P:47 S:fb pc: dc1d, reg_addr:    0, cycle:  10476
dc1d b8 a0 99 CLV  IMPL  A:44 X: 0 Y:44 P:46 S:fb pc: dc1e, reg_addr:    0, cycle:  10478
dc1e a0 99 a2 LDY  IMM   A:44 X: 0 Y:44 P: 6 S:fb pc: dc20, reg_addr:   99, cycle:  10480
dc20 a2 80 94 LDX  IMM   A:44 X: 0 Y:99 P:84 S:fb pc: dc22, reg_addr:   80, cycle:  10482
dc22 94 85 a5 STY  ZPX   A:44 X:80 Y:99 P:84 S:fb pc: dc24, reg_addr:    5, cycle:  10486
dc24 a5  5 b0 LDA  ZP    A:44 X:80 Y:99 P:84 S:fb pc: dc26, reg_addr:    5, cycle:  10489
dc26 b0  6 c9 BCS  REL   A:99 X:80 Y:99 P:84 S:fb pc: dc28, reg_addr: dc2e, cycle:  10491
dc28 c9 99 d0 CMP  IMM   A:99 X:80 Y:99 P:84 S:fb pc: dc2a, reg_addr:   99, cycle:  10493
dc2a d0  2 50 BNE  REL   A:99 X:80 Y:99 P: 7 S:fb pc: dc2c, reg_addr: dc2e, cycle:  10495
dc2c 50  4 a9 BVC  REL   A:99 X:80 Y:99 P: 7 S:fb pc: dc32, reg_addr: dc32, cycle:  10498
dc32 a0  b a9 LDY  IMM   A:99 X:80 Y:99 P: 7 S:fb pc: dc34, reg_addr:    b, cycle:  10500
dc34 a9 aa a2 LDA  IMM   A:99 X:80 Y: b P: 5 S:fb pc: dc36, reg_addr:   aa, cycle:  10502
dc36 a2 78 85 LDX  IMM   A:aa X:80 Y: b P:85 S:fb pc: dc38, reg_addr:   78, cycle:  10504
dc38 85 78 20 STA  ZP    A:aa X:78 Y: b P: 5 S:fb pc: dc3a, reg_addr:   78, cycle:  10507
dc3a 20 b6 f7 JSR  ABS   A:aa X:78 Y: b P: 5 S:fb pc: f7b6, reg_addr: f7b6, cycle:  10513
f7b6 18 a9 ff CLC  IMPL  A:aa X:78 Y: b P: 5 S:f9 pc: f7b7, reg_addr:    0, cycle:  10515
f7b7 a9 ff 85 LDA  IMM   A:aa X:78 Y: b P: 4 S:f9 pc: f7b9, reg_addr:   ff, cycle:  10517
f7b9 85  1 24 STA  ZP    A:ff X:78 Y: b P:84 S:f9 pc: f7bb, reg_addr:    1, cycle:  10520
f7bb 24  1 a9 BIT  ZP    A:ff X:78 Y: b P:84 S:f9 pc: f7bd, reg_addr:    1, cycle:  10523
f7bd a9 55 60 LDA  IMM   A:ff X:78 Y: b P:c4 S:f9 pc: f7bf, reg_addr:   55, cycle:  10525
f7bf 60 b0  9 RTS  IMPL  A:55 X:78 Y: b P:44 S:f9 pc: dc3d, reg_addr:    0, cycle:  10531
dc3d 15  0 20 ORA  ZPX   A:55 X:78 Y: b P:44 S:fb pc: dc3f, reg_addr:   78, cycle:  10535
dc3f 20 c0 f7 JSR  ABS   A:ff X:78 Y: b P:c4 S:fb pc: f7c0, reg_addr: f7c0, cycle:  10541
f7c0 b0  9 10 BCS  REL   A:ff X:78 Y: b P:c4 S:f9 pc: f7c2, reg_addr: f7cb, cycle:  10543
f7c2 10  7 c9 BPL  REL   A:ff X:78 Y: b P:c4 S:f9 pc: f7c4, reg_addr: f7cb, cycle:  10545
f7c4 c9 ff d0 CMP  IMM   A:ff X:78 Y: b P:c4 S:f9 pc: f7c6, reg_addr:   ff, cycle:  10547
f7c6 d0  3 50 BNE  REL   A:ff X:78 Y: b P:47 S:f9 pc: f7c8, reg_addr: f7cb, cycle:  10549
f7c8 50  1 60 BVC  REL   A:ff X:78 Y: b P:47 S:f9 pc: f7ca, reg_addr: f7cb, cycle:  10551
f7ca 60 84  0 RTS  IMPL  A:ff X:78 Y: b P:47 S:f9 pc: dc42, reg_addr:    0, cycle:  10557
dc42 c8 a9  0 INY  IMPL  A:ff X:78 Y: b P:47 S:fb pc: dc43, reg_addr:    0, cycle:  10559
dc43 a9  0 85 LDA  IMM   A:ff X:78 Y: c P:45 S:fb pc: dc45, reg_addr:    0, cycle:  10561
dc45 85 78 20 STA  ZP    A: 0 X:78 Y: c P:47 S:fb pc: dc47, reg_addr:   78, cycle:  10564
dc47 20 ce f7 JSR  ABS   A: 0 X:78 Y: c P:47 S:fb pc: f7ce, reg_addr: f7ce, cycle:  10570
f7ce 38 b8 a9 SEC  IMPL  A: 0 X:78 Y: c P:47 S:f9 pc: f7cf, reg_addr:    0, cycle:  10572
f7cf b8 a9  0 CLV  IMPL  A: 0 X:78 Y: c P:47 S:f9 pc: f7d0, reg_addr:    0, cycle:  10574
f7d0 a9  0 60 LDA  IMM   A: 0 X:78 Y: c P: 7 S:f9 pc: f7d2, reg_addr:    0, cycle:  10576
f7d2 60 d0  7 RTS  IMPL  A: 0 X:78 Y: c P: 7 S:f9 pc: dc4a, reg_addr:    0, cycle:  10582
dc4a 15  0 20 ORA  ZPX   A: 0 X:78 Y: c P: 7 S:fb pc: dc4c, reg_addr:   78, cycle:  10586
dc4c 20 d3 f7 JSR  ABS   A: 0 X:78 Y: c P: 7 S:fb pc: f7d3, reg_addr: f7d3, cycle:  10592
f7d3 d0  7 70 BNE  REL   A: 0 X:78 Y: c P: 7 S:f9 pc: f7d5, reg_addr: f7dc, cycle:  10594
f7d5 70  5 90 BVS  REL   A: 0 X:78 Y: c P: 7 S:f9 pc: f7d7, reg_addr: f7dc, cycle:  10596
f7d7 90  3 30 BCC  REL   A: 0 X:78 Y: c P: 7 S:f9 pc: f7d9, reg_addr: f7dc, cycle:  10598
f7d9 30  1 60 BMI  REL   A: 0 X:78 Y: c P: 7 S:f9 pc: f7db, reg_addr: f7dc, cycle:  10600
f7db 60 84  0 RTS  IMPL  A: 0 X:78 Y: c P: 7 S:f9 pc: dc4f, reg_addr:    0, cycle:  10606
dc4f c8 a9 aa INY  IMPL  A: 0 X:78 Y: c P: 7 S:fb pc: dc50, reg_addr:    0, cycle:  10608
dc50 a9 aa 85 LDA  IMM   A: 0 X:78 Y: d P: 5 S:fb pc: dc52, reg_addr:   aa, cycle:  10610
dc52 85 78 20 STA  ZP    A:aa X:78 Y: d P:85 S:fb pc: dc54, reg_addr:   78, cycle:  10613
dc54 20 df f7 JSR  ABS   A:aa X:78 Y: d P:85 S:fb pc: f7df, reg_addr: f7df, cycle:  10619
f7df 18 24  1 CLC  IMPL  A:aa X:78 Y: d P:85 S:f9 pc: f7e0, reg_addr:    0, cycle:  10621
f7e0 24  1 a9 BIT  ZP    A:aa X:78 Y: d P:84 S:f9 pc: f7e2, reg_addr:    1, cycle:  10624
f7e2 a9 55 60 LDA  IMM   A:aa X:78 Y: d P:c4 S:f9 pc: f7e4, reg_addr:   55, cycle:  10626
f7e4 60 d0  7 RTS  IMPL  A:55 X:78 Y: d P:44 S:f9 pc: dc57, reg_addr:    0, cycle:  10632
dc57 35  0 20 AND  ZPX   A:55 X:78 Y: d P:44 S:fb pc: dc59, reg_addr:   78, cycle:  10636
dc59 20 e5 f7 JSR  ABS   A: 0 X:78 Y: d P:46 S:fb pc: f7e5, reg_addr: f7e5, cycle:  10642
f7e5 d0  7 50 BNE  REL   A: 0 X:78 Y: d P:46 S:f9 pc: f7e7, reg_addr: f7ee, cycle:  10644
f7e7 50  5 b0 BVC  REL   A: 0 X:78 Y: d P:46 S:f9 pc: f7e9, reg_addr: f7ee, cycle:  10646
f7e9 b0  3 30 BCS  REL   A: 0 X:78 Y: d P:46 S:f9 pc: f7eb, reg_addr: f7ee, cycle:  10648
f7eb 30  1 60 BMI  REL   A: 0 X:78 Y: d P:46 S:f9 pc: f7ed, reg_addr: f7ee, cycle:  10650
f7ed 60 84  0 RTS  IMPL  A: 0 X:78 Y: d P:46 S:f9 pc: dc5c, reg_addr:    0, cycle:  10656
dc5c c8 a9 ef INY  IMPL  A: 0 X:78 Y: d P:46 S:fb pc: dc5d, reg_addr:    0, cycle:  10658
dc5d a9 ef 85 LDA  IMM   A: 0 X:78 Y: e P:44 S:fb pc: dc5f, reg_addr:   ef, cycle:  10660
dc5f 85 78 20 STA  ZP    A:ef X:78 Y: e P:c4 S:fb pc: dc61, reg_addr:   78, cycle:  10663
dc61 20 f1 f7 JSR  ABS   A:ef X:78 Y: e P:c4 S:fb pc: f7f1, reg_addr: f7f1, cycle:  10669
f7f1 38 b8 a9 SEC  IMPL  A:ef X:78 Y: e P:c4 S:f9 pc: f7f2, reg_addr:    0, cycle:  10671
f7f2 b8 a9 f8 CLV  IMPL  A:ef X:78 Y: e P:c5 S:f9 pc: f7f3, reg_addr:    0, cycle:  10673
f7f3 a9 f8 60 LDA  IMM   A:ef X:78 Y: e P:85 S:f9 pc: f7f5, reg_addr:   f8, cycle:  10675
f7f5 60 90  9 RTS  IMPL  A:f8 X:78 Y: e P:85 S:f9 pc: dc64, reg_addr:    0, cycle:  10681
dc64 35  0 20 AND  ZPX   A:f8 X:78 Y: e P:85 S:fb pc: dc66, reg_addr:   78, cycle:  10685
dc66 20 f6 f7 JSR  ABS   A:e8 X:78 Y: e P:85 S:fb pc: f7f6, reg_addr: f7f6, cycle:  10691
f7f6 90  9 10 BCC  REL   A:e8 X:78 Y: e P:85 S:f9 pc: f7f8, reg_addr: f801, cycle:  10693
f7f8 10  7 c9 BPL  REL   A:e8 X:78 Y: e P:85 S:f9 pc: f7fa, reg_addr: f801, cycle:  10695
f7fa c9 e8 d0 CMP  IMM   A:e8 X:78 Y: e P:85 S:f9 pc: f7fc, reg_addr:   e8, cycle:  10697
f7fc d0  3 70 BNE  REL   A:e8 X:78 Y: e P: 7 S:f9 pc: f7fe, reg_addr: f801, cycle:  10699
f7fe 70  1 60 BVS  REL   A:e8 X:78 Y: e P: 7 S:f9 pc: f800, reg_addr: f801, cycle:  10701
f800 60 84  0 RTS  IMPL  A:e8 X:78 Y: e P: 7 S:f9 pc: dc69, reg_addr:    0, cycle:  10707
dc69 c8 a9 aa INY  IMPL  A:e8 X:78 Y: e P: 7 S:fb pc: dc6a, reg_addr:    0, cycle:  10709
dc6a a9 aa 85 LDA  IMM   A:e8 X:78 Y: f P: 5 S:fb pc: dc6c, reg_addr:   aa, cycle:  10711
dc6c 85 78 20 STA  ZP    A:aa X:78 Y: f P:85 S:fb pc: dc6e, reg_addr:   78, cycle:  10714
dc6e 20  4 f8 JSR  ABS   A:aa X:78 Y: f P:85 S:fb pc: f804, reg_addr: f804, cycle:  10720
f804 18 24  1 CLC  IMPL  A:aa X:78 Y: f P:85 S:f9 pc: f805, reg_addr:    0, cycle:  10722
f805 24  1 a9 BIT  ZP    A:aa X:78 Y: f P:84 S:f9 pc: f807, reg_addr:    1, cycle:  10725
f807 a9 5f 60 LDA  IMM   A:aa X:78 Y: f P:c4 S:f9 pc: f809, reg_addr:   5f, cycle:  10727
f809 60 b0  9 RTS  IMPL  A:5f X:78 Y: f P:44 S:f9 pc: dc71, reg_addr:    0, cycle:  10733
dc71 55  0 20 EOR  ZPX   A:5f X:78 Y: f P:44 S:fb pc: dc73, reg_addr:   78, cycle:  10737
dc73 20  a f8 JSR  ABS   A:f5 X:78 Y: f P:c4 S:fb pc: f80a, reg_addr: f80a, cycle:  10743
f80a b0  9 10 BCS  REL   A:f5 X:78 Y: f P:c4 S:f9 pc: f80c, reg_addr: f815, cycle:  10745
f80c 10  7 c9 BPL  REL   A:f5 X:78 Y: f P:c4 S:f9 pc: f80e, reg_addr: f815, cycle:  10747
f80e c9 f5 d0 CMP  IMM   A:f5 X:78 Y: f P:c4 S:f9 pc: f810, reg_addr:   f5, cycle:  10749
f810 d0  3 50 BNE  REL   A:f5 X:78 Y: f P:47 S:f9 pc: f812, reg_addr: f815, cycle:  10751
f812 50  1 60 BVC  REL   A:f5 X:78 Y: f P:47 S:f9 pc: f814, reg_addr: f815, cycle:  10753
f814 60 84  0 RTS  IMPL  A:f5 X:78 Y: f P:47 S:f9 pc: dc76, reg_addr:    0, cycle:  10759
dc76 c8 a9 70 INY  IMPL  A:f5 X:78 Y: f P:47 S:fb pc: dc77, reg_addr:    0, cycle:  10761
dc77 a9 70 85 LDA  IMM   A:f5 X:78 Y:10 P:45 S:fb pc: dc79, reg_addr:   70, cycle:  10763
dc79 85 78 20 STA  ZP    A:70 X:78 Y:10 P:45 S:fb pc: dc7b, reg_addr:   78, cycle:  10766
dc7b 20 18 f8 JSR  ABS   A:70 X:78 Y:10 P:45 S:fb pc: f818, reg_addr: f818, cycle:  10772
f818 38 b8 a9 SEC  IMPL  A:70 X:78 Y:10 P:45 S:f9 pc: f819, reg_addr:    0, cycle:  10774
f819 b8 a9 70 CLV  IMPL  A:70 X:78 Y:10 P:45 S:f9 pc: f81a, reg_addr:    0, cycle:  10776
f81a a9 70 60 LDA  IMM   A:70 X:78 Y:10 P: 5 S:f9 pc: f81c, reg_addr:   70, cycle:  10778
f81c 60 d0  7 RTS  IMPL  A:70 X:78 Y:10 P: 5 S:f9 pc: dc7e, reg_addr:    0, cycle:  10784
dc7e 55  0 20 EOR  ZPX   A:70 X:78 Y:10 P: 5 S:fb pc: dc80, reg_addr:   78, cycle:  10788
dc80 20 1d f8 JSR  ABS   A: 0 X:78 Y:10 P: 7 S:fb pc: f81d, reg_addr: f81d, cycle:  10794
f81d d0  7 70 BNE  REL   A: 0 X:78 Y:10 P: 7 S:f9 pc: f81f, reg_addr: f826, cycle:  10796
f81f 70  5 90 BVS  REL   A: 0 X:78 Y:10 P: 7 S:f9 pc: f821, reg_addr: f826, cycle:  10798
f821 90  3 30 BCC  REL   A: 0 X:78 Y:10 P: 7 S:f9 pc: f823, reg_addr: f826, cycle:  10800
f823 30  1 60 BMI  REL   A: 0 X:78 Y:10 P: 7 S:f9 pc: f825, reg_addr: f826, cycle:  10802
f825 60 84  0 RTS  IMPL  A: 0 X:78 Y:10 P: 7 S:f9 pc: dc83, reg_addr:    0, cycle:  10808
dc83 c8 a9 69 INY  IMPL  A: 0 X:78 Y:10 P: 7 S:fb pc: dc84, reg_addr:    0, cycle:  10810
dc84 a9 69 85 LDA  IMM   A: 0 X:78 Y:11 P: 5 S:fb pc: dc86, reg_addr:   69, cycle:  10812
dc86 85 78 20 STA  ZP    A:69 X:78 Y:11 P: 5 S:fb pc: dc88, reg_addr:   78, cycle:  10815
dc88 20 29 f8 JSR  ABS   A:69 X:78 Y:11 P: 5 S:fb pc: f829, reg_addr: f829, cycle:  10821
f829 18 24  1 CLC  IMPL  A:69 X:78 Y:11 P: 5 S:f9 pc: f82a, reg_addr:    0, cycle:  10823
f82a 24  1 a9 BIT  ZP    A:69 X:78 Y:11 P: 4 S:f9 pc: f82c, reg_addr:    1, cycle:  10826
f82c a9  0 60 LDA  IMM   A:69 X:78 Y:11 P:c4 S:f9 pc: f82e, reg_addr:    0, cycle:  10828
f82e 60 30  9 RTS  IMPL  A: 0 X:78 Y:11 P:46 S:f9 pc: dc8b, reg_addr:    0, cycle:  10834
dc8b 75  0 20 ADC  ZPX   A: 0 X:78 Y:11 P:46 S:fb pc: dc8d, reg_addr:   78, cycle:  10838
dc8d 20 2f f8 JSR  ABS   A:69 X:78 Y:11 P: 4 S:fb pc: f82f, reg_addr: f82f, cycle:  10844
f82f 30  9 b0 BMI  REL   A:69 X:78 Y:11 P: 4 S:f9 pc: f831, reg_addr: f83a, cycle:  10846
f831 b0  7 c9 BCS  REL   A:69 X:78 Y:11 P: 4 S:f9 pc: f833, reg_addr: f83a, cycle:  10848
f833 c9 69 d0 CMP  IMM   A:69 X:78 Y:11 P: 4 S:f9 pc: f835, reg_addr:   69, cycle:  10850
f835 d0  3 70 BNE  REL   A:69 X:78 Y:11 P: 7 S:f9 pc: f837, reg_addr: f83a, cycle:  10852
f837 70  1 60 BVS  REL   A:69 X:78 Y:11 P: 7 S:f9 pc: f839, reg_addr: f83a, cycle:  10854
f839 60 84  0 RTS  IMPL  A:69 X:78 Y:11 P: 7 S:f9 pc: dc90, reg_addr:    0, cycle:  10860
dc90 c8 20 3d INY  IMPL  A:69 X:78 Y:11 P: 7 S:fb pc: dc91, reg_addr:    0, cycle:  10862
dc91 20 3d f8 JSR  ABS   A:69 X:78 Y:12 P: 5 S:fb pc: f83d, reg_addr: f83d, cycle:  10868
f83d 38 24  1 SEC  IMPL  A:69 X:78 Y:12 P: 5 S:f9 pc: f83e, reg_addr:    0, cycle:  10870
f83e 24  1 a9 BIT  ZP    A:69 X:78 Y:12 P: 5 S:f9 pc: f840, reg_addr:    1, cycle:  10873
f840 a9  0 60 LDA  IMM   A:69 X:78 Y:12 P:c5 S:f9 pc: f842, reg_addr:    0, cycle:  10875
f842 60 30  9 RTS  IMPL  A: 0 X:78 Y:12 P:47 S:f9 pc: dc94, reg_addr:    0, cycle:  10881
dc94 75  0 20 ADC  ZPX   A: 0 X:78 Y:12 P:47 S:fb pc: dc96, reg_addr:   78, cycle:  10885
dc96 20 43 f8 JSR  ABS   A:6a X:78 Y:12 P: 4 S:fb pc: f843, reg_addr: f843, cycle:  10891
f843 30  9 b0 BMI  REL   A:6a X:78 Y:12 P: 4 S:f9 pc: f845, reg_addr: f84e, cycle:  10893
f845 b0  7 c9 BCS  REL   A:6a X:78 Y:12 P: 4 S:f9 pc: f847, reg_addr: f84e, cycle:  10895
f847 c9 6a d0 CMP  IMM   A:6a X:78 Y:12 P: 4 S:f9 pc: f849, reg_addr:   6a, cycle:  10897
f849 d0  3 70 BNE  REL   A:6a X:78 Y:12 P: 7 S:f9 pc: f84b, reg_addr: f84e, cycle:  10899
f84b 70  1 60 BVS  REL   A:6a X:78 Y:12 P: 7 S:f9 pc: f84d, reg_addr: f84e, cycle:  10901
f84d 60 84  0 RTS  IMPL  A:6a X:78 Y:12 P: 7 S:f9 pc: dc99, reg_addr:    0, cycle:  10907
dc99 c8 a9 7f INY  IMPL  A:6a X:78 Y:12 P: 7 S:fb pc: dc9a, reg_addr:    0, cycle:  10909
dc9a a9 7f 85 LDA  IMM   A:6a X:78 Y:13 P: 5 S:fb pc: dc9c, reg_addr:   7f, cycle:  10911
dc9c 85 78 20 STA  ZP    A:7f X:78 Y:13 P: 5 S:fb pc: dc9e, reg_addr:   78, cycle:  10914
dc9e 20 51 f8 JSR  ABS   A:7f X:78 Y:13 P: 5 S:fb pc: f851, reg_addr: f851, cycle:  10920
f851 38 b8 a9 SEC  IMPL  A:7f X:78 Y:13 P: 5 S:f9 pc: f852, reg_addr:    0, cycle:  10922
f852 b8 a9 7f CLV  IMPL  A:7f X:78 Y:13 P: 5 S:f9 pc: f853, reg_addr:    0, cycle:  10924
f853 a9 7f 60 LDA  IMM   A:7f X:78 Y:13 P: 5 S:f9 pc: f855, reg_addr:   7f, cycle:  10926
f855 60 10  9 RTS  IMPL  A:7f X:78 Y:13 P: 5 S:f9 pc: dca1, reg_addr:    0, cycle:  10932
dca1 75  0 20 ADC  ZPX   A:7f X:78 Y:13 P: 5 S:fb pc: dca3, reg_addr:   78, cycle:  10936
dca3 20 56 f8 JSR  ABS   A:ff X:78 Y:13 P:c4 S:fb pc: f856, reg_addr: f856, cycle:  10942
f856 10  9 b0 BPL  REL   A:ff X:78 Y:13 P:c4 S:f9 pc: f858, reg_addr: f861, cycle:  10944
f858 b0  7 c9 BCS  REL   A:ff X:78 Y:13 P:c4 S:f9 pc: f85a, reg_addr: f861, cycle:  10946
f85a c9 ff d0 CMP  IMM   A:ff X:78 Y:13 P:c4 S:f9 pc: f85c, reg_addr:   ff, cycle:  10948
f85c d0  3 50 BNE  REL   A:ff X:78 Y:13 P:47 S:f9 pc: f85e, reg_addr: f861, cycle:  10950
f85e 50  1 60 BVC  REL   A:ff X:78 Y:13 P:47 S:f9 pc: f860, reg_addr: f861, cycle:  10952
f860 60 84  0 RTS  IMPL  A:ff X:78 Y:13 P:47 S:f9 pc: dca6, reg_addr:    0, cycle:  10958
dca6 c8 a9 80 INY  IMPL  A:ff X:78 Y:13 P:47 S:fb pc: dca7, reg_addr:    0, cycle:  10960
dca7 a9 80 85 LDA  IMM   A:ff X:78 Y:14 P:45 S:fb pc: dca9, reg_addr:   80, cycle:  10962
dca9 85 78 20 STA  ZP    A:80 X:78 Y:14 P:c5 S:fb pc: dcab, reg_addr:   78, cycle:  10965
dcab 20 64 f8 JSR  ABS   A:80 X:78 Y:14 P:c5 S:fb pc: f864, reg_addr: f864, cycle:  10971
f864 18 24  1 CLC  IMPL  A:80 X:78 Y:14 P:c5 S:f9 pc: f865, reg_addr:    0, cycle:  10973
f865 24  1 a9 BIT  ZP    A:80 X:78 Y:14 P:c4 S:f9 pc: f867, reg_addr:    1, cycle:  10976
f867 a9 7f 60 LDA  IMM   A:80 X:78 Y:14 P:c4 S:f9 pc: f869, reg_addr:   7f, cycle:  10978
f869 60 10  9 RTS  IMPL  A:7f X:78 Y:14 P:44 S:f9 pc: dcae, reg_addr:    0, cycle:  10984
dcae 75  0 20 ADC  ZPX   A:7f X:78 Y:14 P:44 S:fb pc: dcb0, reg_addr:   78, cycle:  10988
dcb0 20 6a f8 JSR  ABS   A:ff X:78 Y:14 P:84 S:fb pc: f86a, reg_addr: f86a, cycle:  10994
f86a 10  9 b0 BPL  REL   A:ff X:78 Y:14 P:84 S:f9 pc: f86c, reg_addr: f875, cycle:  10996
f86c b0  7 c9 BCS  REL   A:ff X:78 Y:14 P:84 S:f9 pc: f86e, reg_addr: f875, cycle:  10998
f86e c9 ff d0 CMP  IMM   A:ff X:78 Y:14 P:84 S:f9 pc: f870, reg_addr:   ff, cycle:  11000
f870 d0  3 70 BNE  REL   A:ff X:78 Y:14 P: 7 S:f9 pc: f872, reg_addr: f875, cycle:  11002
f872 70  1 60 BVS  REL   A:ff X:78 Y:14 P: 7 S:f9 pc: f874, reg_addr: f875, cycle:  11004
f874 60 84  0 RTS  IMPL  A:ff X:78 Y:14 P: 7 S:f9 pc: dcb3, reg_addr:    0, cycle:  11010
dcb3 c8 20 78 INY  IMPL  A:ff X:78 Y:14 P: 7 S:fb pc: dcb4, reg_addr:    0, cycle:  11012
dcb4 20 78 f8 JSR  ABS   A:ff X:78 Y:15 P: 5 S:fb pc: f878, reg_addr: f878, cycle:  11018
f878 38 b8 a9 SEC  IMPL  A:ff X:78 Y:15 P: 5 S:f9 pc: f879, reg_addr:    0, cycle:  11020
f879 b8 a9 7f CLV  IMPL  A:ff X:78 Y:15 P: 5 S:f9 pc: f87a, reg_addr:    0, cycle:  11022
f87a a9 7f 60 LDA  IMM   A:ff X:78 Y:15 P: 5 S:f9 pc: f87c, reg_addr:   7f, cycle:  11024
f87c 60 d0  7 RTS  IMPL  A:7f X:78 Y:15 P: 5 S:f9 pc: dcb7, reg_addr:    0, cycle:  11030
dcb7 75  0 20 ADC  ZPX   A:7f X:78 Y:15 P: 5 S:fb pc: dcb9, reg_addr:   78, cycle:  11034
dcb9 20 7d f8 JSR  ABS   A: 0 X:78 Y:15 P: 7 S:fb pc: f87d, reg_addr: f87d, cycle:  11040
f87d d0  7 30 BNE  REL   A: 0 X:78 Y:15 P: 7 S:f9 pc: f87f, reg_addr: f886, cycle:  11042
f87f 30  5 70 BMI  REL   A: 0 X:78 Y:15 P: 7 S:f9 pc: f881, reg_addr: f886, cycle:  11044
f881 70  3 90 BVS  REL   A: 0 X:78 Y:15 P: 7 S:f9 pc: f883, reg_addr: f886, cycle:  11046
f883 90  1 60 BCC  REL   A: 0 X:78 Y:15 P: 7 S:f9 pc: f885, reg_addr: f886, cycle:  11048
f885 60 84  0 RTS  IMPL  A: 0 X:78 Y:15 P: 7 S:f9 pc: dcbc, reg_addr:    0, cycle:  11054
dcbc c8 a9 40 INY  IMPL  A: 0 X:78 Y:15 P: 7 S:fb pc: dcbd, reg_addr:    0, cycle:  11056
dcbd a9 40 85 LDA  IMM   A: 0 X:78 Y:16 P: 5 S:fb pc: dcbf, reg_addr:   40, cycle:  11058
dcbf 85 78 20 STA  ZP    A:40 X:78 Y:16 P: 5 S:fb pc: dcc1, reg_addr:   78, cycle:  11061
dcc1 20 89 f8 JSR  ABS   A:40 X:78 Y:16 P: 5 S:fb pc: f889, reg_addr: f889, cycle:  11067
f889 24  1 a9 BIT  ZP    A:40 X:78 Y:16 P: 5 S:f9 pc: f88b, reg_addr:    1, cycle:  11070
f88b a9 40 60 LDA  IMM   A:40 X:78 Y:16 P:c5 S:f9 pc: f88d, reg_addr:   40, cycle:  11072
f88d 60 30  7 RTS  IMPL  A:40 X:78 Y:16 P:45 S:f9 pc: dcc4, reg_addr:    0, cycle:  11078
dcc4 d5  0 20 CMP  ZPX   A:40 X:78 Y:16 P:45 S:fb pc: dcc6, reg_addr:   78, cycle:  11082
dcc6 20 8e f8 JSR  ABS   A:40 X:78 Y:16 P:47 S:fb pc: f88e, reg_addr: f88e, cycle:  11088
f88e 30  7 90 BMI  REL   A:40 X:78 Y:16 P:47 S:f9 pc: f890, reg_addr: f897, cycle:  11090
f890 90  5 d0 BCC  REL   A:40 X:78 Y:16 P:47 S:f9 pc: f892, reg_addr: f897, cycle:  11092
f892 d0  3 50 BNE  REL   A:40 X:78 Y:16 P:47 S:f9 pc: f894, reg_addr: f897, cycle:  11094
f894 50  1 60 BVC  REL   A:40 X:78 Y:16 P:47 S:f9 pc: f896, reg_addr: f897, cycle:  11096
f896 60 84  0 RTS  IMPL  A:40 X:78 Y:16 P:47 S:f9 pc: dcc9, reg_addr:    0, cycle:  11102
dcc9 c8 48 a9 INY  IMPL  A:40 X:78 Y:16 P:47 S:fb pc: dcca, reg_addr:    0, cycle:  11104
dcca 48 a9 3f PHA  IMPL  A:40 X:78 Y:17 P:45 S:fb pc: dccb, reg_addr:    0, cycle:  11107
dccb a9 3f 85 LDA  IMM   A:40 X:78 Y:17 P:45 S:fa pc: dccd, reg_addr:   3f, cycle:  11109
dccd 85 78 68 STA  ZP    A:3f X:78 Y:17 P:45 S:fa pc: dccf, reg_addr:   78, cycle:  11112
dccf 68 20 9a PLA  IMPL  A:3f X:78 Y:17 P:45 S:fa pc: dcd0, reg_addr:    0, cycle:  11116
dcd0 20 9a f8 JSR  ABS   A:40 X:78 Y:17 P:45 S:fb pc: f89a, reg_addr: f89a, cycle:  11122
f89a b8 60 f0 CLV  IMPL  A:40 X:78 Y:17 P:45 S:f9 pc: f89b, reg_addr:    0, cycle:  11124
f89b 60 f0  7 RTS  IMPL  A:40 X:78 Y:17 P: 5 S:f9 pc: dcd3, reg_addr:    0, cycle:  11130
dcd3 d5  0 20 CMP  ZPX   A:40 X:78 Y:17 P: 5 S:fb pc: dcd5, reg_addr:   78, cycle:  11134
dcd5 20 9c f8 JSR  ABS   A:40 X:78 Y:17 P: 5 S:fb pc: f89c, reg_addr: f89c, cycle:  11140
f89c f0  7 30 BEQ  REL   A:40 X:78 Y:17 P: 5 S:f9 pc: f89e, reg_addr: f8a5, cycle:  11142
f89e 30  5 90 BMI  REL   A:40 X:78 Y:17 P: 5 S:f9 pc: f8a0, reg_addr: f8a5, cycle:  11144
f8a0 90  3 70 BCC  REL   A:40 X:78 Y:17 P: 5 S:f9 pc: f8a2, reg_addr: f8a5, cycle:  11146
f8a2 70  1 60 BVS  REL   A:40 X:78 Y:17 P: 5 S:f9 pc: f8a4, reg_addr: f8a5, cycle:  11148
f8a4 60 84  0 RTS  IMPL  A:40 X:78 Y:17 P: 5 S:f9 pc: dcd8, reg_addr:    0, cycle:  11154
dcd8 c8 48 a9 INY  IMPL  A:40 X:78 Y:17 P: 5 S:fb pc: dcd9, reg_addr:    0, cycle:  11156
dcd9 48 a9 41 PHA  IMPL  A:40 X:78 Y:18 P: 5 S:fb pc: dcda, reg_addr:    0, cycle:  11159
dcda a9 41 85 LDA  IMM   A:40 X:78 Y:18 P: 5 S:fa pc: dcdc, reg_addr:   41, cycle:  11161
dcdc 85 78 68 STA  ZP    A:41 X:78 Y:18 P: 5 S:fa pc: dcde, reg_addr:   78, cycle:  11164
dcde 68 d5  0 PLA  IMPL  A:41 X:78 Y:18 P: 5 S:fa pc: dcdf, reg_addr:    0, cycle:  11168
dcdf d5  0 20 CMP  ZPX   A:40 X:78 Y:18 P: 5 S:fb pc: dce1, reg_addr:   78, cycle:  11172
dce1 20 a8 f8 JSR  ABS   A:40 X:78 Y:18 P:84 S:fb pc: f8a8, reg_addr: f8a8, cycle:  11178
f8a8 f0  5 10 BEQ  REL   A:40 X:78 Y:18 P:84 S:f9 pc: f8aa, reg_addr: f8af, cycle:  11180
f8aa 10  3 10 BPL  REL   A:40 X:78 Y:18 P:84 S:f9 pc: f8ac, reg_addr: f8af, cycle:  11182
f8ac 10  1 60 BPL  REL   A:40 X:78 Y:18 P:84 S:f9 pc: f8ae, reg_addr: f8af, cycle:  11184
f8ae 60 84  0 RTS  IMPL  A:40 X:78 Y:18 P:84 S:f9 pc: dce4, reg_addr:    0, cycle:  11190
dce4 c8 48 a9 INY  IMPL  A:40 X:78 Y:18 P:84 S:fb pc: dce5, reg_addr:    0, cycle:  11192
dce5 48 a9  0 PHA  IMPL  A:40 X:78 Y:19 P: 4 S:fb pc: dce6, reg_addr:    0, cycle:  11195
dce6 a9  0 85 LDA  IMM   A:40 X:78 Y:19 P: 4 S:fa pc: dce8, reg_addr:    0, cycle:  11197
dce8 85 78 68 STA  ZP    A: 0 X:78 Y:19 P: 6 S:fa pc: dcea, reg_addr:   78, cycle:  11200
dcea 68 20 b2 PLA  IMPL  A: 0 X:78 Y:19 P: 6 S:fa pc: dceb, reg_addr:    0, cycle:  11204
dceb 20 b2 f8 JSR  ABS   A:40 X:78 Y:19 P: 4 S:fb pc: f8b2, reg_addr: f8b2, cycle:  11210
f8b2 a9 80 60 LDA  IMM   A:40 X:78 Y:19 P: 4 S:f9 pc: f8b4, reg_addr:   80, cycle:  11212
f8b4 60 f0  5 RTS  IMPL  A:80 X:78 Y:19 P:84 S:f9 pc: dcee, reg_addr:    0, cycle:  11218
dcee d5  0 20 CMP  ZPX   A:80 X:78 Y:19 P:84 S:fb pc: dcf0, reg_addr:   78, cycle:  11222
dcf0 20 b5 f8 JSR  ABS   A:80 X:78 Y:19 P:85 S:fb pc: f8b5, reg_addr: f8b5, cycle:  11228
f8b5 f0  5 10 BEQ  REL   A:80 X:78 Y:19 P:85 S:f9 pc: f8b7, reg_addr: f8bc, cycle:  11230
f8b7 10  3 90 BPL  REL   A:80 X:78 Y:19 P:85 S:f9 pc: f8b9, reg_addr: f8bc, cycle:  11232
f8b9 90  1 60 BCC  REL   A:80 X:78 Y:19 P:85 S:f9 pc: f8bb, reg_addr: f8bc, cycle:  11234
f8bb 60 84  0 RTS  IMPL  A:80 X:78 Y:19 P:85 S:f9 pc: dcf3, reg_addr:    0, cycle:  11240
dcf3 c8 48 a9 INY  IMPL  A:80 X:78 Y:19 P:85 S:fb pc: dcf4, reg_addr:    0, cycle:  11242
dcf4 48 a9 80 PHA  IMPL  A:80 X:78 Y:1a P: 5 S:fb pc: dcf5, reg_addr:    0, cycle:  11245
dcf5 a9 80 85 LDA  IMM   A:80 X:78 Y:1a P: 5 S:fa pc: dcf7, reg_addr:   80, cycle:  11247
dcf7 85 78 68 STA  ZP    A:80 X:78 Y:1a P:85 S:fa pc: dcf9, reg_addr:   78, cycle:  11250
dcf9 68 d5  0 PLA  IMPL  A:80 X:78 Y:1a P:85 S:fa pc: dcfa, reg_addr:    0, cycle:  11254
dcfa d5  0 20 CMP  ZPX   A:80 X:78 Y:1a P:85 S:fb pc: dcfc, reg_addr:   78, cycle:  11258
dcfc 20 bf f8 JSR  ABS   A:80 X:78 Y:1a P: 7 S:fb pc: f8bf, reg_addr: f8bf, cycle:  11264
f8bf d0  5 30 BNE  REL   A:80 X:78 Y:1a P: 7 S:f9 pc: f8c1, reg_addr: f8c6, cycle:  11266
f8c1 30  3 90 BMI  REL   A:80 X:78 Y:1a P: 7 S:f9 pc: f8c3, reg_addr: f8c6, cycle:  11268
f8c3 90  1 60 BCC  REL   A:80 X:78 Y:1a P: 7 S:f9 pc: f8c5, reg_addr: f8c6, cycle:  11270
f8c5 60 84  0 RTS  IMPL  A:80 X:78 Y:1a P: 7 S:f9 pc: dcff, reg_addr:    0, cycle:  11276
dcff c8 48 a9 INY  IMPL  A:80 X:78 Y:1a P: 7 S:fb pc: dd00, reg_addr:    0, cycle:  11278
dd00 48 a9 81 PHA  IMPL  A:80 X:78 Y:1b P: 5 S:fb pc: dd01, reg_addr:    0, cycle:  11281
dd01 a9 81 85 LDA  IMM   A:80 X:78 Y:1b P: 5 S:fa pc: dd03, reg_addr:   81, cycle:  11283
dd03 85 78 68 STA  ZP    A:81 X:78 Y:1b P:85 S:fa pc: dd05, reg_addr:   78, cycle:  11286
dd05 68 d5  0 PLA  IMPL  A:81 X:78 Y:1b P:85 S:fa pc: dd06, reg_addr:    0, cycle:  11290
dd06 d5  0 20 CMP  ZPX   A:80 X:78 Y:1b P:85 S:fb pc: dd08, reg_addr:   78, cycle:  11294
dd08 20 c9 f8 JSR  ABS   A:80 X:78 Y:1b P:84 S:fb pc: f8c9, reg_addr: f8c9, cycle:  11300
f8c9 b0  5 f0 BCS  REL   A:80 X:78 Y:1b P:84 S:f9 pc: f8cb, reg_addr: f8d0, cycle:  11302
f8cb f0  3 10 BEQ  REL   A:80 X:78 Y:1b P:84 S:f9 pc: f8cd, reg_addr: f8d0, cycle:  11304
f8cd 10  1 60 BPL  REL   A:80 X:78 Y:1b P:84 S:f9 pc: f8cf, reg_addr: f8d0, cycle:  11306
f8cf 60 84  0 RTS  IMPL  A:80 X:78 Y:1b P:84 S:f9 pc: dd0b, reg_addr:    0, cycle:  11312
dd0b c8 48 a9 INY  IMPL  A:80 X:78 Y:1b P:84 S:fb pc: dd0c, reg_addr:    0, cycle:  11314
dd0c 48 a9 7f PHA  IMPL  A:80 X:78 Y:1c P: 4 S:fb pc: dd0d, reg_addr:    0, cycle:  11317
dd0d a9 7f 85 LDA  IMM   A:80 X:78 Y:1c P: 4 S:fa pc: dd0f, reg_addr:   7f, cycle:  11319
dd0f 85 78 68 STA  ZP    A:7f X:78 Y:1c P: 4 S:fa pc: dd11, reg_addr:   78, cycle:  11322
dd11 68 d5  0 PLA  IMPL  A:7f X:78 Y:1c P: 4 S:fa pc: dd12, reg_addr:    0, cycle:  11326
dd12 d5  0 20 CMP  ZPX   A:80 X:78 Y:1c P:84 S:fb pc: dd14, reg_addr:   78, cycle:  11330
dd14 20 d3 f8 JSR  ABS   A:80 X:78 Y:1c P: 5 S:fb pc: f8d3, reg_addr: f8d3, cycle:  11336
f8d3 90  5 f0 BCC  REL   A:80 X:78 Y:1c P: 5 S:f9 pc: f8d5, reg_addr: f8da, cycle:  11338
f8d5 f0  3 30 BEQ  REL   A:80 X:78 Y:1c P: 5 S:f9 pc: f8d7, reg_addr: f8da, cycle:  11340
f8d7 30  1 60 BMI  REL   A:80 X:78 Y:1c P: 5 S:f9 pc: f8d9, reg_addr: f8da, cycle:  11342
f8d9 60 84  0 RTS  IMPL  A:80 X:78 Y:1c P: 5 S:f9 pc: dd17, reg_addr:    0, cycle:  11348
dd17 c8 a9 40 INY  IMPL  A:80 X:78 Y:1c P: 5 S:fb pc: dd18, reg_addr:    0, cycle:  11350
dd18 a9 40 85 LDA  IMM   A:80 X:78 Y:1d P: 5 S:fb pc: dd1a, reg_addr:   40, cycle:  11352
dd1a 85 78 20 STA  ZP    A:40 X:78 Y:1d P: 5 S:fb pc: dd1c, reg_addr:   78, cycle:  11355
dd1c 20 31 f9 JSR  ABS   A:40 X:78 Y:1d P: 5 S:fb pc: f931, reg_addr: f931, cycle:  11361
f931 24  1 a9 BIT  ZP    A:40 X:78 Y:1d P: 5 S:f9 pc: f933, reg_addr:    1, cycle:  11364
f933 a9 40 38 LDA  IMM   A:40 X:78 Y:1d P:c5 S:f9 pc: f935, reg_addr:   40, cycle:  11366
f935 38 60 30 SEC  IMPL  A:40 X:78 Y:1d P:45 S:f9 pc: f936, reg_addr:    0, cycle:  11368
f936 60 30  b RTS  IMPL  A:40 X:78 Y:1d P:45 S:f9 pc: dd1f, reg_addr:    0, cycle:  11374
dd1f f5  0 20 SBC  ZPX   A:40 X:78 Y:1d P:45 S:fb pc: dd21, reg_addr:   78, cycle:  11378
dd21 20 37 f9 JSR  ABS   A: 0 X:78 Y:1d P: 7 S:fb pc: f937, reg_addr: f937, cycle:  11384
f937 30  b 90 BMI  REL   A: 0 X:78 Y:1d P: 7 S:f9 pc: f939, reg_addr: f944, cycle:  11386
f939 90  9 d0 BCC  REL   A: 0 X:78 Y:1d P: 7 S:f9 pc: f93b, reg_addr: f944, cycle:  11388
f93b d0  7 70 BNE  REL   A: 0 X:78 Y:1d P: 7 S:f9 pc: f93d, reg_addr: f944, cycle:  11390
f93d 70  5 c9 BVS  REL   A: 0 X:78 Y:1d P: 7 S:f9 pc: f93f, reg_addr: f944, cycle:  11392
f93f c9  0 d0 CMP  IMM   A: 0 X:78 Y:1d P: 7 S:f9 pc: f941, reg_addr:    0, cycle:  11394
f941 d0  1 60 BNE  REL   A: 0 X:78 Y:1d P: 7 S:f9 pc: f943, reg_addr: f944, cycle:  11396
f943 60 84  0 RTS  IMPL  A: 0 X:78 Y:1d P: 7 S:f9 pc: dd24, reg_addr:    0, cycle:  11402
dd24 c8 a9 3f INY  IMPL  A: 0 X:78 Y:1d P: 7 S:fb pc: dd25, reg_addr:    0, cycle:  11404
dd25 a9 3f 85 LDA  IMM   A: 0 X:78 Y:1e P: 5 S:fb pc: dd27, reg_addr:   3f, cycle:  11406
dd27 85 78 20 STA  ZP    A:3f X:78 Y:1e P: 5 S:fb pc: dd29, reg_addr:   78, cycle:  11409
dd29 20 47 f9 JSR  ABS   A:3f X:78 Y:1e P: 5 S:fb pc: f947, reg_addr: f947, cycle:  11415
f947 b8 38 a9 CLV  IMPL  A:3f X:78 Y:1e P: 5 S:f9 pc: f948, reg_addr:    0, cycle:  11417
f948 38 a9 40 SEC  IMPL  A:3f X:78 Y:1e P: 5 S:f9 pc: f949, reg_addr:    0, cycle:  11419
f949 a9 40 60 LDA  IMM   A:3f X:78 Y:1e P: 5 S:f9 pc: f94b, reg_addr:   40, cycle:  11421
f94b 60 f0  b RTS  IMPL  A:40 X:78 Y:1e P: 5 S:f9 pc: dd2c, reg_addr:    0, cycle:  11427
dd2c f5  0 20 SBC  ZPX   A:40 X:78 Y:1e P: 5 S:fb pc: dd2e, reg_addr:   78, cycle:  11431
dd2e 20 4c f9 JSR  ABS   A: 1 X:78 Y:1e P: 5 S:fb pc: f94c, reg_addr: f94c, cycle:  11437
f94c f0  b 30 BEQ  REL   A: 1 X:78 Y:1e P: 5 S:f9 pc: f94e, reg_addr: f959, cycle:  11439
f94e 30  9 90 BMI  REL   A: 1 X:78 Y:1e P: 5 S:f9 pc: f950, reg_addr: f959, cycle:  11441
f950 90  7 70 BCC  REL   A: 1 X:78 Y:1e P: 5 S:f9 pc: f952, reg_addr: f959, cycle:  11443
f952 70  5 c9 BVS  REL   A: 1 X:78 Y:1e P: 5 S:f9 pc: f954, reg_addr: f959, cycle:  11445
f954 c9  1 d0 CMP  IMM   A: 1 X:78 Y:1e P: 5 S:f9 pc: f956, reg_addr:    1, cycle:  11447
f956 d0  1 60 BNE  REL   A: 1 X:78 Y:1e P: 7 S:f9 pc: f958, reg_addr: f959, cycle:  11449
f958 60 84  0 RTS  IMPL  A: 1 X:78 Y:1e P: 7 S:f9 pc: dd31, reg_addr:    0, cycle:  11455
dd31 c8 a9 41 INY  IMPL  A: 1 X:78 Y:1e P: 7 S:fb pc: dd32, reg_addr:    0, cycle:  11457
dd32 a9 41 85 LDA  IMM   A: 1 X:78 Y:1f P: 5 S:fb pc: dd34, reg_addr:   41, cycle:  11459
dd34 85 78 20 STA  ZP    A:41 X:78 Y:1f P: 5 S:fb pc: dd36, reg_addr:   78, cycle:  11462
dd36 20 5c f9 JSR  ABS   A:41 X:78 Y:1f P: 5 S:fb pc: f95c, reg_addr: f95c, cycle:  11468
f95c a9 40 38 LDA  IMM   A:41 X:78 Y:1f P: 5 S:f9 pc: f95e, reg_addr:   40, cycle:  11470
f95e 38 24  1 SEC  IMPL  A:40 X:78 Y:1f P: 5 S:f9 pc: f95f, reg_addr:    0, cycle:  11472
f95f 24  1 60 BIT  ZP    A:40 X:78 Y:1f P: 5 S:f9 pc: f961, reg_addr:    1, cycle:  11475
f961 60 b0  b RTS  IMPL  A:40 X:78 Y:1f P:c5 S:f9 pc: dd39, reg_addr:    0, cycle:  11481
dd39 f5  0 20 SBC  ZPX   A:40 X:78 Y:1f P:c5 S:fb pc: dd3b, reg_addr:   78, cycle:  11485
dd3b 20 62 f9 JSR  ABS   A:ff X:78 Y:1f P:84 S:fb pc: f962, reg_addr: f962, cycle:  11491
f962 b0  b f0 BCS  REL   A:ff X:78 Y:1f P:84 S:f9 pc: f964, reg_addr: f96f, cycle:  11493
f964 f0  9 10 BEQ  REL   A:ff X:78 Y:1f P:84 S:f9 pc: f966, reg_addr: f96f, cycle:  11495
f966 10  7 70 BPL  REL   A:ff X:78 Y:1f P:84 S:f9 pc: f968, reg_addr: f96f, cycle:  11497
f968 70  5 c9 BVS  REL   A:ff X:78 Y:1f P:84 S:f9 pc: f96a, reg_addr: f96f, cycle:  11499
f96a c9 ff d0 CMP  IMM   A:ff X:78 Y:1f P:84 S:f9 pc: f96c, reg_addr:   ff, cycle:  11501
f96c d0  1 60 BNE  REL   A:ff X:78 Y:1f P: 7 S:f9 pc: f96e, reg_addr: f96f, cycle:  11503
f96e 60 84  0 RTS  IMPL  A:ff X:78 Y:1f P: 7 S:f9 pc: dd3e, reg_addr:    0, cycle:  11509
dd3e c8 a9  0 INY  IMPL  A:ff X:78 Y:1f P: 7 S:fb pc: dd3f, reg_addr:    0, cycle:  11511
dd3f a9  0 85 LDA  IMM   A:ff X:78 Y:20 P: 5 S:fb pc: dd41, reg_addr:    0, cycle:  11513
dd41 85 78 20 STA  ZP    A: 0 X:78 Y:20 P: 7 S:fb pc: dd43, reg_addr:   78, cycle:  11516
dd43 20 72 f9 JSR  ABS   A: 0 X:78 Y:20 P: 7 S:fb pc: f972, reg_addr: f972, cycle:  11522
f972 18 a9 80 CLC  IMPL  A: 0 X:78 Y:20 P: 7 S:f9 pc: f973, reg_addr:    0, cycle:  11524
f973 a9 80 60 LDA  IMM   A: 0 X:78 Y:20 P: 6 S:f9 pc: f975, reg_addr:   80, cycle:  11526
f975 60 90  5 RTS  IMPL  A:80 X:78 Y:20 P:84 S:f9 pc: dd46, reg_addr:    0, cycle:  11532
dd46 f5  0 20 SBC  ZPX   A:80 X:78 Y:20 P:84 S:fb pc: dd48, reg_addr:   78, cycle:  11536
dd48 20 76 f9 JSR  ABS   A:7f X:78 Y:20 P:45 S:fb pc: f976, reg_addr: f976, cycle:  11542
f976 90  5 c9 BCC  REL   A:7f X:78 Y:20 P:45 S:f9 pc: f978, reg_addr: f97d, cycle:  11544
f978 c9 7f d0 CMP  IMM   A:7f X:78 Y:20 P:45 S:f9 pc: f97a, reg_addr:   7f, cycle:  11546
f97a d0  1 60 BNE  REL   A:7f X:78 Y:20 P:47 S:f9 pc: f97c, reg_addr: f97d, cycle:  11548
f97c 60 84  0 RTS  IMPL  A:7f X:78 Y:20 P:47 S:f9 pc: dd4b, reg_addr:    0, cycle:  11554
dd4b c8 a9 7f INY  IMPL  A:7f X:78 Y:20 P:47 S:fb pc: dd4c, reg_addr:    0, cycle:  11556
dd4c a9 7f 85 LDA  IMM   A:7f X:78 Y:21 P:45 S:fb pc: dd4e, reg_addr:   7f, cycle:  11558
dd4e 85 78 20 STA  ZP    A:7f X:78 Y:21 P:45 S:fb pc: dd50, reg_addr:   78, cycle:  11561
dd50 20 80 f9 JSR  ABS   A:7f X:78 Y:21 P:45 S:fb pc: f980, reg_addr: f980, cycle:  11567
f980 38 a9 81 SEC  IMPL  A:7f X:78 Y:21 P:45 S:f9 pc: f981, reg_addr:    0, cycle:  11569
f981 a9 81 60 LDA  IMM   A:7f X:78 Y:21 P:45 S:f9 pc: f983, reg_addr:   81, cycle:  11571
f983 60 50  7 RTS  IMPL  A:81 X:78 Y:21 P:c5 S:f9 pc: dd53, reg_addr:    0, cycle:  11577
dd53 f5  0 20 SBC  ZPX   A:81 X:78 Y:21 P:c5 S:fb pc: dd55, reg_addr:   78, cycle:  11581
dd55 20 84 f9 JSR  ABS   A: 2 X:78 Y:21 P:45 S:fb pc: f984, reg_addr: f984, cycle:  11587
f984 50  7 90 BVC  REL   A: 2 X:78 Y:21 P:45 S:f9 pc: f986, reg_addr: f98d, cycle:  11589
f986 90  5 c9 BCC  REL   A: 2 X:78 Y:21 P:45 S:f9 pc: f988, reg_addr: f98d, cycle:  11591
f988 c9  2 d0 CMP  IMM   A: 2 X:78 Y:21 P:45 S:f9 pc: f98a, reg_addr:    2, cycle:  11593
f98a d0  1 60 BNE  REL   A: 2 X:78 Y:21 P:47 S:f9 pc: f98c, reg_addr: f98d, cycle:  11595
f98c 60 84  0 RTS  IMPL  A: 2 X:78 Y:21 P:47 S:f9 pc: dd58, reg_addr:    0, cycle:  11601
dd58 a9 aa 85 LDA  IMM   A: 2 X:78 Y:21 P:47 S:fb pc: dd5a, reg_addr:   aa, cycle:  11603
dd5a 85 33 a9 STA  ZP    A:aa X:78 Y:21 P:c5 S:fb pc: dd5c, reg_addr:   33, cycle:  11606
dd5c a9 bb 85 LDA  IMM   A:aa X:78 Y:21 P:c5 S:fb pc: dd5e, reg_addr:   bb, cycle:  11608
dd5e 85 89 a2 STA  ZP    A:bb X:78 Y:21 P:c5 S:fb pc: dd60, reg_addr:   89, cycle:  11611
dd60 a2  0 a0 LDX  IMM   A:bb X:78 Y:21 P:c5 S:fb pc: dd62, reg_addr:    0, cycle:  11613
dd62 a0 66 24 LDY  IMM   A:bb X: 0 Y:21 P:47 S:fb pc: dd64, reg_addr:   66, cycle:  11615
dd64 24  1 38 BIT  ZP    A:bb X: 0 Y:66 P:45 S:fb pc: dd66, reg_addr:    1, cycle:  11618
dd66 38 a9  0 SEC  IMPL  A:bb X: 0 Y:66 P:c5 S:fb pc: dd67, reg_addr:    0, cycle:  11620
dd67 a9  0 b5 LDA  IMM   A:bb X: 0 Y:66 P:c5 S:fb pc: dd69, reg_addr:    0, cycle:  11622
dd69 b5 33 10 LDA  ZPX   A: 0 X: 0 Y:66 P:47 S:fb pc: dd6b, reg_addr:   33, cycle:  11626
dd6b 10 12 f0 BPL  REL   A:aa X: 0 Y:66 P:c5 S:fb pc: dd6d, reg_addr: dd7f, cycle:  11628
dd6d f0 10 50 BEQ  REL   A:aa X: 0 Y:66 P:c5 S:fb pc: dd6f, reg_addr: dd7f, cycle:  11630
dd6f 50  e 90 BVC  REL   A:aa X: 0 Y:66 P:c5 S:fb pc: dd71, reg_addr: dd7f, cycle:  11632
dd71 90  c c0 BCC  REL   A:aa X: 0 Y:66 P:c5 S:fb pc: dd73, reg_addr: dd7f, cycle:  11634
dd73 c0 66 d0 CPY  IMM   A:aa X: 0 Y:66 P:c5 S:fb pc: dd75, reg_addr:   66, cycle:  11636
dd75 d0  8 e0 BNE  REL   A:aa X: 0 Y:66 P:47 S:fb pc: dd77, reg_addr: dd7f, cycle:  11638
dd77 e0  0 d0 CPX  IMM   A:aa X: 0 Y:66 P:47 S:fb pc: dd79, reg_addr:    0, cycle:  11640
dd79 d0  4 c9 BNE  REL   A:aa X: 0 Y:66 P:47 S:fb pc: dd7b, reg_addr: dd7f, cycle:  11642
dd7b c9 aa f0 CMP  IMM   A:aa X: 0 Y:66 P:47 S:fb pc: dd7d, reg_addr:   aa, cycle:  11644
dd7d f0  4 a9 BEQ  REL   A:aa X: 0 Y:66 P:47 S:fb pc: dd83, reg_addr: dd83, cycle:  11647
dd83 a2 8a a0 LDX  IMM   A:aa X: 0 Y:66 P:47 S:fb pc: dd85, reg_addr:   8a, cycle:  11649
dd85 a0 66 b8 LDY  IMM   A:aa X:8a Y:66 P:c5 S:fb pc: dd87, reg_addr:   66, cycle:  11651
dd87 b8 18 a9 CLV  IMPL  A:aa X:8a Y:66 P:45 S:fb pc: dd88, reg_addr:    0, cycle:  11653
dd88 18 a9  0 CLC  IMPL  A:aa X:8a Y:66 P: 5 S:fb pc: dd89, reg_addr:    0, cycle:  11655
dd89 a9  0 b5 LDA  IMM   A:aa X:8a Y:66 P: 4 S:fb pc: dd8b, reg_addr:    0, cycle:  11657
dd8b b5 ff 10 LDA  ZPX   A: 0 X:8a Y:66 P: 6 S:fb pc: dd8d, reg_addr:   89, cycle:  11661
dd8d 10 12 f0 BPL  REL   A:bb X:8a Y:66 P:84 S:fb pc: dd8f, reg_addr: dda1, cycle:  11663
dd8f f0 10 70 BEQ  REL   A:bb X:8a Y:66 P:84 S:fb pc: dd91, reg_addr: dda1, cycle:  11665
dd91 70  e b0 BVS  REL   A:bb X:8a Y:66 P:84 S:fb pc: dd93, reg_addr: dda1, cycle:  11667
dd93 b0  c c9 BCS  REL   A:bb X:8a Y:66 P:84 S:fb pc: dd95, reg_addr: dda1, cycle:  11669
dd95 c9 bb d0 CMP  IMM   A:bb X:8a Y:66 P:84 S:fb pc: dd97, reg_addr:   bb, cycle:  11671
dd97 d0  8 c0 BNE  REL   A:bb X:8a Y:66 P: 7 S:fb pc: dd99, reg_addr: dda1, cycle:  11673
dd99 c0 66 d0 CPY  IMM   A:bb X:8a Y:66 P: 7 S:fb pc: dd9b, reg_addr:   66, cycle:  11675
dd9b d0  4 e0 BNE  REL   A:bb X:8a Y:66 P: 7 S:fb pc: dd9d, reg_addr: dda1, cycle:  11677
dd9d e0 8a f0 CPX  IMM   A:bb X:8a Y:66 P: 7 S:fb pc: dd9f, reg_addr:   8a, cycle:  11679
dd9f f0  4 a9 BEQ  REL   A:bb X:8a Y:66 P: 7 S:fb pc: dda5, reg_addr: dda5, cycle:  11682
dda5 24  1 38 BIT  ZP    A:bb X:8a Y:66 P: 7 S:fb pc: dda7, reg_addr:    1, cycle:  11685
dda7 38 a9 44 SEC  IMPL  A:bb X:8a Y:66 P:c5 S:fb pc: dda8, reg_addr:    0, cycle:  11687
dda8 a9 44 a2 LDA  IMM   A:bb X:8a Y:66 P:c5 S:fb pc: ddaa, reg_addr:   44, cycle:  11689
ddaa a2  0 95 LDX  IMM   A:44 X:8a Y:66 P:45 S:fb pc: ddac, reg_addr:    0, cycle:  11691
ddac 95 33 a5 STA  ZPX   A:44 X: 0 Y:66 P:47 S:fb pc: ddae, reg_addr:   33, cycle:  11695
ddae a5 33 90 LDA  ZP    A:44 X: 0 Y:66 P:47 S:fb pc: ddb0, reg_addr:   33, cycle:  11698
ddb0 90 18 c9 BCC  REL   A:44 X: 0 Y:66 P:45 S:fb pc: ddb2, reg_addr: ddca, cycle:  11700
ddb2 c9 44 d0 CMP  IMM   A:44 X: 0 Y:66 P:45 S:fb pc: ddb4, reg_addr:   44, cycle:  11702
ddb4 d0 14 50 BNE  REL   A:44 X: 0 Y:66 P:47 S:fb pc: ddb6, reg_addr: ddca, cycle:  11704
ddb6 50 12 18 BVC  REL   A:44 X: 0 Y:66 P:47 S:fb pc: ddb8, reg_addr: ddca, cycle:  11706
ddb8 18 b8 a9 CLC  IMPL  A:44 X: 0 Y:66 P:47 S:fb pc: ddb9, reg_addr:    0, cycle:  11708
ddb9 b8 a9 99 CLV  IMPL  A:44 X: 0 Y:66 P:46 S:fb pc: ddba, reg_addr:    0, cycle:  11710
ddba a9 99 a2 LDA  IMM   A:44 X: 0 Y:66 P: 6 S:fb pc: ddbc, reg_addr:   99, cycle:  11712
ddbc a2 80 95 LDX  IMM   A:99 X: 0 Y:66 P:84 S:fb pc: ddbe, reg_addr:   80, cycle:  11714
ddbe 95 85 a5 STA  ZPX   A:99 X:80 Y:66 P:84 S:fb pc: ddc0, reg_addr:    5, cycle:  11718
ddc0 a5  5 b0 LDA  ZP    A:99 X:80 Y:66 P:84 S:fb pc: ddc2, reg_addr:    5, cycle:  11721
ddc2 b0  6 c9 BCS  REL   A:99 X:80 Y:66 P:84 S:fb pc: ddc4, reg_addr: ddca, cycle:  11723
ddc4 c9 99 d0 CMP  IMM   A:99 X:80 Y:66 P:84 S:fb pc: ddc6, reg_addr:   99, cycle:  11725
ddc6 d0  2 50 BNE  REL   A:99 X:80 Y:66 P: 7 S:fb pc: ddc8, reg_addr: ddca, cycle:  11727
ddc8 50  4 a9 BVC  REL   A:99 X:80 Y:66 P: 7 S:fb pc: ddce, reg_addr: ddce, cycle:  11730
ddce a0 25 a2 LDY  IMM   A:99 X:80 Y:66 P: 7 S:fb pc: ddd0, reg_addr:   25, cycle:  11732
ddd0 a2 78 20 LDX  IMM   A:99 X:80 Y:25 P: 5 S:fb pc: ddd2, reg_addr:   78, cycle:  11734
ddd2 20 90 f9 JSR  ABS   A:99 X:78 Y:25 P: 5 S:fb pc: f990, reg_addr: f990, cycle:  11740
f990 a2 55 a9 LDX  IMM   A:99 X:78 Y:25 P: 5 S:f9 pc: f992, reg_addr:   55, cycle:  11742
f992 a9 ff 85 LDA  IMM   A:99 X:55 Y:25 P: 5 S:f9 pc: f994, reg_addr:   ff, cycle:  11744
f994 85  1 ea STA  ZP    A:ff X:55 Y:25 P:85 S:f9 pc: f996, reg_addr:    1, cycle:  11747
f996 ea 24  1 NOP  IMPL  A:ff X:55 Y:25 P:85 S:f9 pc: f997, reg_addr:    0, cycle:  11749
f997 24  1 38 BIT  ZP    A:ff X:55 Y:25 P:85 S:f9 pc: f999, reg_addr:    1, cycle:  11752
f999 38 a9  1 SEC  IMPL  A:ff X:55 Y:25 P:c5 S:f9 pc: f99a, reg_addr:    0, cycle:  11754
f99a a9  1 60 LDA  IMM   A:ff X:55 Y:25 P:c5 S:f9 pc: f99c, reg_addr:    1, cycle:  11756
f99c 60 90 1b RTS  IMPL  A: 1 X:55 Y:25 P:45 S:f9 pc: ddd5, reg_addr:    0, cycle:  11762
ddd5 95  0 56 STA  ZPX   A: 1 X:55 Y:25 P:45 S:fb pc: ddd7, reg_addr:   55, cycle:  11766
ddd7 56  0 b5 LSR  ZPX   A: 1 X:55 Y:25 P:45 S:fb pc: ddd9, reg_addr:   55, cycle:  11772
ddd9 b5  0 20 LDA  ZPX   A: 1 X:55 Y:25 P:47 S:fb pc: dddb, reg_addr:   55, cycle:  11776
dddb 20 9d f9 JSR  ABS   A: 0 X:55 Y:25 P:47 S:fb pc: f99d, reg_addr: f99d, cycle:  11782
f99d 90 1b d0 BCC  REL   A: 0 X:55 Y:25 P:47 S:f9 pc: f99f, reg_addr: f9ba, cycle:  11784
f99f d0 19 30 BNE  REL   A: 0 X:55 Y:25 P:47 S:f9 pc: f9a1, reg_addr: f9ba, cycle:  11786
f9a1 30 17 50 BMI  REL   A: 0 X:55 Y:25 P:47 S:f9 pc: f9a3, reg_addr: f9ba, cycle:  11788
f9a3 50 15 c9 BVC  REL   A: 0 X:55 Y:25 P:47 S:f9 pc: f9a5, reg_addr: f9ba, cycle:  11790
f9a5 c9  0 d0 CMP  IMM   A: 0 X:55 Y:25 P:47 S:f9 pc: f9a7, reg_addr:    0, cycle:  11792
f9a7 d0 11 b8 BNE  REL   A: 0 X:55 Y:25 P:47 S:f9 pc: f9a9, reg_addr: f9ba, cycle:  11794
f9a9 b8 a9 aa CLV  IMPL  A: 0 X:55 Y:25 P:47 S:f9 pc: f9aa, reg_addr:    0, cycle:  11796
f9aa a9 aa 60 LDA  IMM   A: 0 X:55 Y:25 P: 7 S:f9 pc: f9ac, reg_addr:   aa, cycle:  11798
f9ac 60 b0  b RTS  IMPL  A:aa X:55 Y:25 P:85 S:f9 pc: ddde, reg_addr:    0, cycle:  11804
ddde c8 95  0 INY  IMPL  A:aa X:55 Y:25 P:85 S:fb pc: dddf, reg_addr:    0, cycle:  11806
dddf 95  0 56 STA  ZPX   A:aa X:55 Y:26 P: 5 S:fb pc: dde1, reg_addr:   55, cycle:  11810
dde1 56  0 b5 LSR  ZPX   A:aa X:55 Y:26 P: 5 S:fb pc: dde3, reg_addr:   55, cycle:  11816
dde3 b5  0 20 LDA  ZPX   A:aa X:55 Y:26 P: 4 S:fb pc: dde5, reg_addr:   55, cycle:  11820
dde5 20 ad f9 JSR  ABS   A:55 X:55 Y:26 P: 4 S:fb pc: f9ad, reg_addr: f9ad, cycle:  11826
f9ad b0  b f0 BCS  REL   A:55 X:55 Y:26 P: 4 S:f9 pc: f9af, reg_addr: f9ba, cycle:  11828
f9af f0  9 30 BEQ  REL   A:55 X:55 Y:26 P: 4 S:f9 pc: f9b1, reg_addr: f9ba, cycle:  11830
f9b1 30  7 70 BMI  REL   A:55 X:55 Y:26 P: 4 S:f9 pc: f9b3, reg_addr: f9ba, cycle:  11832
f9b3 70  5 c9 BVS  REL   A:55 X:55 Y:26 P: 4 S:f9 pc: f9b5, reg_addr: f9ba, cycle:  11834
f9b5 c9 55 d0 CMP  IMM   A:55 X:55 Y:26 P: 4 S:f9 pc: f9b7, reg_addr:   55, cycle:  11836
f9b7 d0  1 60 BNE  REL   A:55 X:55 Y:26 P: 7 S:f9 pc: f9b9, reg_addr: f9ba, cycle:  11838
f9b9 60 84  0 RTS  IMPL  A:55 X:55 Y:26 P: 7 S:f9 pc: dde8, reg_addr:    0, cycle:  11844
dde8 c8 20 bd INY  IMPL  A:55 X:55 Y:26 P: 7 S:fb pc: dde9, reg_addr:    0, cycle:  11846
dde9 20 bd f9 JSR  ABS   A:55 X:55 Y:27 P: 5 S:fb pc: f9bd, reg_addr: f9bd, cycle:  11852
f9bd 24  1 38 BIT  ZP    A:55 X:55 Y:27 P: 5 S:f9 pc: f9bf, reg_addr:    1, cycle:  11855
f9bf 38 a9 80 SEC  IMPL  A:55 X:55 Y:27 P:c5 S:f9 pc: f9c0, reg_addr:    0, cycle:  11857
f9c0 a9 80 60 LDA  IMM   A:55 X:55 Y:27 P:c5 S:f9 pc: f9c2, reg_addr:   80, cycle:  11859
f9c2 60 90 1c RTS  IMPL  A:80 X:55 Y:27 P:c5 S:f9 pc: ddec, reg_addr:    0, cycle:  11865
ddec 95  0 16 STA  ZPX   A:80 X:55 Y:27 P:c5 S:fb pc: ddee, reg_addr:   55, cycle:  11869
ddee 16  0 b5 ASL  ZPX   A:80 X:55 Y:27 P:c5 S:fb pc: ddf0, reg_addr:   55, cycle:  11875
ddf0 b5  0 20 LDA  ZPX   A:80 X:55 Y:27 P:47 S:fb pc: ddf2, reg_addr:   55, cycle:  11879
ddf2 20 c3 f9 JSR  ABS   A: 0 X:55 Y:27 P:47 S:fb pc: f9c3, reg_addr: f9c3, cycle:  11885
f9c3 90 1c d0 BCC  REL   A: 0 X:55 Y:27 P:47 S:f9 pc: f9c5, reg_addr: f9e1, cycle:  11887
f9c5 d0 1a 30 BNE  REL   A: 0 X:55 Y:27 P:47 S:f9 pc: f9c7, reg_addr: f9e1, cycle:  11889
f9c7 30 18 50 BMI  REL   A: 0 X:55 Y:27 P:47 S:f9 pc: f9c9, reg_addr: f9e1, cycle:  11891
f9c9 50 16 c9 BVC  REL   A: 0 X:55 Y:27 P:47 S:f9 pc: f9cb, reg_addr: f9e1, cycle:  11893
f9cb c9  0 d0 CMP  IMM   A: 0 X:55 Y:27 P:47 S:f9 pc: f9cd, reg_addr:    0, cycle:  11895
f9cd d0 12 b8 BNE  REL   A: 0 X:55 Y:27 P:47 S:f9 pc: f9cf, reg_addr: f9e1, cycle:  11897
f9cf b8 a9 55 CLV  IMPL  A: 0 X:55 Y:27 P:47 S:f9 pc: f9d0, reg_addr:    0, cycle:  11899
f9d0 a9 55 38 LDA  IMM   A: 0 X:55 Y:27 P: 7 S:f9 pc: f9d2, reg_addr:   55, cycle:  11901
f9d2 38 60 b0 SEC  IMPL  A:55 X:55 Y:27 P: 5 S:f9 pc: f9d3, reg_addr:    0, cycle:  11903
f9d3 60 b0  b RTS  IMPL  A:55 X:55 Y:27 P: 5 S:f9 pc: ddf5, reg_addr:    0, cycle:  11909
ddf5 c8 95  0 INY  IMPL  A:55 X:55 Y:27 P: 5 S:fb pc: ddf6, reg_addr:    0, cycle:  11911
ddf6 95  0 16 STA  ZPX   A:55 X:55 Y:28 P: 5 S:fb pc: ddf8, reg_addr:   55, cycle:  11915
ddf8 16  0 b5 ASL  ZPX   A:55 X:55 Y:28 P: 5 S:fb pc: ddfa, reg_addr:   55, cycle:  11921
ddfa b5  0 20 LDA  ZPX   A:55 X:55 Y:28 P:84 S:fb pc: ddfc, reg_addr:   55, cycle:  11925
ddfc 20 d4 f9 JSR  ABS   A:aa X:55 Y:28 P:84 S:fb pc: f9d4, reg_addr: f9d4, cycle:  11931
f9d4 b0  b f0 BCS  REL   A:aa X:55 Y:28 P:84 S:f9 pc: f9d6, reg_addr: f9e1, cycle:  11933
f9d6 f0  9 10 BEQ  REL   A:aa X:55 Y:28 P:84 S:f9 pc: f9d8, reg_addr: f9e1, cycle:  11935
f9d8 10  7 70 BPL  REL   A:aa X:55 Y:28 P:84 S:f9 pc: f9da, reg_addr: f9e1, cycle:  11937
f9da 70  5 c9 BVS  REL   A:aa X:55 Y:28 P:84 S:f9 pc: f9dc, reg_addr: f9e1, cycle:  11939
f9dc c9 aa d0 CMP  IMM   A:aa X:55 Y:28 P:84 S:f9 pc: f9de, reg_addr:   aa, cycle:  11941
f9de d0  1 60 BNE  REL   A:aa X:55 Y:28 P: 7 S:f9 pc: f9e0, reg_addr: f9e1, cycle:  11943
f9e0 60 84  0 RTS  IMPL  A:aa X:55 Y:28 P: 7 S:f9 pc: ddff, reg_addr:    0, cycle:  11949
ddff c8 20 e4 INY  IMPL  A:aa X:55 Y:28 P: 7 S:fb pc: de00, reg_addr:    0, cycle:  11951
de00 20 e4 f9 JSR  ABS   A:aa X:55 Y:29 P: 5 S:fb pc: f9e4, reg_addr: f9e4, cycle:  11957
f9e4 24  1 38 BIT  ZP    A:aa X:55 Y:29 P: 5 S:f9 pc: f9e6, reg_addr:    1, cycle:  11960
f9e6 38 a9  1 SEC  IMPL  A:aa X:55 Y:29 P:c5 S:f9 pc: f9e7, reg_addr:    0, cycle:  11962
f9e7 a9  1 60 LDA  IMM   A:aa X:55 Y:29 P:c5 S:f9 pc: f9e9, reg_addr:    1, cycle:  11964
f9e9 60 90 1c RTS  IMPL  A: 1 X:55 Y:29 P:45 S:f9 pc: de03, reg_addr:    0, cycle:  11970
de03 95  0 76 STA  ZPX   A: 1 X:55 Y:29 P:45 S:fb pc: de05, reg_addr:   55, cycle:  11974
de05 76  0 b5 ROR  ZPX   A: 1 X:55 Y:29 P:45 S:fb pc: de07, reg_addr:   55, cycle:  11980
de07 b5  0 20 LDA  ZPX   A: 1 X:55 Y:29 P:c5 S:fb pc: de09, reg_addr:   55, cycle:  11984
de09 20 ea f9 JSR  ABS   A:80 X:55 Y:29 P:c5 S:fb pc: f9ea, reg_addr: f9ea, cycle:  11990
f9ea 90 1c f0 BCC  REL   A:80 X:55 Y:29 P:c5 S:f9 pc: f9ec, reg_addr: fa08, cycle:  11992
f9ec f0 1a 10 BEQ  REL   A:80 X:55 Y:29 P:c5 S:f9 pc: f9ee, reg_addr: fa08, cycle:  11994
f9ee 10 18 50 BPL  REL   A:80 X:55 Y:29 P:c5 S:f9 pc: f9f0, reg_addr: fa08, cycle:  11996
f9f0 50 16 c9 BVC  REL   A:80 X:55 Y:29 P:c5 S:f9 pc: f9f2, reg_addr: fa08, cycle:  11998
f9f2 c9 80 d0 CMP  IMM   A:80 X:55 Y:29 P:c5 S:f9 pc: f9f4, reg_addr:   80, cycle:  12000
f9f4 d0 12 b8 BNE  REL   A:80 X:55 Y:29 P:47 S:f9 pc: f9f6, reg_addr: fa08, cycle:  12002
f9f6 b8 18 a9 CLV  IMPL  A:80 X:55 Y:29 P:47 S:f9 pc: f9f7, reg_addr:    0, cycle:  12004
f9f7 18 a9 55 CLC  IMPL  A:80 X:55 Y:29 P: 7 S:f9 pc: f9f8, reg_addr:    0, cycle:  12006
f9f8 a9 55 60 LDA  IMM   A:80 X:55 Y:29 P: 6 S:f9 pc: f9fa, reg_addr:   55, cycle:  12008
f9fa 60 90  b RTS  IMPL  A:55 X:55 Y:29 P: 4 S:f9 pc: de0c, reg_addr:    0, cycle:  12014
de0c c8 95  0 INY  IMPL  A:55 X:55 Y:29 P: 4 S:fb pc: de0d, reg_addr:    0, cycle:  12016
de0d 95  0 76 STA  ZPX   A:55 X:55 Y:2a P: 4 S:fb pc: de0f, reg_addr:   55, cycle:  12020
de0f 76  0 b5 ROR  ZPX   A:55 X:55 Y:2a P: 4 S:fb pc: de11, reg_addr:   55, cycle:  12026
de11 b5  0 20 LDA  ZPX   A:55 X:55 Y:2a P: 5 S:fb pc: de13, reg_addr:   55, cycle:  12030
de13 20 fb f9 JSR  ABS   A:2a X:55 Y:2a P: 5 S:fb pc: f9fb, reg_addr: f9fb, cycle:  12036
f9fb 90  b f0 BCC  REL   A:2a X:55 Y:2a P: 5 S:f9 pc: f9fd, reg_addr: fa08, cycle:  12038
f9fd f0  9 30 BEQ  REL   A:2a X:55 Y:2a P: 5 S:f9 pc: f9ff, reg_addr: fa08, cycle:  12040
f9ff 30  7 70 BMI  REL   A:2a X:55 Y:2a P: 5 S:f9 pc: fa01, reg_addr: fa08, cycle:  12042
fa01 70  5 c9 BVS  REL   A:2a X:55 Y:2a P: 5 S:f9 pc: fa03, reg_addr: fa08, cycle:  12044
fa03 c9 2a d0 CMP  IMM   A:2a X:55 Y:2a P: 5 S:f9 pc: fa05, reg_addr:   2a, cycle:  12046
fa05 d0  1 60 BNE  REL   A:2a X:55 Y:2a P: 7 S:f9 pc: fa07, reg_addr: fa08, cycle:  12048
fa07 60 84  0 RTS  IMPL  A:2a X:55 Y:2a P: 7 S:f9 pc: de16, reg_addr:    0, cycle:  12054
de16 c8 20  a INY  IMPL  A:2a X:55 Y:2a P: 7 S:fb pc: de17, reg_addr:    0, cycle:  12056
de17 20  a fa JSR  ABS   A:2a X:55 Y:2b P: 5 S:fb pc: fa0a, reg_addr: fa0a, cycle:  12062
fa0a 24  1 38 BIT  ZP    A:2a X:55 Y:2b P: 5 S:f9 pc: fa0c, reg_addr:    1, cycle:  12065
fa0c 38 a9 80 SEC  IMPL  A:2a X:55 Y:2b P:c5 S:f9 pc: fa0d, reg_addr:    0, cycle:  12067
fa0d a9 80 60 LDA  IMM   A:2a X:55 Y:2b P:c5 S:f9 pc: fa0f, reg_addr:   80, cycle:  12069
fa0f 60 90 1c RTS  IMPL  A:80 X:55 Y:2b P:c5 S:f9 pc: de1a, reg_addr:    0, cycle:  12075
de1a 95  0 36 STA  ZPX   A:80 X:55 Y:2b P:c5 S:fb pc: de1c, reg_addr:   55, cycle:  12079
de1c 36  0 b5 ROL  ZPX   A:80 X:55 Y:2b P:c5 S:fb pc: de1e, reg_addr:   55, cycle:  12085
de1e b5  0 20 LDA  ZPX   A:80 X:55 Y:2b P:45 S:fb pc: de20, reg_addr:   55, cycle:  12089
de20 20 10 fa JSR  ABS   A: 1 X:55 Y:2b P:45 S:fb pc: fa10, reg_addr: fa10, cycle:  12095
fa10 90 1c f0 BCC  REL   A: 1 X:55 Y:2b P:45 S:f9 pc: fa12, reg_addr: fa2e, cycle:  12097
fa12 f0 1a 30 BEQ  REL   A: 1 X:55 Y:2b P:45 S:f9 pc: fa14, reg_addr: fa2e, cycle:  12099
fa14 30 18 50 BMI  REL   A: 1 X:55 Y:2b P:45 S:f9 pc: fa16, reg_addr: fa2e, cycle:  12101
fa16 50 16 c9 BVC  REL   A: 1 X:55 Y:2b P:45 S:f9 pc: fa18, reg_addr: fa2e, cycle:  12103
fa18 c9  1 d0 CMP  IMM   A: 1 X:55 Y:2b P:45 S:f9 pc: fa1a, reg_addr:    1, cycle:  12105
fa1a d0 12 b8 BNE  REL   A: 1 X:55 Y:2b P:47 S:f9 pc: fa1c, reg_addr: fa2e, cycle:  12107
fa1c b8 18 a9 CLV  IMPL  A: 1 X:55 Y:2b P:47 S:f9 pc: fa1d, reg_addr:    0, cycle:  12109
fa1d 18 a9 55 CLC  IMPL  A: 1 X:55 Y:2b P: 7 S:f9 pc: fa1e, reg_addr:    0, cycle:  12111
fa1e a9 55 60 LDA  IMM   A: 1 X:55 Y:2b P: 6 S:f9 pc: fa20, reg_addr:   55, cycle:  12113
fa20 60 b0  b RTS  IMPL  A:55 X:55 Y:2b P: 4 S:f9 pc: de23, reg_addr:    0, cycle:  12119
de23 c8 95  0 INY  IMPL  A:55 X:55 Y:2b P: 4 S:fb pc: de24, reg_addr:    0, cycle:  12121
de24 95  0 36 STA  ZPX   A:55 X:55 Y:2c P: 4 S:fb pc: de26, reg_addr:   55, cycle:  12125
de26 36  0 b5 ROL  ZPX   A:55 X:55 Y:2c P: 4 S:fb pc: de28, reg_addr:   55, cycle:  12131
de28 b5  0 20 LDA  ZPX   A:55 X:55 Y:2c P:84 S:fb pc: de2a, reg_addr:   55, cycle:  12135
de2a 20 21 fa JSR  ABS   A:aa X:55 Y:2c P:84 S:fb pc: fa21, reg_addr: fa21, cycle:  12141
fa21 b0  b f0 BCS  REL   A:aa X:55 Y:2c P:84 S:f9 pc: fa23, reg_addr: fa2e, cycle:  12143
fa23 f0  9 10 BEQ  REL   A:aa X:55 Y:2c P:84 S:f9 pc: fa25, reg_addr: fa2e, cycle:  12145
fa25 10  7 70 BPL  REL   A:aa X:55 Y:2c P:84 S:f9 pc: fa27, reg_addr: fa2e, cycle:  12147
fa27 70  5 c9 BVS  REL   A:aa X:55 Y:2c P:84 S:f9 pc: fa29, reg_addr: fa2e, cycle:  12149
fa29 c9 aa d0 CMP  IMM   A:aa X:55 Y:2c P:84 S:f9 pc: fa2b, reg_addr:   aa, cycle:  12151
fa2b d0  1 60 BNE  REL   A:aa X:55 Y:2c P: 7 S:f9 pc: fa2d, reg_addr: fa2e, cycle:  12153
fa2d 60 84  0 RTS  IMPL  A:aa X:55 Y:2c P: 7 S:f9 pc: de2d, reg_addr:    0, cycle:  12159
de2d a9 ff 95 LDA  IMM   A:aa X:55 Y:2c P: 7 S:fb pc: de2f, reg_addr:   ff, cycle:  12161
de2f 95  0 85 STA  ZPX   A:ff X:55 Y:2c P:85 S:fb pc: de31, reg_addr:   55, cycle:  12165
de31 85  1 24 STA  ZP    A:ff X:55 Y:2c P:85 S:fb pc: de33, reg_addr:    1, cycle:  12168
de33 24  1 38 BIT  ZP    A:ff X:55 Y:2c P:85 S:fb pc: de35, reg_addr:    1, cycle:  12171
de35 38 f6  0 SEC  IMPL  A:ff X:55 Y:2c P:c5 S:fb pc: de36, reg_addr:    0, cycle:  12173
de36 f6  0 d0 INC  ZPX   A:ff X:55 Y:2c P:c5 S:fb pc: de38, reg_addr:   55, cycle:  12179
de38 d0  c 30 BNE  REL   A:ff X:55 Y:2c P:47 S:fb pc: de3a, reg_addr: de46, cycle:  12181
de3a 30  a 50 BMI  REL   A:ff X:55 Y:2c P:47 S:fb pc: de3c, reg_addr: de46, cycle:  12183
de3c 50  8 90 BVC  REL   A:ff X:55 Y:2c P:47 S:fb pc: de3e, reg_addr: de46, cycle:  12185
de3e 90  6 b5 BCC  REL   A:ff X:55 Y:2c P:47 S:fb pc: de40, reg_addr: de46, cycle:  12187
de40 b5  0 c9 LDA  ZPX   A:ff X:55 Y:2c P:47 S:fb pc: de42, reg_addr:   55, cycle:  12191
de42 c9  0 f0 CMP  IMM   A: 0 X:55 Y:2c P:47 S:fb pc: de44, reg_addr:    0, cycle:  12193
de44 f0  4 a9 BEQ  REL   A: 0 X:55 Y:2c P:47 S:fb pc: de4a, reg_addr: de4a, cycle:  12196
de4a a9 7f 95 LDA  IMM   A: 0 X:55 Y:2c P:47 S:fb pc: de4c, reg_addr:   7f, cycle:  12198
de4c 95  0 b8 STA  ZPX   A:7f X:55 Y:2c P:45 S:fb pc: de4e, reg_addr:   55, cycle:  12202
de4e b8 18 f6 CLV  IMPL  A:7f X:55 Y:2c P:45 S:fb pc: de4f, reg_addr:    0, cycle:  12204
de4f 18 f6  0 CLC  IMPL  A:7f X:55 Y:2c P: 5 S:fb pc: de50, reg_addr:    0, cycle:  12206
de50 f6  0 f0 INC  ZPX   A:7f X:55 Y:2c P: 4 S:fb pc: de52, reg_addr:   55, cycle:  12212
de52 f0  c 10 BEQ  REL   A:7f X:55 Y:2c P:84 S:fb pc: de54, reg_addr: de60, cycle:  12214
de54 10  a 70 BPL  REL   A:7f X:55 Y:2c P:84 S:fb pc: de56, reg_addr: de60, cycle:  12216
de56 70  8 b0 BVS  REL   A:7f X:55 Y:2c P:84 S:fb pc: de58, reg_addr: de60, cycle:  12218
de58 b0  6 b5 BCS  REL   A:7f X:55 Y:2c P:84 S:fb pc: de5a, reg_addr: de60, cycle:  12220
de5a b5  0 c9 LDA  ZPX   A:7f X:55 Y:2c P:84 S:fb pc: de5c, reg_addr:   55, cycle:  12224
de5c c9 80 f0 CMP  IMM   A:80 X:55 Y:2c P:84 S:fb pc: de5e, reg_addr:   80, cycle:  12226
de5e f0  4 a9 BEQ  REL   A:80 X:55 Y:2c P: 7 S:fb pc: de64, reg_addr: de64, cycle:  12229
de64 a9  0 95 LDA  IMM   A:80 X:55 Y:2c P: 7 S:fb pc: de66, reg_addr:    0, cycle:  12231
de66 95  0 24 STA  ZPX   A: 0 X:55 Y:2c P: 7 S:fb pc: de68, reg_addr:   55, cycle:  12235
de68 24  1 38 BIT  ZP    A: 0 X:55 Y:2c P: 7 S:fb pc: de6a, reg_addr:    1, cycle:  12238
de6a 38 d6  0 SEC  IMPL  A: 0 X:55 Y:2c P:c7 S:fb pc: de6b, reg_addr:    0, cycle:  12240
de6b d6  0 f0 DEC  ZPX   A: 0 X:55 Y:2c P:c7 S:fb pc: de6d, reg_addr:   55, cycle:  12246
de6d f0  c 10 BEQ  REL   A: 0 X:55 Y:2c P:c5 S:fb pc: de6f, reg_addr: de7b, cycle:  12248
de6f 10  a 50 BPL  REL   A: 0 X:55 Y:2c P:c5 S:fb pc: de71, reg_addr: de7b, cycle:  12250
de71 50  8 90 BVC  REL   A: 0 X:55 Y:2c P:c5 S:fb pc: de73, reg_addr: de7b, cycle:  12252
de73 90  6 b5 BCC  REL   A: 0 X:55 Y:2c P:c5 S:fb pc: de75, reg_addr: de7b, cycle:  12254
de75 b5  0 c9 LDA  ZPX   A: 0 X:55 Y:2c P:c5 S:fb pc: de77, reg_addr:   55, cycle:  12258
de77 c9 ff f0 CMP  IMM   A:ff X:55 Y:2c P:c5 S:fb pc: de79, reg_addr:   ff, cycle:  12260
de79 f0  4 a9 BEQ  REL   A:ff X:55 Y:2c P:47 S:fb pc: de7f, reg_addr: de7f, cycle:  12263
de7f a9 80 95 LDA  IMM   A:ff X:55 Y:2c P:47 S:fb pc: de81, reg_addr:   80, cycle:  12265
de81 95  0 b8 STA  ZPX   A:80 X:55 Y:2c P:c5 S:fb pc: de83, reg_addr:   55, cycle:  12269
de83 b8 18 d6 CLV  IMPL  A:80 X:55 Y:2c P:c5 S:fb pc: de84, reg_addr:    0, cycle:  12271
de84 18 d6  0 CLC  IMPL  A:80 X:55 Y:2c P:85 S:fb pc: de85, reg_addr:    0, cycle:  12273
de85 d6  0 f0 DEC  ZPX   A:80 X:55 Y:2c P:84 S:fb pc: de87, reg_addr:   55, cycle:  12279
de87 f0  c 30 BEQ  REL   A:80 X:55 Y:2c P: 4 S:fb pc: de89, reg_addr: de95, cycle:  12281
de89 30  a 70 BMI  REL   A:80 X:55 Y:2c P: 4 S:fb pc: de8b, reg_addr: de95, cycle:  12283
de8b 70  8 b0 BVS  REL   A:80 X:55 Y:2c P: 4 S:fb pc: de8d, reg_addr: de95, cycle:  12285
de8d b0  6 b5 BCS  REL   A:80 X:55 Y:2c P: 4 S:fb pc: de8f, reg_addr: de95, cycle:  12287
de8f b5  0 c9 LDA  ZPX   A:80 X:55 Y:2c P: 4 S:fb pc: de91, reg_addr:   55, cycle:  12291
de91 c9 7f f0 CMP  IMM   A:7f X:55 Y:2c P: 4 S:fb pc: de93, reg_addr:   7f, cycle:  12293
de93 f0  4 a9 BEQ  REL   A:7f X:55 Y:2c P: 7 S:fb pc: de99, reg_addr: de99, cycle:  12296
de99 a9  1 95 LDA  IMM   A:7f X:55 Y:2c P: 7 S:fb pc: de9b, reg_addr:    1, cycle:  12298
de9b 95  0 d6 STA  ZPX   A: 1 X:55 Y:2c P: 5 S:fb pc: de9d, reg_addr:   55, cycle:  12302
de9d d6  0 f0 DEC  ZPX   A: 1 X:55 Y:2c P: 5 S:fb pc: de9f, reg_addr:   55, cycle:  12308
de9f f0  4 a9 BEQ  REL   A: 1 X:55 Y:2c P: 7 S:fb pc: dea5, reg_addr: dea5, cycle:  12311
dea5 a9 33 85 LDA  IMM   A: 1 X:55 Y:2c P: 7 S:fb pc: dea7, reg_addr:   33, cycle:  12313
dea7 85 78 a9 STA  ZP    A:33 X:55 Y:2c P: 5 S:fb pc: dea9, reg_addr:   78, cycle:  12316
dea9 a9 44 a0 LDA  IMM   A:33 X:55 Y:2c P: 5 S:fb pc: deab, reg_addr:   44, cycle:  12318
deab a0 78 a2 LDY  IMM   A:44 X:55 Y:2c P: 5 S:fb pc: dead, reg_addr:   78, cycle:  12320
dead a2  0 38 LDX  IMM   A:44 X:55 Y:78 P: 5 S:fb pc: deaf, reg_addr:    0, cycle:  12322
deaf 38 24  1 SEC  IMPL  A:44 X: 0 Y:78 P: 7 S:fb pc: deb0, reg_addr:    0, cycle:  12324
deb0 24  1 b6 BIT  ZP    A:44 X: 0 Y:78 P: 7 S:fb pc: deb2, reg_addr:    1, cycle:  12327
deb2 b6  0 90 LDX  ZPY   A:44 X: 0 Y:78 P:c5 S:fb pc: deb4, reg_addr:   78, cycle:  12331
deb4 90 12 50 BCC  REL   A:44 X:33 Y:78 P:45 S:fb pc: deb6, reg_addr: dec8, cycle:  12333
deb6 50 10 30 BVC  REL   A:44 X:33 Y:78 P:45 S:fb pc: deb8, reg_addr: dec8, cycle:  12335
deb8 30  e f0 BMI  REL   A:44 X:33 Y:78 P:45 S:fb pc: deba, reg_addr: dec8, cycle:  12337
deba f0  c e0 BEQ  REL   A:44 X:33 Y:78 P:45 S:fb pc: debc, reg_addr: dec8, cycle:  12339
debc e0 33 d0 CPX  IMM   A:44 X:33 Y:78 P:45 S:fb pc: debe, reg_addr:   33, cycle:  12341
debe d0  8 c0 BNE  REL   A:44 X:33 Y:78 P:47 S:fb pc: dec0, reg_addr: dec8, cycle:  12343
dec0 c0 78 d0 CPY  IMM   A:44 X:33 Y:78 P:47 S:fb pc: dec2, reg_addr:   78, cycle:  12345
dec2 d0  4 c9 BNE  REL   A:44 X:33 Y:78 P:47 S:fb pc: dec4, reg_addr: dec8, cycle:  12347
dec4 c9 44 f0 CMP  IMM   A:44 X:33 Y:78 P:47 S:fb pc: dec6, reg_addr:   44, cycle:  12349
dec6 f0  4 a9 BEQ  REL   A:44 X:33 Y:78 P:47 S:fb pc: decc, reg_addr: decc, cycle:  12352
decc a9 97 85 LDA  IMM   A:44 X:33 Y:78 P:47 S:fb pc: dece, reg_addr:   97, cycle:  12354
dece 85 7f a9 STA  ZP    A:97 X:33 Y:78 P:c5 S:fb pc: ded0, reg_addr:   7f, cycle:  12357
ded0 a9 47 a0 LDA  IMM   A:97 X:33 Y:78 P:c5 S:fb pc: ded2, reg_addr:   47, cycle:  12359
ded2 a0 ff a2 LDY  IMM   A:47 X:33 Y:78 P:45 S:fb pc: ded4, reg_addr:   ff, cycle:  12361
ded4 a2  0 18 LDX  IMM   A:47 X:33 Y:ff P:c5 S:fb pc: ded6, reg_addr:    0, cycle:  12363
ded6 18 b8 b6 CLC  IMPL  A:47 X: 0 Y:ff P:47 S:fb pc: ded7, reg_addr:    0, cycle:  12365
ded7 b8 b6 80 CLV  IMPL  A:47 X: 0 Y:ff P:46 S:fb pc: ded8, reg_addr:    0, cycle:  12367
ded8 b6 80 b0 LDX  ZPY   A:47 X: 0 Y:ff P: 6 S:fb pc: deda, reg_addr:   7f, cycle:  12371
deda b0 12 70 BCS  REL   A:47 X:97 Y:ff P:84 S:fb pc: dedc, reg_addr: deee, cycle:  12373
dedc 70 10 10 BVS  REL   A:47 X:97 Y:ff P:84 S:fb pc: dede, reg_addr: deee, cycle:  12375
dede 10  e f0 BPL  REL   A:47 X:97 Y:ff P:84 S:fb pc: dee0, reg_addr: deee, cycle:  12377
dee0 f0  c e0 BEQ  REL   A:47 X:97 Y:ff P:84 S:fb pc: dee2, reg_addr: deee, cycle:  12379
dee2 e0 97 d0 CPX  IMM   A:47 X:97 Y:ff P:84 S:fb pc: dee4, reg_addr:   97, cycle:  12381
dee4 d0  8 c0 BNE  REL   A:47 X:97 Y:ff P: 7 S:fb pc: dee6, reg_addr: deee, cycle:  12383
dee6 c0 ff d0 CPY  IMM   A:47 X:97 Y:ff P: 7 S:fb pc: dee8, reg_addr:   ff, cycle:  12385
dee8 d0  4 c9 BNE  REL   A:47 X:97 Y:ff P: 7 S:fb pc: deea, reg_addr: deee, cycle:  12387
deea c9 47 f0 CMP  IMM   A:47 X:97 Y:ff P: 7 S:fb pc: deec, reg_addr:   47, cycle:  12389
deec f0  4 a9 BEQ  REL   A:47 X:97 Y:ff P: 7 S:fb pc: def2, reg_addr: def2, cycle:  12392
def2 a9  0 85 LDA  IMM   A:47 X:97 Y:ff P: 7 S:fb pc: def4, reg_addr:    0, cycle:  12394
def4 85 7f a9 STA  ZP    A: 0 X:97 Y:ff P: 7 S:fb pc: def6, reg_addr:   7f, cycle:  12397
def6 a9 47 a0 LDA  IMM   A: 0 X:97 Y:ff P: 7 S:fb pc: def8, reg_addr:   47, cycle:  12399
def8 a0 ff a2 LDY  IMM   A:47 X:97 Y:ff P: 5 S:fb pc: defa, reg_addr:   ff, cycle:  12401
defa a2 69 18 LDX  IMM   A:47 X:97 Y:ff P:85 S:fb pc: defc, reg_addr:   69, cycle:  12403
defc 18 b8 96 CLC  IMPL  A:47 X:69 Y:ff P: 5 S:fb pc: defd, reg_addr:    0, cycle:  12405
defd b8 96 80 CLV  IMPL  A:47 X:69 Y:ff P: 4 S:fb pc: defe, reg_addr:    0, cycle:  12407
defe 96 80 b0 STX  ZPY   A:47 X:69 Y:ff P: 4 S:fb pc: df00, reg_addr:   7f, cycle:  12411
df00 b0 18 70 BCS  REL   A:47 X:69 Y:ff P: 4 S:fb pc: df02, reg_addr: df1a, cycle:  12413
df02 70 16 30 BVS  REL   A:47 X:69 Y:ff P: 4 S:fb pc: df04, reg_addr: df1a, cycle:  12415
df04 30 14 f0 BMI  REL   A:47 X:69 Y:ff P: 4 S:fb pc: df06, reg_addr: df1a, cycle:  12417
df06 f0 12 e0 BEQ  REL   A:47 X:69 Y:ff P: 4 S:fb pc: df08, reg_addr: df1a, cycle:  12419
df08 e0 69 d0 CPX  IMM   A:47 X:69 Y:ff P: 4 S:fb pc: df0a, reg_addr:   69, cycle:  12421
df0a d0  e c0 BNE  REL   A:47 X:69 Y:ff P: 7 S:fb pc: df0c, reg_addr: df1a, cycle:  12423
df0c c0 ff d0 CPY  IMM   A:47 X:69 Y:ff P: 7 S:fb pc: df0e, reg_addr:   ff, cycle:  12425
df0e d0  a c9 BNE  REL   A:47 X:69 Y:ff P: 7 S:fb pc: df10, reg_addr: df1a, cycle:  12427
df10 c9 47 d0 CMP  IMM   A:47 X:69 Y:ff P: 7 S:fb pc: df12, reg_addr:   47, cycle:  12429
df12 d0  6 a5 BNE  REL   A:47 X:69 Y:ff P: 7 S:fb pc: df14, reg_addr: df1a, cycle:  12431
df14 a5 7f c9 LDA  ZP    A:47 X:69 Y:ff P: 7 S:fb pc: df16, reg_addr:   7f, cycle:  12434
df16 c9 69 f0 CMP  IMM   A:69 X:69 Y:ff P: 5 S:fb pc: df18, reg_addr:   69, cycle:  12436
df18 f0  4 a9 BEQ  REL   A:69 X:69 Y:ff P: 7 S:fb pc: df1e, reg_addr: df1e, cycle:  12439
df1e a9 f5 85 LDA  IMM   A:69 X:69 Y:ff P: 7 S:fb pc: df20, reg_addr:   f5, cycle:  12441
df20 85 4f a9 STA  ZP    A:f5 X:69 Y:ff P:85 S:fb pc: df22, reg_addr:   4f, cycle:  12444
df22 a9 47 a0 LDA  IMM   A:f5 X:69 Y:ff P:85 S:fb pc: df24, reg_addr:   47, cycle:  12446
df24 a0 4f 24 LDY  IMM   A:47 X:69 Y:ff P: 5 S:fb pc: df26, reg_addr:   4f, cycle:  12448
df26 24  1 a2 BIT  ZP    A:47 X:69 Y:4f P: 5 S:fb pc: df28, reg_addr:    1, cycle:  12451
df28 a2  0 38 LDX  IMM   A:47 X:69 Y:4f P:c5 S:fb pc: df2a, reg_addr:    0, cycle:  12453
df2a 38 96  0 SEC  IMPL  A:47 X: 0 Y:4f P:47 S:fb pc: df2b, reg_addr:    0, cycle:  12455
df2b 96  0 90 STX  ZPY   A:47 X: 0 Y:4f P:47 S:fb pc: df2d, reg_addr:   4f, cycle:  12459
df2d 90 16 50 BCC  REL   A:47 X: 0 Y:4f P:47 S:fb pc: df2f, reg_addr: df45, cycle:  12461
df2f 50 14 30 BVC  REL   A:47 X: 0 Y:4f P:47 S:fb pc: df31, reg_addr: df45, cycle:  12463
df31 30 12 d0 BMI  REL   A:47 X: 0 Y:4f P:47 S:fb pc: df33, reg_addr: df45, cycle:  12465
df33 d0 10 e0 BNE  REL   A:47 X: 0 Y:4f P:47 S:fb pc: df35, reg_addr: df45, cycle:  12467
df35 e0  0 d0 CPX  IMM   A:47 X: 0 Y:4f P:47 S:fb pc: df37, reg_addr:    0, cycle:  12469
df37 d0  c c0 BNE  REL   A:47 X: 0 Y:4f P:47 S:fb pc: df39, reg_addr: df45, cycle:  12471
df39 c0 4f d0 CPY  IMM   A:47 X: 0 Y:4f P:47 S:fb pc: df3b, reg_addr:   4f, cycle:  12473
df3b d0  8 c9 BNE  REL   A:47 X: 0 Y:4f P:47 S:fb pc: df3d, reg_addr: df45, cycle:  12475
df3d c9 47 d0 CMP  IMM   A:47 X: 0 Y:4f P:47 S:fb pc: df3f, reg_addr:   47, cycle:  12477
df3f d0  4 a5 BNE  REL   A:47 X: 0 Y:4f P:47 S:fb pc: df41, reg_addr: df45, cycle:  12479
df41 a5 4f f0 LDA  ZP    A:47 X: 0 Y:4f P:47 S:fb pc: df43, reg_addr:   4f, cycle:  12482
df43 f0  4 a9 BEQ  REL   A: 0 X: 0 Y:4f P:47 S:fb pc: df49, reg_addr: df49, cycle:  12485
df49 60 a9 89 RTS  IMPL  A: 0 X: 0 Y:4f P:47 S:fb pc: c62c, reg_addr:    0, cycle:  12491
c62c 20 aa e1 JSR  ABS   A: 0 X: 0 Y:4f P:47 S:fd pc: e1aa, reg_addr: e1aa, cycle:  12497
e1aa a9 ff 85 LDA  IMM   A: 0 X: 0 Y:4f P:47 S:fb pc: e1ac, reg_addr:   ff, cycle:  12499
e1ac 85  1 a9 STA  ZP    A:ff X: 0 Y:4f P:c5 S:fb pc: e1ae, reg_addr:    1, cycle:  12502
e1ae a9 aa 8d LDA  IMM   A:ff X: 0 Y:4f P:c5 S:fb pc: e1b0, reg_addr:   aa, cycle:  12504
e1b0 8d 33  6 STA  ABS   A:aa X: 0 Y:4f P:c5 S:fb pc: e1b3, reg_addr:  633, cycle:  12508
e1b3 a9 bb 8d LDA  IMM   A:aa X: 0 Y:4f P:c5 S:fb pc: e1b5, reg_addr:   bb, cycle:  12510
e1b5 8d 89  6 STA  ABS   A:bb X: 0 Y:4f P:c5 S:fb pc: e1b8, reg_addr:  689, cycle:  12514
e1b8 a2  0 a9 LDX  IMM   A:bb X: 0 Y:4f P:c5 S:fb pc: e1ba, reg_addr:    0, cycle:  12516
e1ba a9 66 24 LDA  IMM   A:bb X: 0 Y:4f P:47 S:fb pc: e1bc, reg_addr:   66, cycle:  12518
e1bc 24  1 38 BIT  ZP    A:66 X: 0 Y:4f P:45 S:fb pc: e1be, reg_addr:    1, cycle:  12521
e1be 38 a0  0 SEC  IMPL  A:66 X: 0 Y:4f P:c5 S:fb pc: e1bf, reg_addr:    0, cycle:  12523
e1bf a0  0 bc LDY  IMM   A:66 X: 0 Y:4f P:c5 S:fb pc: e1c1, reg_addr:    0, cycle:  12525
e1c1 bc 33  6 LDY  ABSX  A:66 X: 0 Y: 0 P:47 S:fb pc: e1c4, reg_addr:  633, cycle:  12529
e1c4 10 12 f0 BPL  REL   A:66 X: 0 Y:aa P:c5 S:fb pc: e1c6, reg_addr: e1d8, cycle:  12531
e1c6 f0 10 50 BEQ  REL   A:66 X: 0 Y:aa P:c5 S:fb pc: e1c8, reg_addr: e1d8, cycle:  12533
e1c8 50  e 90 BVC  REL   A:66 X: 0 Y:aa P:c5 S:fb pc: e1ca, reg_addr: e1d8, cycle:  12535
e1ca 90  c c9 BCC  REL   A:66 X: 0 Y:aa P:c5 S:fb pc: e1cc, reg_addr: e1d8, cycle:  12537
e1cc c9 66 d0 CMP  IMM   A:66 X: 0 Y:aa P:c5 S:fb pc: e1ce, reg_addr:   66, cycle:  12539
e1ce d0  8 e0 BNE  REL   A:66 X: 0 Y:aa P:47 S:fb pc: e1d0, reg_addr: e1d8, cycle:  12541
e1d0 e0  0 d0 CPX  IMM   A:66 X: 0 Y:aa P:47 S:fb pc: e1d2, reg_addr:    0, cycle:  12543
e1d2 d0  4 c0 BNE  REL   A:66 X: 0 Y:aa P:47 S:fb pc: e1d4, reg_addr: e1d8, cycle:  12545
e1d4 c0 aa f0 CPY  IMM   A:66 X: 0 Y:aa P:47 S:fb pc: e1d6, reg_addr:   aa, cycle:  12547
e1d6 f0  4 a9 BEQ  REL   A:66 X: 0 Y:aa P:47 S:fb pc: e1dc, reg_addr: e1dc, cycle:  12550
e1dc a2 8a a9 LDX  IMM   A:66 X: 0 Y:aa P:47 S:fb pc: e1de, reg_addr:   8a, cycle:  12552
e1de a9 66 b8 LDA  IMM   A:66 X:8a Y:aa P:c5 S:fb pc: e1e0, reg_addr:   66, cycle:  12554
e1e0 b8 18 a0 CLV  IMPL  A:66 X:8a Y:aa P:45 S:fb pc: e1e1, reg_addr:    0, cycle:  12556
e1e1 18 a0  0 CLC  IMPL  A:66 X:8a Y:aa P: 5 S:fb pc: e1e2, reg_addr:    0, cycle:  12558
e1e2 a0  0 bc LDY  IMM   A:66 X:8a Y:aa P: 4 S:fb pc: e1e4, reg_addr:    0, cycle:  12560
e1e4 bc ff  5 LDY  ABSX  A:66 X:8a Y: 0 P: 6 S:fb pc: e1e7, reg_addr:  689, cycle:  12565
e1e7 10 12 f0 BPL  REL   A:66 X:8a Y:bb P:84 S:fb pc: e1e9, reg_addr: e1fb, cycle:  12567
e1e9 f0 10 70 BEQ  REL   A:66 X:8a Y:bb P:84 S:fb pc: e1eb, reg_addr: e1fb, cycle:  12569
e1eb 70  e b0 BVS  REL   A:66 X:8a Y:bb P:84 S:fb pc: e1ed, reg_addr: e1fb, cycle:  12571
e1ed b0  c c0 BCS  REL   A:66 X:8a Y:bb P:84 S:fb pc: e1ef, reg_addr: e1fb, cycle:  12573
e1ef c0 bb d0 CPY  IMM   A:66 X:8a Y:bb P:84 S:fb pc: e1f1, reg_addr:   bb, cycle:  12575
e1f1 d0  8 c9 BNE  REL   A:66 X:8a Y:bb P: 7 S:fb pc: e1f3, reg_addr: e1fb, cycle:  12577
e1f3 c9 66 d0 CMP  IMM   A:66 X:8a Y:bb P: 7 S:fb pc: e1f5, reg_addr:   66, cycle:  12579
e1f5 d0  4 e0 BNE  REL   A:66 X:8a Y:bb P: 7 S:fb pc: e1f7, reg_addr: e1fb, cycle:  12581
e1f7 e0 8a f0 CPX  IMM   A:66 X:8a Y:bb P: 7 S:fb pc: e1f9, reg_addr:   8a, cycle:  12583
e1f9 f0  4 a9 BEQ  REL   A:66 X:8a Y:bb P: 7 S:fb pc: e1ff, reg_addr: e1ff, cycle:  12586
e1ff a0 53 a9 LDY  IMM   A:66 X:8a Y:bb P: 7 S:fb pc: e201, reg_addr:   53, cycle:  12588
e201 a9 aa a2 LDA  IMM   A:66 X:8a Y:53 P: 5 S:fb pc: e203, reg_addr:   aa, cycle:  12590
e203 a2 78 8d LDX  IMM   A:aa X:8a Y:53 P:85 S:fb pc: e205, reg_addr:   78, cycle:  12592
e205 8d 78  6 STA  ABS   A:aa X:78 Y:53 P: 5 S:fb pc: e208, reg_addr:  678, cycle:  12596
e208 20 b6 f7 JSR  ABS   A:aa X:78 Y:53 P: 5 S:fb pc: f7b6, reg_addr: f7b6, cycle:  12602
f7b6 18 a9 ff CLC  IMPL  A:aa X:78 Y:53 P: 5 S:f9 pc: f7b7, reg_addr:    0, cycle:  12604
f7b7 a9 ff 85 LDA  IMM   A:aa X:78 Y:53 P: 4 S:f9 pc: f7b9, reg_addr:   ff, cycle:  12606
f7b9 85  1 24 STA  ZP    A:ff X:78 Y:53 P:84 S:f9 pc: f7bb, reg_addr:    1, cycle:  12609
f7bb 24  1 a9 BIT  ZP    A:ff X:78 Y:53 P:84 S:f9 pc: f7bd, reg_addr:    1, cycle:  12612
f7bd a9 55 60 LDA  IMM   A:ff X:78 Y:53 P:c4 S:f9 pc: f7bf, reg_addr:   55, cycle:  12614
f7bf 60 b0  9 RTS  IMPL  A:55 X:78 Y:53 P:44 S:f9 pc: e20b, reg_addr:    0, cycle:  12620
e20b 1d  0  6 ORA  ABSX  A:55 X:78 Y:53 P:44 S:fb pc: e20e, reg_addr:  678, cycle:  12624
e20e 20 c0 f7 JSR  ABS   A:ff X:78 Y:53 P:c4 S:fb pc: f7c0, reg_addr: f7c0, cycle:  12630
f7c0 b0  9 10 BCS  REL   A:ff X:78 Y:53 P:c4 S:f9 pc: f7c2, reg_addr: f7cb, cycle:  12632
f7c2 10  7 c9 BPL  REL   A:ff X:78 Y:53 P:c4 S:f9 pc: f7c4, reg_addr: f7cb, cycle:  12634
f7c4 c9 ff d0 CMP  IMM   A:ff X:78 Y:53 P:c4 S:f9 pc: f7c6, reg_addr:   ff, cycle:  12636
f7c6 d0  3 50 BNE  REL   A:ff X:78 Y:53 P:47 S:f9 pc: f7c8, reg_addr: f7cb, cycle:  12638
f7c8 50  1 60 BVC  REL   A:ff X:78 Y:53 P:47 S:f9 pc: f7ca, reg_addr: f7cb, cycle:  12640
f7ca 60 84  0 RTS  IMPL  A:ff X:78 Y:53 P:47 S:f9 pc: e211, reg_addr:    0, cycle:  12646
e211 c8 a9  0 INY  IMPL  A:ff X:78 Y:53 P:47 S:fb pc: e212, reg_addr:    0, cycle:  12648
e212 a9  0 8d LDA  IMM   A:ff X:78 Y:54 P:45 S:fb pc: e214, reg_addr:    0, cycle:  12650
e214 8d 78  6 STA  ABS   A: 0 X:78 Y:54 P:47 S:fb pc: e217, reg_addr:  678, cycle:  12654
e217 20 ce f7 JSR  ABS   A: 0 X:78 Y:54 P:47 S:fb pc: f7ce, reg_addr: f7ce, cycle:  12660
f7ce 38 b8 a9 SEC  IMPL  A: 0 X:78 Y:54 P:47 S:f9 pc: f7cf, reg_addr:    0, cycle:  12662
f7cf b8 a9  0 CLV  IMPL  A: 0 X:78 Y:54 P:47 S:f9 pc: f7d0, reg_addr:    0, cycle:  12664
f7d0 a9  0 60 LDA  IMM   A: 0 X:78 Y:54 P: 7 S:f9 pc: f7d2, reg_addr:    0, cycle:  12666
f7d2 60 d0  7 RTS  IMPL  A: 0 X:78 Y:54 P: 7 S:f9 pc: e21a, reg_addr:    0, cycle:  12672
e21a 1d  0  6 ORA  ABSX  A: 0 X:78 Y:54 P: 7 S:fb pc: e21d, reg_addr:  678, cycle:  12676
e21d 20 d3 f7 JSR  ABS   A: 0 X:78 Y:54 P: 7 S:fb pc: f7d3, reg_addr: f7d3, cycle:  12682
f7d3 d0  7 70 BNE  REL   A: 0 X:78 Y:54 P: 7 S:f9 pc: f7d5, reg_addr: f7dc, cycle:  12684
f7d5 70  5 90 BVS  REL   A: 0 X:78 Y:54 P: 7 S:f9 pc: f7d7, reg_addr: f7dc, cycle:  12686
f7d7 90  3 30 BCC  REL   A: 0 X:78 Y:54 P: 7 S:f9 pc: f7d9, reg_addr: f7dc, cycle:  12688
f7d9 30  1 60 BMI  REL   A: 0 X:78 Y:54 P: 7 S:f9 pc: f7db, reg_addr: f7dc, cycle:  12690
f7db 60 84  0 RTS  IMPL  A: 0 X:78 Y:54 P: 7 S:f9 pc: e220, reg_addr:    0, cycle:  12696
e220 c8 a9 aa INY  IMPL  A: 0 X:78 Y:54 P: 7 S:fb pc: e221, reg_addr:    0, cycle:  12698
e221 a9 aa 8d LDA  IMM   A: 0 X:78 Y:55 P: 5 S:fb pc: e223, reg_addr:   aa, cycle:  12700
e223 8d 78  6 STA  ABS   A:aa X:78 Y:55 P:85 S:fb pc: e226, reg_addr:  678, cycle:  12704
e226 20 df f7 JSR  ABS   A:aa X:78 Y:55 P:85 S:fb pc: f7df, reg_addr: f7df, cycle:  12710
f7df 18 24  1 CLC  IMPL  A:aa X:78 Y:55 P:85 S:f9 pc: f7e0, reg_addr:    0, cycle:  12712
f7e0 24  1 a9 BIT  ZP    A:aa X:78 Y:55 P:84 S:f9 pc: f7e2, reg_addr:    1, cycle:  12715
f7e2 a9 55 60 LDA  IMM   A:aa X:78 Y:55 P:c4 S:f9 pc: f7e4, reg_addr:   55, cycle:  12717
f7e4 60 d0  7 RTS  IMPL  A:55 X:78 Y:55 P:44 S:f9 pc: e229, reg_addr:    0, cycle:  12723
e229 3d  0  6 AND  ABSX  A:55 X:78 Y:55 P:44 S:fb pc: e22c, reg_addr:  678, cycle:  12727
e22c 20 e5 f7 JSR  ABS   A: 0 X:78 Y:55 P:46 S:fb pc: f7e5, reg_addr: f7e5, cycle:  12733
f7e5 d0  7 50 BNE  REL   A: 0 X:78 Y:55 P:46 S:f9 pc: f7e7, reg_addr: f7ee, cycle:  12735
f7e7 50  5 b0 BVC  REL   A: 0 X:78 Y:55 P:46 S:f9 pc: f7e9, reg_addr: f7ee, cycle:  12737
f7e9 b0  3 30 BCS  REL   A: 0 X:78 Y:55 P:46 S:f9 pc: f7eb, reg_addr: f7ee, cycle:  12739
f7eb 30  1 60 BMI  REL   A: 0 X:78 Y:55 P:46 S:f9 pc: f7ed, reg_addr: f7ee, cycle:  12741
f7ed 60 84  0 RTS  IMPL  A: 0 X:78 Y:55 P:46 S:f9 pc: e22f, reg_addr:    0, cycle:  12747
e22f c8 a9 ef INY  IMPL  A: 0 X:78 Y:55 P:46 S:fb pc: e230, reg_addr:    0, cycle:  12749
e230 a9 ef 8d LDA  IMM   A: 0 X:78 Y:56 P:44 S:fb pc: e232, reg_addr:   ef, cycle:  12751
e232 8d 78  6 STA  ABS   A:ef X:78 Y:56 P:c4 S:fb pc: e235, reg_addr:  678, cycle:  12755
e235 20 f1 f7 JSR  ABS   A:ef X:78 Y:56 P:c4 S:fb pc: f7f1, reg_addr: f7f1, cycle:  12761
f7f1 38 b8 a9 SEC  IMPL  A:ef X:78 Y:56 P:c4 S:f9 pc: f7f2, reg_addr:    0, cycle:  12763
f7f2 b8 a9 f8 CLV  IMPL  A:ef X:78 Y:56 P:c5 S:f9 pc: f7f3, reg_addr:    0, cycle:  12765
f7f3 a9 f8 60 LDA  IMM   A:ef X:78 Y:56 P:85 S:f9 pc: f7f5, reg_addr:   f8, cycle:  12767
f7f5 60 90  9 RTS  IMPL  A:f8 X:78 Y:56 P:85 S:f9 pc: e238, reg_addr:    0, cycle:  12773
e238 3d  0  6 AND  ABSX  A:f8 X:78 Y:56 P:85 S:fb pc: e23b, reg_addr:  678, cycle:  12777
e23b 20 f6 f7 JSR  ABS   A:e8 X:78 Y:56 P:85 S:fb pc: f7f6, reg_addr: f7f6, cycle:  12783
f7f6 90  9 10 BCC  REL   A:e8 X:78 Y:56 P:85 S:f9 pc: f7f8, reg_addr: f801, cycle:  12785
f7f8 10  7 c9 BPL  REL   A:e8 X:78 Y:56 P:85 S:f9 pc: f7fa, reg_addr: f801, cycle:  12787
f7fa c9 e8 d0 CMP  IMM   A:e8 X:78 Y:56 P:85 S:f9 pc: f7fc, reg_addr:   e8, cycle:  12789
f7fc d0  3 70 BNE  REL   A:e8 X:78 Y:56 P: 7 S:f9 pc: f7fe, reg_addr: f801, cycle:  12791
f7fe 70  1 60 BVS  REL   A:e8 X:78 Y:56 P: 7 S:f9 pc: f800, reg_addr: f801, cycle:  12793
f800 60 84  0 RTS  IMPL  A:e8 X:78 Y:56 P: 7 S:f9 pc: e23e, reg_addr:    0, cycle:  12799
e23e c8 a9 aa INY  IMPL  A:e8 X:78 Y:56 P: 7 S:fb pc: e23f, reg_addr:    0, cycle:  12801
e23f a9 aa 8d LDA  IMM   A:e8 X:78 Y:57 P: 5 S:fb pc: e241, reg_addr:   aa, cycle:  12803
e241 8d 78  6 STA  ABS   A:aa X:78 Y:57 P:85 S:fb pc: e244, reg_addr:  678, cycle:  12807
e244 20  4 f8 JSR  ABS   A:aa X:78 Y:57 P:85 S:fb pc: f804, reg_addr: f804, cycle:  12813
f804 18 24  1 CLC  IMPL  A:aa X:78 Y:57 P:85 S:f9 pc: f805, reg_addr:    0, cycle:  12815
f805 24  1 a9 BIT  ZP    A:aa X:78 Y:57 P:84 S:f9 pc: f807, reg_addr:    1, cycle:  12818
f807 a9 5f 60 LDA  IMM   A:aa X:78 Y:57 P:c4 S:f9 pc: f809, reg_addr:   5f, cycle:  12820
f809 60 b0  9 RTS  IMPL  A:5f X:78 Y:57 P:44 S:f9 pc: e247, reg_addr:    0, cycle:  12826
e247 5d  0  6 EOR  ABSX  A:5f X:78 Y:57 P:44 S:fb pc: e24a, reg_addr:  678, cycle:  12830
e24a 20  a f8 JSR  ABS   A:f5 X:78 Y:57 P:c4 S:fb pc: f80a, reg_addr: f80a, cycle:  12836
f80a b0  9 10 BCS  REL   A:f5 X:78 Y:57 P:c4 S:f9 pc: f80c, reg_addr: f815, cycle:  12838
f80c 10  7 c9 BPL  REL   A:f5 X:78 Y:57 P:c4 S:f9 pc: f80e, reg_addr: f815, cycle:  12840
f80e c9 f5 d0 CMP  IMM   A:f5 X:78 Y:57 P:c4 S:f9 pc: f810, reg_addr:   f5, cycle:  12842
f810 d0  3 50 BNE  REL   A:f5 X:78 Y:57 P:47 S:f9 pc: f812, reg_addr: f815, cycle:  12844
f812 50  1 60 BVC  REL   A:f5 X:78 Y:57 P:47 S:f9 pc: f814, reg_addr: f815, cycle:  12846
f814 60 84  0 RTS  IMPL  A:f5 X:78 Y:57 P:47 S:f9 pc: e24d, reg_addr:    0, cycle:  12852
e24d c8 a9 70 INY  IMPL  A:f5 X:78 Y:57 P:47 S:fb pc: e24e, reg_addr:    0, cycle:  12854
e24e a9 70 8d LDA  IMM   A:f5 X:78 Y:58 P:45 S:fb pc: e250, reg_addr:   70, cycle:  12856
e250 8d 78  6 STA  ABS   A:70 X:78 Y:58 P:45 S:fb pc: e253, reg_addr:  678, cycle:  12860
e253 20 18 f8 JSR  ABS   A:70 X:78 Y:58 P:45 S:fb pc: f818, reg_addr: f818, cycle:  12866
f818 38 b8 a9 SEC  IMPL  A:70 X:78 Y:58 P:45 S:f9 pc: f819, reg_addr:    0, cycle:  12868
f819 b8 a9 70 CLV  IMPL  A:70 X:78 Y:58 P:45 S:f9 pc: f81a, reg_addr:    0, cycle:  12870
f81a a9 70 60 LDA  IMM   A:70 X:78 Y:58 P: 5 S:f9 pc: f81c, reg_addr:   70, cycle:  12872
f81c 60 d0  7 RTS  IMPL  A:70 X:78 Y:58 P: 5 S:f9 pc: e256, reg_addr:    0, cycle:  12878
e256 5d  0  6 EOR  ABSX  A:70 X:78 Y:58 P: 5 S:fb pc: e259, reg_addr:  678, cycle:  12882
e259 20 1d f8 JSR  ABS   A: 0 X:78 Y:58 P: 7 S:fb pc: f81d, reg_addr: f81d, cycle:  12888
f81d d0  7 70 BNE  REL   A: 0 X:78 Y:58 P: 7 S:f9 pc: f81f, reg_addr: f826, cycle:  12890
f81f 70  5 90 BVS  REL   A: 0 X:78 Y:58 P: 7 S:f9 pc: f821, reg_addr: f826, cycle:  12892
f821 90  3 30 BCC  REL   A: 0 X:78 Y:58 P: 7 S:f9 pc: f823, reg_addr: f826, cycle:  12894
f823 30  1 60 BMI  REL   A: 0 X:78 Y:58 P: 7 S:f9 pc: f825, reg_addr: f826, cycle:  12896
f825 60 84  0 RTS  IMPL  A: 0 X:78 Y:58 P: 7 S:f9 pc: e25c, reg_addr:    0, cycle:  12902
e25c c8 a9 69 INY  IMPL  A: 0 X:78 Y:58 P: 7 S:fb pc: e25d, reg_addr:    0, cycle:  12904
e25d a9 69 8d LDA  IMM   A: 0 X:78 Y:59 P: 5 S:fb pc: e25f, reg_addr:   69, cycle:  12906
e25f 8d 78  6 STA  ABS   A:69 X:78 Y:59 P: 5 S:fb pc: e262, reg_addr:  678, cycle:  12910
e262 20 29 f8 JSR  ABS   A:69 X:78 Y:59 P: 5 S:fb pc: f829, reg_addr: f829, cycle:  12916
f829 18 24  1 CLC  IMPL  A:69 X:78 Y:59 P: 5 S:f9 pc: f82a, reg_addr:    0, cycle:  12918
f82a 24  1 a9 BIT  ZP    A:69 X:78 Y:59 P: 4 S:f9 pc: f82c, reg_addr:    1, cycle:  12921
f82c a9  0 60 LDA  IMM   A:69 X:78 Y:59 P:c4 S:f9 pc: f82e, reg_addr:    0, cycle:  12923
f82e 60 30  9 RTS  IMPL  A: 0 X:78 Y:59 P:46 S:f9 pc: e265, reg_addr:    0, cycle:  12929
e265 7d  0  6 ADC  ABSX  A: 0 X:78 Y:59 P:46 S:fb pc: e268, reg_addr:  678, cycle:  12933
e268 20 2f f8 JSR  ABS   A:69 X:78 Y:59 P: 4 S:fb pc: f82f, reg_addr: f82f, cycle:  12939
f82f 30  9 b0 BMI  REL   A:69 X:78 Y:59 P: 4 S:f9 pc: f831, reg_addr: f83a, cycle:  12941
f831 b0  7 c9 BCS  REL   A:69 X:78 Y:59 P: 4 S:f9 pc: f833, reg_addr: f83a, cycle:  12943
f833 c9 69 d0 CMP  IMM   A:69 X:78 Y:59 P: 4 S:f9 pc: f835, reg_addr:   69, cycle:  12945
f835 d0  3 70 BNE  REL   A:69 X:78 Y:59 P: 7 S:f9 pc: f837, reg_addr: f83a, cycle:  12947
f837 70  1 60 BVS  REL   A:69 X:78 Y:59 P: 7 S:f9 pc: f839, reg_addr: f83a, cycle:  12949
f839 60 84  0 RTS  IMPL  A:69 X:78 Y:59 P: 7 S:f9 pc: e26b, reg_addr:    0, cycle:  12955
e26b c8 20 3d INY  IMPL  A:69 X:78 Y:59 P: 7 S:fb pc: e26c, reg_addr:    0, cycle:  12957
e26c 20 3d f8 JSR  ABS   A:69 X:78 Y:5a P: 5 S:fb pc: f83d, reg_addr: f83d, cycle:  12963
f83d 38 24  1 SEC  IMPL  A:69 X:78 Y:5a P: 5 S:f9 pc: f83e, reg_addr:    0, cycle:  12965
f83e 24  1 a9 BIT  ZP    A:69 X:78 Y:5a P: 5 S:f9 pc: f840, reg_addr:    1, cycle:  12968
f840 a9  0 60 LDA  IMM   A:69 X:78 Y:5a P:c5 S:f9 pc: f842, reg_addr:    0, cycle:  12970
f842 60 30  9 RTS  IMPL  A: 0 X:78 Y:5a P:47 S:f9 pc: e26f, reg_addr:    0, cycle:  12976
e26f 7d  0  6 ADC  ABSX  A: 0 X:78 Y:5a P:47 S:fb pc: e272, reg_addr:  678, cycle:  12980
e272 20 43 f8 JSR  ABS   A:6a X:78 Y:5a P: 4 S:fb pc: f843, reg_addr: f843, cycle:  12986
f843 30  9 b0 BMI  REL   A:6a X:78 Y:5a P: 4 S:f9 pc: f845, reg_addr: f84e, cycle:  12988
f845 b0  7 c9 BCS  REL   A:6a X:78 Y:5a P: 4 S:f9 pc: f847, reg_addr: f84e, cycle:  12990
f847 c9 6a d0 CMP  IMM   A:6a X:78 Y:5a P: 4 S:f9 pc: f849, reg_addr:   6a, cycle:  12992
f849 d0  3 70 BNE  REL   A:6a X:78 Y:5a P: 7 S:f9 pc: f84b, reg_addr: f84e, cycle:  12994
f84b 70  1 60 BVS  REL   A:6a X:78 Y:5a P: 7 S:f9 pc: f84d, reg_addr: f84e, cycle:  12996
f84d 60 84  0 RTS  IMPL  A:6a X:78 Y:5a P: 7 S:f9 pc: e275, reg_addr:    0, cycle:  13002
e275 c8 a9 7f INY  IMPL  A:6a X:78 Y:5a P: 7 S:fb pc: e276, reg_addr:    0, cycle:  13004
e276 a9 7f 8d LDA  IMM   A:6a X:78 Y:5b P: 5 S:fb pc: e278, reg_addr:   7f, cycle:  13006
e278 8d 78  6 STA  ABS   A:7f X:78 Y:5b P: 5 S:fb pc: e27b, reg_addr:  678, cycle:  13010
e27b 20 51 f8 JSR  ABS   A:7f X:78 Y:5b P: 5 S:fb pc: f851, reg_addr: f851, cycle:  13016
f851 38 b8 a9 SEC  IMPL  A:7f X:78 Y:5b P: 5 S:f9 pc: f852, reg_addr:    0, cycle:  13018
f852 b8 a9 7f CLV  IMPL  A:7f X:78 Y:5b P: 5 S:f9 pc: f853, reg_addr:    0, cycle:  13020
f853 a9 7f 60 LDA  IMM   A:7f X:78 Y:5b P: 5 S:f9 pc: f855, reg_addr:   7f, cycle:  13022
f855 60 10  9 RTS  IMPL  A:7f X:78 Y:5b P: 5 S:f9 pc: e27e, reg_addr:    0, cycle:  13028
e27e 7d  0  6 ADC  ABSX  A:7f X:78 Y:5b P: 5 S:fb pc: e281, reg_addr:  678, cycle:  13032
e281 20 56 f8 JSR  ABS   A:ff X:78 Y:5b P:c4 S:fb pc: f856, reg_addr: f856, cycle:  13038
f856 10  9 b0 BPL  REL   A:ff X:78 Y:5b P:c4 S:f9 pc: f858, reg_addr: f861, cycle:  13040
f858 b0  7 c9 BCS  REL   A:ff X:78 Y:5b P:c4 S:f9 pc: f85a, reg_addr: f861, cycle:  13042
f85a c9 ff d0 CMP  IMM   A:ff X:78 Y:5b P:c4 S:f9 pc: f85c, reg_addr:   ff, cycle:  13044
f85c d0  3 50 BNE  REL   A:ff X:78 Y:5b P:47 S:f9 pc: f85e, reg_addr: f861, cycle:  13046
f85e 50  1 60 BVC  REL   A:ff X:78 Y:5b P:47 S:f9 pc: f860, reg_addr: f861, cycle:  13048
f860 60 84  0 RTS  IMPL  A:ff X:78 Y:5b P:47 S:f9 pc: e284, reg_addr:    0, cycle:  13054
e284 c8 a9 80 INY  IMPL  A:ff X:78 Y:5b P:47 S:fb pc: e285, reg_addr:    0, cycle:  13056
e285 a9 80 8d LDA  IMM   A:ff X:78 Y:5c P:45 S:fb pc: e287, reg_addr:   80, cycle:  13058
e287 8d 78  6 STA  ABS   A:80 X:78 Y:5c P:c5 S:fb pc: e28a, reg_addr:  678, cycle:  13062
e28a 20 64 f8 JSR  ABS   A:80 X:78 Y:5c P:c5 S:fb pc: f864, reg_addr: f864, cycle:  13068
f864 18 24  1 CLC  IMPL  A:80 X:78 Y:5c P:c5 S:f9 pc: f865, reg_addr:    0, cycle:  13070
f865 24  1 a9 BIT  ZP    A:80 X:78 Y:5c P:c4 S:f9 pc: f867, reg_addr:    1, cycle:  13073
f867 a9 7f 60 LDA  IMM   A:80 X:78 Y:5c P:c4 S:f9 pc: f869, reg_addr:   7f, cycle:  13075
f869 60 10  9 RTS  IMPL  A:7f X:78 Y:5c P:44 S:f9 pc: e28d, reg_addr:    0, cycle:  13081
e28d 7d  0  6 ADC  ABSX  A:7f X:78 Y:5c P:44 S:fb pc: e290, reg_addr:  678, cycle:  13085
e290 20 6a f8 JSR  ABS   A:ff X:78 Y:5c P:84 S:fb pc: f86a, reg_addr: f86a, cycle:  13091
f86a 10  9 b0 BPL  REL   A:ff X:78 Y:5c P:84 S:f9 pc: f86c, reg_addr: f875, cycle:  13093
f86c b0  7 c9 BCS  REL   A:ff X:78 Y:5c P:84 S:f9 pc: f86e, reg_addr: f875, cycle:  13095
f86e c9 ff d0 CMP  IMM   A:ff X:78 Y:5c P:84 S:f9 pc: f870, reg_addr:   ff, cycle:  13097
f870 d0  3 70 BNE  REL   A:ff X:78 Y:5c P: 7 S:f9 pc: f872, reg_addr: f875, cycle:  13099
f872 70  1 60 BVS  REL   A:ff X:78 Y:5c P: 7 S:f9 pc: f874, reg_addr: f875, cycle:  13101
f874 60 84  0 RTS  IMPL  A:ff X:78 Y:5c P: 7 S:f9 pc: e293, reg_addr:    0, cycle:  13107
e293 c8 20 78 INY  IMPL  A:ff X:78 Y:5c P: 7 S:fb pc: e294, reg_addr:    0, cycle:  13109
e294 20 78 f8 JSR  ABS   A:ff X:78 Y:5d P: 5 S:fb pc: f878, reg_addr: f878, cycle:  13115
f878 38 b8 a9 SEC  IMPL  A:ff X:78 Y:5d P: 5 S:f9 pc: f879, reg_addr:    0, cycle:  13117
f879 b8 a9 7f CLV  IMPL  A:ff X:78 Y:5d P: 5 S:f9 pc: f87a, reg_addr:    0, cycle:  13119
f87a a9 7f 60 LDA  IMM   A:ff X:78 Y:5d P: 5 S:f9 pc: f87c, reg_addr:   7f, cycle:  13121
f87c 60 d0  7 RTS  IMPL  A:7f X:78 Y:5d P: 5 S:f9 pc: e297, reg_addr:    0, cycle:  13127
e297 7d  0  6 ADC  ABSX  A:7f X:78 Y:5d P: 5 S:fb pc: e29a, reg_addr:  678, cycle:  13131
e29a 20 7d f8 JSR  ABS   A: 0 X:78 Y:5d P: 7 S:fb pc: f87d, reg_addr: f87d, cycle:  13137
f87d d0  7 30 BNE  REL   A: 0 X:78 Y:5d P: 7 S:f9 pc: f87f, reg_addr: f886, cycle:  13139
f87f 30  5 70 BMI  REL   A: 0 X:78 Y:5d P: 7 S:f9 pc: f881, reg_addr: f886, cycle:  13141
f881 70  3 90 BVS  REL   A: 0 X:78 Y:5d P: 7 S:f9 pc: f883, reg_addr: f886, cycle:  13143
f883 90  1 60 BCC  REL   A: 0 X:78 Y:5d P: 7 S:f9 pc: f885, reg_addr: f886, cycle:  13145
f885 60 84  0 RTS  IMPL  A: 0 X:78 Y:5d P: 7 S:f9 pc: e29d, reg_addr:    0, cycle:  13151
e29d c8 a9 40 INY  IMPL  A: 0 X:78 Y:5d P: 7 S:fb pc: e29e, reg_addr:    0, cycle:  13153
e29e a9 40 8d LDA  IMM   A: 0 X:78 Y:5e P: 5 S:fb pc: e2a0, reg_addr:   40, cycle:  13155
e2a0 8d 78  6 STA  ABS   A:40 X:78 Y:5e P: 5 S:fb pc: e2a3, reg_addr:  678, cycle:  13159
e2a3 20 89 f8 JSR  ABS   A:40 X:78 Y:5e P: 5 S:fb pc: f889, reg_addr: f889, cycle:  13165
f889 24  1 a9 BIT  ZP    A:40 X:78 Y:5e P: 5 S:f9 pc: f88b, reg_addr:    1, cycle:  13168
f88b a9 40 60 LDA  IMM   A:40 X:78 Y:5e P:c5 S:f9 pc: f88d, reg_addr:   40, cycle:  13170
f88d 60 30  7 RTS  IMPL  A:40 X:78 Y:5e P:45 S:f9 pc: e2a6, reg_addr:    0, cycle:  13176
e2a6 dd  0  6 CMP  ABSX  A:40 X:78 Y:5e P:45 S:fb pc: e2a9, reg_addr:  678, cycle:  13180
e2a9 20 8e f8 JSR  ABS   A:40 X:78 Y:5e P:47 S:fb pc: f88e, reg_addr: f88e, cycle:  13186
f88e 30  7 90 BMI  REL   A:40 X:78 Y:5e P:47 S:f9 pc: f890, reg_addr: f897, cycle:  13188
f890 90  5 d0 BCC  REL   A:40 X:78 Y:5e P:47 S:f9 pc: f892, reg_addr: f897, cycle:  13190
f892 d0  3 50 BNE  REL   A:40 X:78 Y:5e P:47 S:f9 pc: f894, reg_addr: f897, cycle:  13192
f894 50  1 60 BVC  REL   A:40 X:78 Y:5e P:47 S:f9 pc: f896, reg_addr: f897, cycle:  13194
f896 60 84  0 RTS  IMPL  A:40 X:78 Y:5e P:47 S:f9 pc: e2ac, reg_addr:    0, cycle:  13200
e2ac c8 48 a9 INY  IMPL  A:40 X:78 Y:5e P:47 S:fb pc: e2ad, reg_addr:    0, cycle:  13202
e2ad 48 a9 3f PHA  IMPL  A:40 X:78 Y:5f P:45 S:fb pc: e2ae, reg_addr:    0, cycle:  13205
e2ae a9 3f 8d LDA  IMM   A:40 X:78 Y:5f P:45 S:fa pc: e2b0, reg_addr:   3f, cycle:  13207
e2b0 8d 78  6 STA  ABS   A:3f X:78 Y:5f P:45 S:fa pc: e2b3, reg_addr:  678, cycle:  13211
e2b3 68 20 9a PLA  IMPL  A:3f X:78 Y:5f P:45 S:fa pc: e2b4, reg_addr:    0, cycle:  13215
e2b4 20 9a f8 JSR  ABS   A:40 X:78 Y:5f P:45 S:fb pc: f89a, reg_addr: f89a, cycle:  13221
f89a b8 60 f0 CLV  IMPL  A:40 X:78 Y:5f P:45 S:f9 pc: f89b, reg_addr:    0, cycle:  13223
f89b 60 f0  7 RTS  IMPL  A:40 X:78 Y:5f P: 5 S:f9 pc: e2b7, reg_addr:    0, cycle:  13229
e2b7 dd  0  6 CMP  ABSX  A:40 X:78 Y:5f P: 5 S:fb pc: e2ba, reg_addr:  678, cycle:  13233
e2ba 20 9c f8 JSR  ABS   A:40 X:78 Y:5f P: 5 S:fb pc: f89c, reg_addr: f89c, cycle:  13239
f89c f0  7 30 BEQ  REL   A:40 X:78 Y:5f P: 5 S:f9 pc: f89e, reg_addr: f8a5, cycle:  13241
f89e 30  5 90 BMI  REL   A:40 X:78 Y:5f P: 5 S:f9 pc: f8a0, reg_addr: f8a5, cycle:  13243
f8a0 90  3 70 BCC  REL   A:40 X:78 Y:5f P: 5 S:f9 pc: f8a2, reg_addr: f8a5, cycle:  13245
f8a2 70  1 60 BVS  REL   A:40 X:78 Y:5f P: 5 S:f9 pc: f8a4, reg_addr: f8a5, cycle:  13247
f8a4 60 84  0 RTS  IMPL  A:40 X:78 Y:5f P: 5 S:f9 pc: e2bd, reg_addr:    0, cycle:  13253
e2bd c8 48 a9 INY  IMPL  A:40 X:78 Y:5f P: 5 S:fb pc: e2be, reg_addr:    0, cycle:  13255
e2be 48 a9 41 PHA  IMPL  A:40 X:78 Y:60 P: 5 S:fb pc: e2bf, reg_addr:    0, cycle:  13258
e2bf a9 41 8d LDA  IMM   A:40 X:78 Y:60 P: 5 S:fa pc: e2c1, reg_addr:   41, cycle:  13260
e2c1 8d 78  6 STA  ABS   A:41 X:78 Y:60 P: 5 S:fa pc: e2c4, reg_addr:  678, cycle:  13264
e2c4 68 dd  0 PLA  IMPL  A:41 X:78 Y:60 P: 5 S:fa pc: e2c5, reg_addr:    0, cycle:  13268
e2c5 dd  0  6 CMP  ABSX  A:40 X:78 Y:60 P: 5 S:fb pc: e2c8, reg_addr:  678, cycle:  13272
e2c8 20 a8 f8 JSR  ABS   A:40 X:78 Y:60 P:84 S:fb pc: f8a8, reg_addr: f8a8, cycle:  13278
f8a8 f0  5 10 BEQ  REL   A:40 X:78 Y:60 P:84 S:f9 pc: f8aa, reg_addr: f8af, cycle:  13280
f8aa 10  3 10 BPL  REL   A:40 X:78 Y:60 P:84 S:f9 pc: f8ac, reg_addr: f8af, cycle:  13282
f8ac 10  1 60 BPL  REL   A:40 X:78 Y:60 P:84 S:f9 pc: f8ae, reg_addr: f8af, cycle:  13284
f8ae 60 84  0 RTS  IMPL  A:40 X:78 Y:60 P:84 S:f9 pc: e2cb, reg_addr:    0, cycle:  13290
e2cb c8 48 a9 INY  IMPL  A:40 X:78 Y:60 P:84 S:fb pc: e2cc, reg_addr:    0, cycle:  13292
e2cc 48 a9  0 PHA  IMPL  A:40 X:78 Y:61 P: 4 S:fb pc: e2cd, reg_addr:    0, cycle:  13295
e2cd a9  0 8d LDA  IMM   A:40 X:78 Y:61 P: 4 S:fa pc: e2cf, reg_addr:    0, cycle:  13297
e2cf 8d 78  6 STA  ABS   A: 0 X:78 Y:61 P: 6 S:fa pc: e2d2, reg_addr:  678, cycle:  13301
e2d2 68 20 b2 PLA  IMPL  A: 0 X:78 Y:61 P: 6 S:fa pc: e2d3, reg_addr:    0, cycle:  13305
e2d3 20 b2 f8 JSR  ABS   A:40 X:78 Y:61 P: 4 S:fb pc: f8b2, reg_addr: f8b2, cycle:  13311
f8b2 a9 80 60 LDA  IMM   A:40 X:78 Y:61 P: 4 S:f9 pc: f8b4, reg_addr:   80, cycle:  13313
f8b4 60 f0  5 RTS  IMPL  A:80 X:78 Y:61 P:84 S:f9 pc: e2d6, reg_addr:    0, cycle:  13319
e2d6 dd  0  6 CMP  ABSX  A:80 X:78 Y:61 P:84 S:fb pc: e2d9, reg_addr:  678, cycle:  13323
e2d9 20 b5 f8 JSR  ABS   A:80 X:78 Y:61 P:85 S:fb pc: f8b5, reg_addr: f8b5, cycle:  13329
f8b5 f0  5 10 BEQ  REL   A:80 X:78 Y:61 P:85 S:f9 pc: f8b7, reg_addr: f8bc, cycle:  13331
f8b7 10  3 90 BPL  REL   A:80 X:78 Y:61 P:85 S:f9 pc: f8b9, reg_addr: f8bc, cycle:  13333
f8b9 90  1 60 BCC  REL   A:80 X:78 Y:61 P:85 S:f9 pc: f8bb, reg_addr: f8bc, cycle:  13335
f8bb 60 84  0 RTS  IMPL  A:80 X:78 Y:61 P:85 S:f9 pc: e2dc, reg_addr:    0, cycle:  13341
e2dc c8 48 a9 INY  IMPL  A:80 X:78 Y:61 P:85 S:fb pc: e2dd, reg_addr:    0, cycle:  13343
e2dd 48 a9 80 PHA  IMPL  A:80 X:78 Y:62 P: 5 S:fb pc: e2de, reg_addr:    0, cycle:  13346
e2de a9 80 8d LDA  IMM   A:80 X:78 Y:62 P: 5 S:fa pc: e2e0, reg_addr:   80, cycle:  13348
e2e0 8d 78  6 STA  ABS   A:80 X:78 Y:62 P:85 S:fa pc: e2e3, reg_addr:  678, cycle:  13352
e2e3 68 dd  0 PLA  IMPL  A:80 X:78 Y:62 P:85 S:fa pc: e2e4, reg_addr:    0, cycle:  13356
e2e4 dd  0  6 CMP  ABSX  A:80 X:78 Y:62 P:85 S:fb pc: e2e7, reg_addr:  678, cycle:  13360
e2e7 20 bf f8 JSR  ABS   A:80 X:78 Y:62 P: 7 S:fb pc: f8bf, reg_addr: f8bf, cycle:  13366
f8bf d0  5 30 BNE  REL   A:80 X:78 Y:62 P: 7 S:f9 pc: f8c1, reg_addr: f8c6, cycle:  13368
f8c1 30  3 90 BMI  REL   A:80 X:78 Y:62 P: 7 S:f9 pc: f8c3, reg_addr: f8c6, cycle:  13370
f8c3 90  1 60 BCC  REL   A:80 X:78 Y:62 P: 7 S:f9 pc: f8c5, reg_addr: f8c6, cycle:  13372
f8c5 60 84  0 RTS  IMPL  A:80 X:78 Y:62 P: 7 S:f9 pc: e2ea, reg_addr:    0, cycle:  13378
e2ea c8 48 a9 INY  IMPL  A:80 X:78 Y:62 P: 7 S:fb pc: e2eb, reg_addr:    0, cycle:  13380
e2eb 48 a9 81 PHA  IMPL  A:80 X:78 Y:63 P: 5 S:fb pc: e2ec, reg_addr:    0, cycle:  13383
e2ec a9 81 8d LDA  IMM   A:80 X:78 Y:63 P: 5 S:fa pc: e2ee, reg_addr:   81, cycle:  13385
e2ee 8d 78  6 STA  ABS   A:81 X:78 Y:63 P:85 S:fa pc: e2f1, reg_addr:  678, cycle:  13389
e2f1 68 dd  0 PLA  IMPL  A:81 X:78 Y:63 P:85 S:fa pc: e2f2, reg_addr:    0, cycle:  13393
e2f2 dd  0  6 CMP  ABSX  A:80 X:78 Y:63 P:85 S:fb pc: e2f5, reg_addr:  678, cycle:  13397
e2f5 20 c9 f8 JSR  ABS   A:80 X:78 Y:63 P:84 S:fb pc: f8c9, reg_addr: f8c9, cycle:  13403
f8c9 b0  5 f0 BCS  REL   A:80 X:78 Y:63 P:84 S:f9 pc: f8cb, reg_addr: f8d0, cycle:  13405
f8cb f0  3 10 BEQ  REL   A:80 X:78 Y:63 P:84 S:f9 pc: f8cd, reg_addr: f8d0, cycle:  13407
f8cd 10  1 60 BPL  REL   A:80 X:78 Y:63 P:84 S:f9 pc: f8cf, reg_addr: f8d0, cycle:  13409
f8cf 60 84  0 RTS  IMPL  A:80 X:78 Y:63 P:84 S:f9 pc: e2f8, reg_addr:    0, cycle:  13415
e2f8 c8 48 a9 INY  IMPL  A:80 X:78 Y:63 P:84 S:fb pc: e2f9, reg_addr:    0, cycle:  13417
e2f9 48 a9 7f PHA  IMPL  A:80 X:78 Y:64 P: 4 S:fb pc: e2fa, reg_addr:    0, cycle:  13420
e2fa a9 7f 8d LDA  IMM   A:80 X:78 Y:64 P: 4 S:fa pc: e2fc, reg_addr:   7f, cycle:  13422
e2fc 8d 78  6 STA  ABS   A:7f X:78 Y:64 P: 4 S:fa pc: e2ff, reg_addr:  678, cycle:  13426
e2ff 68 dd  0 PLA  IMPL  A:7f X:78 Y:64 P: 4 S:fa pc: e300, reg_addr:    0, cycle:  13430
e300 dd  0  6 CMP  ABSX  A:80 X:78 Y:64 P:84 S:fb pc: e303, reg_addr:  678, cycle:  13434
e303 20 d3 f8 JSR  ABS   A:80 X:78 Y:64 P: 5 S:fb pc: f8d3, reg_addr: f8d3, cycle:  13440
f8d3 90  5 f0 BCC  REL   A:80 X:78 Y:64 P: 5 S:f9 pc: f8d5, reg_addr: f8da, cycle:  13442
f8d5 f0  3 30 BEQ  REL   A:80 X:78 Y:64 P: 5 S:f9 pc: f8d7, reg_addr: f8da, cycle:  13444
f8d7 30  1 60 BMI  REL   A:80 X:78 Y:64 P: 5 S:f9 pc: f8d9, reg_addr: f8da, cycle:  13446
f8d9 60 84  0 RTS  IMPL  A:80 X:78 Y:64 P: 5 S:f9 pc: e306, reg_addr:    0, cycle:  13452
e306 c8 a9 40 INY  IMPL  A:80 X:78 Y:64 P: 5 S:fb pc: e307, reg_addr:    0, cycle:  13454
e307 a9 40 8d LDA  IMM   A:80 X:78 Y:65 P: 5 S:fb pc: e309, reg_addr:   40, cycle:  13456
e309 8d 78  6 STA  ABS   A:40 X:78 Y:65 P: 5 S:fb pc: e30c, reg_addr:  678, cycle:  13460
e30c 20 31 f9 JSR  ABS   A:40 X:78 Y:65 P: 5 S:fb pc: f931, reg_addr: f931, cycle:  13466
f931 24  1 a9 BIT  ZP    A:40 X:78 Y:65 P: 5 S:f9 pc: f933, reg_addr:    1, cycle:  13469
f933 a9 40 38 LDA  IMM   A:40 X:78 Y:65 P:c5 S:f9 pc: f935, reg_addr:   40, cycle:  13471
f935 38 60 30 SEC  IMPL  A:40 X:78 Y:65 P:45 S:f9 pc: f936, reg_addr:    0, cycle:  13473
f936 60 30  b RTS  IMPL  A:40 X:78 Y:65 P:45 S:f9 pc: e30f, reg_addr:    0, cycle:  13479
e30f fd  0  6 SBC  ABSX  A:40 X:78 Y:65 P:45 S:fb pc: e312, reg_addr:  678, cycle:  13483
e312 20 37 f9 JSR  ABS   A: 0 X:78 Y:65 P: 7 S:fb pc: f937, reg_addr: f937, cycle:  13489
f937 30  b 90 BMI  REL   A: 0 X:78 Y:65 P: 7 S:f9 pc: f939, reg_addr: f944, cycle:  13491
f939 90  9 d0 BCC  REL   A: 0 X:78 Y:65 P: 7 S:f9 pc: f93b, reg_addr: f944, cycle:  13493
f93b d0  7 70 BNE  REL   A: 0 X:78 Y:65 P: 7 S:f9 pc: f93d, reg_addr: f944, cycle:  13495
f93d 70  5 c9 BVS  REL   A: 0 X:78 Y:65 P: 7 S:f9 pc: f93f, reg_addr: f944, cycle:  13497
f93f c9  0 d0 CMP  IMM   A: 0 X:78 Y:65 P: 7 S:f9 pc: f941, reg_addr:    0, cycle:  13499
f941 d0  1 60 BNE  REL   A: 0 X:78 Y:65 P: 7 S:f9 pc: f943, reg_addr: f944, cycle:  13501
f943 60 84  0 RTS  IMPL  A: 0 X:78 Y:65 P: 7 S:f9 pc: e315, reg_addr:    0, cycle:  13507
e315 c8 a9 3f INY  IMPL  A: 0 X:78 Y:65 P: 7 S:fb pc: e316, reg_addr:    0, cycle:  13509
e316 a9 3f 8d LDA  IMM   A: 0 X:78 Y:66 P: 5 S:fb pc: e318, reg_addr:   3f, cycle:  13511
e318 8d 78  6 STA  ABS   A:3f X:78 Y:66 P: 5 S:fb pc: e31b, reg_addr:  678, cycle:  13515
e31b 20 47 f9 JSR  ABS   A:3f X:78 Y:66 P: 5 S:fb pc: f947, reg_addr: f947, cycle:  13521
f947 b8 38 a9 CLV  IMPL  A:3f X:78 Y:66 P: 5 S:f9 pc: f948, reg_addr:    0, cycle:  13523
f948 38 a9 40 SEC  IMPL  A:3f X:78 Y:66 P: 5 S:f9 pc: f949, reg_addr:    0, cycle:  13525
f949 a9 40 60 LDA  IMM   A:3f X:78 Y:66 P: 5 S:f9 pc: f94b, reg_addr:   40, cycle:  13527
f94b 60 f0  b RTS  IMPL  A:40 X:78 Y:66 P: 5 S:f9 pc: e31e, reg_addr:    0, cycle:  13533
e31e fd  0  6 SBC  ABSX  A:40 X:78 Y:66 P: 5 S:fb pc: e321, reg_addr:  678, cycle:  13537
e321 20 4c f9 JSR  ABS   A: 1 X:78 Y:66 P: 5 S:fb pc: f94c, reg_addr: f94c, cycle:  13543
f94c f0  b 30 BEQ  REL   A: 1 X:78 Y:66 P: 5 S:f9 pc: f94e, reg_addr: f959, cycle:  13545
f94e 30  9 90 BMI  REL   A: 1 X:78 Y:66 P: 5 S:f9 pc: f950, reg_addr: f959, cycle:  13547
f950 90  7 70 BCC  REL   A: 1 X:78 Y:66 P: 5 S:f9 pc: f952, reg_addr: f959, cycle:  13549
f952 70  5 c9 BVS  REL   A: 1 X:78 Y:66 P: 5 S:f9 pc: f954, reg_addr: f959, cycle:  13551
f954 c9  1 d0 CMP  IMM   A: 1 X:78 Y:66 P: 5 S:f9 pc: f956, reg_addr:    1, cycle:  13553
f956 d0  1 60 BNE  REL   A: 1 X:78 Y:66 P: 7 S:f9 pc: f958, reg_addr: f959, cycle:  13555
f958 60 84  0 RTS  IMPL  A: 1 X:78 Y:66 P: 7 S:f9 pc: e324, reg_addr:    0, cycle:  13561
e324 c8 a9 41 INY  IMPL  A: 1 X:78 Y:66 P: 7 S:fb pc: e325, reg_addr:    0, cycle:  13563
e325 a9 41 8d LDA  IMM   A: 1 X:78 Y:67 P: 5 S:fb pc: e327, reg_addr:   41, cycle:  13565
e327 8d 78  6 STA  ABS   A:41 X:78 Y:67 P: 5 S:fb pc: e32a, reg_addr:  678, cycle:  13569
e32a 20 5c f9 JSR  ABS   A:41 X:78 Y:67 P: 5 S:fb pc: f95c, reg_addr: f95c, cycle:  13575
f95c a9 40 38 LDA  IMM   A:41 X:78 Y:67 P: 5 S:f9 pc: f95e, reg_addr:   40, cycle:  13577
f95e 38 24  1 SEC  IMPL  A:40 X:78 Y:67 P: 5 S:f9 pc: f95f, reg_addr:    0, cycle:  13579
f95f 24  1 60 BIT  ZP    A:40 X:78 Y:67 P: 5 S:f9 pc: f961, reg_addr:    1, cycle:  13582
f961 60 b0  b RTS  IMPL  A:40 X:78 Y:67 P:c5 S:f9 pc: e32d, reg_addr:    0, cycle:  13588
e32d fd  0  6 SBC  ABSX  A:40 X:78 Y:67 P:c5 S:fb pc: e330, reg_addr:  678, cycle:  13592
e330 20 62 f9 JSR  ABS   A:ff X:78 Y:67 P:84 S:fb pc: f962, reg_addr: f962, cycle:  13598
f962 b0  b f0 BCS  REL   A:ff X:78 Y:67 P:84 S:f9 pc: f964, reg_addr: f96f, cycle:  13600
f964 f0  9 10 BEQ  REL   A:ff X:78 Y:67 P:84 S:f9 pc: f966, reg_addr: f96f, cycle:  13602
f966 10  7 70 BPL  REL   A:ff X:78 Y:67 P:84 S:f9 pc: f968, reg_addr: f96f, cycle:  13604
f968 70  5 c9 BVS  REL   A:ff X:78 Y:67 P:84 S:f9 pc: f96a, reg_addr: f96f, cycle:  13606
f96a c9 ff d0 CMP  IMM   A:ff X:78 Y:67 P:84 S:f9 pc: f96c, reg_addr:   ff, cycle:  13608
f96c d0  1 60 BNE  REL   A:ff X:78 Y:67 P: 7 S:f9 pc: f96e, reg_addr: f96f, cycle:  13610
f96e 60 84  0 RTS  IMPL  A:ff X:78 Y:67 P: 7 S:f9 pc: e333, reg_addr:    0, cycle:  13616
e333 c8 a9  0 INY  IMPL  A:ff X:78 Y:67 P: 7 S:fb pc: e334, reg_addr:    0, cycle:  13618
e334 a9  0 8d LDA  IMM   A:ff X:78 Y:68 P: 5 S:fb pc: e336, reg_addr:    0, cycle:  13620
e336 8d 78  6 STA  ABS   A: 0 X:78 Y:68 P: 7 S:fb pc: e339, reg_addr:  678, cycle:  13624
e339 20 72 f9 JSR  ABS   A: 0 X:78 Y:68 P: 7 S:fb pc: f972, reg_addr: f972, cycle:  13630
f972 18 a9 80 CLC  IMPL  A: 0 X:78 Y:68 P: 7 S:f9 pc: f973, reg_addr:    0, cycle:  13632
f973 a9 80 60 LDA  IMM   A: 0 X:78 Y:68 P: 6 S:f9 pc: f975, reg_addr:   80, cycle:  13634
f975 60 90  5 RTS  IMPL  A:80 X:78 Y:68 P:84 S:f9 pc: e33c, reg_addr:    0, cycle:  13640
e33c fd  0  6 SBC  ABSX  A:80 X:78 Y:68 P:84 S:fb pc: e33f, reg_addr:  678, cycle:  13644
e33f 20 76 f9 JSR  ABS   A:7f X:78 Y:68 P:45 S:fb pc: f976, reg_addr: f976, cycle:  13650
f976 90  5 c9 BCC  REL   A:7f X:78 Y:68 P:45 S:f9 pc: f978, reg_addr: f97d, cycle:  13652
f978 c9 7f d0 CMP  IMM   A:7f X:78 Y:68 P:45 S:f9 pc: f97a, reg_addr:   7f, cycle:  13654
f97a d0  1 60 BNE  REL   A:7f X:78 Y:68 P:47 S:f9 pc: f97c, reg_addr: f97d, cycle:  13656
f97c 60 84  0 RTS  IMPL  A:7f X:78 Y:68 P:47 S:f9 pc: e342, reg_addr:    0, cycle:  13662
e342 c8 a9 7f INY  IMPL  A:7f X:78 Y:68 P:47 S:fb pc: e343, reg_addr:    0, cycle:  13664
e343 a9 7f 8d LDA  IMM   A:7f X:78 Y:69 P:45 S:fb pc: e345, reg_addr:   7f, cycle:  13666
e345 8d 78  6 STA  ABS   A:7f X:78 Y:69 P:45 S:fb pc: e348, reg_addr:  678, cycle:  13670
e348 20 80 f9 JSR  ABS   A:7f X:78 Y:69 P:45 S:fb pc: f980, reg_addr: f980, cycle:  13676
f980 38 a9 81 SEC  IMPL  A:7f X:78 Y:69 P:45 S:f9 pc: f981, reg_addr:    0, cycle:  13678
f981 a9 81 60 LDA  IMM   A:7f X:78 Y:69 P:45 S:f9 pc: f983, reg_addr:   81, cycle:  13680
f983 60 50  7 RTS  IMPL  A:81 X:78 Y:69 P:c5 S:f9 pc: e34b, reg_addr:    0, cycle:  13686
e34b fd  0  6 SBC  ABSX  A:81 X:78 Y:69 P:c5 S:fb pc: e34e, reg_addr:  678, cycle:  13690
e34e 20 84 f9 JSR  ABS   A: 2 X:78 Y:69 P:45 S:fb pc: f984, reg_addr: f984, cycle:  13696
f984 50  7 90 BVC  REL   A: 2 X:78 Y:69 P:45 S:f9 pc: f986, reg_addr: f98d, cycle:  13698
f986 90  5 c9 BCC  REL   A: 2 X:78 Y:69 P:45 S:f9 pc: f988, reg_addr: f98d, cycle:  13700
f988 c9  2 d0 CMP  IMM   A: 2 X:78 Y:69 P:45 S:f9 pc: f98a, reg_addr:    2, cycle:  13702
f98a d0  1 60 BNE  REL   A: 2 X:78 Y:69 P:47 S:f9 pc: f98c, reg_addr: f98d, cycle:  13704
f98c 60 84  0 RTS  IMPL  A: 2 X:78 Y:69 P:47 S:f9 pc: e351, reg_addr:    0, cycle:  13710
e351 a9 aa 8d LDA  IMM   A: 2 X:78 Y:69 P:47 S:fb pc: e353, reg_addr:   aa, cycle:  13712
e353 8d 33  6 STA  ABS   A:aa X:78 Y:69 P:c5 S:fb pc: e356, reg_addr:  633, cycle:  13716
e356 a9 bb 8d LDA  IMM   A:aa X:78 Y:69 P:c5 S:fb pc: e358, reg_addr:   bb, cycle:  13718
e358 8d 89  6 STA  ABS   A:bb X:78 Y:69 P:c5 S:fb pc: e35b, reg_addr:  689, cycle:  13722
e35b a2  0 a0 LDX  IMM   A:bb X:78 Y:69 P:c5 S:fb pc: e35d, reg_addr:    0, cycle:  13724
e35d a0 66 24 LDY  IMM   A:bb X: 0 Y:69 P:47 S:fb pc: e35f, reg_addr:   66, cycle:  13726
e35f 24  1 38 BIT  ZP    A:bb X: 0 Y:66 P:45 S:fb pc: e361, reg_addr:    1, cycle:  13729
e361 38 a9  0 SEC  IMPL  A:bb X: 0 Y:66 P:c5 S:fb pc: e362, reg_addr:    0, cycle:  13731
e362 a9  0 bd LDA  IMM   A:bb X: 0 Y:66 P:c5 S:fb pc: e364, reg_addr:    0, cycle:  13733
e364 bd 33  6 LDA  ABSX  A: 0 X: 0 Y:66 P:47 S:fb pc: e367, reg_addr:  633, cycle:  13737
e367 10 12 f0 BPL  REL   A:aa X: 0 Y:66 P:c5 S:fb pc: e369, reg_addr: e37b, cycle:  13739
e369 f0 10 50 BEQ  REL   A:aa X: 0 Y:66 P:c5 S:fb pc: e36b, reg_addr: e37b, cycle:  13741
e36b 50  e 90 BVC  REL   A:aa X: 0 Y:66 P:c5 S:fb pc: e36d, reg_addr: e37b, cycle:  13743
e36d 90  c c0 BCC  REL   A:aa X: 0 Y:66 P:c5 S:fb pc: e36f, reg_addr: e37b, cycle:  13745
e36f c0 66 d0 CPY  IMM   A:aa X: 0 Y:66 P:c5 S:fb pc: e371, reg_addr:   66, cycle:  13747
e371 d0  8 e0 BNE  REL   A:aa X: 0 Y:66 P:47 S:fb pc: e373, reg_addr: e37b, cycle:  13749
e373 e0  0 d0 CPX  IMM   A:aa X: 0 Y:66 P:47 S:fb pc: e375, reg_addr:    0, cycle:  13751
e375 d0  4 c9 BNE  REL   A:aa X: 0 Y:66 P:47 S:fb pc: e377, reg_addr: e37b, cycle:  13753
e377 c9 aa f0 CMP  IMM   A:aa X: 0 Y:66 P:47 S:fb pc: e379, reg_addr:   aa, cycle:  13755
e379 f0  4 a9 BEQ  REL   A:aa X: 0 Y:66 P:47 S:fb pc: e37f, reg_addr: e37f, cycle:  13758
e37f a2 8a a0 LDX  IMM   A:aa X: 0 Y:66 P:47 S:fb pc: e381, reg_addr:   8a, cycle:  13760
e381 a0 66 b8 LDY  IMM   A:aa X:8a Y:66 P:c5 S:fb pc: e383, reg_addr:   66, cycle:  13762
e383 b8 18 a9 CLV  IMPL  A:aa X:8a Y:66 P:45 S:fb pc: e384, reg_addr:    0, cycle:  13764
e384 18 a9  0 CLC  IMPL  A:aa X:8a Y:66 P: 5 S:fb pc: e385, reg_addr:    0, cycle:  13766
e385 a9  0 bd LDA  IMM   A:aa X:8a Y:66 P: 4 S:fb pc: e387, reg_addr:    0, cycle:  13768
e387 bd ff  5 LDA  ABSX  A: 0 X:8a Y:66 P: 6 S:fb pc: e38a, reg_addr:  689, cycle:  13773
e38a 10 12 f0 BPL  REL   A:bb X:8a Y:66 P:84 S:fb pc: e38c, reg_addr: e39e, cycle:  13775
e38c f0 10 70 BEQ  REL   A:bb X:8a Y:66 P:84 S:fb pc: e38e, reg_addr: e39e, cycle:  13777
e38e 70  e b0 BVS  REL   A:bb X:8a Y:66 P:84 S:fb pc: e390, reg_addr: e39e, cycle:  13779
e390 b0  c c9 BCS  REL   A:bb X:8a Y:66 P:84 S:fb pc: e392, reg_addr: e39e, cycle:  13781
e392 c9 bb d0 CMP  IMM   A:bb X:8a Y:66 P:84 S:fb pc: e394, reg_addr:   bb, cycle:  13783
e394 d0  8 c0 BNE  REL   A:bb X:8a Y:66 P: 7 S:fb pc: e396, reg_addr: e39e, cycle:  13785
e396 c0 66 d0 CPY  IMM   A:bb X:8a Y:66 P: 7 S:fb pc: e398, reg_addr:   66, cycle:  13787
e398 d0  4 e0 BNE  REL   A:bb X:8a Y:66 P: 7 S:fb pc: e39a, reg_addr: e39e, cycle:  13789
e39a e0 8a f0 CPX  IMM   A:bb X:8a Y:66 P: 7 S:fb pc: e39c, reg_addr:   8a, cycle:  13791
e39c f0  4 a9 BEQ  REL   A:bb X:8a Y:66 P: 7 S:fb pc: e3a2, reg_addr: e3a2, cycle:  13794
e3a2 24  1 38 BIT  ZP    A:bb X:8a Y:66 P: 7 S:fb pc: e3a4, reg_addr:    1, cycle:  13797
e3a4 38 a9 44 SEC  IMPL  A:bb X:8a Y:66 P:c5 S:fb pc: e3a5, reg_addr:    0, cycle:  13799
e3a5 a9 44 a2 LDA  IMM   A:bb X:8a Y:66 P:c5 S:fb pc: e3a7, reg_addr:   44, cycle:  13801
e3a7 a2  0 9d LDX  IMM   A:44 X:8a Y:66 P:45 S:fb pc: e3a9, reg_addr:    0, cycle:  13803
e3a9 9d 33  6 STA  ABSX  A:44 X: 0 Y:66 P:47 S:fb pc: e3ac, reg_addr:  633, cycle:  13807
e3ac ad 33  6 LDA  ABS   A:44 X: 0 Y:66 P:47 S:fb pc: e3af, reg_addr:  633, cycle:  13811
e3af 90 1a c9 BCC  REL   A:44 X: 0 Y:66 P:45 S:fb pc: e3b1, reg_addr: e3cb, cycle:  13813
e3b1 c9 44 d0 CMP  IMM   A:44 X: 0 Y:66 P:45 S:fb pc: e3b3, reg_addr:   44, cycle:  13815
e3b3 d0 16 50 BNE  REL   A:44 X: 0 Y:66 P:47 S:fb pc: e3b5, reg_addr: e3cb, cycle:  13817
e3b5 50 14 18 BVC  REL   A:44 X: 0 Y:66 P:47 S:fb pc: e3b7, reg_addr: e3cb, cycle:  13819
e3b7 18 b8 a9 CLC  IMPL  A:44 X: 0 Y:66 P:47 S:fb pc: e3b8, reg_addr:    0, cycle:  13821
e3b8 b8 a9 99 CLV  IMPL  A:44 X: 0 Y:66 P:46 S:fb pc: e3b9, reg_addr:    0, cycle:  13823
e3b9 a9 99 a2 LDA  IMM   A:44 X: 0 Y:66 P: 6 S:fb pc: e3bb, reg_addr:   99, cycle:  13825
e3bb a2 80 9d LDX  IMM   A:99 X: 0 Y:66 P:84 S:fb pc: e3bd, reg_addr:   80, cycle:  13827
e3bd 9d 85  5 STA  ABSX  A:99 X:80 Y:66 P:84 S:fb pc: e3c0, reg_addr:  605, cycle:  13832
e3c0 ad  5  6 LDA  ABS   A:99 X:80 Y:66 P:84 S:fb pc: e3c3, reg_addr:  605, cycle:  13836
e3c3 b0  6 c9 BCS  REL   A:99 X:80 Y:66 P:84 S:fb pc: e3c5, reg_addr: e3cb, cycle:  13838
e3c5 c9 99 d0 CMP  IMM   A:99 X:80 Y:66 P:84 S:fb pc: e3c7, reg_addr:   99, cycle:  13840
e3c7 d0  2 50 BNE  REL   A:99 X:80 Y:66 P: 7 S:fb pc: e3c9, reg_addr: e3cb, cycle:  13842
e3c9 50  4 a9 BVC  REL   A:99 X:80 Y:66 P: 7 S:fb pc: e3cf, reg_addr: e3cf, cycle:  13845
e3cf a0 6d a2 LDY  IMM   A:99 X:80 Y:66 P: 7 S:fb pc: e3d1, reg_addr:   6d, cycle:  13847
e3d1 a2 6d 20 LDX  IMM   A:99 X:80 Y:6d P: 5 S:fb pc: e3d3, reg_addr:   6d, cycle:  13849
e3d3 20 90 f9 JSR  ABS   A:99 X:6d Y:6d P: 5 S:fb pc: f990, reg_addr: f990, cycle:  13855
f990 a2 55 a9 LDX  IMM   A:99 X:6d Y:6d P: 5 S:f9 pc: f992, reg_addr:   55, cycle:  13857
f992 a9 ff 85 LDA  IMM   A:99 X:55 Y:6d P: 5 S:f9 pc: f994, reg_addr:   ff, cycle:  13859
f994 85  1 ea STA  ZP    A:ff X:55 Y:6d P:85 S:f9 pc: f996, reg_addr:    1, cycle:  13862
f996 ea 24  1 NOP  IMPL  A:ff X:55 Y:6d P:85 S:f9 pc: f997, reg_addr:    0, cycle:  13864
f997 24  1 38 BIT  ZP    A:ff X:55 Y:6d P:85 S:f9 pc: f999, reg_addr:    1, cycle:  13867
f999 38 a9  1 SEC  IMPL  A:ff X:55 Y:6d P:c5 S:f9 pc: f99a, reg_addr:    0, cycle:  13869
f99a a9  1 60 LDA  IMM   A:ff X:55 Y:6d P:c5 S:f9 pc: f99c, reg_addr:    1, cycle:  13871
f99c 60 90 1b RTS  IMPL  A: 1 X:55 Y:6d P:45 S:f9 pc: e3d6, reg_addr:    0, cycle:  13877
e3d6 9d  0  6 STA  ABSX  A: 1 X:55 Y:6d P:45 S:fb pc: e3d9, reg_addr:  655, cycle:  13881
e3d9 5e  0  6 LSR  ABSX  A: 1 X:55 Y:6d P:45 S:fb pc: e3dc, reg_addr:  655, cycle:  13887
e3dc bd  0  6 LDA  ABSX  A: 1 X:55 Y:6d P:47 S:fb pc: e3df, reg_addr:  655, cycle:  13891
e3df 20 9d f9 JSR  ABS   A: 0 X:55 Y:6d P:47 S:fb pc: f99d, reg_addr: f99d, cycle:  13897
f99d 90 1b d0 BCC  REL   A: 0 X:55 Y:6d P:47 S:f9 pc: f99f, reg_addr: f9ba, cycle:  13899
f99f d0 19 30 BNE  REL   A: 0 X:55 Y:6d P:47 S:f9 pc: f9a1, reg_addr: f9ba, cycle:  13901
f9a1 30 17 50 BMI  REL   A: 0 X:55 Y:6d P:47 S:f9 pc: f9a3, reg_addr: f9ba, cycle:  13903
f9a3 50 15 c9 BVC  REL   A: 0 X:55 Y:6d P:47 S:f9 pc: f9a5, reg_addr: f9ba, cycle:  13905
f9a5 c9  0 d0 CMP  IMM   A: 0 X:55 Y:6d P:47 S:f9 pc: f9a7, reg_addr:    0, cycle:  13907
f9a7 d0 11 b8 BNE  REL   A: 0 X:55 Y:6d P:47 S:f9 pc: f9a9, reg_addr: f9ba, cycle:  13909
f9a9 b8 a9 aa CLV  IMPL  A: 0 X:55 Y:6d P:47 S:f9 pc: f9aa, reg_addr:    0, cycle:  13911
f9aa a9 aa 60 LDA  IMM   A: 0 X:55 Y:6d P: 7 S:f9 pc: f9ac, reg_addr:   aa, cycle:  13913
f9ac 60 b0  b RTS  IMPL  A:aa X:55 Y:6d P:85 S:f9 pc: e3e2, reg_addr:    0, cycle:  13919
e3e2 c8 9d  0 INY  IMPL  A:aa X:55 Y:6d P:85 S:fb pc: e3e3, reg_addr:    0, cycle:  13921
e3e3 9d  0  6 STA  ABSX  A:aa X:55 Y:6e P: 5 S:fb pc: e3e6, reg_addr:  655, cycle:  13925
e3e6 5e  0  6 LSR  ABSX  A:aa X:55 Y:6e P: 5 S:fb pc: e3e9, reg_addr:  655, cycle:  13931
e3e9 bd  0  6 LDA  ABSX  A:aa X:55 Y:6e P: 4 S:fb pc: e3ec, reg_addr:  655, cycle:  13935
e3ec 20 ad f9 JSR  ABS   A:55 X:55 Y:6e P: 4 S:fb pc: f9ad, reg_addr: f9ad, cycle:  13941
f9ad b0  b f0 BCS  REL   A:55 X:55 Y:6e P: 4 S:f9 pc: f9af, reg_addr: f9ba, cycle:  13943
f9af f0  9 30 BEQ  REL   A:55 X:55 Y:6e P: 4 S:f9 pc: f9b1, reg_addr: f9ba, cycle:  13945
f9b1 30  7 70 BMI  REL   A:55 X:55 Y:6e P: 4 S:f9 pc: f9b3, reg_addr: f9ba, cycle:  13947
f9b3 70  5 c9 BVS  REL   A:55 X:55 Y:6e P: 4 S:f9 pc: f9b5, reg_addr: f9ba, cycle:  13949
f9b5 c9 55 d0 CMP  IMM   A:55 X:55 Y:6e P: 4 S:f9 pc: f9b7, reg_addr:   55, cycle:  13951
f9b7 d0  1 60 BNE  REL   A:55 X:55 Y:6e P: 7 S:f9 pc: f9b9, reg_addr: f9ba, cycle:  13953
f9b9 60 84  0 RTS  IMPL  A:55 X:55 Y:6e P: 7 S:f9 pc: e3ef, reg_addr:    0, cycle:  13959
e3ef c8 20 bd INY  IMPL  A:55 X:55 Y:6e P: 7 S:fb pc: e3f0, reg_addr:    0, cycle:  13961
e3f0 20 bd f9 JSR  ABS   A:55 X:55 Y:6f P: 5 S:fb pc: f9bd, reg_addr: f9bd, cycle:  13967
f9bd 24  1 38 BIT  ZP    A:55 X:55 Y:6f P: 5 S:f9 pc: f9bf, reg_addr:    1, cycle:  13970
f9bf 38 a9 80 SEC  IMPL  A:55 X:55 Y:6f P:c5 S:f9 pc: f9c0, reg_addr:    0, cycle:  13972
f9c0 a9 80 60 LDA  IMM   A:55 X:55 Y:6f P:c5 S:f9 pc: f9c2, reg_addr:   80, cycle:  13974
f9c2 60 90 1c RTS  IMPL  A:80 X:55 Y:6f P:c5 S:f9 pc: e3f3, reg_addr:    0, cycle:  13980
e3f3 9d  0  6 STA  ABSX  A:80 X:55 Y:6f P:c5 S:fb pc: e3f6, reg_addr:  655, cycle:  13984
e3f6 1e  0  6 ASL  ABSX  A:80 X:55 Y:6f P:c5 S:fb pc: e3f9, reg_addr:  655, cycle:  13990
e3f9 bd  0  6 LDA  ABSX  A:80 X:55 Y:6f P:47 S:fb pc: e3fc, reg_addr:  655, cycle:  13994
e3fc 20 c3 f9 JSR  ABS   A: 0 X:55 Y:6f P:47 S:fb pc: f9c3, reg_addr: f9c3, cycle:  14000
f9c3 90 1c d0 BCC  REL   A: 0 X:55 Y:6f P:47 S:f9 pc: f9c5, reg_addr: f9e1, cycle:  14002
f9c5 d0 1a 30 BNE  REL   A: 0 X:55 Y:6f P:47 S:f9 pc: f9c7, reg_addr: f9e1, cycle:  14004
f9c7 30 18 50 BMI  REL   A: 0 X:55 Y:6f P:47 S:f9 pc: f9c9, reg_addr: f9e1, cycle:  14006
f9c9 50 16 c9 BVC  REL   A: 0 X:55 Y:6f P:47 S:f9 pc: f9cb, reg_addr: f9e1, cycle:  14008
f9cb c9  0 d0 CMP  IMM   A: 0 X:55 Y:6f P:47 S:f9 pc: f9cd, reg_addr:    0, cycle:  14010
f9cd d0 12 b8 BNE  REL   A: 0 X:55 Y:6f P:47 S:f9 pc: f9cf, reg_addr: f9e1, cycle:  14012
f9cf b8 a9 55 CLV  IMPL  A: 0 X:55 Y:6f P:47 S:f9 pc: f9d0, reg_addr:    0, cycle:  14014
f9d0 a9 55 38 LDA  IMM   A: 0 X:55 Y:6f P: 7 S:f9 pc: f9d2, reg_addr:   55, cycle:  14016
f9d2 38 60 b0 SEC  IMPL  A:55 X:55 Y:6f P: 5 S:f9 pc: f9d3, reg_addr:    0, cycle:  14018
f9d3 60 b0  b RTS  IMPL  A:55 X:55 Y:6f P: 5 S:f9 pc: e3ff, reg_addr:    0, cycle:  14024
e3ff c8 9d  0 INY  IMPL  A:55 X:55 Y:6f P: 5 S:fb pc: e400, reg_addr:    0, cycle:  14026
e400 9d  0  6 STA  ABSX  A:55 X:55 Y:70 P: 5 S:fb pc: e403, reg_addr:  655, cycle:  14030
e403 1e  0  6 ASL  ABSX  A:55 X:55 Y:70 P: 5 S:fb pc: e406, reg_addr:  655, cycle:  14036
e406 bd  0  6 LDA  ABSX  A:55 X:55 Y:70 P:84 S:fb pc: e409, reg_addr:  655, cycle:  14040
e409 20 d4 f9 JSR  ABS   A:aa X:55 Y:70 P:84 S:fb pc: f9d4, reg_addr: f9d4, cycle:  14046
f9d4 b0  b f0 BCS  REL   A:aa X:55 Y:70 P:84 S:f9 pc: f9d6, reg_addr: f9e1, cycle:  14048
f9d6 f0  9 10 BEQ  REL   A:aa X:55 Y:70 P:84 S:f9 pc: f9d8, reg_addr: f9e1, cycle:  14050
f9d8 10  7 70 BPL  REL   A:aa X:55 Y:70 P:84 S:f9 pc: f9da, reg_addr: f9e1, cycle:  14052
f9da 70  5 c9 BVS  REL   A:aa X:55 Y:70 P:84 S:f9 pc: f9dc, reg_addr: f9e1, cycle:  14054
f9dc c9 aa d0 CMP  IMM   A:aa X:55 Y:70 P:84 S:f9 pc: f9de, reg_addr:   aa, cycle:  14056
f9de d0  1 60 BNE  REL   A:aa X:55 Y:70 P: 7 S:f9 pc: f9e0, reg_addr: f9e1, cycle:  14058
f9e0 60 84  0 RTS  IMPL  A:aa X:55 Y:70 P: 7 S:f9 pc: e40c, reg_addr:    0, cycle:  14064
e40c c8 20 e4 INY  IMPL  A:aa X:55 Y:70 P: 7 S:fb pc: e40d, reg_addr:    0, cycle:  14066
e40d 20 e4 f9 JSR  ABS   A:aa X:55 Y:71 P: 5 S:fb pc: f9e4, reg_addr: f9e4, cycle:  14072
f9e4 24  1 38 BIT  ZP    A:aa X:55 Y:71 P: 5 S:f9 pc: f9e6, reg_addr:    1, cycle:  14075
f9e6 38 a9  1 SEC  IMPL  A:aa X:55 Y:71 P:c5 S:f9 pc: f9e7, reg_addr:    0, cycle:  14077
f9e7 a9  1 60 LDA  IMM   A:aa X:55 Y:71 P:c5 S:f9 pc: f9e9, reg_addr:    1, cycle:  14079
f9e9 60 90 1c RTS  IMPL  A: 1 X:55 Y:71 P:45 S:f9 pc: e410, reg_addr:    0, cycle:  14085
e410 9d  0  6 STA  ABSX  A: 1 X:55 Y:71 P:45 S:fb pc: e413, reg_addr:  655, cycle:  14089
e413 7e  0  6 ROR  ABSX  A: 1 X:55 Y:71 P:45 S:fb pc: e416, reg_addr:  655, cycle:  14095
e416 bd  0  6 LDA  ABSX  A: 1 X:55 Y:71 P:c5 S:fb pc: e419, reg_addr:  655, cycle:  14099
e419 20 ea f9 JSR  ABS   A:80 X:55 Y:71 P:c5 S:fb pc: f9ea, reg_addr: f9ea, cycle:  14105
f9ea 90 1c f0 BCC  REL   A:80 X:55 Y:71 P:c5 S:f9 pc: f9ec, reg_addr: fa08, cycle:  14107
f9ec f0 1a 10 BEQ  REL   A:80 X:55 Y:71 P:c5 S:f9 pc: f9ee, reg_addr: fa08, cycle:  14109
f9ee 10 18 50 BPL  REL   A:80 X:55 Y:71 P:c5 S:f9 pc: f9f0, reg_addr: fa08, cycle:  14111
f9f0 50 16 c9 BVC  REL   A:80 X:55 Y:71 P:c5 S:f9 pc: f9f2, reg_addr: fa08, cycle:  14113
f9f2 c9 80 d0 CMP  IMM   A:80 X:55 Y:71 P:c5 S:f9 pc: f9f4, reg_addr:   80, cycle:  14115
f9f4 d0 12 b8 BNE  REL   A:80 X:55 Y:71 P:47 S:f9 pc: f9f6, reg_addr: fa08, cycle:  14117
f9f6 b8 18 a9 CLV  IMPL  A:80 X:55 Y:71 P:47 S:f9 pc: f9f7, reg_addr:    0, cycle:  14119
f9f7 18 a9 55 CLC  IMPL  A:80 X:55 Y:71 P: 7 S:f9 pc: f9f8, reg_addr:    0, cycle:  14121
f9f8 a9 55 60 LDA  IMM   A:80 X:55 Y:71 P: 6 S:f9 pc: f9fa, reg_addr:   55, cycle:  14123
f9fa 60 90  b RTS  IMPL  A:55 X:55 Y:71 P: 4 S:f9 pc: e41c, reg_addr:    0, cycle:  14129
e41c c8 9d  0 INY  IMPL  A:55 X:55 Y:71 P: 4 S:fb pc: e41d, reg_addr:    0, cycle:  14131
e41d 9d  0  6 STA  ABSX  A:55 X:55 Y:72 P: 4 S:fb pc: e420, reg_addr:  655, cycle:  14135
e420 7e  0  6 ROR  ABSX  A:55 X:55 Y:72 P: 4 S:fb pc: e423, reg_addr:  655, cycle:  14141
e423 bd  0  6 LDA  ABSX  A:55 X:55 Y:72 P: 5 S:fb pc: e426, reg_addr:  655, cycle:  14145
e426 20 fb f9 JSR  ABS   A:2a X:55 Y:72 P: 5 S:fb pc: f9fb, reg_addr: f9fb, cycle:  14151
f9fb 90  b f0 BCC  REL   A:2a X:55 Y:72 P: 5 S:f9 pc: f9fd, reg_addr: fa08, cycle:  14153
f9fd f0  9 30 BEQ  REL   A:2a X:55 Y:72 P: 5 S:f9 pc: f9ff, reg_addr: fa08, cycle:  14155
f9ff 30  7 70 BMI  REL   A:2a X:55 Y:72 P: 5 S:f9 pc: fa01, reg_addr: fa08, cycle:  14157
fa01 70  5 c9 BVS  REL   A:2a X:55 Y:72 P: 5 S:f9 pc: fa03, reg_addr: fa08, cycle:  14159
fa03 c9 2a d0 CMP  IMM   A:2a X:55 Y:72 P: 5 S:f9 pc: fa05, reg_addr:   2a, cycle:  14161
fa05 d0  1 60 BNE  REL   A:2a X:55 Y:72 P: 7 S:f9 pc: fa07, reg_addr: fa08, cycle:  14163
fa07 60 84  0 RTS  IMPL  A:2a X:55 Y:72 P: 7 S:f9 pc: e429, reg_addr:    0, cycle:  14169
e429 c8 20  a INY  IMPL  A:2a X:55 Y:72 P: 7 S:fb pc: e42a, reg_addr:    0, cycle:  14171
e42a 20  a fa JSR  ABS   A:2a X:55 Y:73 P: 5 S:fb pc: fa0a, reg_addr: fa0a, cycle:  14177
fa0a 24  1 38 BIT  ZP    A:2a X:55 Y:73 P: 5 S:f9 pc: fa0c, reg_addr:    1, cycle:  14180
fa0c 38 a9 80 SEC  IMPL  A:2a X:55 Y:73 P:c5 S:f9 pc: fa0d, reg_addr:    0, cycle:  14182
fa0d a9 80 60 LDA  IMM   A:2a X:55 Y:73 P:c5 S:f9 pc: fa0f, reg_addr:   80, cycle:  14184
fa0f 60 90 1c RTS  IMPL  A:80 X:55 Y:73 P:c5 S:f9 pc: e42d, reg_addr:    0, cycle:  14190
e42d 9d  0  6 STA  ABSX  A:80 X:55 Y:73 P:c5 S:fb pc: e430, reg_addr:  655, cycle:  14194
e430 3e  0  6 ROL  ABSX  A:80 X:55 Y:73 P:c5 S:fb pc: e433, reg_addr:  655, cycle:  14200
e433 bd  0  6 LDA  ABSX  A:80 X:55 Y:73 P:45 S:fb pc: e436, reg_addr:  655, cycle:  14204
e436 20 10 fa JSR  ABS   A: 1 X:55 Y:73 P:45 S:fb pc: fa10, reg_addr: fa10, cycle:  14210
fa10 90 1c f0 BCC  REL   A: 1 X:55 Y:73 P:45 S:f9 pc: fa12, reg_addr: fa2e, cycle:  14212
fa12 f0 1a 30 BEQ  REL   A: 1 X:55 Y:73 P:45 S:f9 pc: fa14, reg_addr: fa2e, cycle:  14214
fa14 30 18 50 BMI  REL   A: 1 X:55 Y:73 P:45 S:f9 pc: fa16, reg_addr: fa2e, cycle:  14216
fa16 50 16 c9 BVC  REL   A: 1 X:55 Y:73 P:45 S:f9 pc: fa18, reg_addr: fa2e, cycle:  14218
fa18 c9  1 d0 CMP  IMM   A: 1 X:55 Y:73 P:45 S:f9 pc: fa1a, reg_addr:    1, cycle:  14220
fa1a d0 12 b8 BNE  REL   A: 1 X:55 Y:73 P:47 S:f9 pc: fa1c, reg_addr: fa2e, cycle:  14222
fa1c b8 18 a9 CLV  IMPL  A: 1 X:55 Y:73 P:47 S:f9 pc: fa1d, reg_addr:    0, cycle:  14224
fa1d 18 a9 55 CLC  IMPL  A: 1 X:55 Y:73 P: 7 S:f9 pc: fa1e, reg_addr:    0, cycle:  14226
fa1e a9 55 60 LDA  IMM   A: 1 X:55 Y:73 P: 6 S:f9 pc: fa20, reg_addr:   55, cycle:  14228
fa20 60 b0  b RTS  IMPL  A:55 X:55 Y:73 P: 4 S:f9 pc: e439, reg_addr:    0, cycle:  14234
e439 c8 9d  0 INY  IMPL  A:55 X:55 Y:73 P: 4 S:fb pc: e43a, reg_addr:    0, cycle:  14236
e43a 9d  0  6 STA  ABSX  A:55 X:55 Y:74 P: 4 S:fb pc: e43d, reg_addr:  655, cycle:  14240
e43d 3e  0  6 ROL  ABSX  A:55 X:55 Y:74 P: 4 S:fb pc: e440, reg_addr:  655, cycle:  14246
e440 bd  0  6 LDA  ABSX  A:55 X:55 Y:74 P:84 S:fb pc: e443, reg_addr:  655, cycle:  14250
e443 20 21 fa JSR  ABS   A:aa X:55 Y:74 P:84 S:fb pc: fa21, reg_addr: fa21, cycle:  14256
fa21 b0  b f0 BCS  REL   A:aa X:55 Y:74 P:84 S:f9 pc: fa23, reg_addr: fa2e, cycle:  14258
fa23 f0  9 10 BEQ  REL   A:aa X:55 Y:74 P:84 S:f9 pc: fa25, reg_addr: fa2e, cycle:  14260
fa25 10  7 70 BPL  REL   A:aa X:55 Y:74 P:84 S:f9 pc: fa27, reg_addr: fa2e, cycle:  14262
fa27 70  5 c9 BVS  REL   A:aa X:55 Y:74 P:84 S:f9 pc: fa29, reg_addr: fa2e, cycle:  14264
fa29 c9 aa d0 CMP  IMM   A:aa X:55 Y:74 P:84 S:f9 pc: fa2b, reg_addr:   aa, cycle:  14266
fa2b d0  1 60 BNE  REL   A:aa X:55 Y:74 P: 7 S:f9 pc: fa2d, reg_addr: fa2e, cycle:  14268
fa2d 60 84  0 RTS  IMPL  A:aa X:55 Y:74 P: 7 S:f9 pc: e446, reg_addr:    0, cycle:  14274
e446 a9 ff 9d LDA  IMM   A:aa X:55 Y:74 P: 7 S:fb pc: e448, reg_addr:   ff, cycle:  14276
e448 9d  0  6 STA  ABSX  A:ff X:55 Y:74 P:85 S:fb pc: e44b, reg_addr:  655, cycle:  14280
e44b 85  1 24 STA  ZP    A:ff X:55 Y:74 P:85 S:fb pc: e44d, reg_addr:    1, cycle:  14283
e44d 24  1 38 BIT  ZP    A:ff X:55 Y:74 P:85 S:fb pc: e44f, reg_addr:    1, cycle:  14286
e44f 38 fe  0 SEC  IMPL  A:ff X:55 Y:74 P:c5 S:fb pc: e450, reg_addr:    0, cycle:  14288
e450 fe  0  6 INC  ABSX  A:ff X:55 Y:74 P:c5 S:fb pc: e453, reg_addr:  655, cycle:  14295
e453 d0  d 30 BNE  REL   A:ff X:55 Y:74 P:47 S:fb pc: e455, reg_addr: e462, cycle:  14297
e455 30  b 50 BMI  REL   A:ff X:55 Y:74 P:47 S:fb pc: e457, reg_addr: e462, cycle:  14299
e457 50  9 90 BVC  REL   A:ff X:55 Y:74 P:47 S:fb pc: e459, reg_addr: e462, cycle:  14301
e459 90  7 bd BCC  REL   A:ff X:55 Y:74 P:47 S:fb pc: e45b, reg_addr: e462, cycle:  14303
e45b bd  0  6 LDA  ABSX  A:ff X:55 Y:74 P:47 S:fb pc: e45e, reg_addr:  655, cycle:  14307
e45e c9  0 f0 CMP  IMM   A: 0 X:55 Y:74 P:47 S:fb pc: e460, reg_addr:    0, cycle:  14309
e460 f0  4 a9 BEQ  REL   A: 0 X:55 Y:74 P:47 S:fb pc: e466, reg_addr: e466, cycle:  14312
e466 a9 7f 9d LDA  IMM   A: 0 X:55 Y:74 P:47 S:fb pc: e468, reg_addr:   7f, cycle:  14314
e468 9d  0  6 STA  ABSX  A:7f X:55 Y:74 P:45 S:fb pc: e46b, reg_addr:  655, cycle:  14318
e46b b8 18 fe CLV  IMPL  A:7f X:55 Y:74 P:45 S:fb pc: e46c, reg_addr:    0, cycle:  14320
e46c 18 fe  0 CLC  IMPL  A:7f X:55 Y:74 P: 5 S:fb pc: e46d, reg_addr:    0, cycle:  14322
e46d fe  0  6 INC  ABSX  A:7f X:55 Y:74 P: 4 S:fb pc: e470, reg_addr:  655, cycle:  14329
e470 f0  d 10 BEQ  REL   A:7f X:55 Y:74 P:84 S:fb pc: e472, reg_addr: e47f, cycle:  14331
e472 10  b 70 BPL  REL   A:7f X:55 Y:74 P:84 S:fb pc: e474, reg_addr: e47f, cycle:  14333
e474 70  9 b0 BVS  REL   A:7f X:55 Y:74 P:84 S:fb pc: e476, reg_addr: e47f, cycle:  14335
e476 b0  7 bd BCS  REL   A:7f X:55 Y:74 P:84 S:fb pc: e478, reg_addr: e47f, cycle:  14337
e478 bd  0  6 LDA  ABSX  A:7f X:55 Y:74 P:84 S:fb pc: e47b, reg_addr:  655, cycle:  14341
e47b c9 80 f0 CMP  IMM   A:80 X:55 Y:74 P:84 S:fb pc: e47d, reg_addr:   80, cycle:  14343
e47d f0  4 a9 BEQ  REL   A:80 X:55 Y:74 P: 7 S:fb pc: e483, reg_addr: e483, cycle:  14346
e483 a9  0 9d LDA  IMM   A:80 X:55 Y:74 P: 7 S:fb pc: e485, reg_addr:    0, cycle:  14348
e485 9d  0  6 STA  ABSX  A: 0 X:55 Y:74 P: 7 S:fb pc: e488, reg_addr:  655, cycle:  14352
e488 24  1 38 BIT  ZP    A: 0 X:55 Y:74 P: 7 S:fb pc: e48a, reg_addr:    1, cycle:  14355
e48a 38 de  0 SEC  IMPL  A: 0 X:55 Y:74 P:c7 S:fb pc: e48b, reg_addr:    0, cycle:  14357
e48b de  0  6 DEC  ABSX  A: 0 X:55 Y:74 P:c7 S:fb pc: e48e, reg_addr:  655, cycle:  14364
e48e f0  d 10 BEQ  REL   A: 0 X:55 Y:74 P:c5 S:fb pc: e490, reg_addr: e49d, cycle:  14366
e490 10  b 50 BPL  REL   A: 0 X:55 Y:74 P:c5 S:fb pc: e492, reg_addr: e49d, cycle:  14368
e492 50  9 90 BVC  REL   A: 0 X:55 Y:74 P:c5 S:fb pc: e494, reg_addr: e49d, cycle:  14370
e494 90  7 bd BCC  REL   A: 0 X:55 Y:74 P:c5 S:fb pc: e496, reg_addr: e49d, cycle:  14372
e496 bd  0  6 LDA  ABSX  A: 0 X:55 Y:74 P:c5 S:fb pc: e499, reg_addr:  655, cycle:  14376
e499 c9 ff f0 CMP  IMM   A:ff X:55 Y:74 P:c5 S:fb pc: e49b, reg_addr:   ff, cycle:  14378
e49b f0  4 a9 BEQ  REL   A:ff X:55 Y:74 P:47 S:fb pc: e4a1, reg_addr: e4a1, cycle:  14381
e4a1 a9 80 9d LDA  IMM   A:ff X:55 Y:74 P:47 S:fb pc: e4a3, reg_addr:   80, cycle:  14383
e4a3 9d  0  6 STA  ABSX  A:80 X:55 Y:74 P:c5 S:fb pc: e4a6, reg_addr:  655, cycle:  14387
e4a6 b8 18 de CLV  IMPL  A:80 X:55 Y:74 P:c5 S:fb pc: e4a7, reg_addr:    0, cycle:  14389
e4a7 18 de  0 CLC  IMPL  A:80 X:55 Y:74 P:85 S:fb pc: e4a8, reg_addr:    0, cycle:  14391
e4a8 de  0  6 DEC  ABSX  A:80 X:55 Y:74 P:84 S:fb pc: e4ab, reg_addr:  655, cycle:  14398
e4ab f0  d 30 BEQ  REL   A:80 X:55 Y:74 P: 4 S:fb pc: e4ad, reg_addr: e4ba, cycle:  14400
e4ad 30  b 70 BMI  REL   A:80 X:55 Y:74 P: 4 S:fb pc: e4af, reg_addr: e4ba, cycle:  14402
e4af 70  9 b0 BVS  REL   A:80 X:55 Y:74 P: 4 S:fb pc: e4b1, reg_addr: e4ba, cycle:  14404
e4b1 b0  7 bd BCS  REL   A:80 X:55 Y:74 P: 4 S:fb pc: e4b3, reg_addr: e4ba, cycle:  14406
e4b3 bd  0  6 LDA  ABSX  A:80 X:55 Y:74 P: 4 S:fb pc: e4b6, reg_addr:  655, cycle:  14410
e4b6 c9 7f f0 CMP  IMM   A:7f X:55 Y:74 P: 4 S:fb pc: e4b8, reg_addr:   7f, cycle:  14412
e4b8 f0  4 a9 BEQ  REL   A:7f X:55 Y:74 P: 7 S:fb pc: e4be, reg_addr: e4be, cycle:  14415
e4be a9  1 9d LDA  IMM   A:7f X:55 Y:74 P: 7 S:fb pc: e4c0, reg_addr:    1, cycle:  14417
e4c0 9d  0  6 STA  ABSX  A: 1 X:55 Y:74 P: 5 S:fb pc: e4c3, reg_addr:  655, cycle:  14421
e4c3 de  0  6 DEC  ABSX  A: 1 X:55 Y:74 P: 5 S:fb pc: e4c6, reg_addr:  655, cycle:  14428
e4c6 f0  4 a9 BEQ  REL   A: 1 X:55 Y:74 P: 7 S:fb pc: e4cc, reg_addr: e4cc, cycle:  14431
e4cc a9 33 8d LDA  IMM   A: 1 X:55 Y:74 P: 7 S:fb pc: e4ce, reg_addr:   33, cycle:  14433
e4ce 8d 78  6 STA  ABS   A:33 X:55 Y:74 P: 5 S:fb pc: e4d1, reg_addr:  678, cycle:  14437
e4d1 a9 44 a0 LDA  IMM   A:33 X:55 Y:74 P: 5 S:fb pc: e4d3, reg_addr:   44, cycle:  14439
e4d3 a0 78 a2 LDY  IMM   A:44 X:55 Y:74 P: 5 S:fb pc: e4d5, reg_addr:   78, cycle:  14441
e4d5 a2  0 38 LDX  IMM   A:44 X:55 Y:78 P: 5 S:fb pc: e4d7, reg_addr:    0, cycle:  14443
e4d7 38 24  1 SEC  IMPL  A:44 X: 0 Y:78 P: 7 S:fb pc: e4d8, reg_addr:    0, cycle:  14445
e4d8 24  1 be BIT  ZP    A:44 X: 0 Y:78 P: 7 S:fb pc: e4da, reg_addr:    1, cycle:  14448
e4da be  0  6 LDX  ABSY  A:44 X: 0 Y:78 P:c5 S:fb pc: e4dd, reg_addr:  678, cycle:  14452
e4dd 90 12 50 BCC  REL   A:44 X:33 Y:78 P:45 S:fb pc: e4df, reg_addr: e4f1, cycle:  14454
e4df 50 10 30 BVC  REL   A:44 X:33 Y:78 P:45 S:fb pc: e4e1, reg_addr: e4f1, cycle:  14456
e4e1 30  e f0 BMI  REL   A:44 X:33 Y:78 P:45 S:fb pc: e4e3, reg_addr: e4f1, cycle:  14458
e4e3 f0  c e0 BEQ  REL   A:44 X:33 Y:78 P:45 S:fb pc: e4e5, reg_addr: e4f1, cycle:  14460
e4e5 e0 33 d0 CPX  IMM   A:44 X:33 Y:78 P:45 S:fb pc: e4e7, reg_addr:   33, cycle:  14462
e4e7 d0  8 c0 BNE  REL   A:44 X:33 Y:78 P:47 S:fb pc: e4e9, reg_addr: e4f1, cycle:  14464
e4e9 c0 78 d0 CPY  IMM   A:44 X:33 Y:78 P:47 S:fb pc: e4eb, reg_addr:   78, cycle:  14466
e4eb d0  4 c9 BNE  REL   A:44 X:33 Y:78 P:47 S:fb pc: e4ed, reg_addr: e4f1, cycle:  14468
e4ed c9 44 f0 CMP  IMM   A:44 X:33 Y:78 P:47 S:fb pc: e4ef, reg_addr:   44, cycle:  14470
e4ef f0  4 a9 BEQ  REL   A:44 X:33 Y:78 P:47 S:fb pc: e4f5, reg_addr: e4f5, cycle:  14473
e4f5 a9 97 8d LDA  IMM   A:44 X:33 Y:78 P:47 S:fb pc: e4f7, reg_addr:   97, cycle:  14475
e4f7 8d 7f  6 STA  ABS   A:97 X:33 Y:78 P:c5 S:fb pc: e4fa, reg_addr:  67f, cycle:  14479
e4fa a9 47 a0 LDA  IMM   A:97 X:33 Y:78 P:c5 S:fb pc: e4fc, reg_addr:   47, cycle:  14481
e4fc a0 ff a2 LDY  IMM   A:47 X:33 Y:78 P:45 S:fb pc: e4fe, reg_addr:   ff, cycle:  14483
e4fe a2  0 18 LDX  IMM   A:47 X:33 Y:ff P:c5 S:fb pc: e500, reg_addr:    0, cycle:  14485
e500 18 b8 be CLC  IMPL  A:47 X: 0 Y:ff P:47 S:fb pc: e501, reg_addr:    0, cycle:  14487
e501 b8 be 80 CLV  IMPL  A:47 X: 0 Y:ff P:46 S:fb pc: e502, reg_addr:    0, cycle:  14489
e502 be 80  5 LDX  ABSY  A:47 X: 0 Y:ff P: 6 S:fb pc: e505, reg_addr:  67f, cycle:  14494
e505 b0 12 70 BCS  REL   A:47 X:97 Y:ff P:84 S:fb pc: e507, reg_addr: e519, cycle:  14496
e507 70 10 10 BVS  REL   A:47 X:97 Y:ff P:84 S:fb pc: e509, reg_addr: e519, cycle:  14498
e509 10  e f0 BPL  REL   A:47 X:97 Y:ff P:84 S:fb pc: e50b, reg_addr: e519, cycle:  14500
e50b f0  c e0 BEQ  REL   A:47 X:97 Y:ff P:84 S:fb pc: e50d, reg_addr: e519, cycle:  14502
e50d e0 97 d0 CPX  IMM   A:47 X:97 Y:ff P:84 S:fb pc: e50f, reg_addr:   97, cycle:  14504
e50f d0  8 c0 BNE  REL   A:47 X:97 Y:ff P: 7 S:fb pc: e511, reg_addr: e519, cycle:  14506
e511 c0 ff d0 CPY  IMM   A:47 X:97 Y:ff P: 7 S:fb pc: e513, reg_addr:   ff, cycle:  14508
e513 d0  4 c9 BNE  REL   A:47 X:97 Y:ff P: 7 S:fb pc: e515, reg_addr: e519, cycle:  14510
e515 c9 47 f0 CMP  IMM   A:47 X:97 Y:ff P: 7 S:fb pc: e517, reg_addr:   47, cycle:  14512
e517 f0  4 a9 BEQ  REL   A:47 X:97 Y:ff P: 7 S:fb pc: e51d, reg_addr: e51d, cycle:  14515
e51d 60 a9 55 RTS  IMPL  A:47 X:97 Y:ff P: 7 S:fb pc: c62f, reg_addr:    0, cycle:  14521
c62f 20 a3 c6 JSR  ABS   A:47 X:97 Y:ff P: 7 S:fd pc: c6a3, reg_addr: c6a3, cycle:  14527
c6a3 a0 4e a9 LDY  IMM   A:47 X:97 Y:ff P: 7 S:fb pc: c6a5, reg_addr:   4e, cycle:  14529
c6a5 a9 ff 85 LDA  IMM   A:47 X:97 Y:4e P: 5 S:fb pc: c6a7, reg_addr:   ff, cycle:  14531
c6a7 85  1 20 STA  ZP    A:ff X:97 Y:4e P:85 S:fb pc: c6a9, reg_addr:    1, cycle:  14534
c6a9 20 b0 c6 JSR  ABS   A:ff X:97 Y:4e P:85 S:fb pc: c6b0, reg_addr: c6b0, cycle:  14540
c6b0 a9 ff 48 LDA  IMM   A:ff X:97 Y:4e P:85 S:f9 pc: c6b2, reg_addr:   ff, cycle:  14542
c6b2 48 a9 aa PHA  IMPL  A:ff X:97 Y:4e P:85 S:f9 pc: c6b3, reg_addr:    0, cycle:  14545
c6b3 a9 aa d0 LDA  IMM   A:ff X:97 Y:4e P:85 S:f8 pc: c6b5, reg_addr:   aa, cycle:  14547
c6b5 d0  5 a9 BNE  REL   A:aa X:97 Y:4e P:85 S:f8 pc: c6bc, reg_addr: c6bc, cycle:  14550
c6bc 28  4 a9 PLP  IMPL  A:aa X:97 Y:4e P:85 S:f8 pc: c6bd, reg_addr:    0, cycle:  14554
c6bd  4 a9 44 DOP  ZP    A:aa X:97 Y:4e P:ef S:f9 pc: c6bf, reg_addr:   a9, cycle:  14557
c6bf 44 a9 64 DOP  ZP    A:aa X:97 Y:4e P:ef S:f9 pc: c6c1, reg_addr:   a9, cycle:  14560
c6c1 64 a9 ea DOP  ZP    A:aa X:97 Y:4e P:ef S:f9 pc: c6c3, reg_addr:   a9, cycle:  14563
c6c3 ea ea ea NOP  IMPL  A:aa X:97 Y:4e P:ef S:f9 pc: c6c4, reg_addr:    0, cycle:  14565
c6c4 ea ea ea NOP  IMPL  A:aa X:97 Y:4e P:ef S:f9 pc: c6c5, reg_addr:    0, cycle:  14567
c6c5 ea ea  8 NOP  IMPL  A:aa X:97 Y:4e P:ef S:f9 pc: c6c6, reg_addr:    0, cycle:  14569
c6c6 ea  8 48 NOP  IMPL  A:aa X:97 Y:4e P:ef S:f9 pc: c6c7, reg_addr:    0, cycle:  14571
c6c7  8 48  c PHP  IMPL  A:aa X:97 Y:4e P:ef S:f9 pc: c6c8, reg_addr:    0, cycle:  14574
c6c8 48  c a9 PHA  IMPL  A:aa X:97 Y:4e P:ef S:f8 pc: c6c9, reg_addr:    0, cycle:  14577
c6c9  c a9 a9 TOP  ABS   A:aa X:97 Y:4e P:ef S:f7 pc: c6cc, reg_addr: a9a9, cycle:  14581
c6cc ea ea ea NOP  IMPL  A:aa X:97 Y:4e P:ef S:f7 pc: c6cd, reg_addr:    0, cycle:  14583
c6cd ea ea ea NOP  IMPL  A:aa X:97 Y:4e P:ef S:f7 pc: c6ce, reg_addr:    0, cycle:  14585
c6ce ea ea  8 NOP  IMPL  A:aa X:97 Y:4e P:ef S:f7 pc: c6cf, reg_addr:    0, cycle:  14587
c6cf ea  8 48 NOP  IMPL  A:aa X:97 Y:4e P:ef S:f7 pc: c6d0, reg_addr:    0, cycle:  14589
c6d0  8 48 14 PHP  IMPL  A:aa X:97 Y:4e P:ef S:f7 pc: c6d1, reg_addr:    0, cycle:  14592
c6d1 48 14 a9 PHA  IMPL  A:aa X:97 Y:4e P:ef S:f6 pc: c6d2, reg_addr:    0, cycle:  14595
c6d2 14 a9 34 DOP  ZPX   A:aa X:97 Y:4e P:ef S:f5 pc: c6d4, reg_addr:   40, cycle:  14599
c6d4 34 a9 54 DOP  ZPX   A:aa X:97 Y:4e P:ef S:f5 pc: c6d6, reg_addr:   40, cycle:  14603
c6d6 54 a9 74 DOP  ZPX   A:aa X:97 Y:4e P:ef S:f5 pc: c6d8, reg_addr:   40, cycle:  14607
c6d8 74 a9 d4 DOP  ZPX   A:aa X:97 Y:4e P:ef S:f5 pc: c6da, reg_addr:   40, cycle:  14611
c6da d4 a9 f4 DOP  ZPX   A:aa X:97 Y:4e P:ef S:f5 pc: c6dc, reg_addr:   40, cycle:  14615
c6dc f4 a9 ea DOP  ZPX   A:aa X:97 Y:4e P:ef S:f5 pc: c6de, reg_addr:   40, cycle:  14619
c6de ea ea ea NOP  IMPL  A:aa X:97 Y:4e P:ef S:f5 pc: c6df, reg_addr:    0, cycle:  14621
c6df ea ea ea NOP  IMPL  A:aa X:97 Y:4e P:ef S:f5 pc: c6e0, reg_addr:    0, cycle:  14623
c6e0 ea ea  8 NOP  IMPL  A:aa X:97 Y:4e P:ef S:f5 pc: c6e1, reg_addr:    0, cycle:  14625
c6e1 ea  8 48 NOP  IMPL  A:aa X:97 Y:4e P:ef S:f5 pc: c6e2, reg_addr:    0, cycle:  14627
c6e2  8 48 1a PHP  IMPL  A:aa X:97 Y:4e P:ef S:f5 pc: c6e3, reg_addr:    0, cycle:  14630
c6e3 48 1a 3a PHA  IMPL  A:aa X:97 Y:4e P:ef S:f4 pc: c6e4, reg_addr:    0, cycle:  14633
c6e4 1a 3a 5a NOP  NOP   A:aa X:97 Y:4e P:ef S:f3 pc: c6e5, reg_addr:    0, cycle:  14635
c6e5 3a 5a 7a NOP  NOP   A:aa X:97 Y:4e P:ef S:f3 pc: c6e6, reg_addr:    0, cycle:  14637
c6e6 5a 7a da NOP  NOP   A:aa X:97 Y:4e P:ef S:f3 pc: c6e7, reg_addr:    0, cycle:  14639
c6e7 7a da fa NOP  NOP   A:aa X:97 Y:4e P:ef S:f3 pc: c6e8, reg_addr:    0, cycle:  14641
c6e8 da fa 80 NOP  NOP   A:aa X:97 Y:4e P:ef S:f3 pc: c6e9, reg_addr:    0, cycle:  14643
c6e9 fa 80 89 NOP  NOP   A:aa X:97 Y:4e P:ef S:f3 pc: c6ea, reg_addr:    0, cycle:  14645
c6ea 80 89 ea DOP  IMM   A:aa X:97 Y:4e P:ef S:f3 pc: c6ec, reg_addr:   89, cycle:  14647
c6ec ea ea ea NOP  IMPL  A:aa X:97 Y:4e P:ef S:f3 pc: c6ed, reg_addr:    0, cycle:  14649
c6ed ea ea ea NOP  IMPL  A:aa X:97 Y:4e P:ef S:f3 pc: c6ee, reg_addr:    0, cycle:  14651
c6ee ea ea  8 NOP  IMPL  A:aa X:97 Y:4e P:ef S:f3 pc: c6ef, reg_addr:    0, cycle:  14653
c6ef ea  8 48 NOP  IMPL  A:aa X:97 Y:4e P:ef S:f3 pc: c6f0, reg_addr:    0, cycle:  14655
c6f0  8 48 1c PHP  IMPL  A:aa X:97 Y:4e P:ef S:f3 pc: c6f1, reg_addr:    0, cycle:  14658
c6f1 48 1c a9 PHA  IMPL  A:aa X:97 Y:4e P:ef S:f2 pc: c6f2, reg_addr:    0, cycle:  14661
c6f2 1c a9 a9 TOP  ABSX  A:aa X:97 Y:4e P:ef S:f1 pc: c6f5, reg_addr: aa40, cycle:  14666
c6f5 3c a9 a9 TOP  ABSX  A:aa X:97 Y:4e P:ef S:f1 pc: c6f8, reg_addr: aa40, cycle:  14671
c6f8 5c a9 a9 TOP  ABSX  A:aa X:97 Y:4e P:ef S:f1 pc: c6fb, reg_addr: aa40, cycle:  14676
c6fb 7c a9 a9 TOP  ABSX  A:aa X:97 Y:4e P:ef S:f1 pc: c6fe, reg_addr: aa40, cycle:  14681
c6fe dc a9 a9 TOP  ABSX  A:aa X:97 Y:4e P:ef S:f1 pc: c701, reg_addr: aa40, cycle:  14686
c701 fc a9 a9 TOP  ABSX  A:aa X:97 Y:4e P:ef S:f1 pc: c704, reg_addr: aa40, cycle:  14691
c704 ea ea ea NOP  IMPL  A:aa X:97 Y:4e P:ef S:f1 pc: c705, reg_addr:    0, cycle:  14693
c705 ea ea ea NOP  IMPL  A:aa X:97 Y:4e P:ef S:f1 pc: c706, reg_addr:    0, cycle:  14695
c706 ea ea  8 NOP  IMPL  A:aa X:97 Y:4e P:ef S:f1 pc: c707, reg_addr:    0, cycle:  14697
c707 ea  8 48 NOP  IMPL  A:aa X:97 Y:4e P:ef S:f1 pc: c708, reg_addr:    0, cycle:  14699
c708  8 48 a2 PHP  IMPL  A:aa X:97 Y:4e P:ef S:f1 pc: c709, reg_addr:    0, cycle:  14702
c709 48 a2  5 PHA  IMPL  A:aa X:97 Y:4e P:ef S:f0 pc: c70a, reg_addr:    0, cycle:  14705
c70a a2  5 68 LDX  IMM   A:aa X:97 Y:4e P:ef S:ef pc: c70c, reg_addr:    5, cycle:  14707
c70c 68 c9 55 PLA  IMPL  A:aa X: 5 Y:4e P:6d S:ef pc: c70d, reg_addr:    0, cycle:  14711
c70d c9 55 f0 CMP  IMM   A:aa X: 5 Y:4e P:ed S:f0 pc: c70f, reg_addr:   55, cycle:  14713
c70f f0  a c9 BEQ  REL   A:aa X: 5 Y:4e P:6d S:f0 pc: c711, reg_addr: c71b, cycle:  14715
c711 c9 aa f0 CMP  IMM   A:aa X: 5 Y:4e P:6d S:f0 pc: c713, reg_addr:   aa, cycle:  14717
c713 f0  6 68 BEQ  REL   A:aa X: 5 Y:4e P:6f S:f0 pc: c71b, reg_addr: c71b, cycle:  14720
c71b 68 29 cb PLA  IMPL  A:aa X: 5 Y:4e P:6f S:f0 pc: c71c, reg_addr:    0, cycle:  14724
c71c 29 cb c9 AND  IMM   A:ef X: 5 Y:4e P:ed S:f1 pc: c71e, reg_addr:   cb, cycle:  14726
c71e c9  0 f0 CMP  IMM   A:cb X: 5 Y:4e P:ed S:f1 pc: c720, reg_addr:    0, cycle:  14728
c720 f0  6 c9 BEQ  REL   A:cb X: 5 Y:4e P:ed S:f1 pc: c722, reg_addr: c728, cycle:  14730
c722 c9 cb f0 CMP  IMM   A:cb X: 5 Y:4e P:ed S:f1 pc: c724, reg_addr:   cb, cycle:  14732
c724 f0  2 84 BEQ  REL   A:cb X: 5 Y:4e P:6f S:f1 pc: c728, reg_addr: c728, cycle:  14735
c728 c8 ca d0 INY  IMPL  A:cb X: 5 Y:4e P:6f S:f1 pc: c729, reg_addr:    0, cycle:  14737
c729 ca d0 e0 DEX  IMPL  A:cb X: 5 Y:4f P:6d S:f1 pc: c72a, reg_addr:    0, cycle:  14739
c72a d0 e0 60 BNE  REL   A:cb X: 4 Y:4f P:6d S:f1 pc: c70c, reg_addr: c70c, cycle:  14742
c70c 68 c9 55 PLA  IMPL  A:cb X: 4 Y:4f P:6d S:f1 pc: c70d, reg_addr:    0, cycle:  14746
c70d c9 55 f0 CMP  IMM   A:aa X: 4 Y:4f P:ed S:f2 pc: c70f, reg_addr:   55, cycle:  14748
c70f f0  a c9 BEQ  REL   A:aa X: 4 Y:4f P:6d S:f2 pc: c711, reg_addr: c71b, cycle:  14750
c711 c9 aa f0 CMP  IMM   A:aa X: 4 Y:4f P:6d S:f2 pc: c713, reg_addr:   aa, cycle:  14752
c713 f0  6 68 BEQ  REL   A:aa X: 4 Y:4f P:6f S:f2 pc: c71b, reg_addr: c71b, cycle:  14755
c71b 68 29 cb PLA  IMPL  A:aa X: 4 Y:4f P:6f S:f2 pc: c71c, reg_addr:    0, cycle:  14759
c71c 29 cb c9 AND  IMM   A:ef X: 4 Y:4f P:ed S:f3 pc: c71e, reg_addr:   cb, cycle:  14761
c71e c9  0 f0 CMP  IMM   A:cb X: 4 Y:4f P:ed S:f3 pc: c720, reg_addr:    0, cycle:  14763
c720 f0  6 c9 BEQ  REL   A:cb X: 4 Y:4f P:ed S:f3 pc: c722, reg_addr: c728, cycle:  14765
c722 c9 cb f0 CMP  IMM   A:cb X: 4 Y:4f P:ed S:f3 pc: c724, reg_addr:   cb, cycle:  14767
c724 f0  2 84 BEQ  REL   A:cb X: 4 Y:4f P:6f S:f3 pc: c728, reg_addr: c728, cycle:  14770
c728 c8 ca d0 INY  IMPL  A:cb X: 4 Y:4f P:6f S:f3 pc: c729, reg_addr:    0, cycle:  14772
c729 ca d0 e0 DEX  IMPL  A:cb X: 4 Y:50 P:6d S:f3 pc: c72a, reg_addr:    0, cycle:  14774
c72a d0 e0 60 BNE  REL   A:cb X: 3 Y:50 P:6d S:f3 pc: c70c, reg_addr: c70c, cycle:  14777
c70c 68 c9 55 PLA  IMPL  A:cb X: 3 Y:50 P:6d S:f3 pc: c70d, reg_addr:    0, cycle:  14781
c70d c9 55 f0 CMP  IMM   A:aa X: 3 Y:50 P:ed S:f4 pc: c70f, reg_addr:   55, cycle:  14783
c70f f0  a c9 BEQ  REL   A:aa X: 3 Y:50 P:6d S:f4 pc: c711, reg_addr: c71b, cycle:  14785
c711 c9 aa f0 CMP  IMM   A:aa X: 3 Y:50 P:6d S:f4 pc: c713, reg_addr:   aa, cycle:  14787
c713 f0  6 68 BEQ  REL   A:aa X: 3 Y:50 P:6f S:f4 pc: c71b, reg_addr: c71b, cycle:  14790
c71b 68 29 cb PLA  IMPL  A:aa X: 3 Y:50 P:6f S:f4 pc: c71c, reg_addr:    0, cycle:  14794
c71c 29 cb c9 AND  IMM   A:ef X: 3 Y:50 P:ed S:f5 pc: c71e, reg_addr:   cb, cycle:  14796
c71e c9  0 f0 CMP  IMM   A:cb X: 3 Y:50 P:ed S:f5 pc: c720, reg_addr:    0, cycle:  14798
c720 f0  6 c9 BEQ  REL   A:cb X: 3 Y:50 P:ed S:f5 pc: c722, reg_addr: c728, cycle:  14800
c722 c9 cb f0 CMP  IMM   A:cb X: 3 Y:50 P:ed S:f5 pc: c724, reg_addr:   cb, cycle:  14802
c724 f0  2 84 BEQ  REL   A:cb X: 3 Y:50 P:6f S:f5 pc: c728, reg_addr: c728, cycle:  14805
c728 c8 ca d0 INY  IMPL  A:cb X: 3 Y:50 P:6f S:f5 pc: c729, reg_addr:    0, cycle:  14807
c729 ca d0 e0 DEX  IMPL  A:cb X: 3 Y:51 P:6d S:f5 pc: c72a, reg_addr:    0, cycle:  14809
c72a d0 e0 60 BNE  REL   A:cb X: 2 Y:51 P:6d S:f5 pc: c70c, reg_addr: c70c, cycle:  14812
c70c 68 c9 55 PLA  IMPL  A:cb X: 2 Y:51 P:6d S:f5 pc: c70d, reg_addr:    0, cycle:  14816
c70d c9 55 f0 CMP  IMM   A:aa X: 2 Y:51 P:ed S:f6 pc: c70f, reg_addr:   55, cycle:  14818
c70f f0  a c9 BEQ  REL   A:aa X: 2 Y:51 P:6d S:f6 pc: c711, reg_addr: c71b, cycle:  14820
c711 c9 aa f0 CMP  IMM   A:aa X: 2 Y:51 P:6d S:f6 pc: c713, reg_addr:   aa, cycle:  14822
c713 f0  6 68 BEQ  REL   A:aa X: 2 Y:51 P:6f S:f6 pc: c71b, reg_addr: c71b, cycle:  14825
c71b 68 29 cb PLA  IMPL  A:aa X: 2 Y:51 P:6f S:f6 pc: c71c, reg_addr:    0, cycle:  14829
c71c 29 cb c9 AND  IMM   A:ef X: 2 Y:51 P:ed S:f7 pc: c71e, reg_addr:   cb, cycle:  14831
c71e c9  0 f0 CMP  IMM   A:cb X: 2 Y:51 P:ed S:f7 pc: c720, reg_addr:    0, cycle:  14833
c720 f0  6 c9 BEQ  REL   A:cb X: 2 Y:51 P:ed S:f7 pc: c722, reg_addr: c728, cycle:  14835
c722 c9 cb f0 CMP  IMM   A:cb X: 2 Y:51 P:ed S:f7 pc: c724, reg_addr:   cb, cycle:  14837
c724 f0  2 84 BEQ  REL   A:cb X: 2 Y:51 P:6f S:f7 pc: c728, reg_addr: c728, cycle:  14840
c728 c8 ca d0 INY  IMPL  A:cb X: 2 Y:51 P:6f S:f7 pc: c729, reg_addr:    0, cycle:  14842
c729 ca d0 e0 DEX  IMPL  A:cb X: 2 Y:52 P:6d S:f7 pc: c72a, reg_addr:    0, cycle:  14844
c72a d0 e0 60 BNE  REL   A:cb X: 1 Y:52 P:6d S:f7 pc: c70c, reg_addr: c70c, cycle:  14847
c70c 68 c9 55 PLA  IMPL  A:cb X: 1 Y:52 P:6d S:f7 pc: c70d, reg_addr:    0, cycle:  14851
c70d c9 55 f0 CMP  IMM   A:aa X: 1 Y:52 P:ed S:f8 pc: c70f, reg_addr:   55, cycle:  14853
c70f f0  a c9 BEQ  REL   A:aa X: 1 Y:52 P:6d S:f8 pc: c711, reg_addr: c71b, cycle:  14855
c711 c9 aa f0 CMP  IMM   A:aa X: 1 Y:52 P:6d S:f8 pc: c713, reg_addr:   aa, cycle:  14857
c713 f0  6 68 BEQ  REL   A:aa X: 1 Y:52 P:6f S:f8 pc: c71b, reg_addr: c71b, cycle:  14860
c71b 68 29 cb PLA  IMPL  A:aa X: 1 Y:52 P:6f S:f8 pc: c71c, reg_addr:    0, cycle:  14864
c71c 29 cb c9 AND  IMM   A:ef X: 1 Y:52 P:ed S:f9 pc: c71e, reg_addr:   cb, cycle:  14866
c71e c9  0 f0 CMP  IMM   A:cb X: 1 Y:52 P:ed S:f9 pc: c720, reg_addr:    0, cycle:  14868
c720 f0  6 c9 BEQ  REL   A:cb X: 1 Y:52 P:ed S:f9 pc: c722, reg_addr: c728, cycle:  14870
c722 c9 cb f0 CMP  IMM   A:cb X: 1 Y:52 P:ed S:f9 pc: c724, reg_addr:   cb, cycle:  14872
c724 f0  2 84 BEQ  REL   A:cb X: 1 Y:52 P:6f S:f9 pc: c728, reg_addr: c728, cycle:  14875
c728 c8 ca d0 INY  IMPL  A:cb X: 1 Y:52 P:6f S:f9 pc: c729, reg_addr:    0, cycle:  14877
c729 ca d0 e0 DEX  IMPL  A:cb X: 1 Y:53 P:6d S:f9 pc: c72a, reg_addr:    0, cycle:  14879
c72a d0 e0 60 BNE  REL   A:cb X: 0 Y:53 P:6f S:f9 pc: c72c, reg_addr: c70c, cycle:  14881
c72c 60 ea 38 RTS  IMPL  A:cb X: 0 Y:53 P:6f S:f9 pc: c6ac, reg_addr:    0, cycle:  14887
c6ac 20 b7 c6 JSR  ABS   A:cb X: 0 Y:53 P:6f S:fb pc: c6b7, reg_addr: c6b7, cycle:  14893
c6b7 a9 34 48 LDA  IMM   A:cb X: 0 Y:53 P:6f S:f9 pc: c6b9, reg_addr:   34, cycle:  14895
c6b9 48 a9 55 PHA  IMPL  A:34 X: 0 Y:53 P:6d S:f9 pc: c6ba, reg_addr:    0, cycle:  14898
c6ba a9 55 28 LDA  IMM   A:34 X: 0 Y:53 P:6d S:f8 pc: c6bc, reg_addr:   55, cycle:  14900
c6bc 28  4 a9 PLP  IMPL  A:55 X: 0 Y:53 P:6d S:f8 pc: c6bd, reg_addr:    0, cycle:  14904
c6bd  4 a9 44 DOP  ZP    A:55 X: 0 Y:53 P:24 S:f9 pc: c6bf, reg_addr:   a9, cycle:  14907
c6bf 44 a9 64 DOP  ZP    A:55 X: 0 Y:53 P:24 S:f9 pc: c6c1, reg_addr:   a9, cycle:  14910
c6c1 64 a9 ea DOP  ZP    A:55 X: 0 Y:53 P:24 S:f9 pc: c6c3, reg_addr:   a9, cycle:  14913
c6c3 ea ea ea NOP  IMPL  A:55 X: 0 Y:53 P:24 S:f9 pc: c6c4, reg_addr:    0, cycle:  14915
c6c4 ea ea ea NOP  IMPL  A:55 X: 0 Y:53 P:24 S:f9 pc: c6c5, reg_addr:    0, cycle:  14917
c6c5 ea ea  8 NOP  IMPL  A:55 X: 0 Y:53 P:24 S:f9 pc: c6c6, reg_addr:    0, cycle:  14919
c6c6 ea  8 48 NOP  IMPL  A:55 X: 0 Y:53 P:24 S:f9 pc: c6c7, reg_addr:    0, cycle:  14921
c6c7  8 48  c PHP  IMPL  A:55 X: 0 Y:53 P:24 S:f9 pc: c6c8, reg_addr:    0, cycle:  14924
c6c8 48  c a9 PHA  IMPL  A:55 X: 0 Y:53 P:24 S:f8 pc: c6c9, reg_addr:    0, cycle:  14927
c6c9  c a9 a9 TOP  ABS   A:55 X: 0 Y:53 P:24 S:f7 pc: c6cc, reg_addr: a9a9, cycle:  14931
c6cc ea ea ea NOP  IMPL  A:55 X: 0 Y:53 P:24 S:f7 pc: c6cd, reg_addr:    0, cycle:  14933
c6cd ea ea ea NOP  IMPL  A:55 X: 0 Y:53 P:24 S:f7 pc: c6ce, reg_addr:    0, cycle:  14935
c6ce ea ea  8 NOP  IMPL  A:55 X: 0 Y:53 P:24 S:f7 pc: c6cf, reg_addr:    0, cycle:  14937
c6cf ea  8 48 NOP  IMPL  A:55 X: 0 Y:53 P:24 S:f7 pc: c6d0, reg_addr:    0, cycle:  14939
c6d0  8 48 14 PHP  IMPL  A:55 X: 0 Y:53 P:24 S:f7 pc: c6d1, reg_addr:    0, cycle:  14942
c6d1 48 14 a9 PHA  IMPL  A:55 X: 0 Y:53 P:24 S:f6 pc: c6d2, reg_addr:    0, cycle:  14945
c6d2 14 a9 34 DOP  ZPX   A:55 X: 0 Y:53 P:24 S:f5 pc: c6d4, reg_addr:   a9, cycle:  14949
c6d4 34 a9 54 DOP  ZPX   A:55 X: 0 Y:53 P:24 S:f5 pc: c6d6, reg_addr:   a9, cycle:  14953
c6d6 54 a9 74 DOP  ZPX   A:55 X: 0 Y:53 P:24 S:f5 pc: c6d8, reg_addr:   a9, cycle:  14957
c6d8 74 a9 d4 DOP  ZPX   A:55 X: 0 Y:53 P:24 S:f5 pc: c6da, reg_addr:   a9, cycle:  14961
c6da d4 a9 f4 DOP  ZPX   A:55 X: 0 Y:53 P:24 S:f5 pc: c6dc, reg_addr:   a9, cycle:  14965
c6dc f4 a9 ea DOP  ZPX   A:55 X: 0 Y:53 P:24 S:f5 pc: c6de, reg_addr:   a9, cycle:  14969
c6de ea ea ea NOP  IMPL  A:55 X: 0 Y:53 P:24 S:f5 pc: c6df, reg_addr:    0, cycle:  14971
c6df ea ea ea NOP  IMPL  A:55 X: 0 Y:53 P:24 S:f5 pc: c6e0, reg_addr:    0, cycle:  14973
c6e0 ea ea  8 NOP  IMPL  A:55 X: 0 Y:53 P:24 S:f5 pc: c6e1, reg_addr:    0, cycle:  14975
c6e1 ea  8 48 NOP  IMPL  A:55 X: 0 Y:53 P:24 S:f5 pc: c6e2, reg_addr:    0, cycle:  14977
c6e2  8 48 1a PHP  IMPL  A:55 X: 0 Y:53 P:24 S:f5 pc: c6e3, reg_addr:    0, cycle:  14980
c6e3 48 1a 3a PHA  IMPL  A:55 X: 0 Y:53 P:24 S:f4 pc: c6e4, reg_addr:    0, cycle:  14983
c6e4 1a 3a 5a NOP  NOP   A:55 X: 0 Y:53 P:24 S:f3 pc: c6e5, reg_addr:    0, cycle:  14985
c6e5 3a 5a 7a NOP  NOP   A:55 X: 0 Y:53 P:24 S:f3 pc: c6e6, reg_addr:    0, cycle:  14987
c6e6 5a 7a da NOP  NOP   A:55 X: 0 Y:53 P:24 S:f3 pc: c6e7, reg_addr:    0, cycle:  14989
c6e7 7a da fa NOP  NOP   A:55 X: 0 Y:53 P:24 S:f3 pc: c6e8, reg_addr:    0, cycle:  14991
c6e8 da fa 80 NOP  NOP   A:55 X: 0 Y:53 P:24 S:f3 pc: c6e9, reg_addr:    0, cycle:  14993
c6e9 fa 80 89 NOP  NOP   A:55 X: 0 Y:53 P:24 S:f3 pc: c6ea, reg_addr:    0, cycle:  14995
c6ea 80 89 ea DOP  IMM   A:55 X: 0 Y:53 P:24 S:f3 pc: c6ec, reg_addr:   89, cycle:  14997
c6ec ea ea ea NOP  IMPL  A:55 X: 0 Y:53 P:24 S:f3 pc: c6ed, reg_addr:    0, cycle:  14999
c6ed ea ea ea NOP  IMPL  A:55 X: 0 Y:53 P:24 S:f3 pc: c6ee, reg_addr:    0, cycle:  15001
c6ee ea ea  8 NOP  IMPL  A:55 X: 0 Y:53 P:24 S:f3 pc: c6ef, reg_addr:    0, cycle:  15003
c6ef ea  8 48 NOP  IMPL  A:55 X: 0 Y:53 P:24 S:f3 pc: c6f0, reg_addr:    0, cycle:  15005
c6f0  8 48 1c PHP  IMPL  A:55 X: 0 Y:53 P:24 S:f3 pc: c6f1, reg_addr:    0, cycle:  15008
c6f1 48 1c a9 PHA  IMPL  A:55 X: 0 Y:53 P:24 S:f2 pc: c6f2, reg_addr:    0, cycle:  15011
c6f2 1c a9 a9 TOP  ABSX  A:55 X: 0 Y:53 P:24 S:f1 pc: c6f5, reg_addr: a9a9, cycle:  15015
c6f5 3c a9 a9 TOP  ABSX  A:55 X: 0 Y:53 P:24 S:f1 pc: c6f8, reg_addr: a9a9, cycle:  15019
c6f8 5c a9 a9 TOP  ABSX  A:55 X: 0 Y:53 P:24 S:f1 pc: c6fb, reg_addr: a9a9, cycle:  15023
c6fb 7c a9 a9 TOP  ABSX  A:55 X: 0 Y:53 P:24 S:f1 pc: c6fe, reg_addr: a9a9, cycle:  15027
c6fe dc a9 a9 TOP  ABSX  A:55 X: 0 Y:53 P:24 S:f1 pc: c701, reg_addr: a9a9, cycle:  15031
c701 fc a9 a9 TOP  ABSX  A:55 X: 0 Y:53 P:24 S:f1 pc: c704, reg_addr: a9a9, cycle:  15035
c704 ea ea ea NOP  IMPL  A:55 X: 0 Y:53 P:24 S:f1 pc: c705, reg_addr:    0, cycle:  15037
c705 ea ea ea NOP  IMPL  A:55 X: 0 Y:53 P:24 S:f1 pc: c706, reg_addr:    0, cycle:  15039
c706 ea ea  8 NOP  IMPL  A:55 X: 0 Y:53 P:24 S:f1 pc: c707, reg_addr:    0, cycle:  15041
c707 ea  8 48 NOP  IMPL  A:55 X: 0 Y:53 P:24 S:f1 pc: c708, reg_addr:    0, cycle:  15043
c708  8 48 a2 PHP  IMPL  A:55 X: 0 Y:53 P:24 S:f1 pc: c709, reg_addr:    0, cycle:  15046
c709 48 a2  5 PHA  IMPL  A:55 X: 0 Y:53 P:24 S:f0 pc: c70a, reg_addr:    0, cycle:  15049
c70a a2  5 68 LDX  IMM   A:55 X: 0 Y:53 P:24 S:ef pc: c70c, reg_addr:    5, cycle:  15051
c70c 68 c9 55 PLA  IMPL  A:55 X: 5 Y:53 P:24 S:ef pc: c70d, reg_addr:    0, cycle:  15055
c70d c9 55 f0 CMP  IMM   A:55 X: 5 Y:53 P:24 S:f0 pc: c70f, reg_addr:   55, cycle:  15057
c70f f0  a c9 BEQ  REL   A:55 X: 5 Y:53 P:27 S:f0 pc: c71b, reg_addr: c71b, cycle:  15060
c71b 68 29 cb PLA  IMPL  A:55 X: 5 Y:53 P:27 S:f0 pc: c71c, reg_addr:    0, cycle:  15064
c71c 29 cb c9 AND  IMM   A:24 X: 5 Y:53 P:25 S:f1 pc: c71e, reg_addr:   cb, cycle:  15066
c71e c9  0 f0 CMP  IMM   A: 0 X: 5 Y:53 P:27 S:f1 pc: c720, reg_addr:    0, cycle:  15068
c720 f0  6 c9 BEQ  REL   A: 0 X: 5 Y:53 P:27 S:f1 pc: c728, reg_addr: c728, cycle:  15071
c728 c8 ca d0 INY  IMPL  A: 0 X: 5 Y:53 P:27 S:f1 pc: c729, reg_addr:    0, cycle:  15073
c729 ca d0 e0 DEX  IMPL  A: 0 X: 5 Y:54 P:25 S:f1 pc: c72a, reg_addr:    0, cycle:  15075
c72a d0 e0 60 BNE  REL   A: 0 X: 4 Y:54 P:25 S:f1 pc: c70c, reg_addr: c70c, cycle:  15078
c70c 68 c9 55 PLA  IMPL  A: 0 X: 4 Y:54 P:25 S:f1 pc: c70d, reg_addr:    0, cycle:  15082
c70d c9 55 f0 CMP  IMM   A:55 X: 4 Y:54 P:25 S:f2 pc: c70f, reg_addr:   55, cycle:  15084
c70f f0  a c9 BEQ  REL   A:55 X: 4 Y:54 P:27 S:f2 pc: c71b, reg_addr: c71b, cycle:  15087
c71b 68 29 cb PLA  IMPL  A:55 X: 4 Y:54 P:27 S:f2 pc: c71c, reg_addr:    0, cycle:  15091
c71c 29 cb c9 AND  IMM   A:24 X: 4 Y:54 P:25 S:f3 pc: c71e, reg_addr:   cb, cycle:  15093
c71e c9  0 f0 CMP  IMM   A: 0 X: 4 Y:54 P:27 S:f3 pc: c720, reg_addr:    0, cycle:  15095
c720 f0  6 c9 BEQ  REL   A: 0 X: 4 Y:54 P:27 S:f3 pc: c728, reg_addr: c728, cycle:  15098
c728 c8 ca d0 INY  IMPL  A: 0 X: 4 Y:54 P:27 S:f3 pc: c729, reg_addr:    0, cycle:  15100
c729 ca d0 e0 DEX  IMPL  A: 0 X: 4 Y:55 P:25 S:f3 pc: c72a, reg_addr:    0, cycle:  15102
c72a d0 e0 60 BNE  REL   A: 0 X: 3 Y:55 P:25 S:f3 pc: c70c, reg_addr: c70c, cycle:  15105
c70c 68 c9 55 PLA  IMPL  A: 0 X: 3 Y:55 P:25 S:f3 pc: c70d, reg_addr:    0, cycle:  15109
c70d c9 55 f0 CMP  IMM   A:55 X: 3 Y:55 P:25 S:f4 pc: c70f, reg_addr:   55, cycle:  15111
c70f f0  a c9 BEQ  REL   A:55 X: 3 Y:55 P:27 S:f4 pc: c71b, reg_addr: c71b, cycle:  15114
c71b 68 29 cb PLA  IMPL  A:55 X: 3 Y:55 P:27 S:f4 pc: c71c, reg_addr:    0, cycle:  15118
c71c 29 cb c9 AND  IMM   A:24 X: 3 Y:55 P:25 S:f5 pc: c71e, reg_addr:   cb, cycle:  15120
c71e c9  0 f0 CMP  IMM   A: 0 X: 3 Y:55 P:27 S:f5 pc: c720, reg_addr:    0, cycle:  15122
c720 f0  6 c9 BEQ  REL   A: 0 X: 3 Y:55 P:27 S:f5 pc: c728, reg_addr: c728, cycle:  15125
c728 c8 ca d0 INY  IMPL  A: 0 X: 3 Y:55 P:27 S:f5 pc: c729, reg_addr:    0, cycle:  15127
c729 ca d0 e0 DEX  IMPL  A: 0 X: 3 Y:56 P:25 S:f5 pc: c72a, reg_addr:    0, cycle:  15129
c72a d0 e0 60 BNE  REL   A: 0 X: 2 Y:56 P:25 S:f5 pc: c70c, reg_addr: c70c, cycle:  15132
c70c 68 c9 55 PLA  IMPL  A: 0 X: 2 Y:56 P:25 S:f5 pc: c70d, reg_addr:    0, cycle:  15136
c70d c9 55 f0 CMP  IMM   A:55 X: 2 Y:56 P:25 S:f6 pc: c70f, reg_addr:   55, cycle:  15138
c70f f0  a c9 BEQ  REL   A:55 X: 2 Y:56 P:27 S:f6 pc: c71b, reg_addr: c71b, cycle:  15141
c71b 68 29 cb PLA  IMPL  A:55 X: 2 Y:56 P:27 S:f6 pc: c71c, reg_addr:    0, cycle:  15145
c71c 29 cb c9 AND  IMM   A:24 X: 2 Y:56 P:25 S:f7 pc: c71e, reg_addr:   cb, cycle:  15147
c71e c9  0 f0 CMP  IMM   A: 0 X: 2 Y:56 P:27 S:f7 pc: c720, reg_addr:    0, cycle:  15149
c720 f0  6 c9 BEQ  REL   A: 0 X: 2 Y:56 P:27 S:f7 pc: c728, reg_addr: c728, cycle:  15152
c728 c8 ca d0 INY  IMPL  A: 0 X: 2 Y:56 P:27 S:f7 pc: c729, reg_addr:    0, cycle:  15154
c729 ca d0 e0 DEX  IMPL  A: 0 X: 2 Y:57 P:25 S:f7 pc: c72a, reg_addr:    0, cycle:  15156
c72a d0 e0 60 BNE  REL   A: 0 X: 1 Y:57 P:25 S:f7 pc: c70c, reg_addr: c70c, cycle:  15159
c70c 68 c9 55 PLA  IMPL  A: 0 X: 1 Y:57 P:25 S:f7 pc: c70d, reg_addr:    0, cycle:  15163
c70d c9 55 f0 CMP  IMM   A:55 X: 1 Y:57 P:25 S:f8 pc: c70f, reg_addr:   55, cycle:  15165
c70f f0  a c9 BEQ  REL   A:55 X: 1 Y:57 P:27 S:f8 pc: c71b, reg_addr: c71b, cycle:  15168
c71b 68 29 cb PLA  IMPL  A:55 X: 1 Y:57 P:27 S:f8 pc: c71c, reg_addr:    0, cycle:  15172
c71c 29 cb c9 AND  IMM   A:24 X: 1 Y:57 P:25 S:f9 pc: c71e, reg_addr:   cb, cycle:  15174
c71e c9  0 f0 CMP  IMM   A: 0 X: 1 Y:57 P:27 S:f9 pc: c720, reg_addr:    0, cycle:  15176
c720 f0  6 c9 BEQ  REL   A: 0 X: 1 Y:57 P:27 S:f9 pc: c728, reg_addr: c728, cycle:  15179
c728 c8 ca d0 INY  IMPL  A: 0 X: 1 Y:57 P:27 S:f9 pc: c729, reg_addr:    0, cycle:  15181
c729 ca d0 e0 DEX  IMPL  A: 0 X: 1 Y:58 P:25 S:f9 pc: c72a, reg_addr:    0, cycle:  15183
c72a d0 e0 60 BNE  REL   A: 0 X: 0 Y:58 P:27 S:f9 pc: c72c, reg_addr: c70c, cycle:  15185
c72c 60 ea 38 RTS  IMPL  A: 0 X: 0 Y:58 P:27 S:f9 pc: c6af, reg_addr:    0, cycle:  15191
c6af 60 a9 ff RTS  IMPL  A: 0 X: 0 Y:58 P:27 S:fb pc: c632, reg_addr:    0, cycle:  15197
c632 20 1e e5 JSR  ABS   A: 0 X: 0 Y:58 P:27 S:fd pc: e51e, reg_addr: e51e, cycle:  15203
e51e a9 55 8d LDA  IMM   A: 0 X: 0 Y:58 P:27 S:fb pc: e520, reg_addr:   55, cycle:  15205
e520 8d 80  5 STA  ABS   A:55 X: 0 Y:58 P:25 S:fb pc: e523, reg_addr:  580, cycle:  15209
e523 a9 aa 8d LDA  IMM   A:55 X: 0 Y:58 P:25 S:fb pc: e525, reg_addr:   aa, cycle:  15211
e525 8d 32  4 STA  ABS   A:aa X: 0 Y:58 P:a5 S:fb pc: e528, reg_addr:  432, cycle:  15215
e528 a9 80 85 LDA  IMM   A:aa X: 0 Y:58 P:a5 S:fb pc: e52a, reg_addr:   80, cycle:  15217
e52a 85 43 a9 STA  ZP    A:80 X: 0 Y:58 P:a5 S:fb pc: e52c, reg_addr:   43, cycle:  15220
e52c a9  5 85 LDA  IMM   A:80 X: 0 Y:58 P:a5 S:fb pc: e52e, reg_addr:    5, cycle:  15222
e52e 85 44 a9 STA  ZP    A: 5 X: 0 Y:58 P:25 S:fb pc: e530, reg_addr:   44, cycle:  15225
e530 a9 32 85 LDA  IMM   A: 5 X: 0 Y:58 P:25 S:fb pc: e532, reg_addr:   32, cycle:  15227
e532 85 45 a9 STA  ZP    A:32 X: 0 Y:58 P:25 S:fb pc: e534, reg_addr:   45, cycle:  15230
e534 a9  4 85 LDA  IMM   A:32 X: 0 Y:58 P:25 S:fb pc: e536, reg_addr:    4, cycle:  15232
e536 85 46 a2 STA  ZP    A: 4 X: 0 Y:58 P:25 S:fb pc: e538, reg_addr:   46, cycle:  15235
e538 a2  3 a0 LDX  IMM   A: 4 X: 0 Y:58 P:25 S:fb pc: e53a, reg_addr:    3, cycle:  15237
e53a a0 77 a9 LDY  IMM   A: 4 X: 3 Y:58 P:25 S:fb pc: e53c, reg_addr:   77, cycle:  15239
e53c a9 ff 85 LDA  IMM   A: 4 X: 3 Y:77 P:25 S:fb pc: e53e, reg_addr:   ff, cycle:  15241
e53e 85  1 24 STA  ZP    A:ff X: 3 Y:77 P:a5 S:fb pc: e540, reg_addr:    1, cycle:  15244
e540 24  1 38 BIT  ZP    A:ff X: 3 Y:77 P:a5 S:fb pc: e542, reg_addr:    1, cycle:  15247
e542 38 a9  0 SEC  IMPL  A:ff X: 3 Y:77 P:e5 S:fb pc: e543, reg_addr:    0, cycle:  15249
e543 a9  0 a3 LDA  IMM   A:ff X: 3 Y:77 P:e5 S:fb pc: e545, reg_addr:    0, cycle:  15251
e545 a3 40 ea LAX  INDX  A: 0 X: 3 Y:77 P:67 S:fb pc: e547, reg_addr:  580, cycle:  15257
e547 ea ea ea NOP  IMPL  A:55 X:55 Y:77 P:65 S:fb pc: e548, reg_addr:    0, cycle:  15259
e548 ea ea ea NOP  IMPL  A:55 X:55 Y:77 P:65 S:fb pc: e549, reg_addr:    0, cycle:  15261
e549 ea ea f0 NOP  IMPL  A:55 X:55 Y:77 P:65 S:fb pc: e54a, reg_addr:    0, cycle:  15263
e54a ea f0 12 NOP  IMPL  A:55 X:55 Y:77 P:65 S:fb pc: e54b, reg_addr:    0, cycle:  15265
e54b f0 12 30 BEQ  REL   A:55 X:55 Y:77 P:65 S:fb pc: e54d, reg_addr: e55f, cycle:  15267
e54d 30 10 50 BMI  REL   A:55 X:55 Y:77 P:65 S:fb pc: e54f, reg_addr: e55f, cycle:  15269
e54f 50  e 90 BVC  REL   A:55 X:55 Y:77 P:65 S:fb pc: e551, reg_addr: e55f, cycle:  15271
e551 90  c c9 BCC  REL   A:55 X:55 Y:77 P:65 S:fb pc: e553, reg_addr: e55f, cycle:  15273
e553 c9 55 d0 CMP  IMM   A:55 X:55 Y:77 P:65 S:fb pc: e555, reg_addr:   55, cycle:  15275
e555 d0  8 e0 BNE  REL   A:55 X:55 Y:77 P:67 S:fb pc: e557, reg_addr: e55f, cycle:  15277
e557 e0 55 d0 CPX  IMM   A:55 X:55 Y:77 P:67 S:fb pc: e559, reg_addr:   55, cycle:  15279
e559 d0  4 c0 BNE  REL   A:55 X:55 Y:77 P:67 S:fb pc: e55b, reg_addr: e55f, cycle:  15281
e55b c0 77 f0 CPY  IMM   A:55 X:55 Y:77 P:67 S:fb pc: e55d, reg_addr:   77, cycle:  15283
e55d f0  4 a9 BEQ  REL   A:55 X:55 Y:77 P:67 S:fb pc: e563, reg_addr: e563, cycle:  15286
e563 a2  5 a0 LDX  IMM   A:55 X:55 Y:77 P:67 S:fb pc: e565, reg_addr:    5, cycle:  15288
e565 a0 33 b8 LDY  IMM   A:55 X: 5 Y:77 P:65 S:fb pc: e567, reg_addr:   33, cycle:  15290
e567 b8 18 a9 CLV  IMPL  A:55 X: 5 Y:33 P:65 S:fb pc: e568, reg_addr:    0, cycle:  15292
e568 18 a9  0 CLC  IMPL  A:55 X: 5 Y:33 P:25 S:fb pc: e569, reg_addr:    0, cycle:  15294
e569 a9  0 a3 LDA  IMM   A:55 X: 5 Y:33 P:24 S:fb pc: e56b, reg_addr:    0, cycle:  15296
e56b a3 40 ea LAX  INDX  A: 0 X: 5 Y:33 P:26 S:fb pc: e56d, reg_addr:  432, cycle:  15302
e56d ea ea ea NOP  IMPL  A:aa X:aa Y:33 P:a4 S:fb pc: e56e, reg_addr:    0, cycle:  15304
e56e ea ea ea NOP  IMPL  A:aa X:aa Y:33 P:a4 S:fb pc: e56f, reg_addr:    0, cycle:  15306
e56f ea ea f0 NOP  IMPL  A:aa X:aa Y:33 P:a4 S:fb pc: e570, reg_addr:    0, cycle:  15308
e570 ea f0 12 NOP  IMPL  A:aa X:aa Y:33 P:a4 S:fb pc: e571, reg_addr:    0, cycle:  15310
e571 f0 12 10 BEQ  REL   A:aa X:aa Y:33 P:a4 S:fb pc: e573, reg_addr: e585, cycle:  15312
e573 10 10 70 BPL  REL   A:aa X:aa Y:33 P:a4 S:fb pc: e575, reg_addr: e585, cycle:  15314
e575 70  e b0 BVS  REL   A:aa X:aa Y:33 P:a4 S:fb pc: e577, reg_addr: e585, cycle:  15316
e577 b0  c c9 BCS  REL   A:aa X:aa Y:33 P:a4 S:fb pc: e579, reg_addr: e585, cycle:  15318
e579 c9 aa d0 CMP  IMM   A:aa X:aa Y:33 P:a4 S:fb pc: e57b, reg_addr:   aa, cycle:  15320
e57b d0  8 e0 BNE  REL   A:aa X:aa Y:33 P:27 S:fb pc: e57d, reg_addr: e585, cycle:  15322
e57d e0 aa d0 CPX  IMM   A:aa X:aa Y:33 P:27 S:fb pc: e57f, reg_addr:   aa, cycle:  15324
e57f d0  4 c0 BNE  REL   A:aa X:aa Y:33 P:27 S:fb pc: e581, reg_addr: e585, cycle:  15326
e581 c0 33 f0 CPY  IMM   A:aa X:aa Y:33 P:27 S:fb pc: e583, reg_addr:   33, cycle:  15328
e583 f0  4 a9 BEQ  REL   A:aa X:aa Y:33 P:27 S:fb pc: e589, reg_addr: e589, cycle:  15331
e589 a9 87 85 LDA  IMM   A:aa X:aa Y:33 P:27 S:fb pc: e58b, reg_addr:   87, cycle:  15333
e58b 85 67 a9 STA  ZP    A:87 X:aa Y:33 P:a5 S:fb pc: e58d, reg_addr:   67, cycle:  15336
e58d a9 32 85 LDA  IMM   A:87 X:aa Y:33 P:a5 S:fb pc: e58f, reg_addr:   32, cycle:  15338
e58f 85 68 a0 STA  ZP    A:32 X:aa Y:33 P:25 S:fb pc: e591, reg_addr:   68, cycle:  15341
e591 a0 57 24 LDY  IMM   A:32 X:aa Y:33 P:25 S:fb pc: e593, reg_addr:   57, cycle:  15343
e593 24  1 38 BIT  ZP    A:32 X:aa Y:57 P:25 S:fb pc: e595, reg_addr:    1, cycle:  15346
e595 38 a9  0 SEC  IMPL  A:32 X:aa Y:57 P:e5 S:fb pc: e596, reg_addr:    0, cycle:  15348
e596 a9  0 a7 LDA  IMM   A:32 X:aa Y:57 P:e5 S:fb pc: e598, reg_addr:    0, cycle:  15350
e598 a7 67 ea LAX  ZP    A: 0 X:aa Y:57 P:67 S:fb pc: e59a, reg_addr:   67, cycle:  15353
e59a ea ea ea NOP  IMPL  A:87 X:87 Y:57 P:e5 S:fb pc: e59b, reg_addr:    0, cycle:  15355
e59b ea ea ea NOP  IMPL  A:87 X:87 Y:57 P:e5 S:fb pc: e59c, reg_addr:    0, cycle:  15357
e59c ea ea f0 NOP  IMPL  A:87 X:87 Y:57 P:e5 S:fb pc: e59d, reg_addr:    0, cycle:  15359
e59d ea f0 12 NOP  IMPL  A:87 X:87 Y:57 P:e5 S:fb pc: e59e, reg_addr:    0, cycle:  15361
e59e f0 12 10 BEQ  REL   A:87 X:87 Y:57 P:e5 S:fb pc: e5a0, reg_addr: e5b2, cycle:  15363
e5a0 10 10 50 BPL  REL   A:87 X:87 Y:57 P:e5 S:fb pc: e5a2, reg_addr: e5b2, cycle:  15365
e5a2 50  e 90 BVC  REL   A:87 X:87 Y:57 P:e5 S:fb pc: e5a4, reg_addr: e5b2, cycle:  15367
e5a4 90  c c9 BCC  REL   A:87 X:87 Y:57 P:e5 S:fb pc: e5a6, reg_addr: e5b2, cycle:  15369
e5a6 c9 87 d0 CMP  IMM   A:87 X:87 Y:57 P:e5 S:fb pc: e5a8, reg_addr:   87, cycle:  15371
e5a8 d0  8 e0 BNE  REL   A:87 X:87 Y:57 P:67 S:fb pc: e5aa, reg_addr: e5b2, cycle:  15373
e5aa e0 87 d0 CPX  IMM   A:87 X:87 Y:57 P:67 S:fb pc: e5ac, reg_addr:   87, cycle:  15375
e5ac d0  4 c0 BNE  REL   A:87 X:87 Y:57 P:67 S:fb pc: e5ae, reg_addr: e5b2, cycle:  15377
e5ae c0 57 f0 CPY  IMM   A:87 X:87 Y:57 P:67 S:fb pc: e5b0, reg_addr:   57, cycle:  15379
e5b0 f0  4 a9 BEQ  REL   A:87 X:87 Y:57 P:67 S:fb pc: e5b6, reg_addr: e5b6, cycle:  15382
e5b6 a0 53 b8 LDY  IMM   A:87 X:87 Y:57 P:67 S:fb pc: e5b8, reg_addr:   53, cycle:  15384
e5b8 b8 18 a9 CLV  IMPL  A:87 X:87 Y:53 P:65 S:fb pc: e5b9, reg_addr:    0, cycle:  15386
e5b9 18 a9  0 CLC  IMPL  A:87 X:87 Y:53 P:25 S:fb pc: e5ba, reg_addr:    0, cycle:  15388
e5ba a9  0 a7 LDA  IMM   A:87 X:87 Y:53 P:24 S:fb pc: e5bc, reg_addr:    0, cycle:  15390
e5bc a7 68 ea LAX  ZP    A: 0 X:87 Y:53 P:26 S:fb pc: e5be, reg_addr:   68, cycle:  15393
e5be ea ea ea NOP  IMPL  A:32 X:32 Y:53 P:24 S:fb pc: e5bf, reg_addr:    0, cycle:  15395
e5bf ea ea ea NOP  IMPL  A:32 X:32 Y:53 P:24 S:fb pc: e5c0, reg_addr:    0, cycle:  15397
e5c0 ea ea f0 NOP  IMPL  A:32 X:32 Y:53 P:24 S:fb pc: e5c1, reg_addr:    0, cycle:  15399
e5c1 ea f0 12 NOP  IMPL  A:32 X:32 Y:53 P:24 S:fb pc: e5c2, reg_addr:    0, cycle:  15401
e5c2 f0 12 30 BEQ  REL   A:32 X:32 Y:53 P:24 S:fb pc: e5c4, reg_addr: e5d6, cycle:  15403
e5c4 30 10 70 BMI  REL   A:32 X:32 Y:53 P:24 S:fb pc: e5c6, reg_addr: e5d6, cycle:  15405
e5c6 70  e b0 BVS  REL   A:32 X:32 Y:53 P:24 S:fb pc: e5c8, reg_addr: e5d6, cycle:  15407
e5c8 b0  c c9 BCS  REL   A:32 X:32 Y:53 P:24 S:fb pc: e5ca, reg_addr: e5d6, cycle:  15409
e5ca c9 32 d0 CMP  IMM   A:32 X:32 Y:53 P:24 S:fb pc: e5cc, reg_addr:   32, cycle:  15411
e5cc d0  8 e0 BNE  REL   A:32 X:32 Y:53 P:27 S:fb pc: e5ce, reg_addr: e5d6, cycle:  15413
e5ce e0 32 d0 CPX  IMM   A:32 X:32 Y:53 P:27 S:fb pc: e5d0, reg_addr:   32, cycle:  15415
e5d0 d0  4 c0 BNE  REL   A:32 X:32 Y:53 P:27 S:fb pc: e5d2, reg_addr: e5d6, cycle:  15417
e5d2 c0 53 f0 CPY  IMM   A:32 X:32 Y:53 P:27 S:fb pc: e5d4, reg_addr:   53, cycle:  15419
e5d4 f0  4 a9 BEQ  REL   A:32 X:32 Y:53 P:27 S:fb pc: e5da, reg_addr: e5da, cycle:  15422
e5da a9 87 8d LDA  IMM   A:32 X:32 Y:53 P:27 S:fb pc: e5dc, reg_addr:   87, cycle:  15424
e5dc 8d 77  5 STA  ABS   A:87 X:32 Y:53 P:a5 S:fb pc: e5df, reg_addr:  577, cycle:  15428
e5df a9 32 8d LDA  IMM   A:87 X:32 Y:53 P:a5 S:fb pc: e5e1, reg_addr:   32, cycle:  15430
e5e1 8d 78  5 STA  ABS   A:32 X:32 Y:53 P:25 S:fb pc: e5e4, reg_addr:  578, cycle:  15434
e5e4 a0 57 24 LDY  IMM   A:32 X:32 Y:53 P:25 S:fb pc: e5e6, reg_addr:   57, cycle:  15436
e5e6 24  1 38 BIT  ZP    A:32 X:32 Y:57 P:25 S:fb pc: e5e8, reg_addr:    1, cycle:  15439
e5e8 38 a9  0 SEC  IMPL  A:32 X:32 Y:57 P:e5 S:fb pc: e5e9, reg_addr:    0, cycle:  15441
e5e9 a9  0 af LDA  IMM   A:32 X:32 Y:57 P:e5 S:fb pc: e5eb, reg_addr:    0, cycle:  15443
e5eb af 77  5 LAX  ABS   A: 0 X:32 Y:57 P:67 S:fb pc: e5ee, reg_addr:  577, cycle:  15447
e5ee ea ea ea NOP  IMPL  A:87 X:87 Y:57 P:e5 S:fb pc: e5ef, reg_addr:    0, cycle:  15449
e5ef ea ea ea NOP  IMPL  A:87 X:87 Y:57 P:e5 S:fb pc: e5f0, reg_addr:    0, cycle:  15451
e5f0 ea ea f0 NOP  IMPL  A:87 X:87 Y:57 P:e5 S:fb pc: e5f1, reg_addr:    0, cycle:  15453
e5f1 ea f0 12 NOP  IMPL  A:87 X:87 Y:57 P:e5 S:fb pc: e5f2, reg_addr:    0, cycle:  15455
e5f2 f0 12 10 BEQ  REL   A:87 X:87 Y:57 P:e5 S:fb pc: e5f4, reg_addr: e606, cycle:  15457
e5f4 10 10 50 BPL  REL   A:87 X:87 Y:57 P:e5 S:fb pc: e5f6, reg_addr: e606, cycle:  15459
e5f6 50  e 90 BVC  REL   A:87 X:87 Y:57 P:e5 S:fb pc: e5f8, reg_addr: e606, cycle:  15461
e5f8 90  c c9 BCC  REL   A:87 X:87 Y:57 P:e5 S:fb pc: e5fa, reg_addr: e606, cycle:  15463
e5fa c9 87 d0 CMP  IMM   A:87 X:87 Y:57 P:e5 S:fb pc: e5fc, reg_addr:   87, cycle:  15465
e5fc d0  8 e0 BNE  REL   A:87 X:87 Y:57 P:67 S:fb pc: e5fe, reg_addr: e606, cycle:  15467
e5fe e0 87 d0 CPX  IMM   A:87 X:87 Y:57 P:67 S:fb pc: e600, reg_addr:   87, cycle:  15469
e600 d0  4 c0 BNE  REL   A:87 X:87 Y:57 P:67 S:fb pc: e602, reg_addr: e606, cycle:  15471
e602 c0 57 f0 CPY  IMM   A:87 X:87 Y:57 P:67 S:fb pc: e604, reg_addr:   57, cycle:  15473
e604 f0  4 a9 BEQ  REL   A:87 X:87 Y:57 P:67 S:fb pc: e60a, reg_addr: e60a, cycle:  15476
e60a a0 53 b8 LDY  IMM   A:87 X:87 Y:57 P:67 S:fb pc: e60c, reg_addr:   53, cycle:  15478
e60c b8 18 a9 CLV  IMPL  A:87 X:87 Y:53 P:65 S:fb pc: e60d, reg_addr:    0, cycle:  15480
e60d 18 a9  0 CLC  IMPL  A:87 X:87 Y:53 P:25 S:fb pc: e60e, reg_addr:    0, cycle:  15482
e60e a9  0 af LDA  IMM   A:87 X:87 Y:53 P:24 S:fb pc: e610, reg_addr:    0, cycle:  15484
e610 af 78  5 LAX  ABS   A: 0 X:87 Y:53 P:26 S:fb pc: e613, reg_addr:  578, cycle:  15488
e613 ea ea ea NOP  IMPL  A:32 X:32 Y:53 P:24 S:fb pc: e614, reg_addr:    0, cycle:  15490
e614 ea ea ea NOP  IMPL  A:32 X:32 Y:53 P:24 S:fb pc: e615, reg_addr:    0, cycle:  15492
e615 ea ea f0 NOP  IMPL  A:32 X:32 Y:53 P:24 S:fb pc: e616, reg_addr:    0, cycle:  15494
e616 ea f0 12 NOP  IMPL  A:32 X:32 Y:53 P:24 S:fb pc: e617, reg_addr:    0, cycle:  15496
e617 f0 12 30 BEQ  REL   A:32 X:32 Y:53 P:24 S:fb pc: e619, reg_addr: e62b, cycle:  15498
e619 30 10 70 BMI  REL   A:32 X:32 Y:53 P:24 S:fb pc: e61b, reg_addr: e62b, cycle:  15500
e61b 70  e b0 BVS  REL   A:32 X:32 Y:53 P:24 S:fb pc: e61d, reg_addr: e62b, cycle:  15502
e61d b0  c c9 BCS  REL   A:32 X:32 Y:53 P:24 S:fb pc: e61f, reg_addr: e62b, cycle:  15504
e61f c9 32 d0 CMP  IMM   A:32 X:32 Y:53 P:24 S:fb pc: e621, reg_addr:   32, cycle:  15506
e621 d0  8 e0 BNE  REL   A:32 X:32 Y:53 P:27 S:fb pc: e623, reg_addr: e62b, cycle:  15508
e623 e0 32 d0 CPX  IMM   A:32 X:32 Y:53 P:27 S:fb pc: e625, reg_addr:   32, cycle:  15510
e625 d0  4 c0 BNE  REL   A:32 X:32 Y:53 P:27 S:fb pc: e627, reg_addr: e62b, cycle:  15512
e627 c0 53 f0 CPY  IMM   A:32 X:32 Y:53 P:27 S:fb pc: e629, reg_addr:   53, cycle:  15514
e629 f0  4 a9 BEQ  REL   A:32 X:32 Y:53 P:27 S:fb pc: e62f, reg_addr: e62f, cycle:  15517
e62f a9 ff 85 LDA  IMM   A:32 X:32 Y:53 P:27 S:fb pc: e631, reg_addr:   ff, cycle:  15519
e631 85 43 a9 STA  ZP    A:ff X:32 Y:53 P:a5 S:fb pc: e633, reg_addr:   43, cycle:  15522
e633 a9  4 85 LDA  IMM   A:ff X:32 Y:53 P:a5 S:fb pc: e635, reg_addr:    4, cycle:  15524
e635 85 44 a9 STA  ZP    A: 4 X:32 Y:53 P:25 S:fb pc: e637, reg_addr:   44, cycle:  15527
e637 a9 32 85 LDA  IMM   A: 4 X:32 Y:53 P:25 S:fb pc: e639, reg_addr:   32, cycle:  15529
e639 85 45 a9 STA  ZP    A:32 X:32 Y:53 P:25 S:fb pc: e63b, reg_addr:   45, cycle:  15532
e63b a9  4 85 LDA  IMM   A:32 X:32 Y:53 P:25 S:fb pc: e63d, reg_addr:    4, cycle:  15534
e63d 85 46 a9 STA  ZP    A: 4 X:32 Y:53 P:25 S:fb pc: e63f, reg_addr:   46, cycle:  15537
e63f a9 55 8d LDA  IMM   A: 4 X:32 Y:53 P:25 S:fb pc: e641, reg_addr:   55, cycle:  15539
e641 8d 80  5 STA  ABS   A:55 X:32 Y:53 P:25 S:fb pc: e644, reg_addr:  580, cycle:  15543
e644 a9 aa 8d LDA  IMM   A:55 X:32 Y:53 P:25 S:fb pc: e646, reg_addr:   aa, cycle:  15545
e646 8d 32  4 STA  ABS   A:aa X:32 Y:53 P:a5 S:fb pc: e649, reg_addr:  432, cycle:  15549
e649 a2  3 a0 LDX  IMM   A:aa X:32 Y:53 P:a5 S:fb pc: e64b, reg_addr:    3, cycle:  15551
e64b a0 81 24 LDY  IMM   A:aa X: 3 Y:53 P:25 S:fb pc: e64d, reg_addr:   81, cycle:  15553
e64d 24  1 38 BIT  ZP    A:aa X: 3 Y:81 P:a5 S:fb pc: e64f, reg_addr:    1, cycle:  15556
e64f 38 a9  0 SEC  IMPL  A:aa X: 3 Y:81 P:e5 S:fb pc: e650, reg_addr:    0, cycle:  15558
e650 a9  0 b3 LDA  IMM   A:aa X: 3 Y:81 P:e5 S:fb pc: e652, reg_addr:    0, cycle:  15560
e652 b3 43 ea LAX  INDY  A: 0 X: 3 Y:81 P:67 S:fb pc: e654, reg_addr:  580, cycle:  15566
e654 ea ea ea NOP  IMPL  A:55 X:55 Y:81 P:65 S:fb pc: e655, reg_addr:    0, cycle:  15568
e655 ea ea ea NOP  IMPL  A:55 X:55 Y:81 P:65 S:fb pc: e656, reg_addr:    0, cycle:  15570
e656 ea ea f0 NOP  IMPL  A:55 X:55 Y:81 P:65 S:fb pc: e657, reg_addr:    0, cycle:  15572
e657 ea f0 12 NOP  IMPL  A:55 X:55 Y:81 P:65 S:fb pc: e658, reg_addr:    0, cycle:  15574
e658 f0 12 30 BEQ  REL   A:55 X:55 Y:81 P:65 S:fb pc: e65a, reg_addr: e66c, cycle:  15576
e65a 30 10 50 BMI  REL   A:55 X:55 Y:81 P:65 S:fb pc: e65c, reg_addr: e66c, cycle:  15578
e65c 50  e 90 BVC  REL   A:55 X:55 Y:81 P:65 S:fb pc: e65e, reg_addr: e66c, cycle:  15580
e65e 90  c c9 BCC  REL   A:55 X:55 Y:81 P:65 S:fb pc: e660, reg_addr: e66c, cycle:  15582
e660 c9 55 d0 CMP  IMM   A:55 X:55 Y:81 P:65 S:fb pc: e662, reg_addr:   55, cycle:  15584
e662 d0  8 e0 BNE  REL   A:55 X:55 Y:81 P:67 S:fb pc: e664, reg_addr: e66c, cycle:  15586
e664 e0 55 d0 CPX  IMM   A:55 X:55 Y:81 P:67 S:fb pc: e666, reg_addr:   55, cycle:  15588
e666 d0  4 c0 BNE  REL   A:55 X:55 Y:81 P:67 S:fb pc: e668, reg_addr: e66c, cycle:  15590
e668 c0 81 f0 CPY  IMM   A:55 X:55 Y:81 P:67 S:fb pc: e66a, reg_addr:   81, cycle:  15592
e66a f0  4 a9 BEQ  REL   A:55 X:55 Y:81 P:67 S:fb pc: e670, reg_addr: e670, cycle:  15595
e670 a2  5 a0 LDX  IMM   A:55 X:55 Y:81 P:67 S:fb pc: e672, reg_addr:    5, cycle:  15597
e672 a0  0 b8 LDY  IMM   A:55 X: 5 Y:81 P:65 S:fb pc: e674, reg_addr:    0, cycle:  15599
e674 b8 18 a9 CLV  IMPL  A:55 X: 5 Y: 0 P:67 S:fb pc: e675, reg_addr:    0, cycle:  15601
e675 18 a9  0 CLC  IMPL  A:55 X: 5 Y: 0 P:27 S:fb pc: e676, reg_addr:    0, cycle:  15603
e676 a9  0 b3 LDA  IMM   A:55 X: 5 Y: 0 P:26 S:fb pc: e678, reg_addr:    0, cycle:  15605
e678 b3 45 ea LAX  INDY  A: 0 X: 5 Y: 0 P:26 S:fb pc: e67a, reg_addr:  432, cycle:  15610
e67a ea ea ea NOP  IMPL  A:aa X:aa Y: 0 P:a4 S:fb pc: e67b, reg_addr:    0, cycle:  15612
e67b ea ea ea NOP  IMPL  A:aa X:aa Y: 0 P:a4 S:fb pc: e67c, reg_addr:    0, cycle:  15614
e67c ea ea f0 NOP  IMPL  A:aa X:aa Y: 0 P:a4 S:fb pc: e67d, reg_addr:    0, cycle:  15616
e67d ea f0 12 NOP  IMPL  A:aa X:aa Y: 0 P:a4 S:fb pc: e67e, reg_addr:    0, cycle:  15618
e67e f0 12 10 BEQ  REL   A:aa X:aa Y: 0 P:a4 S:fb pc: e680, reg_addr: e692, cycle:  15620
e680 10 10 70 BPL  REL   A:aa X:aa Y: 0 P:a4 S:fb pc: e682, reg_addr: e692, cycle:  15622
e682 70  e b0 BVS  REL   A:aa X:aa Y: 0 P:a4 S:fb pc: e684, reg_addr: e692, cycle:  15624
e684 b0  c c9 BCS  REL   A:aa X:aa Y: 0 P:a4 S:fb pc: e686, reg_addr: e692, cycle:  15626
e686 c9 aa d0 CMP  IMM   A:aa X:aa Y: 0 P:a4 S:fb pc: e688, reg_addr:   aa, cycle:  15628
e688 d0  8 e0 BNE  REL   A:aa X:aa Y: 0 P:27 S:fb pc: e68a, reg_addr: e692, cycle:  15630
e68a e0 aa d0 CPX  IMM   A:aa X:aa Y: 0 P:27 S:fb pc: e68c, reg_addr:   aa, cycle:  15632
e68c d0  4 c0 BNE  REL   A:aa X:aa Y: 0 P:27 S:fb pc: e68e, reg_addr: e692, cycle:  15634
e68e c0  0 f0 CPY  IMM   A:aa X:aa Y: 0 P:27 S:fb pc: e690, reg_addr:    0, cycle:  15636
e690 f0  4 a9 BEQ  REL   A:aa X:aa Y: 0 P:27 S:fb pc: e696, reg_addr: e696, cycle:  15639
e696 a9 87 85 LDA  IMM   A:aa X:aa Y: 0 P:27 S:fb pc: e698, reg_addr:   87, cycle:  15641
e698 85 67 a9 STA  ZP    A:87 X:aa Y: 0 P:a5 S:fb pc: e69a, reg_addr:   67, cycle:  15644
e69a a9 32 85 LDA  IMM   A:87 X:aa Y: 0 P:a5 S:fb pc: e69c, reg_addr:   32, cycle:  15646
e69c 85 68 a0 STA  ZP    A:32 X:aa Y: 0 P:25 S:fb pc: e69e, reg_addr:   68, cycle:  15649
e69e a0 57 24 LDY  IMM   A:32 X:aa Y: 0 P:25 S:fb pc: e6a0, reg_addr:   57, cycle:  15651
e6a0 24  1 38 BIT  ZP    A:32 X:aa Y:57 P:25 S:fb pc: e6a2, reg_addr:    1, cycle:  15654
e6a2 38 a9  0 SEC  IMPL  A:32 X:aa Y:57 P:e5 S:fb pc: e6a3, reg_addr:    0, cycle:  15656
e6a3 a9  0 b7 LDA  IMM   A:32 X:aa Y:57 P:e5 S:fb pc: e6a5, reg_addr:    0, cycle:  15658
e6a5 b7 10 ea LAX  ZPY   A: 0 X:aa Y:57 P:67 S:fb pc: e6a7, reg_addr:   67, cycle:  15662
e6a7 ea ea ea NOP  IMPL  A:87 X:87 Y:57 P:e5 S:fb pc: e6a8, reg_addr:    0, cycle:  15664
e6a8 ea ea ea NOP  IMPL  A:87 X:87 Y:57 P:e5 S:fb pc: e6a9, reg_addr:    0, cycle:  15666
e6a9 ea ea f0 NOP  IMPL  A:87 X:87 Y:57 P:e5 S:fb pc: e6aa, reg_addr:    0, cycle:  15668
e6aa ea f0 12 NOP  IMPL  A:87 X:87 Y:57 P:e5 S:fb pc: e6ab, reg_addr:    0, cycle:  15670
e6ab f0 12 10 BEQ  REL   A:87 X:87 Y:57 P:e5 S:fb pc: e6ad, reg_addr: e6bf, cycle:  15672
e6ad 10 10 50 BPL  REL   A:87 X:87 Y:57 P:e5 S:fb pc: e6af, reg_addr: e6bf, cycle:  15674
e6af 50  e 90 BVC  REL   A:87 X:87 Y:57 P:e5 S:fb pc: e6b1, reg_addr: e6bf, cycle:  15676
e6b1 90  c c9 BCC  REL   A:87 X:87 Y:57 P:e5 S:fb pc: e6b3, reg_addr: e6bf, cycle:  15678
e6b3 c9 87 d0 CMP  IMM   A:87 X:87 Y:57 P:e5 S:fb pc: e6b5, reg_addr:   87, cycle:  15680
e6b5 d0  8 e0 BNE  REL   A:87 X:87 Y:57 P:67 S:fb pc: e6b7, reg_addr: e6bf, cycle:  15682
e6b7 e0 87 d0 CPX  IMM   A:87 X:87 Y:57 P:67 S:fb pc: e6b9, reg_addr:   87, cycle:  15684
e6b9 d0  4 c0 BNE  REL   A:87 X:87 Y:57 P:67 S:fb pc: e6bb, reg_addr: e6bf, cycle:  15686
e6bb c0 57 f0 CPY  IMM   A:87 X:87 Y:57 P:67 S:fb pc: e6bd, reg_addr:   57, cycle:  15688
e6bd f0  4 a9 BEQ  REL   A:87 X:87 Y:57 P:67 S:fb pc: e6c3, reg_addr: e6c3, cycle:  15691
e6c3 a0 ff b8 LDY  IMM   A:87 X:87 Y:57 P:67 S:fb pc: e6c5, reg_addr:   ff, cycle:  15693
e6c5 b8 18 a9 CLV  IMPL  A:87 X:87 Y:ff P:e5 S:fb pc: e6c6, reg_addr:    0, cycle:  15695
e6c6 18 a9  0 CLC  IMPL  A:87 X:87 Y:ff P:a5 S:fb pc: e6c7, reg_addr:    0, cycle:  15697
e6c7 a9  0 b7 LDA  IMM   A:87 X:87 Y:ff P:a4 S:fb pc: e6c9, reg_addr:    0, cycle:  15699
e6c9 b7 69 ea LAX  ZPY   A: 0 X:87 Y:ff P:26 S:fb pc: e6cb, reg_addr:   68, cycle:  15703
e6cb ea ea ea NOP  IMPL  A:32 X:32 Y:ff P:24 S:fb pc: e6cc, reg_addr:    0, cycle:  15705
e6cc ea ea ea NOP  IMPL  A:32 X:32 Y:ff P:24 S:fb pc: e6cd, reg_addr:    0, cycle:  15707
e6cd ea ea f0 NOP  IMPL  A:32 X:32 Y:ff P:24 S:fb pc: e6ce, reg_addr:    0, cycle:  15709
e6ce ea f0 12 NOP  IMPL  A:32 X:32 Y:ff P:24 S:fb pc: e6cf, reg_addr:    0, cycle:  15711
e6cf f0 12 30 BEQ  REL   A:32 X:32 Y:ff P:24 S:fb pc: e6d1, reg_addr: e6e3, cycle:  15713
e6d1 30 10 70 BMI  REL   A:32 X:32 Y:ff P:24 S:fb pc: e6d3, reg_addr: e6e3, cycle:  15715
e6d3 70  e b0 BVS  REL   A:32 X:32 Y:ff P:24 S:fb pc: e6d5, reg_addr: e6e3, cycle:  15717
e6d5 b0  c c9 BCS  REL   A:32 X:32 Y:ff P:24 S:fb pc: e6d7, reg_addr: e6e3, cycle:  15719
e6d7 c9 32 d0 CMP  IMM   A:32 X:32 Y:ff P:24 S:fb pc: e6d9, reg_addr:   32, cycle:  15721
e6d9 d0  8 e0 BNE  REL   A:32 X:32 Y:ff P:27 S:fb pc: e6db, reg_addr: e6e3, cycle:  15723
e6db e0 32 d0 CPX  IMM   A:32 X:32 Y:ff P:27 S:fb pc: e6dd, reg_addr:   32, cycle:  15725
e6dd d0  4 c0 BNE  REL   A:32 X:32 Y:ff P:27 S:fb pc: e6df, reg_addr: e6e3, cycle:  15727
e6df c0 ff f0 CPY  IMM   A:32 X:32 Y:ff P:27 S:fb pc: e6e1, reg_addr:   ff, cycle:  15729
e6e1 f0  4 a9 BEQ  REL   A:32 X:32 Y:ff P:27 S:fb pc: e6e7, reg_addr: e6e7, cycle:  15732
e6e7 a9 87 8d LDA  IMM   A:32 X:32 Y:ff P:27 S:fb pc: e6e9, reg_addr:   87, cycle:  15734
e6e9 8d 87  5 STA  ABS   A:87 X:32 Y:ff P:a5 S:fb pc: e6ec, reg_addr:  587, cycle:  15738
e6ec a9 32 8d LDA  IMM   A:87 X:32 Y:ff P:a5 S:fb pc: e6ee, reg_addr:   32, cycle:  15740
e6ee 8d 88  5 STA  ABS   A:32 X:32 Y:ff P:25 S:fb pc: e6f1, reg_addr:  588, cycle:  15744
e6f1 a0 30 24 LDY  IMM   A:32 X:32 Y:ff P:25 S:fb pc: e6f3, reg_addr:   30, cycle:  15746
e6f3 24  1 38 BIT  ZP    A:32 X:32 Y:30 P:25 S:fb pc: e6f5, reg_addr:    1, cycle:  15749
e6f5 38 a9  0 SEC  IMPL  A:32 X:32 Y:30 P:e5 S:fb pc: e6f6, reg_addr:    0, cycle:  15751
e6f6 a9  0 bf LDA  IMM   A:32 X:32 Y:30 P:e5 S:fb pc: e6f8, reg_addr:    0, cycle:  15753
e6f8 bf 57  5 LAX  ABSY  A: 0 X:32 Y:30 P:67 S:fb pc: e6fb, reg_addr:  587, cycle:  15757
e6fb ea ea ea NOP  IMPL  A:87 X:87 Y:30 P:e5 S:fb pc: e6fc, reg_addr:    0, cycle:  15759
e6fc ea ea ea NOP  IMPL  A:87 X:87 Y:30 P:e5 S:fb pc: e6fd, reg_addr:    0, cycle:  15761
e6fd ea ea f0 NOP  IMPL  A:87 X:87 Y:30 P:e5 S:fb pc: e6fe, reg_addr:    0, cycle:  15763
e6fe ea f0 12 NOP  IMPL  A:87 X:87 Y:30 P:e5 S:fb pc: e6ff, reg_addr:    0, cycle:  15765
e6ff f0 12 10 BEQ  REL   A:87 X:87 Y:30 P:e5 S:fb pc: e701, reg_addr: e713, cycle:  15767
e701 10 10 50 BPL  REL   A:87 X:87 Y:30 P:e5 S:fb pc: e703, reg_addr: e713, cycle:  15769
e703 50  e 90 BVC  REL   A:87 X:87 Y:30 P:e5 S:fb pc: e705, reg_addr: e713, cycle:  15771
e705 90  c c9 BCC  REL   A:87 X:87 Y:30 P:e5 S:fb pc: e707, reg_addr: e713, cycle:  15773
e707 c9 87 d0 CMP  IMM   A:87 X:87 Y:30 P:e5 S:fb pc: e709, reg_addr:   87, cycle:  15775
e709 d0  8 e0 BNE  REL   A:87 X:87 Y:30 P:67 S:fb pc: e70b, reg_addr: e713, cycle:  15777
e70b e0 87 d0 CPX  IMM   A:87 X:87 Y:30 P:67 S:fb pc: e70d, reg_addr:   87, cycle:  15779
e70d d0  4 c0 BNE  REL   A:87 X:87 Y:30 P:67 S:fb pc: e70f, reg_addr: e713, cycle:  15781
e70f c0 30 f0 CPY  IMM   A:87 X:87 Y:30 P:67 S:fb pc: e711, reg_addr:   30, cycle:  15783
e711 f0  4 a9 BEQ  REL   A:87 X:87 Y:30 P:67 S:fb pc: e717, reg_addr: e717, cycle:  15786
e717 a0 40 b8 LDY  IMM   A:87 X:87 Y:30 P:67 S:fb pc: e719, reg_addr:   40, cycle:  15788
e719 b8 18 a9 CLV  IMPL  A:87 X:87 Y:40 P:65 S:fb pc: e71a, reg_addr:    0, cycle:  15790
e71a 18 a9  0 CLC  IMPL  A:87 X:87 Y:40 P:25 S:fb pc: e71b, reg_addr:    0, cycle:  15792
e71b a9  0 bf LDA  IMM   A:87 X:87 Y:40 P:24 S:fb pc: e71d, reg_addr:    0, cycle:  15794
e71d bf 48  5 LAX  ABSY  A: 0 X:87 Y:40 P:26 S:fb pc: e720, reg_addr:  588, cycle:  15798
e720 ea ea ea NOP  IMPL  A:32 X:32 Y:40 P:24 S:fb pc: e721, reg_addr:    0, cycle:  15800
e721 ea ea ea NOP  IMPL  A:32 X:32 Y:40 P:24 S:fb pc: e722, reg_addr:    0, cycle:  15802
e722 ea ea f0 NOP  IMPL  A:32 X:32 Y:40 P:24 S:fb pc: e723, reg_addr:    0, cycle:  15804
e723 ea f0 12 NOP  IMPL  A:32 X:32 Y:40 P:24 S:fb pc: e724, reg_addr:    0, cycle:  15806
e724 f0 12 30 BEQ  REL   A:32 X:32 Y:40 P:24 S:fb pc: e726, reg_addr: e738, cycle:  15808
e726 30 10 70 BMI  REL   A:32 X:32 Y:40 P:24 S:fb pc: e728, reg_addr: e738, cycle:  15810
e728 70  e b0 BVS  REL   A:32 X:32 Y:40 P:24 S:fb pc: e72a, reg_addr: e738, cycle:  15812
e72a b0  c c9 BCS  REL   A:32 X:32 Y:40 P:24 S:fb pc: e72c, reg_addr: e738, cycle:  15814
e72c c9 32 d0 CMP  IMM   A:32 X:32 Y:40 P:24 S:fb pc: e72e, reg_addr:   32, cycle:  15816
e72e d0  8 e0 BNE  REL   A:32 X:32 Y:40 P:27 S:fb pc: e730, reg_addr: e738, cycle:  15818
e730 e0 32 d0 CPX  IMM   A:32 X:32 Y:40 P:27 S:fb pc: e732, reg_addr:   32, cycle:  15820
e732 d0  4 c0 BNE  REL   A:32 X:32 Y:40 P:27 S:fb pc: e734, reg_addr: e738, cycle:  15822
e734 c0 40 f0 CPY  IMM   A:32 X:32 Y:40 P:27 S:fb pc: e736, reg_addr:   40, cycle:  15824
e736 f0  4 a9 BEQ  REL   A:32 X:32 Y:40 P:27 S:fb pc: e73c, reg_addr: e73c, cycle:  15827
e73c 60 a9 c0 RTS  IMPL  A:32 X:32 Y:40 P:27 S:fb pc: c635, reg_addr:    0, cycle:  15833
c635 20 3d e7 JSR  ABS   A:32 X:32 Y:40 P:27 S:fd pc: e73d, reg_addr: e73d, cycle:  15839
e73d a9 c0 85 LDA  IMM   A:32 X:32 Y:40 P:27 S:fb pc: e73f, reg_addr:   c0, cycle:  15841
e73f 85  1 a9 STA  ZP    A:c0 X:32 Y:40 P:a5 S:fb pc: e741, reg_addr:    1, cycle:  15844
e741 a9  0 8d LDA  IMM   A:c0 X:32 Y:40 P:a5 S:fb pc: e743, reg_addr:    0, cycle:  15846
e743 8d 89  4 STA  ABS   A: 0 X:32 Y:40 P:27 S:fb pc: e746, reg_addr:  489, cycle:  15850
e746 a9 89 85 LDA  IMM   A: 0 X:32 Y:40 P:27 S:fb pc: e748, reg_addr:   89, cycle:  15852
e748 85 60 a9 STA  ZP    A:89 X:32 Y:40 P:a5 S:fb pc: e74a, reg_addr:   60, cycle:  15855
e74a a9  4 85 LDA  IMM   A:89 X:32 Y:40 P:a5 S:fb pc: e74c, reg_addr:    4, cycle:  15857
e74c 85 61 a0 STA  ZP    A: 4 X:32 Y:40 P:25 S:fb pc: e74e, reg_addr:   61, cycle:  15860
e74e a0 44 a2 LDY  IMM   A: 4 X:32 Y:40 P:25 S:fb pc: e750, reg_addr:   44, cycle:  15862
e750 a2 17 a9 LDX  IMM   A: 4 X:32 Y:44 P:25 S:fb pc: e752, reg_addr:   17, cycle:  15864
e752 a9 3e 24 LDA  IMM   A: 4 X:17 Y:44 P:25 S:fb pc: e754, reg_addr:   3e, cycle:  15866
e754 24  1 18 BIT  ZP    A:3e X:17 Y:44 P:25 S:fb pc: e756, reg_addr:    1, cycle:  15869
e756 18 83 49 CLC  IMPL  A:3e X:17 Y:44 P:e7 S:fb pc: e757, reg_addr:    0, cycle:  15871
e757 83 49 ea SAX  INDX  A:3e X:17 Y:44 P:e6 S:fb pc: e759, reg_addr:  489, cycle:  15877
e759 ea ea ea NOP  IMPL  A:3e X:17 Y:44 P:e6 S:fb pc: e75a, reg_addr:    0, cycle:  15879
e75a ea ea ea NOP  IMPL  A:3e X:17 Y:44 P:e6 S:fb pc: e75b, reg_addr:    0, cycle:  15881
e75b ea ea d0 NOP  IMPL  A:3e X:17 Y:44 P:e6 S:fb pc: e75c, reg_addr:    0, cycle:  15883
e75c ea d0 19 NOP  IMPL  A:3e X:17 Y:44 P:e6 S:fb pc: e75d, reg_addr:    0, cycle:  15885
e75d d0 19 b0 BNE  REL   A:3e X:17 Y:44 P:e6 S:fb pc: e75f, reg_addr: e778, cycle:  15887
e75f b0 17 50 BCS  REL   A:3e X:17 Y:44 P:e6 S:fb pc: e761, reg_addr: e778, cycle:  15889
e761 50 15 10 BVC  REL   A:3e X:17 Y:44 P:e6 S:fb pc: e763, reg_addr: e778, cycle:  15891
e763 10 13 c9 BPL  REL   A:3e X:17 Y:44 P:e6 S:fb pc: e765, reg_addr: e778, cycle:  15893
e765 c9 3e d0 CMP  IMM   A:3e X:17 Y:44 P:e6 S:fb pc: e767, reg_addr:   3e, cycle:  15895
e767 d0  f c0 BNE  REL   A:3e X:17 Y:44 P:67 S:fb pc: e769, reg_addr: e778, cycle:  15897
e769 c0 44 d0 CPY  IMM   A:3e X:17 Y:44 P:67 S:fb pc: e76b, reg_addr:   44, cycle:  15899
e76b d0  b e0 BNE  REL   A:3e X:17 Y:44 P:67 S:fb pc: e76d, reg_addr: e778, cycle:  15901
e76d e0 17 d0 CPX  IMM   A:3e X:17 Y:44 P:67 S:fb pc: e76f, reg_addr:   17, cycle:  15903
e76f d0  7 ad BNE  REL   A:3e X:17 Y:44 P:67 S:fb pc: e771, reg_addr: e778, cycle:  15905
e771 ad 89  4 LDA  ABS   A:3e X:17 Y:44 P:67 S:fb pc: e774, reg_addr:  489, cycle:  15909
e774 c9 16 f0 CMP  IMM   A:16 X:17 Y:44 P:65 S:fb pc: e776, reg_addr:   16, cycle:  15911
e776 f0  4 a9 BEQ  REL   A:16 X:17 Y:44 P:67 S:fb pc: e77c, reg_addr: e77c, cycle:  15914
e77c a0 44 a2 LDY  IMM   A:16 X:17 Y:44 P:67 S:fb pc: e77e, reg_addr:   44, cycle:  15916
e77e a2 7a a9 LDX  IMM   A:16 X:17 Y:44 P:65 S:fb pc: e780, reg_addr:   7a, cycle:  15918
e780 a9 66 38 LDA  IMM   A:16 X:7a Y:44 P:65 S:fb pc: e782, reg_addr:   66, cycle:  15920
e782 38 b8 83 SEC  IMPL  A:66 X:7a Y:44 P:65 S:fb pc: e783, reg_addr:    0, cycle:  15922
e783 b8 83 e6 CLV  IMPL  A:66 X:7a Y:44 P:65 S:fb pc: e784, reg_addr:    0, cycle:  15924
e784 83 e6 ea SAX  INDX  A:66 X:7a Y:44 P:25 S:fb pc: e786, reg_addr:  489, cycle:  15930
e786 ea ea ea NOP  IMPL  A:66 X:7a Y:44 P:25 S:fb pc: e787, reg_addr:    0, cycle:  15932
e787 ea ea ea NOP  IMPL  A:66 X:7a Y:44 P:25 S:fb pc: e788, reg_addr:    0, cycle:  15934
e788 ea ea f0 NOP  IMPL  A:66 X:7a Y:44 P:25 S:fb pc: e789, reg_addr:    0, cycle:  15936
e789 ea f0 19 NOP  IMPL  A:66 X:7a Y:44 P:25 S:fb pc: e78a, reg_addr:    0, cycle:  15938
e78a f0 19 90 BEQ  REL   A:66 X:7a Y:44 P:25 S:fb pc: e78c, reg_addr: e7a5, cycle:  15940
e78c 90 17 70 BCC  REL   A:66 X:7a Y:44 P:25 S:fb pc: e78e, reg_addr: e7a5, cycle:  15942
e78e 70 15 30 BVS  REL   A:66 X:7a Y:44 P:25 S:fb pc: e790, reg_addr: e7a5, cycle:  15944
e790 30 13 c9 BMI  REL   A:66 X:7a Y:44 P:25 S:fb pc: e792, reg_addr: e7a5, cycle:  15946
e792 c9 66 d0 CMP  IMM   A:66 X:7a Y:44 P:25 S:fb pc: e794, reg_addr:   66, cycle:  15948
e794 d0  f c0 BNE  REL   A:66 X:7a Y:44 P:27 S:fb pc: e796, reg_addr: e7a5, cycle:  15950
e796 c0 44 d0 CPY  IMM   A:66 X:7a Y:44 P:27 S:fb pc: e798, reg_addr:   44, cycle:  15952
e798 d0  b e0 BNE  REL   A:66 X:7a Y:44 P:27 S:fb pc: e79a, reg_addr: e7a5, cycle:  15954
e79a e0 7a d0 CPX  IMM   A:66 X:7a Y:44 P:27 S:fb pc: e79c, reg_addr:   7a, cycle:  15956
e79c d0  7 ad BNE  REL   A:66 X:7a Y:44 P:27 S:fb pc: e79e, reg_addr: e7a5, cycle:  15958
e79e ad 89  4 LDA  ABS   A:66 X:7a Y:44 P:27 S:fb pc: e7a1, reg_addr:  489, cycle:  15962
e7a1 c9 62 f0 CMP  IMM   A:62 X:7a Y:44 P:25 S:fb pc: e7a3, reg_addr:   62, cycle:  15964
e7a3 f0  4 a9 BEQ  REL   A:62 X:7a Y:44 P:27 S:fb pc: e7a9, reg_addr: e7a9, cycle:  15967
e7a9 a9 ff 85 LDA  IMM   A:62 X:7a Y:44 P:27 S:fb pc: e7ab, reg_addr:   ff, cycle:  15969
e7ab 85 49 a0 STA  ZP    A:ff X:7a Y:44 P:a5 S:fb pc: e7ad, reg_addr:   49, cycle:  15972
e7ad a0 44 a2 LDY  IMM   A:ff X:7a Y:44 P:a5 S:fb pc: e7af, reg_addr:   44, cycle:  15974
e7af a2 aa a9 LDX  IMM   A:ff X:7a Y:44 P:25 S:fb pc: e7b1, reg_addr:   aa, cycle:  15976
e7b1 a9 55 24 LDA  IMM   A:ff X:aa Y:44 P:a5 S:fb pc: e7b3, reg_addr:   55, cycle:  15978
e7b3 24  1 18 BIT  ZP    A:55 X:aa Y:44 P:25 S:fb pc: e7b5, reg_addr:    1, cycle:  15981
e7b5 18 87 49 CLC  IMPL  A:55 X:aa Y:44 P:e5 S:fb pc: e7b6, reg_addr:    0, cycle:  15983
e7b6 87 49 ea SAX  ZP    A:55 X:aa Y:44 P:e4 S:fb pc: e7b8, reg_addr:   49, cycle:  15986
e7b8 ea ea ea NOP  IMPL  A:55 X:aa Y:44 P:e4 S:fb pc: e7b9, reg_addr:    0, cycle:  15988
e7b9 ea ea ea NOP  IMPL  A:55 X:aa Y:44 P:e4 S:fb pc: e7ba, reg_addr:    0, cycle:  15990
e7ba ea ea f0 NOP  IMPL  A:55 X:aa Y:44 P:e4 S:fb pc: e7bb, reg_addr:    0, cycle:  15992
e7bb ea f0 18 NOP  IMPL  A:55 X:aa Y:44 P:e4 S:fb pc: e7bc, reg_addr:    0, cycle:  15994
e7bc f0 18 b0 BEQ  REL   A:55 X:aa Y:44 P:e4 S:fb pc: e7be, reg_addr: e7d6, cycle:  15996
e7be b0 16 50 BCS  REL   A:55 X:aa Y:44 P:e4 S:fb pc: e7c0, reg_addr: e7d6, cycle:  15998
e7c0 50 14 10 BVC  REL   A:55 X:aa Y:44 P:e4 S:fb pc: e7c2, reg_addr: e7d6, cycle:  16000
e7c2 10 12 c9 BPL  REL   A:55 X:aa Y:44 P:e4 S:fb pc: e7c4, reg_addr: e7d6, cycle:  16002
e7c4 c9 55 d0 CMP  IMM   A:55 X:aa Y:44 P:e4 S:fb pc: e7c6, reg_addr:   55, cycle:  16004
e7c6 d0  e c0 BNE  REL   A:55 X:aa Y:44 P:67 S:fb pc: e7c8, reg_addr: e7d6, cycle:  16006
e7c8 c0 44 d0 CPY  IMM   A:55 X:aa Y:44 P:67 S:fb pc: e7ca, reg_addr:   44, cycle:  16008
e7ca d0  a e0 BNE  REL   A:55 X:aa Y:44 P:67 S:fb pc: e7cc, reg_addr: e7d6, cycle:  16010
e7cc e0 aa d0 CPX  IMM   A:55 X:aa Y:44 P:67 S:fb pc: e7ce, reg_addr:   aa, cycle:  16012
e7ce d0  6 a5 BNE  REL   A:55 X:aa Y:44 P:67 S:fb pc: e7d0, reg_addr: e7d6, cycle:  16014
e7d0 a5 49 c9 LDA  ZP    A:55 X:aa Y:44 P:67 S:fb pc: e7d2, reg_addr:   49, cycle:  16017
e7d2 c9  0 f0 CMP  IMM   A: 0 X:aa Y:44 P:67 S:fb pc: e7d4, reg_addr:    0, cycle:  16019
e7d4 f0  4 a9 BEQ  REL   A: 0 X:aa Y:44 P:67 S:fb pc: e7da, reg_addr: e7da, cycle:  16022
e7da a9  0 85 LDA  IMM   A: 0 X:aa Y:44 P:67 S:fb pc: e7dc, reg_addr:    0, cycle:  16024
e7dc 85 56 a0 STA  ZP    A: 0 X:aa Y:44 P:67 S:fb pc: e7de, reg_addr:   56, cycle:  16027
e7de a0 58 a2 LDY  IMM   A: 0 X:aa Y:44 P:67 S:fb pc: e7e0, reg_addr:   58, cycle:  16029
e7e0 a2 ef a9 LDX  IMM   A: 0 X:aa Y:58 P:65 S:fb pc: e7e2, reg_addr:   ef, cycle:  16031
e7e2 a9 66 38 LDA  IMM   A: 0 X:ef Y:58 P:e5 S:fb pc: e7e4, reg_addr:   66, cycle:  16033
e7e4 38 b8 87 SEC  IMPL  A:66 X:ef Y:58 P:65 S:fb pc: e7e5, reg_addr:    0, cycle:  16035
e7e5 b8 87 56 CLV  IMPL  A:66 X:ef Y:58 P:65 S:fb pc: e7e6, reg_addr:    0, cycle:  16037
e7e6 87 56 ea SAX  ZP    A:66 X:ef Y:58 P:25 S:fb pc: e7e8, reg_addr:   56, cycle:  16040
e7e8 ea ea ea NOP  IMPL  A:66 X:ef Y:58 P:25 S:fb pc: e7e9, reg_addr:    0, cycle:  16042
e7e9 ea ea ea NOP  IMPL  A:66 X:ef Y:58 P:25 S:fb pc: e7ea, reg_addr:    0, cycle:  16044
e7ea ea ea f0 NOP  IMPL  A:66 X:ef Y:58 P:25 S:fb pc: e7eb, reg_addr:    0, cycle:  16046
e7eb ea f0 18 NOP  IMPL  A:66 X:ef Y:58 P:25 S:fb pc: e7ec, reg_addr:    0, cycle:  16048
e7ec f0 18 90 BEQ  REL   A:66 X:ef Y:58 P:25 S:fb pc: e7ee, reg_addr: e806, cycle:  16050
e7ee 90 16 70 BCC  REL   A:66 X:ef Y:58 P:25 S:fb pc: e7f0, reg_addr: e806, cycle:  16052
e7f0 70 14 30 BVS  REL   A:66 X:ef Y:58 P:25 S:fb pc: e7f2, reg_addr: e806, cycle:  16054
e7f2 30 12 c9 BMI  REL   A:66 X:ef Y:58 P:25 S:fb pc: e7f4, reg_addr: e806, cycle:  16056
e7f4 c9 66 d0 CMP  IMM   A:66 X:ef Y:58 P:25 S:fb pc: e7f6, reg_addr:   66, cycle:  16058
e7f6 d0  e c0 BNE  REL   A:66 X:ef Y:58 P:27 S:fb pc: e7f8, reg_addr: e806, cycle:  16060
e7f8 c0 58 d0 CPY  IMM   A:66 X:ef Y:58 P:27 S:fb pc: e7fa, reg_addr:   58, cycle:  16062
e7fa d0  a e0 BNE  REL   A:66 X:ef Y:58 P:27 S:fb pc: e7fc, reg_addr: e806, cycle:  16064
e7fc e0 ef d0 CPX  IMM   A:66 X:ef Y:58 P:27 S:fb pc: e7fe, reg_addr:   ef, cycle:  16066
e7fe d0  6 a5 BNE  REL   A:66 X:ef Y:58 P:27 S:fb pc: e800, reg_addr: e806, cycle:  16068
e800 a5 56 c9 LDA  ZP    A:66 X:ef Y:58 P:27 S:fb pc: e802, reg_addr:   56, cycle:  16071
e802 c9 66 f0 CMP  IMM   A:66 X:ef Y:58 P:25 S:fb pc: e804, reg_addr:   66, cycle:  16073
e804 f0  4 a9 BEQ  REL   A:66 X:ef Y:58 P:27 S:fb pc: e80a, reg_addr: e80a, cycle:  16076
e80a a9 ff 8d LDA  IMM   A:66 X:ef Y:58 P:27 S:fb pc: e80c, reg_addr:   ff, cycle:  16078
e80c 8d 49  5 STA  ABS   A:ff X:ef Y:58 P:a5 S:fb pc: e80f, reg_addr:  549, cycle:  16082
e80f a0 e5 a2 LDY  IMM   A:ff X:ef Y:58 P:a5 S:fb pc: e811, reg_addr:   e5, cycle:  16084
e811 a2 af a9 LDX  IMM   A:ff X:ef Y:e5 P:a5 S:fb pc: e813, reg_addr:   af, cycle:  16086
e813 a9 f5 24 LDA  IMM   A:ff X:af Y:e5 P:a5 S:fb pc: e815, reg_addr:   f5, cycle:  16088
e815 24  1 18 BIT  ZP    A:f5 X:af Y:e5 P:a5 S:fb pc: e817, reg_addr:    1, cycle:  16091
e817 18 8f 49 CLC  IMPL  A:f5 X:af Y:e5 P:e5 S:fb pc: e818, reg_addr:    0, cycle:  16093
e818 8f 49  5 SAX  ABS   A:f5 X:af Y:e5 P:e4 S:fb pc: e81b, reg_addr:  549, cycle:  16097
e81b ea ea ea NOP  IMPL  A:f5 X:af Y:e5 P:e4 S:fb pc: e81c, reg_addr:    0, cycle:  16099
e81c ea ea ea NOP  IMPL  A:f5 X:af Y:e5 P:e4 S:fb pc: e81d, reg_addr:    0, cycle:  16101
e81d ea ea f0 NOP  IMPL  A:f5 X:af Y:e5 P:e4 S:fb pc: e81e, reg_addr:    0, cycle:  16103
e81e ea f0 19 NOP  IMPL  A:f5 X:af Y:e5 P:e4 S:fb pc: e81f, reg_addr:    0, cycle:  16105
e81f f0 19 b0 BEQ  REL   A:f5 X:af Y:e5 P:e4 S:fb pc: e821, reg_addr: e83a, cycle:  16107
e821 b0 17 50 BCS  REL   A:f5 X:af Y:e5 P:e4 S:fb pc: e823, reg_addr: e83a, cycle:  16109
e823 50 15 10 BVC  REL   A:f5 X:af Y:e5 P:e4 S:fb pc: e825, reg_addr: e83a, cycle:  16111
e825 10 13 c9 BPL  REL   A:f5 X:af Y:e5 P:e4 S:fb pc: e827, reg_addr: e83a, cycle:  16113
e827 c9 f5 d0 CMP  IMM   A:f5 X:af Y:e5 P:e4 S:fb pc: e829, reg_addr:   f5, cycle:  16115
e829 d0  f c0 BNE  REL   A:f5 X:af Y:e5 P:67 S:fb pc: e82b, reg_addr: e83a, cycle:  16117
e82b c0 e5 d0 CPY  IMM   A:f5 X:af Y:e5 P:67 S:fb pc: e82d, reg_addr:   e5, cycle:  16119
e82d d0  b e0 BNE  REL   A:f5 X:af Y:e5 P:67 S:fb pc: e82f, reg_addr: e83a, cycle:  16121
e82f e0 af d0 CPX  IMM   A:f5 X:af Y:e5 P:67 S:fb pc: e831, reg_addr:   af, cycle:  16123
e831 d0  7 ad BNE  REL   A:f5 X:af Y:e5 P:67 S:fb pc: e833, reg_addr: e83a, cycle:  16125
e833 ad 49  5 LDA  ABS   A:f5 X:af Y:e5 P:67 S:fb pc: e836, reg_addr:  549, cycle:  16129
e836 c9 a5 f0 CMP  IMM   A:a5 X:af Y:e5 P:e5 S:fb pc: e838, reg_addr:   a5, cycle:  16131
e838 f0  4 a9 BEQ  REL   A:a5 X:af Y:e5 P:67 S:fb pc: e83e, reg_addr: e83e, cycle:  16134
e83e a9  0 8d LDA  IMM   A:a5 X:af Y:e5 P:67 S:fb pc: e840, reg_addr:    0, cycle:  16136
e840 8d 56  5 STA  ABS   A: 0 X:af Y:e5 P:67 S:fb pc: e843, reg_addr:  556, cycle:  16140
e843 a0 58 a2 LDY  IMM   A: 0 X:af Y:e5 P:67 S:fb pc: e845, reg_addr:   58, cycle:  16142
e845 a2 b3 a9 LDX  IMM   A: 0 X:af Y:58 P:65 S:fb pc: e847, reg_addr:   b3, cycle:  16144
e847 a9 97 38 LDA  IMM   A: 0 X:b3 Y:58 P:e5 S:fb pc: e849, reg_addr:   97, cycle:  16146
e849 38 b8 8f SEC  IMPL  A:97 X:b3 Y:58 P:e5 S:fb pc: e84a, reg_addr:    0, cycle:  16148
e84a b8 8f 56 CLV  IMPL  A:97 X:b3 Y:58 P:e5 S:fb pc: e84b, reg_addr:    0, cycle:  16150
e84b 8f 56  5 SAX  ABS   A:97 X:b3 Y:58 P:a5 S:fb pc: e84e, reg_addr:  556, cycle:  16154
e84e ea ea ea NOP  IMPL  A:97 X:b3 Y:58 P:a5 S:fb pc: e84f, reg_addr:    0, cycle:  16156
e84f ea ea ea NOP  IMPL  A:97 X:b3 Y:58 P:a5 S:fb pc: e850, reg_addr:    0, cycle:  16158
e850 ea ea f0 NOP  IMPL  A:97 X:b3 Y:58 P:a5 S:fb pc: e851, reg_addr:    0, cycle:  16160
e851 ea f0 19 NOP  IMPL  A:97 X:b3 Y:58 P:a5 S:fb pc: e852, reg_addr:    0, cycle:  16162
e852 f0 19 90 BEQ  REL   A:97 X:b3 Y:58 P:a5 S:fb pc: e854, reg_addr: e86d, cycle:  16164
e854 90 17 70 BCC  REL   A:97 X:b3 Y:58 P:a5 S:fb pc: e856, reg_addr: e86d, cycle:  16166
e856 70 15 10 BVS  REL   A:97 X:b3 Y:58 P:a5 S:fb pc: e858, reg_addr: e86d, cycle:  16168
e858 10 13 c9 BPL  REL   A:97 X:b3 Y:58 P:a5 S:fb pc: e85a, reg_addr: e86d, cycle:  16170
e85a c9 97 d0 CMP  IMM   A:97 X:b3 Y:58 P:a5 S:fb pc: e85c, reg_addr:   97, cycle:  16172
e85c d0  f c0 BNE  REL   A:97 X:b3 Y:58 P:27 S:fb pc: e85e, reg_addr: e86d, cycle:  16174
e85e c0 58 d0 CPY  IMM   A:97 X:b3 Y:58 P:27 S:fb pc: e860, reg_addr:   58, cycle:  16176
e860 d0  b e0 BNE  REL   A:97 X:b3 Y:58 P:27 S:fb pc: e862, reg_addr: e86d, cycle:  16178
e862 e0 b3 d0 CPX  IMM   A:97 X:b3 Y:58 P:27 S:fb pc: e864, reg_addr:   b3, cycle:  16180
e864 d0  7 ad BNE  REL   A:97 X:b3 Y:58 P:27 S:fb pc: e866, reg_addr: e86d, cycle:  16182
e866 ad 56  5 LDA  ABS   A:97 X:b3 Y:58 P:27 S:fb pc: e869, reg_addr:  556, cycle:  16186
e869 c9 93 f0 CMP  IMM   A:93 X:b3 Y:58 P:a5 S:fb pc: e86b, reg_addr:   93, cycle:  16188
e86b f0  4 a9 BEQ  REL   A:93 X:b3 Y:58 P:27 S:fb pc: e871, reg_addr: e871, cycle:  16191
e871 a9 ff 85 LDA  IMM   A:93 X:b3 Y:58 P:27 S:fb pc: e873, reg_addr:   ff, cycle:  16193
e873 85 49 a0 STA  ZP    A:ff X:b3 Y:58 P:a5 S:fb pc: e875, reg_addr:   49, cycle:  16196
e875 a0 ff a2 LDY  IMM   A:ff X:b3 Y:58 P:a5 S:fb pc: e877, reg_addr:   ff, cycle:  16198
e877 a2 aa a9 LDX  IMM   A:ff X:b3 Y:ff P:a5 S:fb pc: e879, reg_addr:   aa, cycle:  16200
e879 a9 55 24 LDA  IMM   A:ff X:aa Y:ff P:a5 S:fb pc: e87b, reg_addr:   55, cycle:  16202
e87b 24  1 18 BIT  ZP    A:55 X:aa Y:ff P:25 S:fb pc: e87d, reg_addr:    1, cycle:  16205
e87d 18 97 4a CLC  IMPL  A:55 X:aa Y:ff P:e5 S:fb pc: e87e, reg_addr:    0, cycle:  16207
e87e 97 4a ea SAX  ZPY   A:55 X:aa Y:ff P:e4 S:fb pc: e880, reg_addr:   49, cycle:  16211
e880 ea ea ea NOP  IMPL  A:55 X:aa Y:ff P:e4 S:fb pc: e881, reg_addr:    0, cycle:  16213
e881 ea ea ea NOP  IMPL  A:55 X:aa Y:ff P:e4 S:fb pc: e882, reg_addr:    0, cycle:  16215
e882 ea ea f0 NOP  IMPL  A:55 X:aa Y:ff P:e4 S:fb pc: e883, reg_addr:    0, cycle:  16217
e883 ea f0 18 NOP  IMPL  A:55 X:aa Y:ff P:e4 S:fb pc: e884, reg_addr:    0, cycle:  16219
e884 f0 18 b0 BEQ  REL   A:55 X:aa Y:ff P:e4 S:fb pc: e886, reg_addr: e89e, cycle:  16221
e886 b0 16 50 BCS  REL   A:55 X:aa Y:ff P:e4 S:fb pc: e888, reg_addr: e89e, cycle:  16223
e888 50 14 10 BVC  REL   A:55 X:aa Y:ff P:e4 S:fb pc: e88a, reg_addr: e89e, cycle:  16225
e88a 10 12 c9 BPL  REL   A:55 X:aa Y:ff P:e4 S:fb pc: e88c, reg_addr: e89e, cycle:  16227
e88c c9 55 d0 CMP  IMM   A:55 X:aa Y:ff P:e4 S:fb pc: e88e, reg_addr:   55, cycle:  16229
e88e d0  e c0 BNE  REL   A:55 X:aa Y:ff P:67 S:fb pc: e890, reg_addr: e89e, cycle:  16231
e890 c0 ff d0 CPY  IMM   A:55 X:aa Y:ff P:67 S:fb pc: e892, reg_addr:   ff, cycle:  16233
e892 d0  a e0 BNE  REL   A:55 X:aa Y:ff P:67 S:fb pc: e894, reg_addr: e89e, cycle:  16235
e894 e0 aa d0 CPX  IMM   A:55 X:aa Y:ff P:67 S:fb pc: e896, reg_addr:   aa, cycle:  16237
e896 d0  6 a5 BNE  REL   A:55 X:aa Y:ff P:67 S:fb pc: e898, reg_addr: e89e, cycle:  16239
e898 a5 49 c9 LDA  ZP    A:55 X:aa Y:ff P:67 S:fb pc: e89a, reg_addr:   49, cycle:  16242
e89a c9  0 f0 CMP  IMM   A: 0 X:aa Y:ff P:67 S:fb pc: e89c, reg_addr:    0, cycle:  16244
e89c f0  4 a9 BEQ  REL   A: 0 X:aa Y:ff P:67 S:fb pc: e8a2, reg_addr: e8a2, cycle:  16247
e8a2 a9  0 85 LDA  IMM   A: 0 X:aa Y:ff P:67 S:fb pc: e8a4, reg_addr:    0, cycle:  16249
e8a4 85 56 a0 STA  ZP    A: 0 X:aa Y:ff P:67 S:fb pc: e8a6, reg_addr:   56, cycle:  16252
e8a6 a0  6 a2 LDY  IMM   A: 0 X:aa Y:ff P:67 S:fb pc: e8a8, reg_addr:    6, cycle:  16254
e8a8 a2 ef a9 LDX  IMM   A: 0 X:aa Y: 6 P:65 S:fb pc: e8aa, reg_addr:   ef, cycle:  16256
e8aa a9 66 38 LDA  IMM   A: 0 X:ef Y: 6 P:e5 S:fb pc: e8ac, reg_addr:   66, cycle:  16258
e8ac 38 b8 97 SEC  IMPL  A:66 X:ef Y: 6 P:65 S:fb pc: e8ad, reg_addr:    0, cycle:  16260
e8ad b8 97 50 CLV  IMPL  A:66 X:ef Y: 6 P:65 S:fb pc: e8ae, reg_addr:    0, cycle:  16262
e8ae 97 50 ea SAX  ZPY   A:66 X:ef Y: 6 P:25 S:fb pc: e8b0, reg_addr:   56, cycle:  16266
e8b0 ea ea ea NOP  IMPL  A:66 X:ef Y: 6 P:25 S:fb pc: e8b1, reg_addr:    0, cycle:  16268
e8b1 ea ea ea NOP  IMPL  A:66 X:ef Y: 6 P:25 S:fb pc: e8b2, reg_addr:    0, cycle:  16270
e8b2 ea ea f0 NOP  IMPL  A:66 X:ef Y: 6 P:25 S:fb pc: e8b3, reg_addr:    0, cycle:  16272
e8b3 ea f0 18 NOP  IMPL  A:66 X:ef Y: 6 P:25 S:fb pc: e8b4, reg_addr:    0, cycle:  16274
e8b4 f0 18 90 BEQ  REL   A:66 X:ef Y: 6 P:25 S:fb pc: e8b6, reg_addr: e8ce, cycle:  16276
e8b6 90 16 70 BCC  REL   A:66 X:ef Y: 6 P:25 S:fb pc: e8b8, reg_addr: e8ce, cycle:  16278
e8b8 70 14 30 BVS  REL   A:66 X:ef Y: 6 P:25 S:fb pc: e8ba, reg_addr: e8ce, cycle:  16280
e8ba 30 12 c9 BMI  REL   A:66 X:ef Y: 6 P:25 S:fb pc: e8bc, reg_addr: e8ce, cycle:  16282
e8bc c9 66 d0 CMP  IMM   A:66 X:ef Y: 6 P:25 S:fb pc: e8be, reg_addr:   66, cycle:  16284
e8be d0  e c0 BNE  REL   A:66 X:ef Y: 6 P:27 S:fb pc: e8c0, reg_addr: e8ce, cycle:  16286
e8c0 c0  6 d0 CPY  IMM   A:66 X:ef Y: 6 P:27 S:fb pc: e8c2, reg_addr:    6, cycle:  16288
e8c2 d0  a e0 BNE  REL   A:66 X:ef Y: 6 P:27 S:fb pc: e8c4, reg_addr: e8ce, cycle:  16290
e8c4 e0 ef d0 CPX  IMM   A:66 X:ef Y: 6 P:27 S:fb pc: e8c6, reg_addr:   ef, cycle:  16292
e8c6 d0  6 a5 BNE  REL   A:66 X:ef Y: 6 P:27 S:fb pc: e8c8, reg_addr: e8ce, cycle:  16294
e8c8 a5 56 c9 LDA  ZP    A:66 X:ef Y: 6 P:27 S:fb pc: e8ca, reg_addr:   56, cycle:  16297
e8ca c9 66 f0 CMP  IMM   A:66 X:ef Y: 6 P:25 S:fb pc: e8cc, reg_addr:   66, cycle:  16299
e8cc f0  4 a9 BEQ  REL   A:66 X:ef Y: 6 P:27 S:fb pc: e8d2, reg_addr: e8d2, cycle:  16302
e8d2 60 a0 90 RTS  IMPL  A:66 X:ef Y: 6 P:27 S:fb pc: c638, reg_addr:    0, cycle:  16308
c638 20 d3 e8 JSR  ABS   A:66 X:ef Y: 6 P:27 S:fd pc: e8d3, reg_addr: e8d3, cycle:  16314
e8d3 a0 90 20 LDY  IMM   A:66 X:ef Y: 6 P:27 S:fb pc: e8d5, reg_addr:   90, cycle:  16316
e8d5 20 31 f9 JSR  ABS   A:66 X:ef Y:90 P:a5 S:fb pc: f931, reg_addr: f931, cycle:  16322
f931 24  1 a9 BIT  ZP    A:66 X:ef Y:90 P:a5 S:f9 pc: f933, reg_addr:    1, cycle:  16325
f933 a9 40 38 LDA  IMM   A:66 X:ef Y:90 P:e5 S:f9 pc: f935, reg_addr:   40, cycle:  16327
f935 38 60 30 SEC  IMPL  A:40 X:ef Y:90 P:65 S:f9 pc: f936, reg_addr:    0, cycle:  16329
f936 60 30  b RTS  IMPL  A:40 X:ef Y:90 P:65 S:f9 pc: e8d8, reg_addr:    0, cycle:  16335
e8d8 eb 40 ea SBC  IMM   A:40 X:ef Y:90 P:65 S:fb pc: e8da, reg_addr:   40, cycle:  16337
e8da ea ea ea NOP  IMPL  A: 0 X:ef Y:90 P:27 S:fb pc: e8db, reg_addr:    0, cycle:  16339
e8db ea ea ea NOP  IMPL  A: 0 X:ef Y:90 P:27 S:fb pc: e8dc, reg_addr:    0, cycle:  16341
e8dc ea ea 20 NOP  IMPL  A: 0 X:ef Y:90 P:27 S:fb pc: e8dd, reg_addr:    0, cycle:  16343
e8dd ea 20 37 NOP  IMPL  A: 0 X:ef Y:90 P:27 S:fb pc: e8de, reg_addr:    0, cycle:  16345
e8de 20 37 f9 JSR  ABS   A: 0 X:ef Y:90 P:27 S:fb pc: f937, reg_addr: f937, cycle:  16351
f937 30  b 90 BMI  REL   A: 0 X:ef Y:90 P:27 S:f9 pc: f939, reg_addr: f944, cycle:  16353
f939 90  9 d0 BCC  REL   A: 0 X:ef Y:90 P:27 S:f9 pc: f93b, reg_addr: f944, cycle:  16355
f93b d0  7 70 BNE  REL   A: 0 X:ef Y:90 P:27 S:f9 pc: f93d, reg_addr: f944, cycle:  16357
f93d 70  5 c9 BVS  REL   A: 0 X:ef Y:90 P:27 S:f9 pc: f93f, reg_addr: f944, cycle:  16359
f93f c9  0 d0 CMP  IMM   A: 0 X:ef Y:90 P:27 S:f9 pc: f941, reg_addr:    0, cycle:  16361
f941 d0  1 60 BNE  REL   A: 0 X:ef Y:90 P:27 S:f9 pc: f943, reg_addr: f944, cycle:  16363
f943 60 84  0 RTS  IMPL  A: 0 X:ef Y:90 P:27 S:f9 pc: e8e1, reg_addr:    0, cycle:  16369
e8e1 c8 20 47 INY  IMPL  A: 0 X:ef Y:90 P:27 S:fb pc: e8e2, reg_addr:    0, cycle:  16371
e8e2 20 47 f9 JSR  ABS   A: 0 X:ef Y:91 P:a5 S:fb pc: f947, reg_addr: f947, cycle:  16377
f947 b8 38 a9 CLV  IMPL  A: 0 X:ef Y:91 P:a5 S:f9 pc: f948, reg_addr:    0, cycle:  16379
f948 38 a9 40 SEC  IMPL  A: 0 X:ef Y:91 P:a5 S:f9 pc: f949, reg_addr:    0, cycle:  16381
f949 a9 40 60 LDA  IMM   A: 0 X:ef Y:91 P:a5 S:f9 pc: f94b, reg_addr:   40, cycle:  16383
f94b 60 f0  b RTS  IMPL  A:40 X:ef Y:91 P:25 S:f9 pc: e8e5, reg_addr:    0, cycle:  16389
e8e5 eb 3f ea SBC  IMM   A:40 X:ef Y:91 P:25 S:fb pc: e8e7, reg_addr:   3f, cycle:  16391
e8e7 ea ea ea NOP  IMPL  A: 1 X:ef Y:91 P:25 S:fb pc: e8e8, reg_addr:    0, cycle:  16393
e8e8 ea ea ea NOP  IMPL  A: 1 X:ef Y:91 P:25 S:fb pc: e8e9, reg_addr:    0, cycle:  16395
e8e9 ea ea 20 NOP  IMPL  A: 1 X:ef Y:91 P:25 S:fb pc: e8ea, reg_addr:    0, cycle:  16397
e8ea ea 20 4c NOP  IMPL  A: 1 X:ef Y:91 P:25 S:fb pc: e8eb, reg_addr:    0, cycle:  16399
e8eb 20 4c f9 JSR  ABS   A: 1 X:ef Y:91 P:25 S:fb pc: f94c, reg_addr: f94c, cycle:  16405
f94c f0  b 30 BEQ  REL   A: 1 X:ef Y:91 P:25 S:f9 pc: f94e, reg_addr: f959, cycle:  16407
f94e 30  9 90 BMI  REL   A: 1 X:ef Y:91 P:25 S:f9 pc: f950, reg_addr: f959, cycle:  16409
f950 90  7 70 BCC  REL   A: 1 X:ef Y:91 P:25 S:f9 pc: f952, reg_addr: f959, cycle:  16411
f952 70  5 c9 BVS  REL   A: 1 X:ef Y:91 P:25 S:f9 pc: f954, reg_addr: f959, cycle:  16413
f954 c9  1 d0 CMP  IMM   A: 1 X:ef Y:91 P:25 S:f9 pc: f956, reg_addr:    1, cycle:  16415
f956 d0  1 60 BNE  REL   A: 1 X:ef Y:91 P:27 S:f9 pc: f958, reg_addr: f959, cycle:  16417
f958 60 84  0 RTS  IMPL  A: 1 X:ef Y:91 P:27 S:f9 pc: e8ee, reg_addr:    0, cycle:  16423
e8ee c8 20 5c INY  IMPL  A: 1 X:ef Y:91 P:27 S:fb pc: e8ef, reg_addr:    0, cycle:  16425
e8ef 20 5c f9 JSR  ABS   A: 1 X:ef Y:92 P:a5 S:fb pc: f95c, reg_addr: f95c, cycle:  16431
f95c a9 40 38 LDA  IMM   A: 1 X:ef Y:92 P:a5 S:f9 pc: f95e, reg_addr:   40, cycle:  16433
f95e 38 24  1 SEC  IMPL  A:40 X:ef Y:92 P:25 S:f9 pc: f95f, reg_addr:    0, cycle:  16435
f95f 24  1 60 BIT  ZP    A:40 X:ef Y:92 P:25 S:f9 pc: f961, reg_addr:    1, cycle:  16438
f961 60 b0  b RTS  IMPL  A:40 X:ef Y:92 P:e5 S:f9 pc: e8f2, reg_addr:    0, cycle:  16444
e8f2 eb 41 ea SBC  IMM   A:40 X:ef Y:92 P:e5 S:fb pc: e8f4, reg_addr:   41, cycle:  16446
e8f4 ea ea ea NOP  IMPL  A:ff X:ef Y:92 P:a4 S:fb pc: e8f5, reg_addr:    0, cycle:  16448
e8f5 ea ea ea NOP  IMPL  A:ff X:ef Y:92 P:a4 S:fb pc: e8f6, reg_addr:    0, cycle:  16450
e8f6 ea ea 20 NOP  IMPL  A:ff X:ef Y:92 P:a4 S:fb pc: e8f7, reg_addr:    0, cycle:  16452
e8f7 ea 20 62 NOP  IMPL  A:ff X:ef Y:92 P:a4 S:fb pc: e8f8, reg_addr:    0, cycle:  16454
e8f8 20 62 f9 JSR  ABS   A:ff X:ef Y:92 P:a4 S:fb pc: f962, reg_addr: f962, cycle:  16460
f962 b0  b f0 BCS  REL   A:ff X:ef Y:92 P:a4 S:f9 pc: f964, reg_addr: f96f, cycle:  16462
f964 f0  9 10 BEQ  REL   A:ff X:ef Y:92 P:a4 S:f9 pc: f966, reg_addr: f96f, cycle:  16464
f966 10  7 70 BPL  REL   A:ff X:ef Y:92 P:a4 S:f9 pc: f968, reg_addr: f96f, cycle:  16466
f968 70  5 c9 BVS  REL   A:ff X:ef Y:92 P:a4 S:f9 pc: f96a, reg_addr: f96f, cycle:  16468
f96a c9 ff d0 CMP  IMM   A:ff X:ef Y:92 P:a4 S:f9 pc: f96c, reg_addr:   ff, cycle:  16470
f96c d0  1 60 BNE  REL   A:ff X:ef Y:92 P:27 S:f9 pc: f96e, reg_addr: f96f, cycle:  16472
f96e 60 84  0 RTS  IMPL  A:ff X:ef Y:92 P:27 S:f9 pc: e8fb, reg_addr:    0, cycle:  16478
e8fb c8 20 72 INY  IMPL  A:ff X:ef Y:92 P:27 S:fb pc: e8fc, reg_addr:    0, cycle:  16480
e8fc 20 72 f9 JSR  ABS   A:ff X:ef Y:93 P:a5 S:fb pc: f972, reg_addr: f972, cycle:  16486
f972 18 a9 80 CLC  IMPL  A:ff X:ef Y:93 P:a5 S:f9 pc: f973, reg_addr:    0, cycle:  16488
f973 a9 80 60 LDA  IMM   A:ff X:ef Y:93 P:a4 S:f9 pc: f975, reg_addr:   80, cycle:  16490
f975 60 90  5 RTS  IMPL  A:80 X:ef Y:93 P:a4 S:f9 pc: e8ff, reg_addr:    0, cycle:  16496
e8ff eb  0 ea SBC  IMM   A:80 X:ef Y:93 P:a4 S:fb pc: e901, reg_addr:    0, cycle:  16498
e901 ea ea ea NOP  IMPL  A:7f X:ef Y:93 P:65 S:fb pc: e902, reg_addr:    0, cycle:  16500
e902 ea ea ea NOP  IMPL  A:7f X:ef Y:93 P:65 S:fb pc: e903, reg_addr:    0, cycle:  16502
e903 ea ea 20 NOP  IMPL  A:7f X:ef Y:93 P:65 S:fb pc: e904, reg_addr:    0, cycle:  16504
e904 ea 20 76 NOP  IMPL  A:7f X:ef Y:93 P:65 S:fb pc: e905, reg_addr:    0, cycle:  16506
e905 20 76 f9 JSR  ABS   A:7f X:ef Y:93 P:65 S:fb pc: f976, reg_addr: f976, cycle:  16512
f976 90  5 c9 BCC  REL   A:7f X:ef Y:93 P:65 S:f9 pc: f978, reg_addr: f97d, cycle:  16514
f978 c9 7f d0 CMP  IMM   A:7f X:ef Y:93 P:65 S:f9 pc: f97a, reg_addr:   7f, cycle:  16516
f97a d0  1 60 BNE  REL   A:7f X:ef Y:93 P:67 S:f9 pc: f97c, reg_addr: f97d, cycle:  16518
f97c 60 84  0 RTS  IMPL  A:7f X:ef Y:93 P:67 S:f9 pc: e908, reg_addr:    0, cycle:  16524
e908 c8 20 80 INY  IMPL  A:7f X:ef Y:93 P:67 S:fb pc: e909, reg_addr:    0, cycle:  16526
e909 20 80 f9 JSR  ABS   A:7f X:ef Y:94 P:e5 S:fb pc: f980, reg_addr: f980, cycle:  16532
f980 38 a9 81 SEC  IMPL  A:7f X:ef Y:94 P:e5 S:f9 pc: f981, reg_addr:    0, cycle:  16534
f981 a9 81 60 LDA  IMM   A:7f X:ef Y:94 P:e5 S:f9 pc: f983, reg_addr:   81, cycle:  16536
f983 60 50  7 RTS  IMPL  A:81 X:ef Y:94 P:e5 S:f9 pc: e90c, reg_addr:    0, cycle:  16542
e90c eb 7f ea SBC  IMM   A:81 X:ef Y:94 P:e5 S:fb pc: e90e, reg_addr:   7f, cycle:  16544
e90e ea ea ea NOP  IMPL  A: 2 X:ef Y:94 P:65 S:fb pc: e90f, reg_addr:    0, cycle:  16546
e90f ea ea ea NOP  IMPL  A: 2 X:ef Y:94 P:65 S:fb pc: e910, reg_addr:    0, cycle:  16548
e910 ea ea 20 NOP  IMPL  A: 2 X:ef Y:94 P:65 S:fb pc: e911, reg_addr:    0, cycle:  16550
e911 ea 20 84 NOP  IMPL  A: 2 X:ef Y:94 P:65 S:fb pc: e912, reg_addr:    0, cycle:  16552
e912 20 84 f9 JSR  ABS   A: 2 X:ef Y:94 P:65 S:fb pc: f984, reg_addr: f984, cycle:  16558
f984 50  7 90 BVC  REL   A: 2 X:ef Y:94 P:65 S:f9 pc: f986, reg_addr: f98d, cycle:  16560
f986 90  5 c9 BCC  REL   A: 2 X:ef Y:94 P:65 S:f9 pc: f988, reg_addr: f98d, cycle:  16562
f988 c9  2 d0 CMP  IMM   A: 2 X:ef Y:94 P:65 S:f9 pc: f98a, reg_addr:    2, cycle:  16564
f98a d0  1 60 BNE  REL   A: 2 X:ef Y:94 P:67 S:f9 pc: f98c, reg_addr: f98d, cycle:  16566
f98c 60 84  0 RTS  IMPL  A: 2 X:ef Y:94 P:67 S:f9 pc: e915, reg_addr:    0, cycle:  16572
e915 60 a9 ff RTS  IMPL  A: 2 X:ef Y:94 P:67 S:fb pc: c63b, reg_addr:    0, cycle:  16578
c63b 20 16 e9 JSR  ABS   A: 2 X:ef Y:94 P:67 S:fd pc: e916, reg_addr: e916, cycle:  16584
e916 a9 ff 85 LDA  IMM   A: 2 X:ef Y:94 P:67 S:fb pc: e918, reg_addr:   ff, cycle:  16586
e918 85  1 a0 STA  ZP    A:ff X:ef Y:94 P:e5 S:fb pc: e91a, reg_addr:    1, cycle:  16589
e91a a0 95 a2 LDY  IMM   A:ff X:ef Y:94 P:e5 S:fb pc: e91c, reg_addr:   95, cycle:  16591
e91c a2  2 a9 LDX  IMM   A:ff X:ef Y:95 P:e5 S:fb pc: e91e, reg_addr:    2, cycle:  16593
e91e a9 47 85 LDA  IMM   A:ff X: 2 Y:95 P:65 S:fb pc: e920, reg_addr:   47, cycle:  16595
e920 85 47 a9 STA  ZP    A:47 X: 2 Y:95 P:65 S:fb pc: e922, reg_addr:   47, cycle:  16598
e922 a9  6 85 LDA  IMM   A:47 X: 2 Y:95 P:65 S:fb pc: e924, reg_addr:    6, cycle:  16600
e924 85 48 a9 STA  ZP    A: 6 X: 2 Y:95 P:65 S:fb pc: e926, reg_addr:   48, cycle:  16603
e926 a9 eb 8d LDA  IMM   A: 6 X: 2 Y:95 P:65 S:fb pc: e928, reg_addr:   eb, cycle:  16605
e928 8d 47  6 STA  ABS   A:eb X: 2 Y:95 P:e5 S:fb pc: e92b, reg_addr:  647, cycle:  16609
e92b 20 31 fa JSR  ABS   A:eb X: 2 Y:95 P:e5 S:fb pc: fa31, reg_addr: fa31, cycle:  16615
fa31 24  1 18 BIT  ZP    A:eb X: 2 Y:95 P:e5 S:f9 pc: fa33, reg_addr:    1, cycle:  16618
fa33 18 a9 40 CLC  IMPL  A:eb X: 2 Y:95 P:e5 S:f9 pc: fa34, reg_addr:    0, cycle:  16620
fa34 a9 40 60 LDA  IMM   A:eb X: 2 Y:95 P:e4 S:f9 pc: fa36, reg_addr:   40, cycle:  16622
fa36 60 50 2c RTS  IMPL  A:40 X: 2 Y:95 P:64 S:f9 pc: e92e, reg_addr:    0, cycle:  16628
e92e c3 45 ea DCP  INDX  A:40 X: 2 Y:95 P:64 S:fb pc: e930, reg_addr:  647, cycle:  16636
e930 ea ea ea NOP  IMPL  A:40 X: 2 Y:95 P:64 S:fb pc: e931, reg_addr:    0, cycle:  16638
e931 ea ea ea NOP  IMPL  A:40 X: 2 Y:95 P:64 S:fb pc: e932, reg_addr:    0, cycle:  16640
e932 ea ea 20 NOP  IMPL  A:40 X: 2 Y:95 P:64 S:fb pc: e933, reg_addr:    0, cycle:  16642
e933 ea 20 37 NOP  IMPL  A:40 X: 2 Y:95 P:64 S:fb pc: e934, reg_addr:    0, cycle:  16644
e934 20 37 fa JSR  ABS   A:40 X: 2 Y:95 P:64 S:fb pc: fa37, reg_addr: fa37, cycle:  16650
fa37 50 2c b0 BVC  REL   A:40 X: 2 Y:95 P:64 S:f9 pc: fa39, reg_addr: fa65, cycle:  16652
fa39 b0 2a 30 BCS  REL   A:40 X: 2 Y:95 P:64 S:f9 pc: fa3b, reg_addr: fa65, cycle:  16654
fa3b 30 28 c9 BMI  REL   A:40 X: 2 Y:95 P:64 S:f9 pc: fa3d, reg_addr: fa65, cycle:  16656
fa3d c9 40 d0 CMP  IMM   A:40 X: 2 Y:95 P:64 S:f9 pc: fa3f, reg_addr:   40, cycle:  16658
fa3f d0 24 60 BNE  REL   A:40 X: 2 Y:95 P:67 S:f9 pc: fa41, reg_addr: fa65, cycle:  16660
fa41 60 b8 38 RTS  IMPL  A:40 X: 2 Y:95 P:67 S:f9 pc: e937, reg_addr:    0, cycle:  16666
e937 ad 47  6 LDA  ABS   A:40 X: 2 Y:95 P:67 S:fb pc: e93a, reg_addr:  647, cycle:  16670
e93a c9 ea f0 CMP  IMM   A:ea X: 2 Y:95 P:e5 S:fb pc: e93c, reg_addr:   ea, cycle:  16672
e93c f0  2 84 BEQ  REL   A:ea X: 2 Y:95 P:67 S:fb pc: e940, reg_addr: e940, cycle:  16675
e940 c8 a9  0 INY  IMPL  A:ea X: 2 Y:95 P:67 S:fb pc: e941, reg_addr:    0, cycle:  16677
e941 a9  0 8d LDA  IMM   A:ea X: 2 Y:96 P:e5 S:fb pc: e943, reg_addr:    0, cycle:  16679
e943 8d 47  6 STA  ABS   A: 0 X: 2 Y:96 P:67 S:fb pc: e946, reg_addr:  647, cycle:  16683
e946 20 42 fa JSR  ABS   A: 0 X: 2 Y:96 P:67 S:fb pc: fa42, reg_addr: fa42, cycle:  16689
fa42 b8 38 a9 CLV  IMPL  A: 0 X: 2 Y:96 P:67 S:f9 pc: fa43, reg_addr:    0, cycle:  16691
fa43 38 a9 ff SEC  IMPL  A: 0 X: 2 Y:96 P:27 S:f9 pc: fa44, reg_addr:    0, cycle:  16693
fa44 a9 ff 60 LDA  IMM   A: 0 X: 2 Y:96 P:27 S:f9 pc: fa46, reg_addr:   ff, cycle:  16695
fa46 60 70 1c RTS  IMPL  A:ff X: 2 Y:96 P:a5 S:f9 pc: e949, reg_addr:    0, cycle:  16701
e949 c3 45 ea DCP  INDX  A:ff X: 2 Y:96 P:a5 S:fb pc: e94b, reg_addr:  647, cycle:  16709
e94b ea ea ea NOP  IMPL  A:ff X: 2 Y:96 P:27 S:fb pc: e94c, reg_addr:    0, cycle:  16711
e94c ea ea ea NOP  IMPL  A:ff X: 2 Y:96 P:27 S:fb pc: e94d, reg_addr:    0, cycle:  16713
e94d ea ea 20 NOP  IMPL  A:ff X: 2 Y:96 P:27 S:fb pc: e94e, reg_addr:    0, cycle:  16715
e94e ea 20 47 NOP  IMPL  A:ff X: 2 Y:96 P:27 S:fb pc: e94f, reg_addr:    0, cycle:  16717
e94f 20 47 fa JSR  ABS   A:ff X: 2 Y:96 P:27 S:fb pc: fa47, reg_addr: fa47, cycle:  16723
fa47 70 1c d0 BVS  REL   A:ff X: 2 Y:96 P:27 S:f9 pc: fa49, reg_addr: fa65, cycle:  16725
fa49 d0 1a 30 BNE  REL   A:ff X: 2 Y:96 P:27 S:f9 pc: fa4b, reg_addr: fa65, cycle:  16727
fa4b 30 18 90 BMI  REL   A:ff X: 2 Y:96 P:27 S:f9 pc: fa4d, reg_addr: fa65, cycle:  16729
fa4d 90 16 c9 BCC  REL   A:ff X: 2 Y:96 P:27 S:f9 pc: fa4f, reg_addr: fa65, cycle:  16731
fa4f c9 ff d0 CMP  IMM   A:ff X: 2 Y:96 P:27 S:f9 pc: fa51, reg_addr:   ff, cycle:  16733
fa51 d0 12 60 BNE  REL   A:ff X: 2 Y:96 P:27 S:f9 pc: fa53, reg_addr: fa65, cycle:  16735
fa53 60 24  1 RTS  IMPL  A:ff X: 2 Y:96 P:27 S:f9 pc: e952, reg_addr:    0, cycle:  16741
e952 ad 47  6 LDA  ABS   A:ff X: 2 Y:96 P:27 S:fb pc: e955, reg_addr:  647, cycle:  16745
e955 c9 ff f0 CMP  IMM   A:ff X: 2 Y:96 P:a5 S:fb pc: e957, reg_addr:   ff, cycle:  16747
e957 f0  2 84 BEQ  REL   A:ff X: 2 Y:96 P:27 S:fb pc: e95b, reg_addr: e95b, cycle:  16750
e95b c8 a9 37 INY  IMPL  A:ff X: 2 Y:96 P:27 S:fb pc: e95c, reg_addr:    0, cycle:  16752
e95c a9 37 8d LDA  IMM   A:ff X: 2 Y:97 P:a5 S:fb pc: e95e, reg_addr:   37, cycle:  16754
e95e 8d 47  6 STA  ABS   A:37 X: 2 Y:97 P:25 S:fb pc: e961, reg_addr:  647, cycle:  16758
e961 20 54 fa JSR  ABS   A:37 X: 2 Y:97 P:25 S:fb pc: fa54, reg_addr: fa54, cycle:  16764
fa54 24  1 a9 BIT  ZP    A:37 X: 2 Y:97 P:25 S:f9 pc: fa56, reg_addr:    1, cycle:  16767
fa56 a9 f0 60 LDA  IMM   A:37 X: 2 Y:97 P:e5 S:f9 pc: fa58, reg_addr:   f0, cycle:  16769
fa58 60 50  a RTS  IMPL  A:f0 X: 2 Y:97 P:e5 S:f9 pc: e964, reg_addr:    0, cycle:  16775
e964 c3 45 ea DCP  INDX  A:f0 X: 2 Y:97 P:e5 S:fb pc: e966, reg_addr:  647, cycle:  16783
e966 ea ea ea NOP  IMPL  A:f0 X: 2 Y:97 P:e5 S:fb pc: e967, reg_addr:    0, cycle:  16785
e967 ea ea ea NOP  IMPL  A:f0 X: 2 Y:97 P:e5 S:fb pc: e968, reg_addr:    0, cycle:  16787
e968 ea ea 20 NOP  IMPL  A:f0 X: 2 Y:97 P:e5 S:fb pc: e969, reg_addr:    0, cycle:  16789
e969 ea 20 59 NOP  IMPL  A:f0 X: 2 Y:97 P:e5 S:fb pc: e96a, reg_addr:    0, cycle:  16791
e96a 20 59 fa JSR  ABS   A:f0 X: 2 Y:97 P:e5 S:fb pc: fa59, reg_addr: fa59, cycle:  16797
fa59 50  a f0 BVC  REL   A:f0 X: 2 Y:97 P:e5 S:f9 pc: fa5b, reg_addr: fa65, cycle:  16799
fa5b f0  8 10 BEQ  REL   A:f0 X: 2 Y:97 P:e5 S:f9 pc: fa5d, reg_addr: fa65, cycle:  16801
fa5d 10  6 90 BPL  REL   A:f0 X: 2 Y:97 P:e5 S:f9 pc: fa5f, reg_addr: fa65, cycle:  16803
fa5f 90  4 c9 BCC  REL   A:f0 X: 2 Y:97 P:e5 S:f9 pc: fa61, reg_addr: fa65, cycle:  16805
fa61 c9 f0 f0 CMP  IMM   A:f0 X: 2 Y:97 P:e5 S:f9 pc: fa63, reg_addr:   f0, cycle:  16807
fa63 f0  2 84 BEQ  REL   A:f0 X: 2 Y:97 P:67 S:f9 pc: fa67, reg_addr: fa67, cycle:  16810
fa67 60 24  1 RTS  IMPL  A:f0 X: 2 Y:97 P:67 S:f9 pc: e96d, reg_addr:    0, cycle:  16816
e96d ad 47  6 LDA  ABS   A:f0 X: 2 Y:97 P:67 S:fb pc: e970, reg_addr:  647, cycle:  16820
e970 c9 36 f0 CMP  IMM   A:36 X: 2 Y:97 P:65 S:fb pc: e972, reg_addr:   36, cycle:  16822
e972 f0  2 84 BEQ  REL   A:36 X: 2 Y:97 P:67 S:fb pc: e976, reg_addr: e976, cycle:  16825
e976 c8 a9 eb INY  IMPL  A:36 X: 2 Y:97 P:67 S:fb pc: e977, reg_addr:    0, cycle:  16827
e977 a9 eb 85 LDA  IMM   A:36 X: 2 Y:98 P:e5 S:fb pc: e979, reg_addr:   eb, cycle:  16829
e979 85 47 20 STA  ZP    A:eb X: 2 Y:98 P:e5 S:fb pc: e97b, reg_addr:   47, cycle:  16832
e97b 20 31 fa JSR  ABS   A:eb X: 2 Y:98 P:e5 S:fb pc: fa31, reg_addr: fa31, cycle:  16838
fa31 24  1 18 BIT  ZP    A:eb X: 2 Y:98 P:e5 S:f9 pc: fa33, reg_addr:    1, cycle:  16841
fa33 18 a9 40 CLC  IMPL  A:eb X: 2 Y:98 P:e5 S:f9 pc: fa34, reg_addr:    0, cycle:  16843
fa34 a9 40 60 LDA  IMM   A:eb X: 2 Y:98 P:e4 S:f9 pc: fa36, reg_addr:   40, cycle:  16845
fa36 60 50 2c RTS  IMPL  A:40 X: 2 Y:98 P:64 S:f9 pc: e97e, reg_addr:    0, cycle:  16851
e97e c7 47 ea DCP  ZP    A:40 X: 2 Y:98 P:64 S:fb pc: e980, reg_addr:   47, cycle:  16856
e980 ea ea ea NOP  IMPL  A:40 X: 2 Y:98 P:64 S:fb pc: e981, reg_addr:    0, cycle:  16858
e981 ea ea ea NOP  IMPL  A:40 X: 2 Y:98 P:64 S:fb pc: e982, reg_addr:    0, cycle:  16860
e982 ea ea 20 NOP  IMPL  A:40 X: 2 Y:98 P:64 S:fb pc: e983, reg_addr:    0, cycle:  16862
e983 ea 20 37 NOP  IMPL  A:40 X: 2 Y:98 P:64 S:fb pc: e984, reg_addr:    0, cycle:  16864
e984 20 37 fa JSR  ABS   A:40 X: 2 Y:98 P:64 S:fb pc: fa37, reg_addr: fa37, cycle:  16870
fa37 50 2c b0 BVC  REL   A:40 X: 2 Y:98 P:64 S:f9 pc: fa39, reg_addr: fa65, cycle:  16872
fa39 b0 2a 30 BCS  REL   A:40 X: 2 Y:98 P:64 S:f9 pc: fa3b, reg_addr: fa65, cycle:  16874
fa3b 30 28 c9 BMI  REL   A:40 X: 2 Y:98 P:64 S:f9 pc: fa3d, reg_addr: fa65, cycle:  16876
fa3d c9 40 d0 CMP  IMM   A:40 X: 2 Y:98 P:64 S:f9 pc: fa3f, reg_addr:   40, cycle:  16878
fa3f d0 24 60 BNE  REL   A:40 X: 2 Y:98 P:67 S:f9 pc: fa41, reg_addr: fa65, cycle:  16880
fa41 60 b8 38 RTS  IMPL  A:40 X: 2 Y:98 P:67 S:f9 pc: e987, reg_addr:    0, cycle:  16886
e987 a5 47 c9 LDA  ZP    A:40 X: 2 Y:98 P:67 S:fb pc: e989, reg_addr:   47, cycle:  16889
e989 c9 ea f0 CMP  IMM   A:ea X: 2 Y:98 P:e5 S:fb pc: e98b, reg_addr:   ea, cycle:  16891
e98b f0  2 84 BEQ  REL   A:ea X: 2 Y:98 P:67 S:fb pc: e98f, reg_addr: e98f, cycle:  16894
e98f c8 a9  0 INY  IMPL  A:ea X: 2 Y:98 P:67 S:fb pc: e990, reg_addr:    0, cycle:  16896
e990 a9  0 85 LDA  IMM   A:ea X: 2 Y:99 P:e5 S:fb pc: e992, reg_addr:    0, cycle:  16898
e992 85 47 20 STA  ZP    A: 0 X: 2 Y:99 P:67 S:fb pc: e994, reg_addr:   47, cycle:  16901
e994 20 42 fa JSR  ABS   A: 0 X: 2 Y:99 P:67 S:fb pc: fa42, reg_addr: fa42, cycle:  16907
fa42 b8 38 a9 CLV  IMPL  A: 0 X: 2 Y:99 P:67 S:f9 pc: fa43, reg_addr:    0, cycle:  16909
fa43 38 a9 ff SEC  IMPL  A: 0 X: 2 Y:99 P:27 S:f9 pc: fa44, reg_addr:    0, cycle:  16911
fa44 a9 ff 60 LDA  IMM   A: 0 X: 2 Y:99 P:27 S:f9 pc: fa46, reg_addr:   ff, cycle:  16913
fa46 60 70 1c RTS  IMPL  A:ff X: 2 Y:99 P:a5 S:f9 pc: e997, reg_addr:    0, cycle:  16919
e997 c7 47 ea DCP  ZP    A:ff X: 2 Y:99 P:a5 S:fb pc: e999, reg_addr:   47, cycle:  16924
e999 ea ea ea NOP  IMPL  A:ff X: 2 Y:99 P:27 S:fb pc: e99a, reg_addr:    0, cycle:  16926
e99a ea ea ea NOP  IMPL  A:ff X: 2 Y:99 P:27 S:fb pc: e99b, reg_addr:    0, cycle:  16928
e99b ea ea 20 NOP  IMPL  A:ff X: 2 Y:99 P:27 S:fb pc: e99c, reg_addr:    0, cycle:  16930
e99c ea 20 47 NOP  IMPL  A:ff X: 2 Y:99 P:27 S:fb pc: e99d, reg_addr:    0, cycle:  16932
e99d 20 47 fa JSR  ABS   A:ff X: 2 Y:99 P:27 S:fb pc: fa47, reg_addr: fa47, cycle:  16938
fa47 70 1c d0 BVS  REL   A:ff X: 2 Y:99 P:27 S:f9 pc: fa49, reg_addr: fa65, cycle:  16940
fa49 d0 1a 30 BNE  REL   A:ff X: 2 Y:99 P:27 S:f9 pc: fa4b, reg_addr: fa65, cycle:  16942
fa4b 30 18 90 BMI  REL   A:ff X: 2 Y:99 P:27 S:f9 pc: fa4d, reg_addr: fa65, cycle:  16944
fa4d 90 16 c9 BCC  REL   A:ff X: 2 Y:99 P:27 S:f9 pc: fa4f, reg_addr: fa65, cycle:  16946
fa4f c9 ff d0 CMP  IMM   A:ff X: 2 Y:99 P:27 S:f9 pc: fa51, reg_addr:   ff, cycle:  16948
fa51 d0 12 60 BNE  REL   A:ff X: 2 Y:99 P:27 S:f9 pc: fa53, reg_addr: fa65, cycle:  16950
fa53 60 24  1 RTS  IMPL  A:ff X: 2 Y:99 P:27 S:f9 pc: e9a0, reg_addr:    0, cycle:  16956
e9a0 a5 47 c9 LDA  ZP    A:ff X: 2 Y:99 P:27 S:fb pc: e9a2, reg_addr:   47, cycle:  16959
e9a2 c9 ff f0 CMP  IMM   A:ff X: 2 Y:99 P:a5 S:fb pc: e9a4, reg_addr:   ff, cycle:  16961
e9a4 f0  2 84 BEQ  REL   A:ff X: 2 Y:99 P:27 S:fb pc: e9a8, reg_addr: e9a8, cycle:  16964
e9a8 c8 a9 37 INY  IMPL  A:ff X: 2 Y:99 P:27 S:fb pc: e9a9, reg_addr:    0, cycle:  16966
e9a9 a9 37 85 LDA  IMM   A:ff X: 2 Y:9a P:a5 S:fb pc: e9ab, reg_addr:   37, cycle:  16968
e9ab 85 47 20 STA  ZP    A:37 X: 2 Y:9a P:25 S:fb pc: e9ad, reg_addr:   47, cycle:  16971
e9ad 20 54 fa JSR  ABS   A:37 X: 2 Y:9a P:25 S:fb pc: fa54, reg_addr: fa54, cycle:  16977
fa54 24  1 a9 BIT  ZP    A:37 X: 2 Y:9a P:25 S:f9 pc: fa56, reg_addr:    1, cycle:  16980
fa56 a9 f0 60 LDA  IMM   A:37 X: 2 Y:9a P:e5 S:f9 pc: fa58, reg_addr:   f0, cycle:  16982
fa58 60 50  a RTS  IMPL  A:f0 X: 2 Y:9a P:e5 S:f9 pc: e9b0, reg_addr:    0, cycle:  16988
e9b0 c7 47 ea DCP  ZP    A:f0 X: 2 Y:9a P:e5 S:fb pc: e9b2, reg_addr:   47, cycle:  16993
e9b2 ea ea ea NOP  IMPL  A:f0 X: 2 Y:9a P:e5 S:fb pc: e9b3, reg_addr:    0, cycle:  16995
e9b3 ea ea ea NOP  IMPL  A:f0 X: 2 Y:9a P:e5 S:fb pc: e9b4, reg_addr:    0, cycle:  16997
e9b4 ea ea 20 NOP  IMPL  A:f0 X: 2 Y:9a P:e5 S:fb pc: e9b5, reg_addr:    0, cycle:  16999
e9b5 ea 20 59 NOP  IMPL  A:f0 X: 2 Y:9a P:e5 S:fb pc: e9b6, reg_addr:    0, cycle:  17001
e9b6 20 59 fa JSR  ABS   A:f0 X: 2 Y:9a P:e5 S:fb pc: fa59, reg_addr: fa59, cycle:  17007
fa59 50  a f0 BVC  REL   A:f0 X: 2 Y:9a P:e5 S:f9 pc: fa5b, reg_addr: fa65, cycle:  17009
fa5b f0  8 10 BEQ  REL   A:f0 X: 2 Y:9a P:e5 S:f9 pc: fa5d, reg_addr: fa65, cycle:  17011
fa5d 10  6 90 BPL  REL   A:f0 X: 2 Y:9a P:e5 S:f9 pc: fa5f, reg_addr: fa65, cycle:  17013
fa5f 90  4 c9 BCC  REL   A:f0 X: 2 Y:9a P:e5 S:f9 pc: fa61, reg_addr: fa65, cycle:  17015
fa61 c9 f0 f0 CMP  IMM   A:f0 X: 2 Y:9a P:e5 S:f9 pc: fa63, reg_addr:   f0, cycle:  17017
fa63 f0  2 84 BEQ  REL   A:f0 X: 2 Y:9a P:67 S:f9 pc: fa67, reg_addr: fa67, cycle:  17020
fa67 60 24  1 RTS  IMPL  A:f0 X: 2 Y:9a P:67 S:f9 pc: e9b9, reg_addr:    0, cycle:  17026
e9b9 a5 47 c9 LDA  ZP    A:f0 X: 2 Y:9a P:67 S:fb pc: e9bb, reg_addr:   47, cycle:  17029
e9bb c9 36 f0 CMP  IMM   A:36 X: 2 Y:9a P:65 S:fb pc: e9bd, reg_addr:   36, cycle:  17031
e9bd f0  2 84 BEQ  REL   A:36 X: 2 Y:9a P:67 S:fb pc: e9c1, reg_addr: e9c1, cycle:  17034
e9c1 c8 a9 eb INY  IMPL  A:36 X: 2 Y:9a P:67 S:fb pc: e9c2, reg_addr:    0, cycle:  17036
e9c2 a9 eb 8d LDA  IMM   A:36 X: 2 Y:9b P:e5 S:fb pc: e9c4, reg_addr:   eb, cycle:  17038
e9c4 8d 47  6 STA  ABS   A:eb X: 2 Y:9b P:e5 S:fb pc: e9c7, reg_addr:  647, cycle:  17042
e9c7 20 31 fa JSR  ABS   A:eb X: 2 Y:9b P:e5 S:fb pc: fa31, reg_addr: fa31, cycle:  17048
fa31 24  1 18 BIT  ZP    A:eb X: 2 Y:9b P:e5 S:f9 pc: fa33, reg_addr:    1, cycle:  17051
fa33 18 a9 40 CLC  IMPL  A:eb X: 2 Y:9b P:e5 S:f9 pc: fa34, reg_addr:    0, cycle:  17053
fa34 a9 40 60 LDA  IMM   A:eb X: 2 Y:9b P:e4 S:f9 pc: fa36, reg_addr:   40, cycle:  17055
fa36 60 50 2c RTS  IMPL  A:40 X: 2 Y:9b P:64 S:f9 pc: e9ca, reg_addr:    0, cycle:  17061
e9ca cf 47  6 DCP  ABS   A:40 X: 2 Y:9b P:64 S:fb pc: e9cd, reg_addr:  647, cycle:  17067
e9cd ea ea ea NOP  IMPL  A:40 X: 2 Y:9b P:64 S:fb pc: e9ce, reg_addr:    0, cycle:  17069
e9ce ea ea ea NOP  IMPL  A:40 X: 2 Y:9b P:64 S:fb pc: e9cf, reg_addr:    0, cycle:  17071
e9cf ea ea 20 NOP  IMPL  A:40 X: 2 Y:9b P:64 S:fb pc: e9d0, reg_addr:    0, cycle:  17073
e9d0 ea 20 37 NOP  IMPL  A:40 X: 2 Y:9b P:64 S:fb pc: e9d1, reg_addr:    0, cycle:  17075
e9d1 20 37 fa JSR  ABS   A:40 X: 2 Y:9b P:64 S:fb pc: fa37, reg_addr: fa37, cycle:  17081
fa37 50 2c b0 BVC  REL   A:40 X: 2 Y:9b P:64 S:f9 pc: fa39, reg_addr: fa65, cycle:  17083
fa39 b0 2a 30 BCS  REL   A:40 X: 2 Y:9b P:64 S:f9 pc: fa3b, reg_addr: fa65, cycle:  17085
fa3b 30 28 c9 BMI  REL   A:40 X: 2 Y:9b P:64 S:f9 pc: fa3d, reg_addr: fa65, cycle:  17087
fa3d c9 40 d0 CMP  IMM   A:40 X: 2 Y:9b P:64 S:f9 pc: fa3f, reg_addr:   40, cycle:  17089
fa3f d0 24 60 BNE  REL   A:40 X: 2 Y:9b P:67 S:f9 pc: fa41, reg_addr: fa65, cycle:  17091
fa41 60 b8 38 RTS  IMPL  A:40 X: 2 Y:9b P:67 S:f9 pc: e9d4, reg_addr:    0, cycle:  17097
e9d4 ad 47  6 LDA  ABS   A:40 X: 2 Y:9b P:67 S:fb pc: e9d7, reg_addr:  647, cycle:  17101
e9d7 c9 ea f0 CMP  IMM   A:ea X: 2 Y:9b P:e5 S:fb pc: e9d9, reg_addr:   ea, cycle:  17103
e9d9 f0  2 84 BEQ  REL   A:ea X: 2 Y:9b P:67 S:fb pc: e9dd, reg_addr: e9dd, cycle:  17106
e9dd c8 a9  0 INY  IMPL  A:ea X: 2 Y:9b P:67 S:fb pc: e9de, reg_addr:    0, cycle:  17108
e9de a9  0 8d LDA  IMM   A:ea X: 2 Y:9c P:e5 S:fb pc: e9e0, reg_addr:    0, cycle:  17110
e9e0 8d 47  6 STA  ABS   A: 0 X: 2 Y:9c P:67 S:fb pc: e9e3, reg_addr:  647, cycle:  17114
e9e3 20 42 fa JSR  ABS   A: 0 X: 2 Y:9c P:67 S:fb pc: fa42, reg_addr: fa42, cycle:  17120
fa42 b8 38 a9 CLV  IMPL  A: 0 X: 2 Y:9c P:67 S:f9 pc: fa43, reg_addr:    0, cycle:  17122
fa43 38 a9 ff SEC  IMPL  A: 0 X: 2 Y:9c P:27 S:f9 pc: fa44, reg_addr:    0, cycle:  17124
fa44 a9 ff 60 LDA  IMM   A: 0 X: 2 Y:9c P:27 S:f9 pc: fa46, reg_addr:   ff, cycle:  17126
fa46 60 70 1c RTS  IMPL  A:ff X: 2 Y:9c P:a5 S:f9 pc: e9e6, reg_addr:    0, cycle:  17132
e9e6 cf 47  6 DCP  ABS   A:ff X: 2 Y:9c P:a5 S:fb pc: e9e9, reg_addr:  647, cycle:  17138
e9e9 ea ea ea NOP  IMPL  A:ff X: 2 Y:9c P:27 S:fb pc: e9ea, reg_addr:    0, cycle:  17140
e9ea ea ea ea NOP  IMPL  A:ff X: 2 Y:9c P:27 S:fb pc: e9eb, reg_addr:    0, cycle:  17142
e9eb ea ea 20 NOP  IMPL  A:ff X: 2 Y:9c P:27 S:fb pc: e9ec, reg_addr:    0, cycle:  17144
e9ec ea 20 47 NOP  IMPL  A:ff X: 2 Y:9c P:27 S:fb pc: e9ed, reg_addr:    0, cycle:  17146
e9ed 20 47 fa JSR  ABS   A:ff X: 2 Y:9c P:27 S:fb pc: fa47, reg_addr: fa47, cycle:  17152
fa47 70 1c d0 BVS  REL   A:ff X: 2 Y:9c P:27 S:f9 pc: fa49, reg_addr: fa65, cycle:  17154
fa49 d0 1a 30 BNE  REL   A:ff X: 2 Y:9c P:27 S:f9 pc: fa4b, reg_addr: fa65, cycle:  17156
fa4b 30 18 90 BMI  REL   A:ff X: 2 Y:9c P:27 S:f9 pc: fa4d, reg_addr: fa65, cycle:  17158
fa4d 90 16 c9 BCC  REL   A:ff X: 2 Y:9c P:27 S:f9 pc: fa4f, reg_addr: fa65, cycle:  17160
fa4f c9 ff d0 CMP  IMM   A:ff X: 2 Y:9c P:27 S:f9 pc: fa51, reg_addr:   ff, cycle:  17162
fa51 d0 12 60 BNE  REL   A:ff X: 2 Y:9c P:27 S:f9 pc: fa53, reg_addr: fa65, cycle:  17164
fa53 60 24  1 RTS  IMPL  A:ff X: 2 Y:9c P:27 S:f9 pc: e9f0, reg_addr:    0, cycle:  17170
e9f0 ad 47  6 LDA  ABS   A:ff X: 2 Y:9c P:27 S:fb pc: e9f3, reg_addr:  647, cycle:  17174
e9f3 c9 ff f0 CMP  IMM   A:ff X: 2 Y:9c P:a5 S:fb pc: e9f5, reg_addr:   ff, cycle:  17176
e9f5 f0  2 84 BEQ  REL   A:ff X: 2 Y:9c P:27 S:fb pc: e9f9, reg_addr: e9f9, cycle:  17179
e9f9 c8 a9 37 INY  IMPL  A:ff X: 2 Y:9c P:27 S:fb pc: e9fa, reg_addr:    0, cycle:  17181
e9fa a9 37 8d LDA  IMM   A:ff X: 2 Y:9d P:a5 S:fb pc: e9fc, reg_addr:   37, cycle:  17183
e9fc 8d 47  6 STA  ABS   A:37 X: 2 Y:9d P:25 S:fb pc: e9ff, reg_addr:  647, cycle:  17187
e9ff 20 54 fa JSR  ABS   A:37 X: 2 Y:9d P:25 S:fb pc: fa54, reg_addr: fa54, cycle:  17193
fa54 24  1 a9 BIT  ZP    A:37 X: 2 Y:9d P:25 S:f9 pc: fa56, reg_addr:    1, cycle:  17196
fa56 a9 f0 60 LDA  IMM   A:37 X: 2 Y:9d P:e5 S:f9 pc: fa58, reg_addr:   f0, cycle:  17198
fa58 60 50  a RTS  IMPL  A:f0 X: 2 Y:9d P:e5 S:f9 pc: ea02, reg_addr:    0, cycle:  17204
ea02 cf 47  6 DCP  ABS   A:f0 X: 2 Y:9d P:e5 S:fb pc: ea05, reg_addr:  647, cycle:  17210
ea05 ea ea ea NOP  IMPL  A:f0 X: 2 Y:9d P:e5 S:fb pc: ea06, reg_addr:    0, cycle:  17212
ea06 ea ea ea NOP  IMPL  A:f0 X: 2 Y:9d P:e5 S:fb pc: ea07, reg_addr:    0, cycle:  17214
ea07 ea ea 20 NOP  IMPL  A:f0 X: 2 Y:9d P:e5 S:fb pc: ea08, reg_addr:    0, cycle:  17216
ea08 ea 20 59 NOP  IMPL  A:f0 X: 2 Y:9d P:e5 S:fb pc: ea09, reg_addr:    0, cycle:  17218
ea09 20 59 fa JSR  ABS   A:f0 X: 2 Y:9d P:e5 S:fb pc: fa59, reg_addr: fa59, cycle:  17224
fa59 50  a f0 BVC  REL   A:f0 X: 2 Y:9d P:e5 S:f9 pc: fa5b, reg_addr: fa65, cycle:  17226
fa5b f0  8 10 BEQ  REL   A:f0 X: 2 Y:9d P:e5 S:f9 pc: fa5d, reg_addr: fa65, cycle:  17228
fa5d 10  6 90 BPL  REL   A:f0 X: 2 Y:9d P:e5 S:f9 pc: fa5f, reg_addr: fa65, cycle:  17230
fa5f 90  4 c9 BCC  REL   A:f0 X: 2 Y:9d P:e5 S:f9 pc: fa61, reg_addr: fa65, cycle:  17232
fa61 c9 f0 f0 CMP  IMM   A:f0 X: 2 Y:9d P:e5 S:f9 pc: fa63, reg_addr:   f0, cycle:  17234
fa63 f0  2 84 BEQ  REL   A:f0 X: 2 Y:9d P:67 S:f9 pc: fa67, reg_addr: fa67, cycle:  17237
fa67 60 24  1 RTS  IMPL  A:f0 X: 2 Y:9d P:67 S:f9 pc: ea0c, reg_addr:    0, cycle:  17243
ea0c ad 47  6 LDA  ABS   A:f0 X: 2 Y:9d P:67 S:fb pc: ea0f, reg_addr:  647, cycle:  17247
ea0f c9 36 f0 CMP  IMM   A:36 X: 2 Y:9d P:65 S:fb pc: ea11, reg_addr:   36, cycle:  17249
ea11 f0  2 84 BEQ  REL   A:36 X: 2 Y:9d P:67 S:fb pc: ea15, reg_addr: ea15, cycle:  17252
ea15 a9 eb 8d LDA  IMM   A:36 X: 2 Y:9d P:67 S:fb pc: ea17, reg_addr:   eb, cycle:  17254
ea17 8d 47  6 STA  ABS   A:eb X: 2 Y:9d P:e5 S:fb pc: ea1a, reg_addr:  647, cycle:  17258
ea1a a9 48 85 LDA  IMM   A:eb X: 2 Y:9d P:e5 S:fb pc: ea1c, reg_addr:   48, cycle:  17260
ea1c 85 45 a9 STA  ZP    A:48 X: 2 Y:9d P:65 S:fb pc: ea1e, reg_addr:   45, cycle:  17263
ea1e a9  5 85 LDA  IMM   A:48 X: 2 Y:9d P:65 S:fb pc: ea20, reg_addr:    5, cycle:  17265
ea20 85 46 a0 STA  ZP    A: 5 X: 2 Y:9d P:65 S:fb pc: ea22, reg_addr:   46, cycle:  17268
ea22 a0 ff 20 LDY  IMM   A: 5 X: 2 Y:9d P:65 S:fb pc: ea24, reg_addr:   ff, cycle:  17270
ea24 20 31 fa JSR  ABS   A: 5 X: 2 Y:ff P:e5 S:fb pc: fa31, reg_addr: fa31, cycle:  17276
fa31 24  1 18 BIT  ZP    A: 5 X: 2 Y:ff P:e5 S:f9 pc: fa33, reg_addr:    1, cycle:  17279
fa33 18 a9 40 CLC  IMPL  A: 5 X: 2 Y:ff P:e5 S:f9 pc: fa34, reg_addr:    0, cycle:  17281
fa34 a9 40 60 LDA  IMM   A: 5 X: 2 Y:ff P:e4 S:f9 pc: fa36, reg_addr:   40, cycle:  17283
fa36 60 50 2c RTS  IMPL  A:40 X: 2 Y:ff P:64 S:f9 pc: ea27, reg_addr:    0, cycle:  17289
ea27 d3 45 ea DCP  INDY  A:40 X: 2 Y:ff P:64 S:fb pc: ea29, reg_addr:  647, cycle:  17298
ea29 ea ea  8 NOP  IMPL  A:40 X: 2 Y:ff P:64 S:fb pc: ea2a, reg_addr:    0, cycle:  17300
ea2a ea  8 48 NOP  IMPL  A:40 X: 2 Y:ff P:64 S:fb pc: ea2b, reg_addr:    0, cycle:  17302
ea2b  8 48 a0 PHP  IMPL  A:40 X: 2 Y:ff P:64 S:fb pc: ea2c, reg_addr:    0, cycle:  17305
ea2c 48 a0 9e PHA  IMPL  A:40 X: 2 Y:ff P:64 S:fa pc: ea2d, reg_addr:    0, cycle:  17308
ea2d a0 9e 68 LDY  IMM   A:40 X: 2 Y:ff P:64 S:f9 pc: ea2f, reg_addr:   9e, cycle:  17310
ea2f 68 28 20 PLA  IMPL  A:40 X: 2 Y:9e P:e4 S:f9 pc: ea30, reg_addr:    0, cycle:  17314
ea30 28 20 37 PLP  IMPL  A:40 X: 2 Y:9e P:64 S:fa pc: ea31, reg_addr:    0, cycle:  17318
ea31 20 37 fa JSR  ABS   A:40 X: 2 Y:9e P:64 S:fb pc: fa37, reg_addr: fa37, cycle:  17324
fa37 50 2c b0 BVC  REL   A:40 X: 2 Y:9e P:64 S:f9 pc: fa39, reg_addr: fa65, cycle:  17326
fa39 b0 2a 30 BCS  REL   A:40 X: 2 Y:9e P:64 S:f9 pc: fa3b, reg_addr: fa65, cycle:  17328
fa3b 30 28 c9 BMI  REL   A:40 X: 2 Y:9e P:64 S:f9 pc: fa3d, reg_addr: fa65, cycle:  17330
fa3d c9 40 d0 CMP  IMM   A:40 X: 2 Y:9e P:64 S:f9 pc: fa3f, reg_addr:   40, cycle:  17332
fa3f d0 24 60 BNE  REL   A:40 X: 2 Y:9e P:67 S:f9 pc: fa41, reg_addr: fa65, cycle:  17334
fa41 60 b8 38 RTS  IMPL  A:40 X: 2 Y:9e P:67 S:f9 pc: ea34, reg_addr:    0, cycle:  17340
ea34 ad 47  6 LDA  ABS   A:40 X: 2 Y:9e P:67 S:fb pc: ea37, reg_addr:  647, cycle:  17344
ea37 c9 ea f0 CMP  IMM   A:ea X: 2 Y:9e P:e5 S:fb pc: ea39, reg_addr:   ea, cycle:  17346
ea39 f0  2 84 BEQ  REL   A:ea X: 2 Y:9e P:67 S:fb pc: ea3d, reg_addr: ea3d, cycle:  17349
ea3d a0 ff a9 LDY  IMM   A:ea X: 2 Y:9e P:67 S:fb pc: ea3f, reg_addr:   ff, cycle:  17351
ea3f a9  0 8d LDA  IMM   A:ea X: 2 Y:ff P:e5 S:fb pc: ea41, reg_addr:    0, cycle:  17353
ea41 8d 47  6 STA  ABS   A: 0 X: 2 Y:ff P:67 S:fb pc: ea44, reg_addr:  647, cycle:  17357
ea44 20 42 fa JSR  ABS   A: 0 X: 2 Y:ff P:67 S:fb pc: fa42, reg_addr: fa42, cycle:  17363
fa42 b8 38 a9 CLV  IMPL  A: 0 X: 2 Y:ff P:67 S:f9 pc: fa43, reg_addr:    0, cycle:  17365
fa43 38 a9 ff SEC  IMPL  A: 0 X: 2 Y:ff P:27 S:f9 pc: fa44, reg_addr:    0, cycle:  17367
fa44 a9 ff 60 LDA  IMM   A: 0 X: 2 Y:ff P:27 S:f9 pc: fa46, reg_addr:   ff, cycle:  17369
fa46 60 70 1c RTS  IMPL  A:ff X: 2 Y:ff P:a5 S:f9 pc: ea47, reg_addr:    0, cycle:  17375
ea47 d3 45 ea DCP  INDY  A:ff X: 2 Y:ff P:a5 S:fb pc: ea49, reg_addr:  647, cycle:  17384
ea49 ea ea  8 NOP  IMPL  A:ff X: 2 Y:ff P:27 S:fb pc: ea4a, reg_addr:    0, cycle:  17386
ea4a ea  8 48 NOP  IMPL  A:ff X: 2 Y:ff P:27 S:fb pc: ea4b, reg_addr:    0, cycle:  17388
ea4b  8 48 a0 PHP  IMPL  A:ff X: 2 Y:ff P:27 S:fb pc: ea4c, reg_addr:    0, cycle:  17391
ea4c 48 a0 9f PHA  IMPL  A:ff X: 2 Y:ff P:27 S:fa pc: ea4d, reg_addr:    0, cycle:  17394
ea4d a0 9f 68 LDY  IMM   A:ff X: 2 Y:ff P:27 S:f9 pc: ea4f, reg_addr:   9f, cycle:  17396
ea4f 68 28 20 PLA  IMPL  A:ff X: 2 Y:9f P:a5 S:f9 pc: ea50, reg_addr:    0, cycle:  17400
ea50 28 20 47 PLP  IMPL  A:ff X: 2 Y:9f P:a5 S:fa pc: ea51, reg_addr:    0, cycle:  17404
ea51 20 47 fa JSR  ABS   A:ff X: 2 Y:9f P:27 S:fb pc: fa47, reg_addr: fa47, cycle:  17410
fa47 70 1c d0 BVS  REL   A:ff X: 2 Y:9f P:27 S:f9 pc: fa49, reg_addr: fa65, cycle:  17412
fa49 d0 1a 30 BNE  REL   A:ff X: 2 Y:9f P:27 S:f9 pc: fa4b, reg_addr: fa65, cycle:  17414
fa4b 30 18 90 BMI  REL   A:ff X: 2 Y:9f P:27 S:f9 pc: fa4d, reg_addr: fa65, cycle:  17416
fa4d 90 16 c9 BCC  REL   A:ff X: 2 Y:9f P:27 S:f9 pc: fa4f, reg_addr: fa65, cycle:  17418
fa4f c9 ff d0 CMP  IMM   A:ff X: 2 Y:9f P:27 S:f9 pc: fa51, reg_addr:   ff, cycle:  17420
fa51 d0 12 60 BNE  REL   A:ff X: 2 Y:9f P:27 S:f9 pc: fa53, reg_addr: fa65, cycle:  17422
fa53 60 24  1 RTS  IMPL  A:ff X: 2 Y:9f P:27 S:f9 pc: ea54, reg_addr:    0, cycle:  17428
ea54 ad 47  6 LDA  ABS   A:ff X: 2 Y:9f P:27 S:fb pc: ea57, reg_addr:  647, cycle:  17432
ea57 c9 ff f0 CMP  IMM   A:ff X: 2 Y:9f P:a5 S:fb pc: ea59, reg_addr:   ff, cycle:  17434
ea59 f0  2 84 BEQ  REL   A:ff X: 2 Y:9f P:27 S:fb pc: ea5d, reg_addr: ea5d, cycle:  17437
ea5d a0 ff a9 LDY  IMM   A:ff X: 2 Y:9f P:27 S:fb pc: ea5f, reg_addr:   ff, cycle:  17439
ea5f a9 37 8d LDA  IMM   A:ff X: 2 Y:ff P:a5 S:fb pc: ea61, reg_addr:   37, cycle:  17441
ea61 8d 47  6 STA  ABS   A:37 X: 2 Y:ff P:25 S:fb pc: ea64, reg_addr:  647, cycle:  17445
ea64 20 54 fa JSR  ABS   A:37 X: 2 Y:ff P:25 S:fb pc: fa54, reg_addr: fa54, cycle:  17451
fa54 24  1 a9 BIT  ZP    A:37 X: 2 Y:ff P:25 S:f9 pc: fa56, reg_addr:    1, cycle:  17454
fa56 a9 f0 60 LDA  IMM   A:37 X: 2 Y:ff P:e5 S:f9 pc: fa58, reg_addr:   f0, cycle:  17456
fa58 60 50  a RTS  IMPL  A:f0 X: 2 Y:ff P:e5 S:f9 pc: ea67, reg_addr:    0, cycle:  17462
ea67 d3 45 ea DCP  INDY  A:f0 X: 2 Y:ff P:e5 S:fb pc: ea69, reg_addr:  647, cycle:  17471
ea69 ea ea  8 NOP  IMPL  A:f0 X: 2 Y:ff P:e5 S:fb pc: ea6a, reg_addr:    0, cycle:  17473
ea6a ea  8 48 NOP  IMPL  A:f0 X: 2 Y:ff P:e5 S:fb pc: ea6b, reg_addr:    0, cycle:  17475
ea6b  8 48 a0 PHP  IMPL  A:f0 X: 2 Y:ff P:e5 S:fb pc: ea6c, reg_addr:    0, cycle:  17478
ea6c 48 a0 a0 PHA  IMPL  A:f0 X: 2 Y:ff P:e5 S:fa pc: ea6d, reg_addr:    0, cycle:  17481
ea6d a0 a0 68 LDY  IMM   A:f0 X: 2 Y:ff P:e5 S:f9 pc: ea6f, reg_addr:   a0, cycle:  17483
ea6f 68 28 20 PLA  IMPL  A:f0 X: 2 Y:a0 P:e5 S:f9 pc: ea70, reg_addr:    0, cycle:  17487
ea70 28 20 59 PLP  IMPL  A:f0 X: 2 Y:a0 P:e5 S:fa pc: ea71, reg_addr:    0, cycle:  17491
ea71 20 59 fa JSR  ABS   A:f0 X: 2 Y:a0 P:e5 S:fb pc: fa59, reg_addr: fa59, cycle:  17497
fa59 50  a f0 BVC  REL   A:f0 X: 2 Y:a0 P:e5 S:f9 pc: fa5b, reg_addr: fa65, cycle:  17499
fa5b f0  8 10 BEQ  REL   A:f0 X: 2 Y:a0 P:e5 S:f9 pc: fa5d, reg_addr: fa65, cycle:  17501
fa5d 10  6 90 BPL  REL   A:f0 X: 2 Y:a0 P:e5 S:f9 pc: fa5f, reg_addr: fa65, cycle:  17503
fa5f 90  4 c9 BCC  REL   A:f0 X: 2 Y:a0 P:e5 S:f9 pc: fa61, reg_addr: fa65, cycle:  17505
fa61 c9 f0 f0 CMP  IMM   A:f0 X: 2 Y:a0 P:e5 S:f9 pc: fa63, reg_addr:   f0, cycle:  17507
fa63 f0  2 84 BEQ  REL   A:f0 X: 2 Y:a0 P:67 S:f9 pc: fa67, reg_addr: fa67, cycle:  17510
fa67 60 24  1 RTS  IMPL  A:f0 X: 2 Y:a0 P:67 S:f9 pc: ea74, reg_addr:    0, cycle:  17516
ea74 ad 47  6 LDA  ABS   A:f0 X: 2 Y:a0 P:67 S:fb pc: ea77, reg_addr:  647, cycle:  17520
ea77 c9 36 f0 CMP  IMM   A:36 X: 2 Y:a0 P:65 S:fb pc: ea79, reg_addr:   36, cycle:  17522
ea79 f0  2 84 BEQ  REL   A:36 X: 2 Y:a0 P:67 S:fb pc: ea7d, reg_addr: ea7d, cycle:  17525
ea7d a0 a1 a2 LDY  IMM   A:36 X: 2 Y:a0 P:67 S:fb pc: ea7f, reg_addr:   a1, cycle:  17527
ea7f a2 ff a9 LDX  IMM   A:36 X: 2 Y:a1 P:e5 S:fb pc: ea81, reg_addr:   ff, cycle:  17529
ea81 a9 eb 85 LDA  IMM   A:36 X:ff Y:a1 P:e5 S:fb pc: ea83, reg_addr:   eb, cycle:  17531
ea83 85 47 20 STA  ZP    A:eb X:ff Y:a1 P:e5 S:fb pc: ea85, reg_addr:   47, cycle:  17534
ea85 20 31 fa JSR  ABS   A:eb X:ff Y:a1 P:e5 S:fb pc: fa31, reg_addr: fa31, cycle:  17540
fa31 24  1 18 BIT  ZP    A:eb X:ff Y:a1 P:e5 S:f9 pc: fa33, reg_addr:    1, cycle:  17543
fa33 18 a9 40 CLC  IMPL  A:eb X:ff Y:a1 P:e5 S:f9 pc: fa34, reg_addr:    0, cycle:  17545
fa34 a9 40 60 LDA  IMM   A:eb X:ff Y:a1 P:e4 S:f9 pc: fa36, reg_addr:   40, cycle:  17547
fa36 60 50 2c RTS  IMPL  A:40 X:ff Y:a1 P:64 S:f9 pc: ea88, reg_addr:    0, cycle:  17553
ea88 d7 48 ea DCP  ZPX   A:40 X:ff Y:a1 P:64 S:fb pc: ea8a, reg_addr:   47, cycle:  17559
ea8a ea ea ea NOP  IMPL  A:40 X:ff Y:a1 P:64 S:fb pc: ea8b, reg_addr:    0, cycle:  17561
ea8b ea ea ea NOP  IMPL  A:40 X:ff Y:a1 P:64 S:fb pc: ea8c, reg_addr:    0, cycle:  17563
ea8c ea ea 20 NOP  IMPL  A:40 X:ff Y:a1 P:64 S:fb pc: ea8d, reg_addr:    0, cycle:  17565
ea8d ea 20 37 NOP  IMPL  A:40 X:ff Y:a1 P:64 S:fb pc: ea8e, reg_addr:    0, cycle:  17567
ea8e 20 37 fa JSR  ABS   A:40 X:ff Y:a1 P:64 S:fb pc: fa37, reg_addr: fa37, cycle:  17573
fa37 50 2c b0 BVC  REL   A:40 X:ff Y:a1 P:64 S:f9 pc: fa39, reg_addr: fa65, cycle:  17575
fa39 b0 2a 30 BCS  REL   A:40 X:ff Y:a1 P:64 S:f9 pc: fa3b, reg_addr: fa65, cycle:  17577
fa3b 30 28 c9 BMI  REL   A:40 X:ff Y:a1 P:64 S:f9 pc: fa3d, reg_addr: fa65, cycle:  17579
fa3d c9 40 d0 CMP  IMM   A:40 X:ff Y:a1 P:64 S:f9 pc: fa3f, reg_addr:   40, cycle:  17581
fa3f d0 24 60 BNE  REL   A:40 X:ff Y:a1 P:67 S:f9 pc: fa41, reg_addr: fa65, cycle:  17583
fa41 60 b8 38 RTS  IMPL  A:40 X:ff Y:a1 P:67 S:f9 pc: ea91, reg_addr:    0, cycle:  17589
ea91 a5 47 c9 LDA  ZP    A:40 X:ff Y:a1 P:67 S:fb pc: ea93, reg_addr:   47, cycle:  17592
ea93 c9 ea f0 CMP  IMM   A:ea X:ff Y:a1 P:e5 S:fb pc: ea95, reg_addr:   ea, cycle:  17594
ea95 f0  2 84 BEQ  REL   A:ea X:ff Y:a1 P:67 S:fb pc: ea99, reg_addr: ea99, cycle:  17597
ea99 c8 a9  0 INY  IMPL  A:ea X:ff Y:a1 P:67 S:fb pc: ea9a, reg_addr:    0, cycle:  17599
ea9a a9  0 85 LDA  IMM   A:ea X:ff Y:a2 P:e5 S:fb pc: ea9c, reg_addr:    0, cycle:  17601
ea9c 85 47 20 STA  ZP    A: 0 X:ff Y:a2 P:67 S:fb pc: ea9e, reg_addr:   47, cycle:  17604
ea9e 20 42 fa JSR  ABS   A: 0 X:ff Y:a2 P:67 S:fb pc: fa42, reg_addr: fa42, cycle:  17610
fa42 b8 38 a9 CLV  IMPL  A: 0 X:ff Y:a2 P:67 S:f9 pc: fa43, reg_addr:    0, cycle:  17612
fa43 38 a9 ff SEC  IMPL  A: 0 X:ff Y:a2 P:27 S:f9 pc: fa44, reg_addr:    0, cycle:  17614
fa44 a9 ff 60 LDA  IMM   A: 0 X:ff Y:a2 P:27 S:f9 pc: fa46, reg_addr:   ff, cycle:  17616
fa46 60 70 1c RTS  IMPL  A:ff X:ff Y:a2 P:a5 S:f9 pc: eaa1, reg_addr:    0, cycle:  17622
eaa1 d7 48 ea DCP  ZPX   A:ff X:ff Y:a2 P:a5 S:fb pc: eaa3, reg_addr:   47, cycle:  17628
eaa3 ea ea ea NOP  IMPL  A:ff X:ff Y:a2 P:27 S:fb pc: eaa4, reg_addr:    0, cycle:  17630
eaa4 ea ea ea NOP  IMPL  A:ff X:ff Y:a2 P:27 S:fb pc: eaa5, reg_addr:    0, cycle:  17632
eaa5 ea ea 20 NOP  IMPL  A:ff X:ff Y:a2 P:27 S:fb pc: eaa6, reg_addr:    0, cycle:  17634
eaa6 ea 20 47 NOP  IMPL  A:ff X:ff Y:a2 P:27 S:fb pc: eaa7, reg_addr:    0, cycle:  17636
eaa7 20 47 fa JSR  ABS   A:ff X:ff Y:a2 P:27 S:fb pc: fa47, reg_addr: fa47, cycle:  17642
fa47 70 1c d0 BVS  REL   A:ff X:ff Y:a2 P:27 S:f9 pc: fa49, reg_addr: fa65, cycle:  17644
fa49 d0 1a 30 BNE  REL   A:ff X:ff Y:a2 P:27 S:f9 pc: fa4b, reg_addr: fa65, cycle:  17646
fa4b 30 18 90 BMI  REL   A:ff X:ff Y:a2 P:27 S:f9 pc: fa4d, reg_addr: fa65, cycle:  17648
fa4d 90 16 c9 BCC  REL   A:ff X:ff Y:a2 P:27 S:f9 pc: fa4f, reg_addr: fa65, cycle:  17650
fa4f c9 ff d0 CMP  IMM   A:ff X:ff Y:a2 P:27 S:f9 pc: fa51, reg_addr:   ff, cycle:  17652
fa51 d0 12 60 BNE  REL   A:ff X:ff Y:a2 P:27 S:f9 pc: fa53, reg_addr: fa65, cycle:  17654
fa53 60 24  1 RTS  IMPL  A:ff X:ff Y:a2 P:27 S:f9 pc: eaaa, reg_addr:    0, cycle:  17660
eaaa a5 47 c9 LDA  ZP    A:ff X:ff Y:a2 P:27 S:fb pc: eaac, reg_addr:   47, cycle:  17663
eaac c9 ff f0 CMP  IMM   A:ff X:ff Y:a2 P:a5 S:fb pc: eaae, reg_addr:   ff, cycle:  17665
eaae f0  2 84 BEQ  REL   A:ff X:ff Y:a2 P:27 S:fb pc: eab2, reg_addr: eab2, cycle:  17668
eab2 c8 a9 37 INY  IMPL  A:ff X:ff Y:a2 P:27 S:fb pc: eab3, reg_addr:    0, cycle:  17670
eab3 a9 37 85 LDA  IMM   A:ff X:ff Y:a3 P:a5 S:fb pc: eab5, reg_addr:   37, cycle:  17672
eab5 85 47 20 STA  ZP    A:37 X:ff Y:a3 P:25 S:fb pc: eab7, reg_addr:   47, cycle:  17675
eab7 20 54 fa JSR  ABS   A:37 X:ff Y:a3 P:25 S:fb pc: fa54, reg_addr: fa54, cycle:  17681
fa54 24  1 a9 BIT  ZP    A:37 X:ff Y:a3 P:25 S:f9 pc: fa56, reg_addr:    1, cycle:  17684
fa56 a9 f0 60 LDA  IMM   A:37 X:ff Y:a3 P:e5 S:f9 pc: fa58, reg_addr:   f0, cycle:  17686
fa58 60 50  a RTS  IMPL  A:f0 X:ff Y:a3 P:e5 S:f9 pc: eaba, reg_addr:    0, cycle:  17692
eaba d7 48 ea DCP  ZPX   A:f0 X:ff Y:a3 P:e5 S:fb pc: eabc, reg_addr:   47, cycle:  17698
eabc ea ea ea NOP  IMPL  A:f0 X:ff Y:a3 P:e5 S:fb pc: eabd, reg_addr:    0, cycle:  17700
eabd ea ea ea NOP  IMPL  A:f0 X:ff Y:a3 P:e5 S:fb pc: eabe, reg_addr:    0, cycle:  17702
eabe ea ea 20 NOP  IMPL  A:f0 X:ff Y:a3 P:e5 S:fb pc: eabf, reg_addr:    0, cycle:  17704
eabf ea 20 59 NOP  IMPL  A:f0 X:ff Y:a3 P:e5 S:fb pc: eac0, reg_addr:    0, cycle:  17706
eac0 20 59 fa JSR  ABS   A:f0 X:ff Y:a3 P:e5 S:fb pc: fa59, reg_addr: fa59, cycle:  17712
fa59 50  a f0 BVC  REL   A:f0 X:ff Y:a3 P:e5 S:f9 pc: fa5b, reg_addr: fa65, cycle:  17714
fa5b f0  8 10 BEQ  REL   A:f0 X:ff Y:a3 P:e5 S:f9 pc: fa5d, reg_addr: fa65, cycle:  17716
fa5d 10  6 90 BPL  REL   A:f0 X:ff Y:a3 P:e5 S:f9 pc: fa5f, reg_addr: fa65, cycle:  17718
fa5f 90  4 c9 BCC  REL   A:f0 X:ff Y:a3 P:e5 S:f9 pc: fa61, reg_addr: fa65, cycle:  17720
fa61 c9 f0 f0 CMP  IMM   A:f0 X:ff Y:a3 P:e5 S:f9 pc: fa63, reg_addr:   f0, cycle:  17722
fa63 f0  2 84 BEQ  REL   A:f0 X:ff Y:a3 P:67 S:f9 pc: fa67, reg_addr: fa67, cycle:  17725
fa67 60 24  1 RTS  IMPL  A:f0 X:ff Y:a3 P:67 S:f9 pc: eac3, reg_addr:    0, cycle:  17731
eac3 a5 47 c9 LDA  ZP    A:f0 X:ff Y:a3 P:67 S:fb pc: eac5, reg_addr:   47, cycle:  17734
eac5 c9 36 f0 CMP  IMM   A:36 X:ff Y:a3 P:65 S:fb pc: eac7, reg_addr:   36, cycle:  17736
eac7 f0  2 84 BEQ  REL   A:36 X:ff Y:a3 P:67 S:fb pc: eacb, reg_addr: eacb, cycle:  17739
eacb a9 eb 8d LDA  IMM   A:36 X:ff Y:a3 P:67 S:fb pc: eacd, reg_addr:   eb, cycle:  17741
eacd 8d 47  6 STA  ABS   A:eb X:ff Y:a3 P:e5 S:fb pc: ead0, reg_addr:  647, cycle:  17745
ead0 a0 ff 20 LDY  IMM   A:eb X:ff Y:a3 P:e5 S:fb pc: ead2, reg_addr:   ff, cycle:  17747
ead2 20 31 fa JSR  ABS   A:eb X:ff Y:ff P:e5 S:fb pc: fa31, reg_addr: fa31, cycle:  17753
fa31 24  1 18 BIT  ZP    A:eb X:ff Y:ff P:e5 S:f9 pc: fa33, reg_addr:    1, cycle:  17756
fa33 18 a9 40 CLC  IMPL  A:eb X:ff Y:ff P:e5 S:f9 pc: fa34, reg_addr:    0, cycle:  17758
fa34 a9 40 60 LDA  IMM   A:eb X:ff Y:ff P:e4 S:f9 pc: fa36, reg_addr:   40, cycle:  17760
fa36 60 50 2c RTS  IMPL  A:40 X:ff Y:ff P:64 S:f9 pc: ead5, reg_addr:    0, cycle:  17766
ead5 db 48  5 DCP  ABSY  A:40 X:ff Y:ff P:64 S:fb pc: ead8, reg_addr:  647, cycle:  17774
ead8 ea ea  8 NOP  IMPL  A:40 X:ff Y:ff P:64 S:fb pc: ead9, reg_addr:    0, cycle:  17776
ead9 ea  8 48 NOP  IMPL  A:40 X:ff Y:ff P:64 S:fb pc: eada, reg_addr:    0, cycle:  17778
eada  8 48 a0 PHP  IMPL  A:40 X:ff Y:ff P:64 S:fb pc: eadb, reg_addr:    0, cycle:  17781
eadb 48 a0 a4 PHA  IMPL  A:40 X:ff Y:ff P:64 S:fa pc: eadc, reg_addr:    0, cycle:  17784
eadc a0 a4 68 LDY  IMM   A:40 X:ff Y:ff P:64 S:f9 pc: eade, reg_addr:   a4, cycle:  17786
eade 68 28 20 PLA  IMPL  A:40 X:ff Y:a4 P:e4 S:f9 pc: eadf, reg_addr:    0, cycle:  17790
eadf 28 20 37 PLP  IMPL  A:40 X:ff Y:a4 P:64 S:fa pc: eae0, reg_addr:    0, cycle:  17794
eae0 20 37 fa JSR  ABS   A:40 X:ff Y:a4 P:64 S:fb pc: fa37, reg_addr: fa37, cycle:  17800
fa37 50 2c b0 BVC  REL   A:40 X:ff Y:a4 P:64 S:f9 pc: fa39, reg_addr: fa65, cycle:  17802
fa39 b0 2a 30 BCS  REL   A:40 X:ff Y:a4 P:64 S:f9 pc: fa3b, reg_addr: fa65, cycle:  17804
fa3b 30 28 c9 BMI  REL   A:40 X:ff Y:a4 P:64 S:f9 pc: fa3d, reg_addr: fa65, cycle:  17806
fa3d c9 40 d0 CMP  IMM   A:40 X:ff Y:a4 P:64 S:f9 pc: fa3f, reg_addr:   40, cycle:  17808
fa3f d0 24 60 BNE  REL   A:40 X:ff Y:a4 P:67 S:f9 pc: fa41, reg_addr: fa65, cycle:  17810
fa41 60 b8 38 RTS  IMPL  A:40 X:ff Y:a4 P:67 S:f9 pc: eae3, reg_addr:    0, cycle:  17816
eae3 ad 47  6 LDA  ABS   A:40 X:ff Y:a4 P:67 S:fb pc: eae6, reg_addr:  647, cycle:  17820
eae6 c9 ea f0 CMP  IMM   A:ea X:ff Y:a4 P:e5 S:fb pc: eae8, reg_addr:   ea, cycle:  17822
eae8 f0  2 84 BEQ  REL   A:ea X:ff Y:a4 P:67 S:fb pc: eaec, reg_addr: eaec, cycle:  17825
eaec a0 ff a9 LDY  IMM   A:ea X:ff Y:a4 P:67 S:fb pc: eaee, reg_addr:   ff, cycle:  17827
eaee a9  0 8d LDA  IMM   A:ea X:ff Y:ff P:e5 S:fb pc: eaf0, reg_addr:    0, cycle:  17829
eaf0 8d 47  6 STA  ABS   A: 0 X:ff Y:ff P:67 S:fb pc: eaf3, reg_addr:  647, cycle:  17833
eaf3 20 42 fa JSR  ABS   A: 0 X:ff Y:ff P:67 S:fb pc: fa42, reg_addr: fa42, cycle:  17839
fa42 b8 38 a9 CLV  IMPL  A: 0 X:ff Y:ff P:67 S:f9 pc: fa43, reg_addr:    0, cycle:  17841
fa43 38 a9 ff SEC  IMPL  A: 0 X:ff Y:ff P:27 S:f9 pc: fa44, reg_addr:    0, cycle:  17843
fa44 a9 ff 60 LDA  IMM   A: 0 X:ff Y:ff P:27 S:f9 pc: fa46, reg_addr:   ff, cycle:  17845
fa46 60 70 1c RTS  IMPL  A:ff X:ff Y:ff P:a5 S:f9 pc: eaf6, reg_addr:    0, cycle:  17851
eaf6 db 48  5 DCP  ABSY  A:ff X:ff Y:ff P:a5 S:fb pc: eaf9, reg_addr:  647, cycle:  17859
eaf9 ea ea  8 NOP  IMPL  A:ff X:ff Y:ff P:27 S:fb pc: eafa, reg_addr:    0, cycle:  17861
eafa ea  8 48 NOP  IMPL  A:ff X:ff Y:ff P:27 S:fb pc: eafb, reg_addr:    0, cycle:  17863
eafb  8 48 a0 PHP  IMPL  A:ff X:ff Y:ff P:27 S:fb pc: eafc, reg_addr:    0, cycle:  17866
eafc 48 a0 a5 PHA  IMPL  A:ff X:ff Y:ff P:27 S:fa pc: eafd, reg_addr:    0, cycle:  17869
eafd a0 a5 68 LDY  IMM   A:ff X:ff Y:ff P:27 S:f9 pc: eaff, reg_addr:   a5, cycle:  17871
eaff 68 28 20 PLA  IMPL  A:ff X:ff Y:a5 P:a5 S:f9 pc: eb00, reg_addr:    0, cycle:  17875
eb00 28 20 47 PLP  IMPL  A:ff X:ff Y:a5 P:a5 S:fa pc: eb01, reg_addr:    0, cycle:  17879
eb01 20 47 fa JSR  ABS   A:ff X:ff Y:a5 P:27 S:fb pc: fa47, reg_addr: fa47, cycle:  17885
fa47 70 1c d0 BVS  REL   A:ff X:ff Y:a5 P:27 S:f9 pc: fa49, reg_addr: fa65, cycle:  17887
fa49 d0 1a 30 BNE  REL   A:ff X:ff Y:a5 P:27 S:f9 pc: fa4b, reg_addr: fa65, cycle:  17889
fa4b 30 18 90 BMI  REL   A:ff X:ff Y:a5 P:27 S:f9 pc: fa4d, reg_addr: fa65, cycle:  17891
fa4d 90 16 c9 BCC  REL   A:ff X:ff Y:a5 P:27 S:f9 pc: fa4f, reg_addr: fa65, cycle:  17893
fa4f c9 ff d0 CMP  IMM   A:ff X:ff Y:a5 P:27 S:f9 pc: fa51, reg_addr:   ff, cycle:  17895
fa51 d0 12 60 BNE  REL   A:ff X:ff Y:a5 P:27 S:f9 pc: fa53, reg_addr: fa65, cycle:  17897
fa53 60 24  1 RTS  IMPL  A:ff X:ff Y:a5 P:27 S:f9 pc: eb04, reg_addr:    0, cycle:  17903
eb04 ad 47  6 LDA  ABS   A:ff X:ff Y:a5 P:27 S:fb pc: eb07, reg_addr:  647, cycle:  17907
eb07 c9 ff f0 CMP  IMM   A:ff X:ff Y:a5 P:a5 S:fb pc: eb09, reg_addr:   ff, cycle:  17909
eb09 f0  2 84 BEQ  REL   A:ff X:ff Y:a5 P:27 S:fb pc: eb0d, reg_addr: eb0d, cycle:  17912
eb0d a0 ff a9 LDY  IMM   A:ff X:ff Y:a5 P:27 S:fb pc: eb0f, reg_addr:   ff, cycle:  17914
eb0f a9 37 8d LDA  IMM   A:ff X:ff Y:ff P:a5 S:fb pc: eb11, reg_addr:   37, cycle:  17916
eb11 8d 47  6 STA  ABS   A:37 X:ff Y:ff P:25 S:fb pc: eb14, reg_addr:  647, cycle:  17920
eb14 20 54 fa JSR  ABS   A:37 X:ff Y:ff P:25 S:fb pc: fa54, reg_addr: fa54, cycle:  17926
fa54 24  1 a9 BIT  ZP    A:37 X:ff Y:ff P:25 S:f9 pc: fa56, reg_addr:    1, cycle:  17929
fa56 a9 f0 60 LDA  IMM   A:37 X:ff Y:ff P:e5 S:f9 pc: fa58, reg_addr:   f0, cycle:  17931
fa58 60 50  a RTS  IMPL  A:f0 X:ff Y:ff P:e5 S:f9 pc: eb17, reg_addr:    0, cycle:  17937
eb17 db 48  5 DCP  ABSY  A:f0 X:ff Y:ff P:e5 S:fb pc: eb1a, reg_addr:  647, cycle:  17945
eb1a ea ea  8 NOP  IMPL  A:f0 X:ff Y:ff P:e5 S:fb pc: eb1b, reg_addr:    0, cycle:  17947
eb1b ea  8 48 NOP  IMPL  A:f0 X:ff Y:ff P:e5 S:fb pc: eb1c, reg_addr:    0, cycle:  17949
eb1c  8 48 a0 PHP  IMPL  A:f0 X:ff Y:ff P:e5 S:fb pc: eb1d, reg_addr:    0, cycle:  17952
eb1d 48 a0 a6 PHA  IMPL  A:f0 X:ff Y:ff P:e5 S:fa pc: eb1e, reg_addr:    0, cycle:  17955
eb1e a0 a6 68 LDY  IMM   A:f0 X:ff Y:ff P:e5 S:f9 pc: eb20, reg_addr:   a6, cycle:  17957
eb20 68 28 20 PLA  IMPL  A:f0 X:ff Y:a6 P:e5 S:f9 pc: eb21, reg_addr:    0, cycle:  17961
eb21 28 20 59 PLP  IMPL  A:f0 X:ff Y:a6 P:e5 S:fa pc: eb22, reg_addr:    0, cycle:  17965
eb22 20 59 fa JSR  ABS   A:f0 X:ff Y:a6 P:e5 S:fb pc: fa59, reg_addr: fa59, cycle:  17971
fa59 50  a f0 BVC  REL   A:f0 X:ff Y:a6 P:e5 S:f9 pc: fa5b, reg_addr: fa65, cycle:  17973
fa5b f0  8 10 BEQ  REL   A:f0 X:ff Y:a6 P:e5 S:f9 pc: fa5d, reg_addr: fa65, cycle:  17975
fa5d 10  6 90 BPL  REL   A:f0 X:ff Y:a6 P:e5 S:f9 pc: fa5f, reg_addr: fa65, cycle:  17977
fa5f 90  4 c9 BCC  REL   A:f0 X:ff Y:a6 P:e5 S:f9 pc: fa61, reg_addr: fa65, cycle:  17979
fa61 c9 f0 f0 CMP  IMM   A:f0 X:ff Y:a6 P:e5 S:f9 pc: fa63, reg_addr:   f0, cycle:  17981
fa63 f0  2 84 BEQ  REL   A:f0 X:ff Y:a6 P:67 S:f9 pc: fa67, reg_addr: fa67, cycle:  17984
fa67 60 24  1 RTS  IMPL  A:f0 X:ff Y:a6 P:67 S:f9 pc: eb25, reg_addr:    0, cycle:  17990
eb25 ad 47  6 LDA  ABS   A:f0 X:ff Y:a6 P:67 S:fb pc: eb28, reg_addr:  647, cycle:  17994
eb28 c9 36 f0 CMP  IMM   A:36 X:ff Y:a6 P:65 S:fb pc: eb2a, reg_addr:   36, cycle:  17996
eb2a f0  2 84 BEQ  REL   A:36 X:ff Y:a6 P:67 S:fb pc: eb2e, reg_addr: eb2e, cycle:  17999
eb2e a0 a7 a2 LDY  IMM   A:36 X:ff Y:a6 P:67 S:fb pc: eb30, reg_addr:   a7, cycle:  18001
eb30 a2 ff a9 LDX  IMM   A:36 X:ff Y:a7 P:e5 S:fb pc: eb32, reg_addr:   ff, cycle:  18003
eb32 a9 eb 8d LDA  IMM   A:36 X:ff Y:a7 P:e5 S:fb pc: eb34, reg_addr:   eb, cycle:  18005
eb34 8d 47  6 STA  ABS   A:eb X:ff Y:a7 P:e5 S:fb pc: eb37, reg_addr:  647, cycle:  18009
eb37 20 31 fa JSR  ABS   A:eb X:ff Y:a7 P:e5 S:fb pc: fa31, reg_addr: fa31, cycle:  18015
fa31 24  1 18 BIT  ZP    A:eb X:ff Y:a7 P:e5 S:f9 pc: fa33, reg_addr:    1, cycle:  18018
fa33 18 a9 40 CLC  IMPL  A:eb X:ff Y:a7 P:e5 S:f9 pc: fa34, reg_addr:    0, cycle:  18020
fa34 a9 40 60 LDA  IMM   A:eb X:ff Y:a7 P:e4 S:f9 pc: fa36, reg_addr:   40, cycle:  18022
fa36 60 50 2c RTS  IMPL  A:40 X:ff Y:a7 P:64 S:f9 pc: eb3a, reg_addr:    0, cycle:  18028
eb3a df 48  5 DCP  ABSX  A:40 X:ff Y:a7 P:64 S:fb pc: eb3d, reg_addr:  647, cycle:  18036
eb3d ea ea ea NOP  IMPL  A:40 X:ff Y:a7 P:64 S:fb pc: eb3e, reg_addr:    0, cycle:  18038
eb3e ea ea ea NOP  IMPL  A:40 X:ff Y:a7 P:64 S:fb pc: eb3f, reg_addr:    0, cycle:  18040
eb3f ea ea 20 NOP  IMPL  A:40 X:ff Y:a7 P:64 S:fb pc: eb40, reg_addr:    0, cycle:  18042
eb40 ea 20 37 NOP  IMPL  A:40 X:ff Y:a7 P:64 S:fb pc: eb41, reg_addr:    0, cycle:  18044
eb41 20 37 fa JSR  ABS   A:40 X:ff Y:a7 P:64 S:fb pc: fa37, reg_addr: fa37, cycle:  18050
fa37 50 2c b0 BVC  REL   A:40 X:ff Y:a7 P:64 S:f9 pc: fa39, reg_addr: fa65, cycle:  18052
fa39 b0 2a 30 BCS  REL   A:40 X:ff Y:a7 P:64 S:f9 pc: fa3b, reg_addr: fa65, cycle:  18054
fa3b 30 28 c9 BMI  REL   A:40 X:ff Y:a7 P:64 S:f9 pc: fa3d, reg_addr: fa65, cycle:  18056
fa3d c9 40 d0 CMP  IMM   A:40 X:ff Y:a7 P:64 S:f9 pc: fa3f, reg_addr:   40, cycle:  18058
fa3f d0 24 60 BNE  REL   A:40 X:ff Y:a7 P:67 S:f9 pc: fa41, reg_addr: fa65, cycle:  18060
fa41 60 b8 38 RTS  IMPL  A:40 X:ff Y:a7 P:67 S:f9 pc: eb44, reg_addr:    0, cycle:  18066
eb44 ad 47  6 LDA  ABS   A:40 X:ff Y:a7 P:67 S:fb pc: eb47, reg_addr:  647, cycle:  18070
eb47 c9 ea f0 CMP  IMM   A:ea X:ff Y:a7 P:e5 S:fb pc: eb49, reg_addr:   ea, cycle:  18072
eb49 f0  2 84 BEQ  REL   A:ea X:ff Y:a7 P:67 S:fb pc: eb4d, reg_addr: eb4d, cycle:  18075
eb4d c8 a9  0 INY  IMPL  A:ea X:ff Y:a7 P:67 S:fb pc: eb4e, reg_addr:    0, cycle:  18077
eb4e a9  0 8d LDA  IMM   A:ea X:ff Y:a8 P:e5 S:fb pc: eb50, reg_addr:    0, cycle:  18079
eb50 8d 47  6 STA  ABS   A: 0 X:ff Y:a8 P:67 S:fb pc: eb53, reg_addr:  647, cycle:  18083
eb53 20 42 fa JSR  ABS   A: 0 X:ff Y:a8 P:67 S:fb pc: fa42, reg_addr: fa42, cycle:  18089
fa42 b8 38 a9 CLV  IMPL  A: 0 X:ff Y:a8 P:67 S:f9 pc: fa43, reg_addr:    0, cycle:  18091
fa43 38 a9 ff SEC  IMPL  A: 0 X:ff Y:a8 P:27 S:f9 pc: fa44, reg_addr:    0, cycle:  18093
fa44 a9 ff 60 LDA  IMM   A: 0 X:ff Y:a8 P:27 S:f9 pc: fa46, reg_addr:   ff, cycle:  18095
fa46 60 70 1c RTS  IMPL  A:ff X:ff Y:a8 P:a5 S:f9 pc: eb56, reg_addr:    0, cycle:  18101
eb56 df 48  5 DCP  ABSX  A:ff X:ff Y:a8 P:a5 S:fb pc: eb59, reg_addr:  647, cycle:  18109
eb59 ea ea ea NOP  IMPL  A:ff X:ff Y:a8 P:27 S:fb pc: eb5a, reg_addr:    0, cycle:  18111
eb5a ea ea ea NOP  IMPL  A:ff X:ff Y:a8 P:27 S:fb pc: eb5b, reg_addr:    0, cycle:  18113
eb5b ea ea 20 NOP  IMPL  A:ff X:ff Y:a8 P:27 S:fb pc: eb5c, reg_addr:    0, cycle:  18115
eb5c ea 20 47 NOP  IMPL  A:ff X:ff Y:a8 P:27 S:fb pc: eb5d, reg_addr:    0, cycle:  18117
eb5d 20 47 fa JSR  ABS   A:ff X:ff Y:a8 P:27 S:fb pc: fa47, reg_addr: fa47, cycle:  18123
fa47 70 1c d0 BVS  REL   A:ff X:ff Y:a8 P:27 S:f9 pc: fa49, reg_addr: fa65, cycle:  18125
fa49 d0 1a 30 BNE  REL   A:ff X:ff Y:a8 P:27 S:f9 pc: fa4b, reg_addr: fa65, cycle:  18127
fa4b 30 18 90 BMI  REL   A:ff X:ff Y:a8 P:27 S:f9 pc: fa4d, reg_addr: fa65, cycle:  18129
fa4d 90 16 c9 BCC  REL   A:ff X:ff Y:a8 P:27 S:f9 pc: fa4f, reg_addr: fa65, cycle:  18131
fa4f c9 ff d0 CMP  IMM   A:ff X:ff Y:a8 P:27 S:f9 pc: fa51, reg_addr:   ff, cycle:  18133
fa51 d0 12 60 BNE  REL   A:ff X:ff Y:a8 P:27 S:f9 pc: fa53, reg_addr: fa65, cycle:  18135
fa53 60 24  1 RTS  IMPL  A:ff X:ff Y:a8 P:27 S:f9 pc: eb60, reg_addr:    0, cycle:  18141
eb60 ad 47  6 LDA  ABS   A:ff X:ff Y:a8 P:27 S:fb pc: eb63, reg_addr:  647, cycle:  18145
eb63 c9 ff f0 CMP  IMM   A:ff X:ff Y:a8 P:a5 S:fb pc: eb65, reg_addr:   ff, cycle:  18147
eb65 f0  2 84 BEQ  REL   A:ff X:ff Y:a8 P:27 S:fb pc: eb69, reg_addr: eb69, cycle:  18150
eb69 c8 a9 37 INY  IMPL  A:ff X:ff Y:a8 P:27 S:fb pc: eb6a, reg_addr:    0, cycle:  18152
eb6a a9 37 8d LDA  IMM   A:ff X:ff Y:a9 P:a5 S:fb pc: eb6c, reg_addr:   37, cycle:  18154
eb6c 8d 47  6 STA  ABS   A:37 X:ff Y:a9 P:25 S:fb pc: eb6f, reg_addr:  647, cycle:  18158
eb6f 20 54 fa JSR  ABS   A:37 X:ff Y:a9 P:25 S:fb pc: fa54, reg_addr: fa54, cycle:  18164
fa54 24  1 a9 BIT  ZP    A:37 X:ff Y:a9 P:25 S:f9 pc: fa56, reg_addr:    1, cycle:  18167
fa56 a9 f0 60 LDA  IMM   A:37 X:ff Y:a9 P:e5 S:f9 pc: fa58, reg_addr:   f0, cycle:  18169
fa58 60 50  a RTS  IMPL  A:f0 X:ff Y:a9 P:e5 S:f9 pc: eb72, reg_addr:    0, cycle:  18175
eb72 df 48  5 DCP  ABSX  A:f0 X:ff Y:a9 P:e5 S:fb pc: eb75, reg_addr:  647, cycle:  18183
eb75 ea ea ea NOP  IMPL  A:f0 X:ff Y:a9 P:e5 S:fb pc: eb76, reg_addr:    0, cycle:  18185
eb76 ea ea ea NOP  IMPL  A:f0 X:ff Y:a9 P:e5 S:fb pc: eb77, reg_addr:    0, cycle:  18187
eb77 ea ea 20 NOP  IMPL  A:f0 X:ff Y:a9 P:e5 S:fb pc: eb78, reg_addr:    0, cycle:  18189
eb78 ea 20 59 NOP  IMPL  A:f0 X:ff Y:a9 P:e5 S:fb pc: eb79, reg_addr:    0, cycle:  18191
eb79 20 59 fa JSR  ABS   A:f0 X:ff Y:a9 P:e5 S:fb pc: fa59, reg_addr: fa59, cycle:  18197
fa59 50  a f0 BVC  REL   A:f0 X:ff Y:a9 P:e5 S:f9 pc: fa5b, reg_addr: fa65, cycle:  18199
fa5b f0  8 10 BEQ  REL   A:f0 X:ff Y:a9 P:e5 S:f9 pc: fa5d, reg_addr: fa65, cycle:  18201
fa5d 10  6 90 BPL  REL   A:f0 X:ff Y:a9 P:e5 S:f9 pc: fa5f, reg_addr: fa65, cycle:  18203
fa5f 90  4 c9 BCC  REL   A:f0 X:ff Y:a9 P:e5 S:f9 pc: fa61, reg_addr: fa65, cycle:  18205
fa61 c9 f0 f0 CMP  IMM   A:f0 X:ff Y:a9 P:e5 S:f9 pc: fa63, reg_addr:   f0, cycle:  18207
fa63 f0  2 84 BEQ  REL   A:f0 X:ff Y:a9 P:67 S:f9 pc: fa67, reg_addr: fa67, cycle:  18210
fa67 60 24  1 RTS  IMPL  A:f0 X:ff Y:a9 P:67 S:f9 pc: eb7c, reg_addr:    0, cycle:  18216
eb7c ad 47  6 LDA  ABS   A:f0 X:ff Y:a9 P:67 S:fb pc: eb7f, reg_addr:  647, cycle:  18220
eb7f c9 36 f0 CMP  IMM   A:36 X:ff Y:a9 P:65 S:fb pc: eb81, reg_addr:   36, cycle:  18222
eb81 f0  2 84 BEQ  REL   A:36 X:ff Y:a9 P:67 S:fb pc: eb85, reg_addr: eb85, cycle:  18225
eb85 60 a9 ff RTS  IMPL  A:36 X:ff Y:a9 P:67 S:fb pc: c63e, reg_addr:    0, cycle:  18231
c63e 20 86 eb JSR  ABS   A:36 X:ff Y:a9 P:67 S:fd pc: eb86, reg_addr: eb86, cycle:  18237
eb86 a9 ff 85 LDA  IMM   A:36 X:ff Y:a9 P:67 S:fb pc: eb88, reg_addr:   ff, cycle:  18239
eb88 85  1 a0 STA  ZP    A:ff X:ff Y:a9 P:e5 S:fb pc: eb8a, reg_addr:    1, cycle:  18242
eb8a a0 aa a2 LDY  IMM   A:ff X:ff Y:a9 P:e5 S:fb pc: eb8c, reg_addr:   aa, cycle:  18244
eb8c a2  2 a9 LDX  IMM   A:ff X:ff Y:aa P:e5 S:fb pc: eb8e, reg_addr:    2, cycle:  18246
eb8e a9 47 85 LDA  IMM   A:ff X: 2 Y:aa P:65 S:fb pc: eb90, reg_addr:   47, cycle:  18248
eb90 85 47 a9 STA  ZP    A:47 X: 2 Y:aa P:65 S:fb pc: eb92, reg_addr:   47, cycle:  18251
eb92 a9  6 85 LDA  IMM   A:47 X: 2 Y:aa P:65 S:fb pc: eb94, reg_addr:    6, cycle:  18253
eb94 85 48 a9 STA  ZP    A: 6 X: 2 Y:aa P:65 S:fb pc: eb96, reg_addr:   48, cycle:  18256
eb96 a9 eb 8d LDA  IMM   A: 6 X: 2 Y:aa P:65 S:fb pc: eb98, reg_addr:   eb, cycle:  18258
eb98 8d 47  6 STA  ABS   A:eb X: 2 Y:aa P:e5 S:fb pc: eb9b, reg_addr:  647, cycle:  18262
eb9b 20 b1 fa JSR  ABS   A:eb X: 2 Y:aa P:e5 S:fb pc: fab1, reg_addr: fab1, cycle:  18268
fab1 24  1 18 BIT  ZP    A:eb X: 2 Y:aa P:e5 S:f9 pc: fab3, reg_addr:    1, cycle:  18271
fab3 18 a9 40 CLC  IMPL  A:eb X: 2 Y:aa P:e5 S:f9 pc: fab4, reg_addr:    0, cycle:  18273
fab4 a9 40 60 LDA  IMM   A:eb X: 2 Y:aa P:e4 S:f9 pc: fab6, reg_addr:   40, cycle:  18275
fab6 60 70 2d RTS  IMPL  A:40 X: 2 Y:aa P:64 S:f9 pc: eb9e, reg_addr:    0, cycle:  18281
eb9e e3 45 ea ISB  INDX  A:40 X: 2 Y:aa P:64 S:fb pc: eba0, reg_addr:  647, cycle:  18289
eba0 ea ea ea NOP  IMPL  A:53 X: 2 Y:aa P:24 S:fb pc: eba1, reg_addr:    0, cycle:  18291
eba1 ea ea ea NOP  IMPL  A:53 X: 2 Y:aa P:24 S:fb pc: eba2, reg_addr:    0, cycle:  18293
eba2 ea ea 20 NOP  IMPL  A:53 X: 2 Y:aa P:24 S:fb pc: eba3, reg_addr:    0, cycle:  18295
eba3 ea 20 b7 NOP  IMPL  A:53 X: 2 Y:aa P:24 S:fb pc: eba4, reg_addr:    0, cycle:  18297
eba4 20 b7 fa JSR  ABS   A:53 X: 2 Y:aa P:24 S:fb pc: fab7, reg_addr: fab7, cycle:  18303
fab7 70 2d b0 BVS  REL   A:53 X: 2 Y:aa P:24 S:f9 pc: fab9, reg_addr: fae6, cycle:  18305
fab9 b0 2b 30 BCS  REL   A:53 X: 2 Y:aa P:24 S:f9 pc: fabb, reg_addr: fae6, cycle:  18307
fabb 30 29 c9 BMI  REL   A:53 X: 2 Y:aa P:24 S:f9 pc: fabd, reg_addr: fae6, cycle:  18309
fabd c9 53 d0 CMP  IMM   A:53 X: 2 Y:aa P:24 S:f9 pc: fabf, reg_addr:   53, cycle:  18311
fabf d0 25 60 BNE  REL   A:53 X: 2 Y:aa P:27 S:f9 pc: fac1, reg_addr: fae6, cycle:  18313
fac1 60 b8 38 RTS  IMPL  A:53 X: 2 Y:aa P:27 S:f9 pc: eba7, reg_addr:    0, cycle:  18319
eba7 ad 47  6 LDA  ABS   A:53 X: 2 Y:aa P:27 S:fb pc: ebaa, reg_addr:  647, cycle:  18323
ebaa c9 ec f0 CMP  IMM   A:ec X: 2 Y:aa P:a5 S:fb pc: ebac, reg_addr:   ec, cycle:  18325
ebac f0  2 84 BEQ  REL   A:ec X: 2 Y:aa P:27 S:fb pc: ebb0, reg_addr: ebb0, cycle:  18328
ebb0 c8 a9 ff INY  IMPL  A:ec X: 2 Y:aa P:27 S:fb pc: ebb1, reg_addr:    0, cycle:  18330
ebb1 a9 ff 8d LDA  IMM   A:ec X: 2 Y:ab P:a5 S:fb pc: ebb3, reg_addr:   ff, cycle:  18332
ebb3 8d 47  6 STA  ABS   A:ff X: 2 Y:ab P:a5 S:fb pc: ebb6, reg_addr:  647, cycle:  18336
ebb6 20 c2 fa JSR  ABS   A:ff X: 2 Y:ab P:a5 S:fb pc: fac2, reg_addr: fac2, cycle:  18342
fac2 b8 38 a9 CLV  IMPL  A:ff X: 2 Y:ab P:a5 S:f9 pc: fac3, reg_addr:    0, cycle:  18344
fac3 38 a9 ff SEC  IMPL  A:ff X: 2 Y:ab P:a5 S:f9 pc: fac4, reg_addr:    0, cycle:  18346
fac4 a9 ff 60 LDA  IMM   A:ff X: 2 Y:ab P:a5 S:f9 pc: fac6, reg_addr:   ff, cycle:  18348
fac6 60 70 1d RTS  IMPL  A:ff X: 2 Y:ab P:a5 S:f9 pc: ebb9, reg_addr:    0, cycle:  18354
ebb9 e3 45 ea ISB  INDX  A:ff X: 2 Y:ab P:a5 S:fb pc: ebbb, reg_addr:  647, cycle:  18362
ebbb ea ea ea NOP  IMPL  A:ff X: 2 Y:ab P:a5 S:fb pc: ebbc, reg_addr:    0, cycle:  18364
ebbc ea ea ea NOP  IMPL  A:ff X: 2 Y:ab P:a5 S:fb pc: ebbd, reg_addr:    0, cycle:  18366
ebbd ea ea 20 NOP  IMPL  A:ff X: 2 Y:ab P:a5 S:fb pc: ebbe, reg_addr:    0, cycle:  18368
ebbe ea 20 c7 NOP  IMPL  A:ff X: 2 Y:ab P:a5 S:fb pc: ebbf, reg_addr:    0, cycle:  18370
ebbf 20 c7 fa JSR  ABS   A:ff X: 2 Y:ab P:a5 S:fb pc: fac7, reg_addr: fac7, cycle:  18376
fac7 70 1d f0 BVS  REL   A:ff X: 2 Y:ab P:a5 S:f9 pc: fac9, reg_addr: fae6, cycle:  18378
fac9 f0 1b 10 BEQ  REL   A:ff X: 2 Y:ab P:a5 S:f9 pc: facb, reg_addr: fae6, cycle:  18380
facb 10 19 90 BPL  REL   A:ff X: 2 Y:ab P:a5 S:f9 pc: facd, reg_addr: fae6, cycle:  18382
facd 90 17 c9 BCC  REL   A:ff X: 2 Y:ab P:a5 S:f9 pc: facf, reg_addr: fae6, cycle:  18384
facf c9 ff d0 CMP  IMM   A:ff X: 2 Y:ab P:a5 S:f9 pc: fad1, reg_addr:   ff, cycle:  18386
fad1 d0 13 60 BNE  REL   A:ff X: 2 Y:ab P:27 S:f9 pc: fad3, reg_addr: fae6, cycle:  18388
fad3 60 24  1 RTS  IMPL  A:ff X: 2 Y:ab P:27 S:f9 pc: ebc2, reg_addr:    0, cycle:  18394
ebc2 ad 47  6 LDA  ABS   A:ff X: 2 Y:ab P:27 S:fb pc: ebc5, reg_addr:  647, cycle:  18398
ebc5 c9  0 f0 CMP  IMM   A: 0 X: 2 Y:ab P:27 S:fb pc: ebc7, reg_addr:    0, cycle:  18400
ebc7 f0  2 84 BEQ  REL   A: 0 X: 2 Y:ab P:27 S:fb pc: ebcb, reg_addr: ebcb, cycle:  18403
ebcb c8 a9 37 INY  IMPL  A: 0 X: 2 Y:ab P:27 S:fb pc: ebcc, reg_addr:    0, cycle:  18405
ebcc a9 37 8d LDA  IMM   A: 0 X: 2 Y:ac P:a5 S:fb pc: ebce, reg_addr:   37, cycle:  18407
ebce 8d 47  6 STA  ABS   A:37 X: 2 Y:ac P:25 S:fb pc: ebd1, reg_addr:  647, cycle:  18411
ebd1 20 d4 fa JSR  ABS   A:37 X: 2 Y:ac P:25 S:fb pc: fad4, reg_addr: fad4, cycle:  18417
fad4 24  1 38 BIT  ZP    A:37 X: 2 Y:ac P:25 S:f9 pc: fad6, reg_addr:    1, cycle:  18420
fad6 38 a9 f0 SEC  IMPL  A:37 X: 2 Y:ac P:e5 S:f9 pc: fad7, reg_addr:    0, cycle:  18422
fad7 a9 f0 60 LDA  IMM   A:37 X: 2 Y:ac P:e5 S:f9 pc: fad9, reg_addr:   f0, cycle:  18424
fad9 60 70  a RTS  IMPL  A:f0 X: 2 Y:ac P:e5 S:f9 pc: ebd4, reg_addr:    0, cycle:  18430
ebd4 e3 45 ea ISB  INDX  A:f0 X: 2 Y:ac P:e5 S:fb pc: ebd6, reg_addr:  647, cycle:  18438
ebd6 ea ea ea NOP  IMPL  A:b8 X: 2 Y:ac P:a5 S:fb pc: ebd7, reg_addr:    0, cycle:  18440
ebd7 ea ea ea NOP  IMPL  A:b8 X: 2 Y:ac P:a5 S:fb pc: ebd8, reg_addr:    0, cycle:  18442
ebd8 ea ea 20 NOP  IMPL  A:b8 X: 2 Y:ac P:a5 S:fb pc: ebd9, reg_addr:    0, cycle:  18444
ebd9 ea 20 da NOP  IMPL  A:b8 X: 2 Y:ac P:a5 S:fb pc: ebda, reg_addr:    0, cycle:  18446
ebda 20 da fa JSR  ABS   A:b8 X: 2 Y:ac P:a5 S:fb pc: fada, reg_addr: fada, cycle:  18452
fada 70  a f0 BVS  REL   A:b8 X: 2 Y:ac P:a5 S:f9 pc: fadc, reg_addr: fae6, cycle:  18454
fadc f0  8 10 BEQ  REL   A:b8 X: 2 Y:ac P:a5 S:f9 pc: fade, reg_addr: fae6, cycle:  18456
fade 10  6 90 BPL  REL   A:b8 X: 2 Y:ac P:a5 S:f9 pc: fae0, reg_addr: fae6, cycle:  18458
fae0 90  4 c9 BCC  REL   A:b8 X: 2 Y:ac P:a5 S:f9 pc: fae2, reg_addr: fae6, cycle:  18460
fae2 c9 b8 f0 CMP  IMM   A:b8 X: 2 Y:ac P:a5 S:f9 pc: fae4, reg_addr:   b8, cycle:  18462
fae4 f0  2 84 BEQ  REL   A:b8 X: 2 Y:ac P:27 S:f9 pc: fae8, reg_addr: fae8, cycle:  18465
fae8 60 24  1 RTS  IMPL  A:b8 X: 2 Y:ac P:27 S:f9 pc: ebdd, reg_addr:    0, cycle:  18471
ebdd ad 47  6 LDA  ABS   A:b8 X: 2 Y:ac P:27 S:fb pc: ebe0, reg_addr:  647, cycle:  18475
ebe0 c9 38 f0 CMP  IMM   A:38 X: 2 Y:ac P:25 S:fb pc: ebe2, reg_addr:   38, cycle:  18477
ebe2 f0  2 84 BEQ  REL   A:38 X: 2 Y:ac P:27 S:fb pc: ebe6, reg_addr: ebe6, cycle:  18480
ebe6 c8 a9 eb INY  IMPL  A:38 X: 2 Y:ac P:27 S:fb pc: ebe7, reg_addr:    0, cycle:  18482
ebe7 a9 eb 85 LDA  IMM   A:38 X: 2 Y:ad P:a5 S:fb pc: ebe9, reg_addr:   eb, cycle:  18484
ebe9 85 47 20 STA  ZP    A:eb X: 2 Y:ad P:a5 S:fb pc: ebeb, reg_addr:   47, cycle:  18487
ebeb 20 b1 fa JSR  ABS   A:eb X: 2 Y:ad P:a5 S:fb pc: fab1, reg_addr: fab1, cycle:  18493
fab1 24  1 18 BIT  ZP    A:eb X: 2 Y:ad P:a5 S:f9 pc: fab3, reg_addr:    1, cycle:  18496
fab3 18 a9 40 CLC  IMPL  A:eb X: 2 Y:ad P:e5 S:f9 pc: fab4, reg_addr:    0, cycle:  18498
fab4 a9 40 60 LDA  IMM   A:eb X: 2 Y:ad P:e4 S:f9 pc: fab6, reg_addr:   40, cycle:  18500
fab6 60 70 2d RTS  IMPL  A:40 X: 2 Y:ad P:64 S:f9 pc: ebee, reg_addr:    0, cycle:  18506
ebee e7 47 ea ISB  ZP    A:40 X: 2 Y:ad P:64 S:fb pc: ebf0, reg_addr:   47, cycle:  18511
ebf0 ea ea ea NOP  IMPL  A:53 X: 2 Y:ad P:24 S:fb pc: ebf1, reg_addr:    0, cycle:  18513
ebf1 ea ea ea NOP  IMPL  A:53 X: 2 Y:ad P:24 S:fb pc: ebf2, reg_addr:    0, cycle:  18515
ebf2 ea ea 20 NOP  IMPL  A:53 X: 2 Y:ad P:24 S:fb pc: ebf3, reg_addr:    0, cycle:  18517
ebf3 ea 20 b7 NOP  IMPL  A:53 X: 2 Y:ad P:24 S:fb pc: ebf4, reg_addr:    0, cycle:  18519
ebf4 20 b7 fa JSR  ABS   A:53 X: 2 Y:ad P:24 S:fb pc: fab7, reg_addr: fab7, cycle:  18525
fab7 70 2d b0 BVS  REL   A:53 X: 2 Y:ad P:24 S:f9 pc: fab9, reg_addr: fae6, cycle:  18527
fab9 b0 2b 30 BCS  REL   A:53 X: 2 Y:ad P:24 S:f9 pc: fabb, reg_addr: fae6, cycle:  18529
fabb 30 29 c9 BMI  REL   A:53 X: 2 Y:ad P:24 S:f9 pc: fabd, reg_addr: fae6, cycle:  18531
fabd c9 53 d0 CMP  IMM   A:53 X: 2 Y:ad P:24 S:f9 pc: fabf, reg_addr:   53, cycle:  18533
fabf d0 25 60 BNE  REL   A:53 X: 2 Y:ad P:27 S:f9 pc: fac1, reg_addr: fae6, cycle:  18535
fac1 60 b8 38 RTS  IMPL  A:53 X: 2 Y:ad P:27 S:f9 pc: ebf7, reg_addr:    0, cycle:  18541
ebf7 a5 47 c9 LDA  ZP    A:53 X: 2 Y:ad P:27 S:fb pc: ebf9, reg_addr:   47, cycle:  18544
ebf9 c9 ec f0 CMP  IMM   A:ec X: 2 Y:ad P:a5 S:fb pc: ebfb, reg_addr:   ec, cycle:  18546
ebfb f0  2 84 BEQ  REL   A:ec X: 2 Y:ad P:27 S:fb pc: ebff, reg_addr: ebff, cycle:  18549
ebff c8 a9 ff INY  IMPL  A:ec X: 2 Y:ad P:27 S:fb pc: ec00, reg_addr:    0, cycle:  18551
ec00 a9 ff 85 LDA  IMM   A:ec X: 2 Y:ae P:a5 S:fb pc: ec02, reg_addr:   ff, cycle:  18553
ec02 85 47 20 STA  ZP    A:ff X: 2 Y:ae P:a5 S:fb pc: ec04, reg_addr:   47, cycle:  18556
ec04 20 c2 fa JSR  ABS   A:ff X: 2 Y:ae P:a5 S:fb pc: fac2, reg_addr: fac2, cycle:  18562
fac2 b8 38 a9 CLV  IMPL  A:ff X: 2 Y:ae P:a5 S:f9 pc: fac3, reg_addr:    0, cycle:  18564
fac3 38 a9 ff SEC  IMPL  A:ff X: 2 Y:ae P:a5 S:f9 pc: fac4, reg_addr:    0, cycle:  18566
fac4 a9 ff 60 LDA  IMM   A:ff X: 2 Y:ae P:a5 S:f9 pc: fac6, reg_addr:   ff, cycle:  18568
fac6 60 70 1d RTS  IMPL  A:ff X: 2 Y:ae P:a5 S:f9 pc: ec07, reg_addr:    0, cycle:  18574
ec07 e7 47 ea ISB  ZP    A:ff X: 2 Y:ae P:a5 S:fb pc: ec09, reg_addr:   47, cycle:  18579
ec09 ea ea ea NOP  IMPL  A:ff X: 2 Y:ae P:a5 S:fb pc: ec0a, reg_addr:    0, cycle:  18581
ec0a ea ea ea NOP  IMPL  A:ff X: 2 Y:ae P:a5 S:fb pc: ec0b, reg_addr:    0, cycle:  18583
ec0b ea ea 20 NOP  IMPL  A:ff X: 2 Y:ae P:a5 S:fb pc: ec0c, reg_addr:    0, cycle:  18585
ec0c ea 20 c7 NOP  IMPL  A:ff X: 2 Y:ae P:a5 S:fb pc: ec0d, reg_addr:    0, cycle:  18587
ec0d 20 c7 fa JSR  ABS   A:ff X: 2 Y:ae P:a5 S:fb pc: fac7, reg_addr: fac7, cycle:  18593
fac7 70 1d f0 BVS  REL   A:ff X: 2 Y:ae P:a5 S:f9 pc: fac9, reg_addr: fae6, cycle:  18595
fac9 f0 1b 10 BEQ  REL   A:ff X: 2 Y:ae P:a5 S:f9 pc: facb, reg_addr: fae6, cycle:  18597
facb 10 19 90 BPL  REL   A:ff X: 2 Y:ae P:a5 S:f9 pc: facd, reg_addr: fae6, cycle:  18599
facd 90 17 c9 BCC  REL   A:ff X: 2 Y:ae P:a5 S:f9 pc: facf, reg_addr: fae6, cycle:  18601
facf c9 ff d0 CMP  IMM   A:ff X: 2 Y:ae P:a5 S:f9 pc: fad1, reg_addr:   ff, cycle:  18603
fad1 d0 13 60 BNE  REL   A:ff X: 2 Y:ae P:27 S:f9 pc: fad3, reg_addr: fae6, cycle:  18605
fad3 60 24  1 RTS  IMPL  A:ff X: 2 Y:ae P:27 S:f9 pc: ec10, reg_addr:    0, cycle:  18611
ec10 a5 47 c9 LDA  ZP    A:ff X: 2 Y:ae P:27 S:fb pc: ec12, reg_addr:   47, cycle:  18614
ec12 c9  0 f0 CMP  IMM   A: 0 X: 2 Y:ae P:27 S:fb pc: ec14, reg_addr:    0, cycle:  18616
ec14 f0  2 84 BEQ  REL   A: 0 X: 2 Y:ae P:27 S:fb pc: ec18, reg_addr: ec18, cycle:  18619
ec18 c8 a9 37 INY  IMPL  A: 0 X: 2 Y:ae P:27 S:fb pc: ec19, reg_addr:    0, cycle:  18621
ec19 a9 37 85 LDA  IMM   A: 0 X: 2 Y:af P:a5 S:fb pc: ec1b, reg_addr:   37, cycle:  18623
ec1b 85 47 20 STA  ZP    A:37 X: 2 Y:af P:25 S:fb pc: ec1d, reg_addr:   47, cycle:  18626
ec1d 20 d4 fa JSR  ABS   A:37 X: 2 Y:af P:25 S:fb pc: fad4, reg_addr: fad4, cycle:  18632
fad4 24  1 38 BIT  ZP    A:37 X: 2 Y:af P:25 S:f9 pc: fad6, reg_addr:    1, cycle:  18635
fad6 38 a9 f0 SEC  IMPL  A:37 X: 2 Y:af P:e5 S:f9 pc: fad7, reg_addr:    0, cycle:  18637
fad7 a9 f0 60 LDA  IMM   A:37 X: 2 Y:af P:e5 S:f9 pc: fad9, reg_addr:   f0, cycle:  18639
fad9 60 70  a RTS  IMPL  A:f0 X: 2 Y:af P:e5 S:f9 pc: ec20, reg_addr:    0, cycle:  18645
ec20 e7 47 ea ISB  ZP    A:f0 X: 2 Y:af P:e5 S:fb pc: ec22, reg_addr:   47, cycle:  18650
ec22 ea ea ea NOP  IMPL  A:b8 X: 2 Y:af P:a5 S:fb pc: ec23, reg_addr:    0, cycle:  18652
ec23 ea ea ea NOP  IMPL  A:b8 X: 2 Y:af P:a5 S:fb pc: ec24, reg_addr:    0, cycle:  18654
ec24 ea ea 20 NOP  IMPL  A:b8 X: 2 Y:af P:a5 S:fb pc: ec25, reg_addr:    0, cycle:  18656
ec25 ea 20 da NOP  IMPL  A:b8 X: 2 Y:af P:a5 S:fb pc: ec26, reg_addr:    0, cycle:  18658
ec26 20 da fa JSR  ABS   A:b8 X: 2 Y:af P:a5 S:fb pc: fada, reg_addr: fada, cycle:  18664
fada 70  a f0 BVS  REL   A:b8 X: 2 Y:af P:a5 S:f9 pc: fadc, reg_addr: fae6, cycle:  18666
fadc f0  8 10 BEQ  REL   A:b8 X: 2 Y:af P:a5 S:f9 pc: fade, reg_addr: fae6, cycle:  18668
fade 10  6 90 BPL  REL   A:b8 X: 2 Y:af P:a5 S:f9 pc: fae0, reg_addr: fae6, cycle:  18670
fae0 90  4 c9 BCC  REL   A:b8 X: 2 Y:af P:a5 S:f9 pc: fae2, reg_addr: fae6, cycle:  18672
fae2 c9 b8 f0 CMP  IMM   A:b8 X: 2 Y:af P:a5 S:f9 pc: fae4, reg_addr:   b8, cycle:  18674
fae4 f0  2 84 BEQ  REL   A:b8 X: 2 Y:af P:27 S:f9 pc: fae8, reg_addr: fae8, cycle:  18677
fae8 60 24  1 RTS  IMPL  A:b8 X: 2 Y:af P:27 S:f9 pc: ec29, reg_addr:    0, cycle:  18683
ec29 a5 47 c9 LDA  ZP    A:b8 X: 2 Y:af P:27 S:fb pc: ec2b, reg_addr:   47, cycle:  18686
ec2b c9 38 f0 CMP  IMM   A:38 X: 2 Y:af P:25 S:fb pc: ec2d, reg_addr:   38, cycle:  18688
ec2d f0  2 84 BEQ  REL   A:38 X: 2 Y:af P:27 S:fb pc: ec31, reg_addr: ec31, cycle:  18691
ec31 c8 a9 eb INY  IMPL  A:38 X: 2 Y:af P:27 S:fb pc: ec32, reg_addr:    0, cycle:  18693
ec32 a9 eb 8d LDA  IMM   A:38 X: 2 Y:b0 P:a5 S:fb pc: ec34, reg_addr:   eb, cycle:  18695
ec34 8d 47  6 STA  ABS   A:eb X: 2 Y:b0 P:a5 S:fb pc: ec37, reg_addr:  647, cycle:  18699
ec37 20 b1 fa JSR  ABS   A:eb X: 2 Y:b0 P:a5 S:fb pc: fab1, reg_addr: fab1, cycle:  18705
fab1 24  1 18 BIT  ZP    A:eb X: 2 Y:b0 P:a5 S:f9 pc: fab3, reg_addr:    1, cycle:  18708
fab3 18 a9 40 CLC  IMPL  A:eb X: 2 Y:b0 P:e5 S:f9 pc: fab4, reg_addr:    0, cycle:  18710
fab4 a9 40 60 LDA  IMM   A:eb X: 2 Y:b0 P:e4 S:f9 pc: fab6, reg_addr:   40, cycle:  18712
fab6 60 70 2d RTS  IMPL  A:40 X: 2 Y:b0 P:64 S:f9 pc: ec3a, reg_addr:    0, cycle:  18718
ec3a ef 47  6 ISB  ABS   A:40 X: 2 Y:b0 P:64 S:fb pc: ec3d, reg_addr:  647, cycle:  18724
ec3d ea ea ea NOP  IMPL  A:53 X: 2 Y:b0 P:24 S:fb pc: ec3e, reg_addr:    0, cycle:  18726
ec3e ea ea ea NOP  IMPL  A:53 X: 2 Y:b0 P:24 S:fb pc: ec3f, reg_addr:    0, cycle:  18728
ec3f ea ea 20 NOP  IMPL  A:53 X: 2 Y:b0 P:24 S:fb pc: ec40, reg_addr:    0, cycle:  18730
ec40 ea 20 b7 NOP  IMPL  A:53 X: 2 Y:b0 P:24 S:fb pc: ec41, reg_addr:    0, cycle:  18732
ec41 20 b7 fa JSR  ABS   A:53 X: 2 Y:b0 P:24 S:fb pc: fab7, reg_addr: fab7, cycle:  18738
fab7 70 2d b0 BVS  REL   A:53 X: 2 Y:b0 P:24 S:f9 pc: fab9, reg_addr: fae6, cycle:  18740
fab9 b0 2b 30 BCS  REL   A:53 X: 2 Y:b0 P:24 S:f9 pc: fabb, reg_addr: fae6, cycle:  18742
fabb 30 29 c9 BMI  REL   A:53 X: 2 Y:b0 P:24 S:f9 pc: fabd, reg_addr: fae6, cycle:  18744
fabd c9 53 d0 CMP  IMM   A:53 X: 2 Y:b0 P:24 S:f9 pc: fabf, reg_addr:   53, cycle:  18746
fabf d0 25 60 BNE  REL   A:53 X: 2 Y:b0 P:27 S:f9 pc: fac1, reg_addr: fae6, cycle:  18748
fac1 60 b8 38 RTS  IMPL  A:53 X: 2 Y:b0 P:27 S:f9 pc: ec44, reg_addr:    0, cycle:  18754
ec44 ad 47  6 LDA  ABS   A:53 X: 2 Y:b0 P:27 S:fb pc: ec47, reg_addr:  647, cycle:  18758
ec47 c9 ec f0 CMP  IMM   A:ec X: 2 Y:b0 P:a5 S:fb pc: ec49, reg_addr:   ec, cycle:  18760
ec49 f0  2 84 BEQ  REL   A:ec X: 2 Y:b0 P:27 S:fb pc: ec4d, reg_addr: ec4d, cycle:  18763
ec4d c8 a9 ff INY  IMPL  A:ec X: 2 Y:b0 P:27 S:fb pc: ec4e, reg_addr:    0, cycle:  18765
ec4e a9 ff 8d LDA  IMM   A:ec X: 2 Y:b1 P:a5 S:fb pc: ec50, reg_addr:   ff, cycle:  18767
ec50 8d 47  6 STA  ABS   A:ff X: 2 Y:b1 P:a5 S:fb pc: ec53, reg_addr:  647, cycle:  18771
ec53 20 c2 fa JSR  ABS   A:ff X: 2 Y:b1 P:a5 S:fb pc: fac2, reg_addr: fac2, cycle:  18777
fac2 b8 38 a9 CLV  IMPL  A:ff X: 2 Y:b1 P:a5 S:f9 pc: fac3, reg_addr:    0, cycle:  18779
fac3 38 a9 ff SEC  IMPL  A:ff X: 2 Y:b1 P:a5 S:f9 pc: fac4, reg_addr:    0, cycle:  18781
fac4 a9 ff 60 LDA  IMM   A:ff X: 2 Y:b1 P:a5 S:f9 pc: fac6, reg_addr:   ff, cycle:  18783
fac6 60 70 1d RTS  IMPL  A:ff X: 2 Y:b1 P:a5 S:f9 pc: ec56, reg_addr:    0, cycle:  18789
ec56 ef 47  6 ISB  ABS   A:ff X: 2 Y:b1 P:a5 S:fb pc: ec59, reg_addr:  647, cycle:  18795
ec59 ea ea ea NOP  IMPL  A:ff X: 2 Y:b1 P:a5 S:fb pc: ec5a, reg_addr:    0, cycle:  18797
ec5a ea ea ea NOP  IMPL  A:ff X: 2 Y:b1 P:a5 S:fb pc: ec5b, reg_addr:    0, cycle:  18799
ec5b ea ea 20 NOP  IMPL  A:ff X: 2 Y:b1 P:a5 S:fb pc: ec5c, reg_addr:    0, cycle:  18801
ec5c ea 20 c7 NOP  IMPL  A:ff X: 2 Y:b1 P:a5 S:fb pc: ec5d, reg_addr:    0, cycle:  18803
ec5d 20 c7 fa JSR  ABS   A:ff X: 2 Y:b1 P:a5 S:fb pc: fac7, reg_addr: fac7, cycle:  18809
fac7 70 1d f0 BVS  REL   A:ff X: 2 Y:b1 P:a5 S:f9 pc: fac9, reg_addr: fae6, cycle:  18811
fac9 f0 1b 10 BEQ  REL   A:ff X: 2 Y:b1 P:a5 S:f9 pc: facb, reg_addr: fae6, cycle:  18813
facb 10 19 90 BPL  REL   A:ff X: 2 Y:b1 P:a5 S:f9 pc: facd, reg_addr: fae6, cycle:  18815
facd 90 17 c9 BCC  REL   A:ff X: 2 Y:b1 P:a5 S:f9 pc: facf, reg_addr: fae6, cycle:  18817
facf c9 ff d0 CMP  IMM   A:ff X: 2 Y:b1 P:a5 S:f9 pc: fad1, reg_addr:   ff, cycle:  18819
fad1 d0 13 60 BNE  REL   A:ff X: 2 Y:b1 P:27 S:f9 pc: fad3, reg_addr: fae6, cycle:  18821
fad3 60 24  1 RTS  IMPL  A:ff X: 2 Y:b1 P:27 S:f9 pc: ec60, reg_addr:    0, cycle:  18827
ec60 ad 47  6 LDA  ABS   A:ff X: 2 Y:b1 P:27 S:fb pc: ec63, reg_addr:  647, cycle:  18831
ec63 c9  0 f0 CMP  IMM   A: 0 X: 2 Y:b1 P:27 S:fb pc: ec65, reg_addr:    0, cycle:  18833
ec65 f0  2 84 BEQ  REL   A: 0 X: 2 Y:b1 P:27 S:fb pc: ec69, reg_addr: ec69, cycle:  18836
ec69 c8 a9 37 INY  IMPL  A: 0 X: 2 Y:b1 P:27 S:fb pc: ec6a, reg_addr:    0, cycle:  18838
ec6a a9 37 8d LDA  IMM   A: 0 X: 2 Y:b2 P:a5 S:fb pc: ec6c, reg_addr:   37, cycle:  18840
ec6c 8d 47  6 STA  ABS   A:37 X: 2 Y:b2 P:25 S:fb pc: ec6f, reg_addr:  647, cycle:  18844
ec6f 20 d4 fa JSR  ABS   A:37 X: 2 Y:b2 P:25 S:fb pc: fad4, reg_addr: fad4, cycle:  18850
fad4 24  1 38 BIT  ZP    A:37 X: 2 Y:b2 P:25 S:f9 pc: fad6, reg_addr:    1, cycle:  18853
fad6 38 a9 f0 SEC  IMPL  A:37 X: 2 Y:b2 P:e5 S:f9 pc: fad7, reg_addr:    0, cycle:  18855
fad7 a9 f0 60 LDA  IMM   A:37 X: 2 Y:b2 P:e5 S:f9 pc: fad9, reg_addr:   f0, cycle:  18857
fad9 60 70  a RTS  IMPL  A:f0 X: 2 Y:b2 P:e5 S:f9 pc: ec72, reg_addr:    0, cycle:  18863
ec72 ef 47  6 ISB  ABS   A:f0 X: 2 Y:b2 P:e5 S:fb pc: ec75, reg_addr:  647, cycle:  18869
ec75 ea ea ea NOP  IMPL  A:b8 X: 2 Y:b2 P:a5 S:fb pc: ec76, reg_addr:    0, cycle:  18871
ec76 ea ea ea NOP  IMPL  A:b8 X: 2 Y:b2 P:a5 S:fb pc: ec77, reg_addr:    0, cycle:  18873
ec77 ea ea 20 NOP  IMPL  A:b8 X: 2 Y:b2 P:a5 S:fb pc: ec78, reg_addr:    0, cycle:  18875
ec78 ea 20 da NOP  IMPL  A:b8 X: 2 Y:b2 P:a5 S:fb pc: ec79, reg_addr:    0, cycle:  18877
ec79 20 da fa JSR  ABS   A:b8 X: 2 Y:b2 P:a5 S:fb pc: fada, reg_addr: fada, cycle:  18883
fada 70  a f0 BVS  REL   A:b8 X: 2 Y:b2 P:a5 S:f9 pc: fadc, reg_addr: fae6, cycle:  18885
fadc f0  8 10 BEQ  REL   A:b8 X: 2 Y:b2 P:a5 S:f9 pc: fade, reg_addr: fae6, cycle:  18887
fade 10  6 90 BPL  REL   A:b8 X: 2 Y:b2 P:a5 S:f9 pc: fae0, reg_addr: fae6, cycle:  18889
fae0 90  4 c9 BCC  REL   A:b8 X: 2 Y:b2 P:a5 S:f9 pc: fae2, reg_addr: fae6, cycle:  18891
fae2 c9 b8 f0 CMP  IMM   A:b8 X: 2 Y:b2 P:a5 S:f9 pc: fae4, reg_addr:   b8, cycle:  18893
fae4 f0  2 84 BEQ  REL   A:b8 X: 2 Y:b2 P:27 S:f9 pc: fae8, reg_addr: fae8, cycle:  18896
fae8 60 24  1 RTS  IMPL  A:b8 X: 2 Y:b2 P:27 S:f9 pc: ec7c, reg_addr:    0, cycle:  18902
ec7c ad 47  6 LDA  ABS   A:b8 X: 2 Y:b2 P:27 S:fb pc: ec7f, reg_addr:  647, cycle:  18906
ec7f c9 38 f0 CMP  IMM   A:38 X: 2 Y:b2 P:25 S:fb pc: ec81, reg_addr:   38, cycle:  18908
ec81 f0  2 84 BEQ  REL   A:38 X: 2 Y:b2 P:27 S:fb pc: ec85, reg_addr: ec85, cycle:  18911
ec85 a9 eb 8d LDA  IMM   A:38 X: 2 Y:b2 P:27 S:fb pc: ec87, reg_addr:   eb, cycle:  18913
ec87 8d 47  6 STA  ABS   A:eb X: 2 Y:b2 P:a5 S:fb pc: ec8a, reg_addr:  647, cycle:  18917
ec8a a9 48 85 LDA  IMM   A:eb X: 2 Y:b2 P:a5 S:fb pc: ec8c, reg_addr:   48, cycle:  18919
ec8c 85 45 a9 STA  ZP    A:48 X: 2 Y:b2 P:25 S:fb pc: ec8e, reg_addr:   45, cycle:  18922
ec8e a9  5 85 LDA  IMM   A:48 X: 2 Y:b2 P:25 S:fb pc: ec90, reg_addr:    5, cycle:  18924
ec90 85 46 a0 STA  ZP    A: 5 X: 2 Y:b2 P:25 S:fb pc: ec92, reg_addr:   46, cycle:  18927
ec92 a0 ff 20 LDY  IMM   A: 5 X: 2 Y:b2 P:25 S:fb pc: ec94, reg_addr:   ff, cycle:  18929
ec94 20 b1 fa JSR  ABS   A: 5 X: 2 Y:ff P:a5 S:fb pc: fab1, reg_addr: fab1, cycle:  18935
fab1 24  1 18 BIT  ZP    A: 5 X: 2 Y:ff P:a5 S:f9 pc: fab3, reg_addr:    1, cycle:  18938
fab3 18 a9 40 CLC  IMPL  A: 5 X: 2 Y:ff P:e5 S:f9 pc: fab4, reg_addr:    0, cycle:  18940
fab4 a9 40 60 LDA  IMM   A: 5 X: 2 Y:ff P:e4 S:f9 pc: fab6, reg_addr:   40, cycle:  18942
fab6 60 70 2d RTS  IMPL  A:40 X: 2 Y:ff P:64 S:f9 pc: ec97, reg_addr:    0, cycle:  18948
ec97 f3 45 ea ISB  INDY  A:40 X: 2 Y:ff P:64 S:fb pc: ec99, reg_addr:  647, cycle:  18957
ec99 ea ea  8 NOP  IMPL  A:53 X: 2 Y:ff P:24 S:fb pc: ec9a, reg_addr:    0, cycle:  18959
ec9a ea  8 48 NOP  IMPL  A:53 X: 2 Y:ff P:24 S:fb pc: ec9b, reg_addr:    0, cycle:  18961
ec9b  8 48 a0 PHP  IMPL  A:53 X: 2 Y:ff P:24 S:fb pc: ec9c, reg_addr:    0, cycle:  18964
ec9c 48 a0 b3 PHA  IMPL  A:53 X: 2 Y:ff P:24 S:fa pc: ec9d, reg_addr:    0, cycle:  18967
ec9d a0 b3 68 LDY  IMM   A:53 X: 2 Y:ff P:24 S:f9 pc: ec9f, reg_addr:   b3, cycle:  18969
ec9f 68 28 20 PLA  IMPL  A:53 X: 2 Y:b3 P:a4 S:f9 pc: eca0, reg_addr:    0, cycle:  18973
eca0 28 20 b7 PLP  IMPL  A:53 X: 2 Y:b3 P:24 S:fa pc: eca1, reg_addr:    0, cycle:  18977
eca1 20 b7 fa JSR  ABS   A:53 X: 2 Y:b3 P:24 S:fb pc: fab7, reg_addr: fab7, cycle:  18983
fab7 70 2d b0 BVS  REL   A:53 X: 2 Y:b3 P:24 S:f9 pc: fab9, reg_addr: fae6, cycle:  18985
fab9 b0 2b 30 BCS  REL   A:53 X: 2 Y:b3 P:24 S:f9 pc: fabb, reg_addr: fae6, cycle:  18987
fabb 30 29 c9 BMI  REL   A:53 X: 2 Y:b3 P:24 S:f9 pc: fabd, reg_addr: fae6, cycle:  18989
fabd c9 53 d0 CMP  IMM   A:53 X: 2 Y:b3 P:24 S:f9 pc: fabf, reg_addr:   53, cycle:  18991
fabf d0 25 60 BNE  REL   A:53 X: 2 Y:b3 P:27 S:f9 pc: fac1, reg_addr: fae6, cycle:  18993
fac1 60 b8 38 RTS  IMPL  A:53 X: 2 Y:b3 P:27 S:f9 pc: eca4, reg_addr:    0, cycle:  18999
eca4 ad 47  6 LDA  ABS   A:53 X: 2 Y:b3 P:27 S:fb pc: eca7, reg_addr:  647, cycle:  19003
eca7 c9 ec f0 CMP  IMM   A:ec X: 2 Y:b3 P:a5 S:fb pc: eca9, reg_addr:   ec, cycle:  19005
eca9 f0  2 84 BEQ  REL   A:ec X: 2 Y:b3 P:27 S:fb pc: ecad, reg_addr: ecad, cycle:  19008
ecad a0 ff a9 LDY  IMM   A:ec X: 2 Y:b3 P:27 S:fb pc: ecaf, reg_addr:   ff, cycle:  19010
ecaf a9 ff 8d LDA  IMM   A:ec X: 2 Y:ff P:a5 S:fb pc: ecb1, reg_addr:   ff, cycle:  19012
ecb1 8d 47  6 STA  ABS   A:ff X: 2 Y:ff P:a5 S:fb pc: ecb4, reg_addr:  647, cycle:  19016
ecb4 20 c2 fa JSR  ABS   A:ff X: 2 Y:ff P:a5 S:fb pc: fac2, reg_addr: fac2, cycle:  19022
fac2 b8 38 a9 CLV  IMPL  A:ff X: 2 Y:ff P:a5 S:f9 pc: fac3, reg_addr:    0, cycle:  19024
fac3 38 a9 ff SEC  IMPL  A:ff X: 2 Y:ff P:a5 S:f9 pc: fac4, reg_addr:    0, cycle:  19026
fac4 a9 ff 60 LDA  IMM   A:ff X: 2 Y:ff P:a5 S:f9 pc: fac6, reg_addr:   ff, cycle:  19028
fac6 60 70 1d RTS  IMPL  A:ff X: 2 Y:ff P:a5 S:f9 pc: ecb7, reg_addr:    0, cycle:  19034
ecb7 f3 45 ea ISB  INDY  A:ff X: 2 Y:ff P:a5 S:fb pc: ecb9, reg_addr:  647, cycle:  19043
ecb9 ea ea  8 NOP  IMPL  A:ff X: 2 Y:ff P:a5 S:fb pc: ecba, reg_addr:    0, cycle:  19045
ecba ea  8 48 NOP  IMPL  A:ff X: 2 Y:ff P:a5 S:fb pc: ecbb, reg_addr:    0, cycle:  19047
ecbb  8 48 a0 PHP  IMPL  A:ff X: 2 Y:ff P:a5 S:fb pc: ecbc, reg_addr:    0, cycle:  19050
ecbc 48 a0 b4 PHA  IMPL  A:ff X: 2 Y:ff P:a5 S:fa pc: ecbd, reg_addr:    0, cycle:  19053
ecbd a0 b4 68 LDY  IMM   A:ff X: 2 Y:ff P:a5 S:f9 pc: ecbf, reg_addr:   b4, cycle:  19055
ecbf 68 28 20 PLA  IMPL  A:ff X: 2 Y:b4 P:a5 S:f9 pc: ecc0, reg_addr:    0, cycle:  19059
ecc0 28 20 c7 PLP  IMPL  A:ff X: 2 Y:b4 P:a5 S:fa pc: ecc1, reg_addr:    0, cycle:  19063
ecc1 20 c7 fa JSR  ABS   A:ff X: 2 Y:b4 P:a5 S:fb pc: fac7, reg_addr: fac7, cycle:  19069
fac7 70 1d f0 BVS  REL   A:ff X: 2 Y:b4 P:a5 S:f9 pc: fac9, reg_addr: fae6, cycle:  19071
fac9 f0 1b 10 BEQ  REL   A:ff X: 2 Y:b4 P:a5 S:f9 pc: facb, reg_addr: fae6, cycle:  19073
facb 10 19 90 BPL  REL   A:ff X: 2 Y:b4 P:a5 S:f9 pc: facd, reg_addr: fae6, cycle:  19075
facd 90 17 c9 BCC  REL   A:ff X: 2 Y:b4 P:a5 S:f9 pc: facf, reg_addr: fae6, cycle:  19077
facf c9 ff d0 CMP  IMM   A:ff X: 2 Y:b4 P:a5 S:f9 pc: fad1, reg_addr:   ff, cycle:  19079
fad1 d0 13 60 BNE  REL   A:ff X: 2 Y:b4 P:27 S:f9 pc: fad3, reg_addr: fae6, cycle:  19081
fad3 60 24  1 RTS  IMPL  A:ff X: 2 Y:b4 P:27 S:f9 pc: ecc4, reg_addr:    0, cycle:  19087
ecc4 ad 47  6 LDA  ABS   A:ff X: 2 Y:b4 P:27 S:fb pc: ecc7, reg_addr:  647, cycle:  19091
ecc7 c9  0 f0 CMP  IMM   A: 0 X: 2 Y:b4 P:27 S:fb pc: ecc9, reg_addr:    0, cycle:  19093
ecc9 f0  2 84 BEQ  REL   A: 0 X: 2 Y:b4 P:27 S:fb pc: eccd, reg_addr: eccd, cycle:  19096
eccd a0 ff a9 LDY  IMM   A: 0 X: 2 Y:b4 P:27 S:fb pc: eccf, reg_addr:   ff, cycle:  19098
eccf a9 37 8d LDA  IMM   A: 0 X: 2 Y:ff P:a5 S:fb pc: ecd1, reg_addr:   37, cycle:  19100
ecd1 8d 47  6 STA  ABS   A:37 X: 2 Y:ff P:25 S:fb pc: ecd4, reg_addr:  647, cycle:  19104
ecd4 20 d4 fa JSR  ABS   A:37 X: 2 Y:ff P:25 S:fb pc: fad4, reg_addr: fad4, cycle:  19110
fad4 24  1 38 BIT  ZP    A:37 X: 2 Y:ff P:25 S:f9 pc: fad6, reg_addr:    1, cycle:  19113
fad6 38 a9 f0 SEC  IMPL  A:37 X: 2 Y:ff P:e5 S:f9 pc: fad7, reg_addr:    0, cycle:  19115
fad7 a9 f0 60 LDA  IMM   A:37 X: 2 Y:ff P:e5 S:f9 pc: fad9, reg_addr:   f0, cycle:  19117
fad9 60 70  a RTS  IMPL  A:f0 X: 2 Y:ff P:e5 S:f9 pc: ecd7, reg_addr:    0, cycle:  19123
ecd7 f3 45 ea ISB  INDY  A:f0 X: 2 Y:ff P:e5 S:fb pc: ecd9, reg_addr:  647, cycle:  19132
ecd9 ea ea  8 NOP  IMPL  A:b8 X: 2 Y:ff P:a5 S:fb pc: ecda, reg_addr:    0, cycle:  19134
ecda ea  8 48 NOP  IMPL  A:b8 X: 2 Y:ff P:a5 S:fb pc: ecdb, reg_addr:    0, cycle:  19136
ecdb  8 48 a0 PHP  IMPL  A:b8 X: 2 Y:ff P:a5 S:fb pc: ecdc, reg_addr:    0, cycle:  19139
ecdc 48 a0 b5 PHA  IMPL  A:b8 X: 2 Y:ff P:a5 S:fa pc: ecdd, reg_addr:    0, cycle:  19142
ecdd a0 b5 68 LDY  IMM   A:b8 X: 2 Y:ff P:a5 S:f9 pc: ecdf, reg_addr:   b5, cycle:  19144
ecdf 68 28 20 PLA  IMPL  A:b8 X: 2 Y:b5 P:a5 S:f9 pc: ece0, reg_addr:    0, cycle:  19148
ece0 28 20 da PLP  IMPL  A:b8 X: 2 Y:b5 P:a5 S:fa pc: ece1, reg_addr:    0, cycle:  19152
ece1 20 da fa JSR  ABS   A:b8 X: 2 Y:b5 P:a5 S:fb pc: fada, reg_addr: fada, cycle:  19158
fada 70  a f0 BVS  REL   A:b8 X: 2 Y:b5 P:a5 S:f9 pc: fadc, reg_addr: fae6, cycle:  19160
fadc f0  8 10 BEQ  REL   A:b8 X: 2 Y:b5 P:a5 S:f9 pc: fade, reg_addr: fae6, cycle:  19162
fade 10  6 90 BPL  REL   A:b8 X: 2 Y:b5 P:a5 S:f9 pc: fae0, reg_addr: fae6, cycle:  19164
fae0 90  4 c9 BCC  REL   A:b8 X: 2 Y:b5 P:a5 S:f9 pc: fae2, reg_addr: fae6, cycle:  19166
fae2 c9 b8 f0 CMP  IMM   A:b8 X: 2 Y:b5 P:a5 S:f9 pc: fae4, reg_addr:   b8, cycle:  19168
fae4 f0  2 84 BEQ  REL   A:b8 X: 2 Y:b5 P:27 S:f9 pc: fae8, reg_addr: fae8, cycle:  19171
fae8 60 24  1 RTS  IMPL  A:b8 X: 2 Y:b5 P:27 S:f9 pc: ece4, reg_addr:    0, cycle:  19177
ece4 ad 47  6 LDA  ABS   A:b8 X: 2 Y:b5 P:27 S:fb pc: ece7, reg_addr:  647, cycle:  19181
ece7 c9 38 f0 CMP  IMM   A:38 X: 2 Y:b5 P:25 S:fb pc: ece9, reg_addr:   38, cycle:  19183
ece9 f0  2 84 BEQ  REL   A:38 X: 2 Y:b5 P:27 S:fb pc: eced, reg_addr: eced, cycle:  19186
eced a0 b6 a2 LDY  IMM   A:38 X: 2 Y:b5 P:27 S:fb pc: ecef, reg_addr:   b6, cycle:  19188
ecef a2 ff a9 LDX  IMM   A:38 X: 2 Y:b6 P:a5 S:fb pc: ecf1, reg_addr:   ff, cycle:  19190
ecf1 a9 eb 85 LDA  IMM   A:38 X:ff Y:b6 P:a5 S:fb pc: ecf3, reg_addr:   eb, cycle:  19192
ecf3 85 47 20 STA  ZP    A:eb X:ff Y:b6 P:a5 S:fb pc: ecf5, reg_addr:   47, cycle:  19195
ecf5 20 b1 fa JSR  ABS   A:eb X:ff Y:b6 P:a5 S:fb pc: fab1, reg_addr: fab1, cycle:  19201
fab1 24  1 18 BIT  ZP    A:eb X:ff Y:b6 P:a5 S:f9 pc: fab3, reg_addr:    1, cycle:  19204
fab3 18 a9 40 CLC  IMPL  A:eb X:ff Y:b6 P:e5 S:f9 pc: fab4, reg_addr:    0, cycle:  19206
fab4 a9 40 60 LDA  IMM   A:eb X:ff Y:b6 P:e4 S:f9 pc: fab6, reg_addr:   40, cycle:  19208
fab6 60 70 2d RTS  IMPL  A:40 X:ff Y:b6 P:64 S:f9 pc: ecf8, reg_addr:    0, cycle:  19214
ecf8 f7 48 ea ISB  ZPX   A:40 X:ff Y:b6 P:64 S:fb pc: ecfa, reg_addr:   47, cycle:  19220
ecfa ea ea ea NOP  IMPL  A:53 X:ff Y:b6 P:24 S:fb pc: ecfb, reg_addr:    0, cycle:  19222
ecfb ea ea ea NOP  IMPL  A:53 X:ff Y:b6 P:24 S:fb pc: ecfc, reg_addr:    0, cycle:  19224
ecfc ea ea 20 NOP  IMPL  A:53 X:ff Y:b6 P:24 S:fb pc: ecfd, reg_addr:    0, cycle:  19226
ecfd ea 20 b7 NOP  IMPL  A:53 X:ff Y:b6 P:24 S:fb pc: ecfe, reg_addr:    0, cycle:  19228
ecfe 20 b7 fa JSR  ABS   A:53 X:ff Y:b6 P:24 S:fb pc: fab7, reg_addr: fab7, cycle:  19234
fab7 70 2d b0 BVS  REL   A:53 X:ff Y:b6 P:24 S:f9 pc: fab9, reg_addr: fae6, cycle:  19236
fab9 b0 2b 30 BCS  REL   A:53 X:ff Y:b6 P:24 S:f9 pc: fabb, reg_addr: fae6, cycle:  19238
fabb 30 29 c9 BMI  REL   A:53 X:ff Y:b6 P:24 S:f9 pc: fabd, reg_addr: fae6, cycle:  19240
fabd c9 53 d0 CMP  IMM   A:53 X:ff Y:b6 P:24 S:f9 pc: fabf, reg_addr:   53, cycle:  19242
fabf d0 25 60 BNE  REL   A:53 X:ff Y:b6 P:27 S:f9 pc: fac1, reg_addr: fae6, cycle:  19244
fac1 60 b8 38 RTS  IMPL  A:53 X:ff Y:b6 P:27 S:f9 pc: ed01, reg_addr:    0, cycle:  19250
ed01 a5 47 c9 LDA  ZP    A:53 X:ff Y:b6 P:27 S:fb pc: ed03, reg_addr:   47, cycle:  19253
ed03 c9 ec f0 CMP  IMM   A:ec X:ff Y:b6 P:a5 S:fb pc: ed05, reg_addr:   ec, cycle:  19255
ed05 f0  2 84 BEQ  REL   A:ec X:ff Y:b6 P:27 S:fb pc: ed09, reg_addr: ed09, cycle:  19258
ed09 c8 a9 ff INY  IMPL  A:ec X:ff Y:b6 P:27 S:fb pc: ed0a, reg_addr:    0, cycle:  19260
ed0a a9 ff 85 LDA  IMM   A:ec X:ff Y:b7 P:a5 S:fb pc: ed0c, reg_addr:   ff, cycle:  19262
ed0c 85 47 20 STA  ZP    A:ff X:ff Y:b7 P:a5 S:fb pc: ed0e, reg_addr:   47, cycle:  19265
ed0e 20 c2 fa JSR  ABS   A:ff X:ff Y:b7 P:a5 S:fb pc: fac2, reg_addr: fac2, cycle:  19271
fac2 b8 38 a9 CLV  IMPL  A:ff X:ff Y:b7 P:a5 S:f9 pc: fac3, reg_addr:    0, cycle:  19273
fac3 38 a9 ff SEC  IMPL  A:ff X:ff Y:b7 P:a5 S:f9 pc: fac4, reg_addr:    0, cycle:  19275
fac4 a9 ff 60 LDA  IMM   A:ff X:ff Y:b7 P:a5 S:f9 pc: fac6, reg_addr:   ff, cycle:  19277
fac6 60 70 1d RTS  IMPL  A:ff X:ff Y:b7 P:a5 S:f9 pc: ed11, reg_addr:    0, cycle:  19283
ed11 f7 48 ea ISB  ZPX   A:ff X:ff Y:b7 P:a5 S:fb pc: ed13, reg_addr:   47, cycle:  19289
ed13 ea ea ea NOP  IMPL  A:ff X:ff Y:b7 P:a5 S:fb pc: ed14, reg_addr:    0, cycle:  19291
ed14 ea ea ea NOP  IMPL  A:ff X:ff Y:b7 P:a5 S:fb pc: ed15, reg_addr:    0, cycle:  19293
ed15 ea ea 20 NOP  IMPL  A:ff X:ff Y:b7 P:a5 S:fb pc: ed16, reg_addr:    0, cycle:  19295
ed16 ea 20 c7 NOP  IMPL  A:ff X:ff Y:b7 P:a5 S:fb pc: ed17, reg_addr:    0, cycle:  19297
ed17 20 c7 fa JSR  ABS   A:ff X:ff Y:b7 P:a5 S:fb pc: fac7, reg_addr: fac7, cycle:  19303
fac7 70 1d f0 BVS  REL   A:ff X:ff Y:b7 P:a5 S:f9 pc: fac9, reg_addr: fae6, cycle:  19305
fac9 f0 1b 10 BEQ  REL   A:ff X:ff Y:b7 P:a5 S:f9 pc: facb, reg_addr: fae6, cycle:  19307
facb 10 19 90 BPL  REL   A:ff X:ff Y:b7 P:a5 S:f9 pc: facd, reg_addr: fae6, cycle:  19309
facd 90 17 c9 BCC  REL   A:ff X:ff Y:b7 P:a5 S:f9 pc: facf, reg_addr: fae6, cycle:  19311
facf c9 ff d0 CMP  IMM   A:ff X:ff Y:b7 P:a5 S:f9 pc: fad1, reg_addr:   ff, cycle:  19313
fad1 d0 13 60 BNE  REL   A:ff X:ff Y:b7 P:27 S:f9 pc: fad3, reg_addr: fae6, cycle:  19315
fad3 60 24  1 RTS  IMPL  A:ff X:ff Y:b7 P:27 S:f9 pc: ed1a, reg_addr:    0, cycle:  19321
ed1a a5 47 c9 LDA  ZP    A:ff X:ff Y:b7 P:27 S:fb pc: ed1c, reg_addr:   47, cycle:  19324
ed1c c9  0 f0 CMP  IMM   A: 0 X:ff Y:b7 P:27 S:fb pc: ed1e, reg_addr:    0, cycle:  19326
ed1e f0  2 84 BEQ  REL   A: 0 X:ff Y:b7 P:27 S:fb pc: ed22, reg_addr: ed22, cycle:  19329
ed22 c8 a9 37 INY  IMPL  A: 0 X:ff Y:b7 P:27 S:fb pc: ed23, reg_addr:    0, cycle:  19331
ed23 a9 37 85 LDA  IMM   A: 0 X:ff Y:b8 P:a5 S:fb pc: ed25, reg_addr:   37, cycle:  19333
ed25 85 47 20 STA  ZP    A:37 X:ff Y:b8 P:25 S:fb pc: ed27, reg_addr:   47, cycle:  19336
ed27 20 d4 fa JSR  ABS   A:37 X:ff Y:b8 P:25 S:fb pc: fad4, reg_addr: fad4, cycle:  19342
fad4 24  1 38 BIT  ZP    A:37 X:ff Y:b8 P:25 S:f9 pc: fad6, reg_addr:    1, cycle:  19345
fad6 38 a9 f0 SEC  IMPL  A:37 X:ff Y:b8 P:e5 S:f9 pc: fad7, reg_addr:    0, cycle:  19347
fad7 a9 f0 60 LDA  IMM   A:37 X:ff Y:b8 P:e5 S:f9 pc: fad9, reg_addr:   f0, cycle:  19349
fad9 60 70  a RTS  IMPL  A:f0 X:ff Y:b8 P:e5 S:f9 pc: ed2a, reg_addr:    0, cycle:  19355
ed2a f7 48 ea ISB  ZPX   A:f0 X:ff Y:b8 P:e5 S:fb pc: ed2c, reg_addr:   47, cycle:  19361
ed2c ea ea ea NOP  IMPL  A:b8 X:ff Y:b8 P:a5 S:fb pc: ed2d, reg_addr:    0, cycle:  19363
ed2d ea ea ea NOP  IMPL  A:b8 X:ff Y:b8 P:a5 S:fb pc: ed2e, reg_addr:    0, cycle:  19365
ed2e ea ea 20 NOP  IMPL  A:b8 X:ff Y:b8 P:a5 S:fb pc: ed2f, reg_addr:    0, cycle:  19367
ed2f ea 20 da NOP  IMPL  A:b8 X:ff Y:b8 P:a5 S:fb pc: ed30, reg_addr:    0, cycle:  19369
ed30 20 da fa JSR  ABS   A:b8 X:ff Y:b8 P:a5 S:fb pc: fada, reg_addr: fada, cycle:  19375
fada 70  a f0 BVS  REL   A:b8 X:ff Y:b8 P:a5 S:f9 pc: fadc, reg_addr: fae6, cycle:  19377
fadc f0  8 10 BEQ  REL   A:b8 X:ff Y:b8 P:a5 S:f9 pc: fade, reg_addr: fae6, cycle:  19379
fade 10  6 90 BPL  REL   A:b8 X:ff Y:b8 P:a5 S:f9 pc: fae0, reg_addr: fae6, cycle:  19381
fae0 90  4 c9 BCC  REL   A:b8 X:ff Y:b8 P:a5 S:f9 pc: fae2, reg_addr: fae6, cycle:  19383
fae2 c9 b8 f0 CMP  IMM   A:b8 X:ff Y:b8 P:a5 S:f9 pc: fae4, reg_addr:   b8, cycle:  19385
fae4 f0  2 84 BEQ  REL   A:b8 X:ff Y:b8 P:27 S:f9 pc: fae8, reg_addr: fae8, cycle:  19388
fae8 60 24  1 RTS  IMPL  A:b8 X:ff Y:b8 P:27 S:f9 pc: ed33, reg_addr:    0, cycle:  19394
ed33 a5 47 c9 LDA  ZP    A:b8 X:ff Y:b8 P:27 S:fb pc: ed35, reg_addr:   47, cycle:  19397
ed35 c9 38 f0 CMP  IMM   A:38 X:ff Y:b8 P:25 S:fb pc: ed37, reg_addr:   38, cycle:  19399
ed37 f0  2 84 BEQ  REL   A:38 X:ff Y:b8 P:27 S:fb pc: ed3b, reg_addr: ed3b, cycle:  19402
ed3b a9 eb 8d LDA  IMM   A:38 X:ff Y:b8 P:27 S:fb pc: ed3d, reg_addr:   eb, cycle:  19404
ed3d 8d 47  6 STA  ABS   A:eb X:ff Y:b8 P:a5 S:fb pc: ed40, reg_addr:  647, cycle:  19408
ed40 a0 ff 20 LDY  IMM   A:eb X:ff Y:b8 P:a5 S:fb pc: ed42, reg_addr:   ff, cycle:  19410
ed42 20 b1 fa JSR  ABS   A:eb X:ff Y:ff P:a5 S:fb pc: fab1, reg_addr: fab1, cycle:  19416
fab1 24  1 18 BIT  ZP    A:eb X:ff Y:ff P:a5 S:f9 pc: fab3, reg_addr:    1, cycle:  19419
fab3 18 a9 40 CLC  IMPL  A:eb X:ff Y:ff P:e5 S:f9 pc: fab4, reg_addr:    0, cycle:  19421
fab4 a9 40 60 LDA  IMM   A:eb X:ff Y:ff P:e4 S:f9 pc: fab6, reg_addr:   40, cycle:  19423
fab6 60 70 2d RTS  IMPL  A:40 X:ff Y:ff P:64 S:f9 pc: ed45, reg_addr:    0, cycle:  19429
ed45 fb 48  5 ISB  ABSY  A:40 X:ff Y:ff P:64 S:fb pc: ed48, reg_addr:  647, cycle:  19437
ed48 ea ea  8 NOP  IMPL  A:53 X:ff Y:ff P:24 S:fb pc: ed49, reg_addr:    0, cycle:  19439
ed49 ea  8 48 NOP  IMPL  A:53 X:ff Y:ff P:24 S:fb pc: ed4a, reg_addr:    0, cycle:  19441
ed4a  8 48 a0 PHP  IMPL  A:53 X:ff Y:ff P:24 S:fb pc: ed4b, reg_addr:    0, cycle:  19444
ed4b 48 a0 b9 PHA  IMPL  A:53 X:ff Y:ff P:24 S:fa pc: ed4c, reg_addr:    0, cycle:  19447
ed4c a0 b9 68 LDY  IMM   A:53 X:ff Y:ff P:24 S:f9 pc: ed4e, reg_addr:   b9, cycle:  19449
ed4e 68 28 20 PLA  IMPL  A:53 X:ff Y:b9 P:a4 S:f9 pc: ed4f, reg_addr:    0, cycle:  19453
ed4f 28 20 b7 PLP  IMPL  A:53 X:ff Y:b9 P:24 S:fa pc: ed50, reg_addr:    0, cycle:  19457
ed50 20 b7 fa JSR  ABS   A:53 X:ff Y:b9 P:24 S:fb pc: fab7, reg_addr: fab7, cycle:  19463
fab7 70 2d b0 BVS  REL   A:53 X:ff Y:b9 P:24 S:f9 pc: fab9, reg_addr: fae6, cycle:  19465
fab9 b0 2b 30 BCS  REL   A:53 X:ff Y:b9 P:24 S:f9 pc: fabb, reg_addr: fae6, cycle:  19467
fabb 30 29 c9 BMI  REL   A:53 X:ff Y:b9 P:24 S:f9 pc: fabd, reg_addr: fae6, cycle:  19469
fabd c9 53 d0 CMP  IMM   A:53 X:ff Y:b9 P:24 S:f9 pc: fabf, reg_addr:   53, cycle:  19471
fabf d0 25 60 BNE  REL   A:53 X:ff Y:b9 P:27 S:f9 pc: fac1, reg_addr: fae6, cycle:  19473
fac1 60 b8 38 RTS  IMPL  A:53 X:ff Y:b9 P:27 S:f9 pc: ed53, reg_addr:    0, cycle:  19479
ed53 ad 47  6 LDA  ABS   A:53 X:ff Y:b9 P:27 S:fb pc: ed56, reg_addr:  647, cycle:  19483
ed56 c9 ec f0 CMP  IMM   A:ec X:ff Y:b9 P:a5 S:fb pc: ed58, reg_addr:   ec, cycle:  19485
ed58 f0  2 84 BEQ  REL   A:ec X:ff Y:b9 P:27 S:fb pc: ed5c, reg_addr: ed5c, cycle:  19488
ed5c a0 ff a9 LDY  IMM   A:ec X:ff Y:b9 P:27 S:fb pc: ed5e, reg_addr:   ff, cycle:  19490
ed5e a9 ff 8d LDA  IMM   A:ec X:ff Y:ff P:a5 S:fb pc: ed60, reg_addr:   ff, cycle:  19492
ed60 8d 47  6 STA  ABS   A:ff X:ff Y:ff P:a5 S:fb pc: ed63, reg_addr:  647, cycle:  19496
ed63 20 c2 fa JSR  ABS   A:ff X:ff Y:ff P:a5 S:fb pc: fac2, reg_addr: fac2, cycle:  19502
fac2 b8 38 a9 CLV  IMPL  A:ff X:ff Y:ff P:a5 S:f9 pc: fac3, reg_addr:    0, cycle:  19504
fac3 38 a9 ff SEC  IMPL  A:ff X:ff Y:ff P:a5 S:f9 pc: fac4, reg_addr:    0, cycle:  19506
fac4 a9 ff 60 LDA  IMM   A:ff X:ff Y:ff P:a5 S:f9 pc: fac6, reg_addr:   ff, cycle:  19508
fac6 60 70 1d RTS  IMPL  A:ff X:ff Y:ff P:a5 S:f9 pc: ed66, reg_addr:    0, cycle:  19514
ed66 fb 48  5 ISB  ABSY  A:ff X:ff Y:ff P:a5 S:fb pc: ed69, reg_addr:  647, cycle:  19522
ed69 ea ea  8 NOP  IMPL  A:ff X:ff Y:ff P:a5 S:fb pc: ed6a, reg_addr:    0, cycle:  19524
ed6a ea  8 48 NOP  IMPL  A:ff X:ff Y:ff P:a5 S:fb pc: ed6b, reg_addr:    0, cycle:  19526
ed6b  8 48 a0 PHP  IMPL  A:ff X:ff Y:ff P:a5 S:fb pc: ed6c, reg_addr:    0, cycle:  19529
ed6c 48 a0 ba PHA  IMPL  A:ff X:ff Y:ff P:a5 S:fa pc: ed6d, reg_addr:    0, cycle:  19532
ed6d a0 ba 68 LDY  IMM   A:ff X:ff Y:ff P:a5 S:f9 pc: ed6f, reg_addr:   ba, cycle:  19534
ed6f 68 28 20 PLA  IMPL  A:ff X:ff Y:ba P:a5 S:f9 pc: ed70, reg_addr:    0, cycle:  19538
ed70 28 20 c7 PLP  IMPL  A:ff X:ff Y:ba P:a5 S:fa pc: ed71, reg_addr:    0, cycle:  19542
ed71 20 c7 fa JSR  ABS   A:ff X:ff Y:ba P:a5 S:fb pc: fac7, reg_addr: fac7, cycle:  19548
fac7 70 1d f0 BVS  REL   A:ff X:ff Y:ba P:a5 S:f9 pc: fac9, reg_addr: fae6, cycle:  19550
fac9 f0 1b 10 BEQ  REL   A:ff X:ff Y:ba P:a5 S:f9 pc: facb, reg_addr: fae6, cycle:  19552
facb 10 19 90 BPL  REL   A:ff X:ff Y:ba P:a5 S:f9 pc: facd, reg_addr: fae6, cycle:  19554
facd 90 17 c9 BCC  REL   A:ff X:ff Y:ba P:a5 S:f9 pc: facf, reg_addr: fae6, cycle:  19556
facf c9 ff d0 CMP  IMM   A:ff X:ff Y:ba P:a5 S:f9 pc: fad1, reg_addr:   ff, cycle:  19558
fad1 d0 13 60 BNE  REL   A:ff X:ff Y:ba P:27 S:f9 pc: fad3, reg_addr: fae6, cycle:  19560
fad3 60 24  1 RTS  IMPL  A:ff X:ff Y:ba P:27 S:f9 pc: ed74, reg_addr:    0, cycle:  19566
ed74 ad 47  6 LDA  ABS   A:ff X:ff Y:ba P:27 S:fb pc: ed77, reg_addr:  647, cycle:  19570
ed77 c9  0 f0 CMP  IMM   A: 0 X:ff Y:ba P:27 S:fb pc: ed79, reg_addr:    0, cycle:  19572
ed79 f0  2 84 BEQ  REL   A: 0 X:ff Y:ba P:27 S:fb pc: ed7d, reg_addr: ed7d, cycle:  19575
ed7d a0 ff a9 LDY  IMM   A: 0 X:ff Y:ba P:27 S:fb pc: ed7f, reg_addr:   ff, cycle:  19577
ed7f a9 37 8d LDA  IMM   A: 0 X:ff Y:ff P:a5 S:fb pc: ed81, reg_addr:   37, cycle:  19579
ed81 8d 47  6 STA  ABS   A:37 X:ff Y:ff P:25 S:fb pc: ed84, reg_addr:  647, cycle:  19583
ed84 20 d4 fa JSR  ABS   A:37 X:ff Y:ff P:25 S:fb pc: fad4, reg_addr: fad4, cycle:  19589
fad4 24  1 38 BIT  ZP    A:37 X:ff Y:ff P:25 S:f9 pc: fad6, reg_addr:    1, cycle:  19592
fad6 38 a9 f0 SEC  IMPL  A:37 X:ff Y:ff P:e5 S:f9 pc: fad7, reg_addr:    0, cycle:  19594
fad7 a9 f0 60 LDA  IMM   A:37 X:ff Y:ff P:e5 S:f9 pc: fad9, reg_addr:   f0, cycle:  19596
fad9 60 70  a RTS  IMPL  A:f0 X:ff Y:ff P:e5 S:f9 pc: ed87, reg_addr:    0, cycle:  19602
ed87 fb 48  5 ISB  ABSY  A:f0 X:ff Y:ff P:e5 S:fb pc: ed8a, reg_addr:  647, cycle:  19610
ed8a ea ea  8 NOP  IMPL  A:b8 X:ff Y:ff P:a5 S:fb pc: ed8b, reg_addr:    0, cycle:  19612
ed8b ea  8 48 NOP  IMPL  A:b8 X:ff Y:ff P:a5 S:fb pc: ed8c, reg_addr:    0, cycle:  19614
ed8c  8 48 a0 PHP  IMPL  A:b8 X:ff Y:ff P:a5 S:fb pc: ed8d, reg_addr:    0, cycle:  19617
ed8d 48 a0 bb PHA  IMPL  A:b8 X:ff Y:ff P:a5 S:fa pc: ed8e, reg_addr:    0, cycle:  19620
ed8e a0 bb 68 LDY  IMM   A:b8 X:ff Y:ff P:a5 S:f9 pc: ed90, reg_addr:   bb, cycle:  19622
ed90 68 28 20 PLA  IMPL  A:b8 X:ff Y:bb P:a5 S:f9 pc: ed91, reg_addr:    0, cycle:  19626
ed91 28 20 da PLP  IMPL  A:b8 X:ff Y:bb P:a5 S:fa pc: ed92, reg_addr:    0, cycle:  19630
ed92 20 da fa JSR  ABS   A:b8 X:ff Y:bb P:a5 S:fb pc: fada, reg_addr: fada, cycle:  19636
fada 70  a f0 BVS  REL   A:b8 X:ff Y:bb P:a5 S:f9 pc: fadc, reg_addr: fae6, cycle:  19638
fadc f0  8 10 BEQ  REL   A:b8 X:ff Y:bb P:a5 S:f9 pc: fade, reg_addr: fae6, cycle:  19640
fade 10  6 90 BPL  REL   A:b8 X:ff Y:bb P:a5 S:f9 pc: fae0, reg_addr: fae6, cycle:  19642
fae0 90  4 c9 BCC  REL   A:b8 X:ff Y:bb P:a5 S:f9 pc: fae2, reg_addr: fae6, cycle:  19644
fae2 c9 b8 f0 CMP  IMM   A:b8 X:ff Y:bb P:a5 S:f9 pc: fae4, reg_addr:   b8, cycle:  19646
fae4 f0  2 84 BEQ  REL   A:b8 X:ff Y:bb P:27 S:f9 pc: fae8, reg_addr: fae8, cycle:  19649
fae8 60 24  1 RTS  IMPL  A:b8 X:ff Y:bb P:27 S:f9 pc: ed95, reg_addr:    0, cycle:  19655
ed95 ad 47  6 LDA  ABS   A:b8 X:ff Y:bb P:27 S:fb pc: ed98, reg_addr:  647, cycle:  19659
ed98 c9 38 f0 CMP  IMM   A:38 X:ff Y:bb P:25 S:fb pc: ed9a, reg_addr:   38, cycle:  19661
ed9a f0  2 84 BEQ  REL   A:38 X:ff Y:bb P:27 S:fb pc: ed9e, reg_addr: ed9e, cycle:  19664
ed9e a0 bc a2 LDY  IMM   A:38 X:ff Y:bb P:27 S:fb pc: eda0, reg_addr:   bc, cycle:  19666
eda0 a2 ff a9 LDX  IMM   A:38 X:ff Y:bc P:a5 S:fb pc: eda2, reg_addr:   ff, cycle:  19668
eda2 a9 eb 8d LDA  IMM   A:38 X:ff Y:bc P:a5 S:fb pc: eda4, reg_addr:   eb, cycle:  19670
eda4 8d 47  6 STA  ABS   A:eb X:ff Y:bc P:a5 S:fb pc: eda7, reg_addr:  647, cycle:  19674
eda7 20 b1 fa JSR  ABS   A:eb X:ff Y:bc P:a5 S:fb pc: fab1, reg_addr: fab1, cycle:  19680
fab1 24  1 18 BIT  ZP    A:eb X:ff Y:bc P:a5 S:f9 pc: fab3, reg_addr:    1, cycle:  19683
fab3 18 a9 40 CLC  IMPL  A:eb X:ff Y:bc P:e5 S:f9 pc: fab4, reg_addr:    0, cycle:  19685
fab4 a9 40 60 LDA  IMM   A:eb X:ff Y:bc P:e4 S:f9 pc: fab6, reg_addr:   40, cycle:  19687
fab6 60 70 2d RTS  IMPL  A:40 X:ff Y:bc P:64 S:f9 pc: edaa, reg_addr:    0, cycle:  19693
edaa ff 48  5 ISB  ABSX  A:40 X:ff Y:bc P:64 S:fb pc: edad, reg_addr:  647, cycle:  19701
edad ea ea ea NOP  IMPL  A:53 X:ff Y:bc P:24 S:fb pc: edae, reg_addr:    0, cycle:  19703
edae ea ea ea NOP  IMPL  A:53 X:ff Y:bc P:24 S:fb pc: edaf, reg_addr:    0, cycle:  19705
edaf ea ea 20 NOP  IMPL  A:53 X:ff Y:bc P:24 S:fb pc: edb0, reg_addr:    0, cycle:  19707
edb0 ea 20 b7 NOP  IMPL  A:53 X:ff Y:bc P:24 S:fb pc: edb1, reg_addr:    0, cycle:  19709
edb1 20 b7 fa JSR  ABS   A:53 X:ff Y:bc P:24 S:fb pc: fab7, reg_addr: fab7, cycle:  19715
fab7 70 2d b0 BVS  REL   A:53 X:ff Y:bc P:24 S:f9 pc: fab9, reg_addr: fae6, cycle:  19717
fab9 b0 2b 30 BCS  REL   A:53 X:ff Y:bc P:24 S:f9 pc: fabb, reg_addr: fae6, cycle:  19719
fabb 30 29 c9 BMI  REL   A:53 X:ff Y:bc P:24 S:f9 pc: fabd, reg_addr: fae6, cycle:  19721
fabd c9 53 d0 CMP  IMM   A:53 X:ff Y:bc P:24 S:f9 pc: fabf, reg_addr:   53, cycle:  19723
fabf d0 25 60 BNE  REL   A:53 X:ff Y:bc P:27 S:f9 pc: fac1, reg_addr: fae6, cycle:  19725
fac1 60 b8 38 RTS  IMPL  A:53 X:ff Y:bc P:27 S:f9 pc: edb4, reg_addr:    0, cycle:  19731
edb4 ad 47  6 LDA  ABS   A:53 X:ff Y:bc P:27 S:fb pc: edb7, reg_addr:  647, cycle:  19735
edb7 c9 ec f0 CMP  IMM   A:ec X:ff Y:bc P:a5 S:fb pc: edb9, reg_addr:   ec, cycle:  19737
edb9 f0  2 84 BEQ  REL   A:ec X:ff Y:bc P:27 S:fb pc: edbd, reg_addr: edbd, cycle:  19740
edbd c8 a9 ff INY  IMPL  A:ec X:ff Y:bc P:27 S:fb pc: edbe, reg_addr:    0, cycle:  19742
edbe a9 ff 8d LDA  IMM   A:ec X:ff Y:bd P:a5 S:fb pc: edc0, reg_addr:   ff, cycle:  19744
edc0 8d 47  6 STA  ABS   A:ff X:ff Y:bd P:a5 S:fb pc: edc3, reg_addr:  647, cycle:  19748
edc3 20 c2 fa JSR  ABS   A:ff X:ff Y:bd P:a5 S:fb pc: fac2, reg_addr: fac2, cycle:  19754
fac2 b8 38 a9 CLV  IMPL  A:ff X:ff Y:bd P:a5 S:f9 pc: fac3, reg_addr:    0, cycle:  19756
fac3 38 a9 ff SEC  IMPL  A:ff X:ff Y:bd P:a5 S:f9 pc: fac4, reg_addr:    0, cycle:  19758
fac4 a9 ff 60 LDA  IMM   A:ff X:ff Y:bd P:a5 S:f9 pc: fac6, reg_addr:   ff, cycle:  19760
fac6 60 70 1d RTS  IMPL  A:ff X:ff Y:bd P:a5 S:f9 pc: edc6, reg_addr:    0, cycle:  19766
edc6 ff 48  5 ISB  ABSX  A:ff X:ff Y:bd P:a5 S:fb pc: edc9, reg_addr:  647, cycle:  19774
edc9 ea ea ea NOP  IMPL  A:ff X:ff Y:bd P:a5 S:fb pc: edca, reg_addr:    0, cycle:  19776
edca ea ea ea NOP  IMPL  A:ff X:ff Y:bd P:a5 S:fb pc: edcb, reg_addr:    0, cycle:  19778
edcb ea ea 20 NOP  IMPL  A:ff X:ff Y:bd P:a5 S:fb pc: edcc, reg_addr:    0, cycle:  19780
edcc ea 20 c7 NOP  IMPL  A:ff X:ff Y:bd P:a5 S:fb pc: edcd, reg_addr:    0, cycle:  19782
edcd 20 c7 fa JSR  ABS   A:ff X:ff Y:bd P:a5 S:fb pc: fac7, reg_addr: fac7, cycle:  19788
fac7 70 1d f0 BVS  REL   A:ff X:ff Y:bd P:a5 S:f9 pc: fac9, reg_addr: fae6, cycle:  19790
fac9 f0 1b 10 BEQ  REL   A:ff X:ff Y:bd P:a5 S:f9 pc: facb, reg_addr: fae6, cycle:  19792
facb 10 19 90 BPL  REL   A:ff X:ff Y:bd P:a5 S:f9 pc: facd, reg_addr: fae6, cycle:  19794
facd 90 17 c9 BCC  REL   A:ff X:ff Y:bd P:a5 S:f9 pc: facf, reg_addr: fae6, cycle:  19796
facf c9 ff d0 CMP  IMM   A:ff X:ff Y:bd P:a5 S:f9 pc: fad1, reg_addr:   ff, cycle:  19798
fad1 d0 13 60 BNE  REL   A:ff X:ff Y:bd P:27 S:f9 pc: fad3, reg_addr: fae6, cycle:  19800
fad3 60 24  1 RTS  IMPL  A:ff X:ff Y:bd P:27 S:f9 pc: edd0, reg_addr:    0, cycle:  19806
edd0 ad 47  6 LDA  ABS   A:ff X:ff Y:bd P:27 S:fb pc: edd3, reg_addr:  647, cycle:  19810
edd3 c9  0 f0 CMP  IMM   A: 0 X:ff Y:bd P:27 S:fb pc: edd5, reg_addr:    0, cycle:  19812
edd5 f0  2 84 BEQ  REL   A: 0 X:ff Y:bd P:27 S:fb pc: edd9, reg_addr: edd9, cycle:  19815
edd9 c8 a9 37 INY  IMPL  A: 0 X:ff Y:bd P:27 S:fb pc: edda, reg_addr:    0, cycle:  19817
edda a9 37 8d LDA  IMM   A: 0 X:ff Y:be P:a5 S:fb pc: eddc, reg_addr:   37, cycle:  19819
eddc 8d 47  6 STA  ABS   A:37 X:ff Y:be P:25 S:fb pc: eddf, reg_addr:  647, cycle:  19823
eddf 20 d4 fa JSR  ABS   A:37 X:ff Y:be P:25 S:fb pc: fad4, reg_addr: fad4, cycle:  19829
fad4 24  1 38 BIT  ZP    A:37 X:ff Y:be P:25 S:f9 pc: fad6, reg_addr:    1, cycle:  19832
fad6 38 a9 f0 SEC  IMPL  A:37 X:ff Y:be P:e5 S:f9 pc: fad7, reg_addr:    0, cycle:  19834
fad7 a9 f0 60 LDA  IMM   A:37 X:ff Y:be P:e5 S:f9 pc: fad9, reg_addr:   f0, cycle:  19836
fad9 60 70  a RTS  IMPL  A:f0 X:ff Y:be P:e5 S:f9 pc: ede2, reg_addr:    0, cycle:  19842
ede2 ff 48  5 ISB  ABSX  A:f0 X:ff Y:be P:e5 S:fb pc: ede5, reg_addr:  647, cycle:  19850
ede5 ea ea ea NOP  IMPL  A:b8 X:ff Y:be P:a5 S:fb pc: ede6, reg_addr:    0, cycle:  19852
ede6 ea ea ea NOP  IMPL  A:b8 X:ff Y:be P:a5 S:fb pc: ede7, reg_addr:    0, cycle:  19854
ede7 ea ea 20 NOP  IMPL  A:b8 X:ff Y:be P:a5 S:fb pc: ede8, reg_addr:    0, cycle:  19856
ede8 ea 20 da NOP  IMPL  A:b8 X:ff Y:be P:a5 S:fb pc: ede9, reg_addr:    0, cycle:  19858
ede9 20 da fa JSR  ABS   A:b8 X:ff Y:be P:a5 S:fb pc: fada, reg_addr: fada, cycle:  19864
fada 70  a f0 BVS  REL   A:b8 X:ff Y:be P:a5 S:f9 pc: fadc, reg_addr: fae6, cycle:  19866
fadc f0  8 10 BEQ  REL   A:b8 X:ff Y:be P:a5 S:f9 pc: fade, reg_addr: fae6, cycle:  19868
fade 10  6 90 BPL  REL   A:b8 X:ff Y:be P:a5 S:f9 pc: fae0, reg_addr: fae6, cycle:  19870
fae0 90  4 c9 BCC  REL   A:b8 X:ff Y:be P:a5 S:f9 pc: fae2, reg_addr: fae6, cycle:  19872
fae2 c9 b8 f0 CMP  IMM   A:b8 X:ff Y:be P:a5 S:f9 pc: fae4, reg_addr:   b8, cycle:  19874
fae4 f0  2 84 BEQ  REL   A:b8 X:ff Y:be P:27 S:f9 pc: fae8, reg_addr: fae8, cycle:  19877
fae8 60 24  1 RTS  IMPL  A:b8 X:ff Y:be P:27 S:f9 pc: edec, reg_addr:    0, cycle:  19883
edec ad 47  6 LDA  ABS   A:b8 X:ff Y:be P:27 S:fb pc: edef, reg_addr:  647, cycle:  19887
edef c9 38 f0 CMP  IMM   A:38 X:ff Y:be P:25 S:fb pc: edf1, reg_addr:   38, cycle:  19889
edf1 f0  2 84 BEQ  REL   A:38 X:ff Y:be P:27 S:fb pc: edf5, reg_addr: edf5, cycle:  19892
edf5 60 a9 ff RTS  IMPL  A:38 X:ff Y:be P:27 S:fb pc: c641, reg_addr:    0, cycle:  19898
c641 20 f6 ed JSR  ABS   A:38 X:ff Y:be P:27 S:fd pc: edf6, reg_addr: edf6, cycle:  19904
edf6 a9 ff 85 LDA  IMM   A:38 X:ff Y:be P:27 S:fb pc: edf8, reg_addr:   ff, cycle:  19906
edf8 85  1 a0 STA  ZP    A:ff X:ff Y:be P:a5 S:fb pc: edfa, reg_addr:    1, cycle:  19909
edfa a0 bf a2 LDY  IMM   A:ff X:ff Y:be P:a5 S:fb pc: edfc, reg_addr:   bf, cycle:  19911
edfc a2  2 a9 LDX  IMM   A:ff X:ff Y:bf P:a5 S:fb pc: edfe, reg_addr:    2, cycle:  19913
edfe a9 47 85 LDA  IMM   A:ff X: 2 Y:bf P:25 S:fb pc: ee00, reg_addr:   47, cycle:  19915
ee00 85 47 a9 STA  ZP    A:47 X: 2 Y:bf P:25 S:fb pc: ee02, reg_addr:   47, cycle:  19918
ee02 a9  6 85 LDA  IMM   A:47 X: 2 Y:bf P:25 S:fb pc: ee04, reg_addr:    6, cycle:  19920
ee04 85 48 a9 STA  ZP    A: 6 X: 2 Y:bf P:25 S:fb pc: ee06, reg_addr:   48, cycle:  19923
ee06 a9 a5 8d LDA  IMM   A: 6 X: 2 Y:bf P:25 S:fb pc: ee08, reg_addr:   a5, cycle:  19925
ee08 8d 47  6 STA  ABS   A:a5 X: 2 Y:bf P:a5 S:fb pc: ee0b, reg_addr:  647, cycle:  19929
ee0b 20 7b fa JSR  ABS   A:a5 X: 2 Y:bf P:a5 S:fb pc: fa7b, reg_addr: fa7b, cycle:  19935
fa7b 24  1 18 BIT  ZP    A:a5 X: 2 Y:bf P:a5 S:f9 pc: fa7d, reg_addr:    1, cycle:  19938
fa7d 18 a9 b3 CLC  IMPL  A:a5 X: 2 Y:bf P:e5 S:f9 pc: fa7e, reg_addr:    0, cycle:  19940
fa7e a9 b3 60 LDA  IMM   A:a5 X: 2 Y:bf P:e4 S:f9 pc: fa80, reg_addr:   b3, cycle:  19942
fa80 60 50 63 RTS  IMPL  A:b3 X: 2 Y:bf P:e4 S:f9 pc: ee0e, reg_addr:    0, cycle:  19948
ee0e  3 45 ea SLO  INDX  A:b3 X: 2 Y:bf P:e4 S:fb pc: ee10, reg_addr:  647, cycle:  19956
ee10 ea ea ea NOP  IMPL  A:fb X: 2 Y:bf P:e5 S:fb pc: ee11, reg_addr:    0, cycle:  19958
ee11 ea ea ea NOP  IMPL  A:fb X: 2 Y:bf P:e5 S:fb pc: ee12, reg_addr:    0, cycle:  19960
ee12 ea ea 20 NOP  IMPL  A:fb X: 2 Y:bf P:e5 S:fb pc: ee13, reg_addr:    0, cycle:  19962
ee13 ea 20 81 NOP  IMPL  A:fb X: 2 Y:bf P:e5 S:fb pc: ee14, reg_addr:    0, cycle:  19964
ee14 20 81 fa JSR  ABS   A:fb X: 2 Y:bf P:e5 S:fb pc: fa81, reg_addr: fa81, cycle:  19970
fa81 50 63 90 BVC  REL   A:fb X: 2 Y:bf P:e5 S:f9 pc: fa83, reg_addr: fae6, cycle:  19972
fa83 90 61 10 BCC  REL   A:fb X: 2 Y:bf P:e5 S:f9 pc: fa85, reg_addr: fae6, cycle:  19974
fa85 10 5f c9 BPL  REL   A:fb X: 2 Y:bf P:e5 S:f9 pc: fa87, reg_addr: fae6, cycle:  19976
fa87 c9 fb d0 CMP  IMM   A:fb X: 2 Y:bf P:e5 S:f9 pc: fa89, reg_addr:   fb, cycle:  19978
fa89 d0 5b 60 BNE  REL   A:fb X: 2 Y:bf P:67 S:f9 pc: fa8b, reg_addr: fae6, cycle:  19980
fa8b 60 b8 18 RTS  IMPL  A:fb X: 2 Y:bf P:67 S:f9 pc: ee17, reg_addr:    0, cycle:  19986
ee17 ad 47  6 LDA  ABS   A:fb X: 2 Y:bf P:67 S:fb pc: ee1a, reg_addr:  647, cycle:  19990
ee1a c9 4a f0 CMP  IMM   A:4a X: 2 Y:bf P:65 S:fb pc: ee1c, reg_addr:   4a, cycle:  19992
ee1c f0  2 84 BEQ  REL   A:4a X: 2 Y:bf P:67 S:fb pc: ee20, reg_addr: ee20, cycle:  19995
ee20 c8 a9 29 INY  IMPL  A:4a X: 2 Y:bf P:67 S:fb pc: ee21, reg_addr:    0, cycle:  19997
ee21 a9 29 8d LDA  IMM   A:4a X: 2 Y:c0 P:e5 S:fb pc: ee23, reg_addr:   29, cycle:  19999
ee23 8d 47  6 STA  ABS   A:29 X: 2 Y:c0 P:65 S:fb pc: ee26, reg_addr:  647, cycle:  20003
ee26 20 8c fa JSR  ABS   A:29 X: 2 Y:c0 P:65 S:fb pc: fa8c, reg_addr: fa8c, cycle:  20009
fa8c b8 18 a9 CLV  IMPL  A:29 X: 2 Y:c0 P:65 S:f9 pc: fa8d, reg_addr:    0, cycle:  20011
fa8d 18 a9 c3 CLC  IMPL  A:29 X: 2 Y:c0 P:25 S:f9 pc: fa8e, reg_addr:    0, cycle:  20013
fa8e a9 c3 60 LDA  IMM   A:29 X: 2 Y:c0 P:24 S:f9 pc: fa90, reg_addr:   c3, cycle:  20015
fa90 60 70 53 RTS  IMPL  A:c3 X: 2 Y:c0 P:a4 S:f9 pc: ee29, reg_addr:    0, cycle:  20021
ee29  3 45 ea SLO  INDX  A:c3 X: 2 Y:c0 P:a4 S:fb pc: ee2b, reg_addr:  647, cycle:  20029
ee2b ea ea ea NOP  IMPL  A:d3 X: 2 Y:c0 P:a4 S:fb pc: ee2c, reg_addr:    0, cycle:  20031
ee2c ea ea ea NOP  IMPL  A:d3 X: 2 Y:c0 P:a4 S:fb pc: ee2d, reg_addr:    0, cycle:  20033
ee2d ea ea 20 NOP  IMPL  A:d3 X: 2 Y:c0 P:a4 S:fb pc: ee2e, reg_addr:    0, cycle:  20035
ee2e ea 20 91 NOP  IMPL  A:d3 X: 2 Y:c0 P:a4 S:fb pc: ee2f, reg_addr:    0, cycle:  20037
ee2f 20 91 fa JSR  ABS   A:d3 X: 2 Y:c0 P:a4 S:fb pc: fa91, reg_addr: fa91, cycle:  20043
fa91 70 53 f0 BVS  REL   A:d3 X: 2 Y:c0 P:a4 S:f9 pc: fa93, reg_addr: fae6, cycle:  20045
fa93 f0 51 10 BEQ  REL   A:d3 X: 2 Y:c0 P:a4 S:f9 pc: fa95, reg_addr: fae6, cycle:  20047
fa95 10 4f b0 BPL  REL   A:d3 X: 2 Y:c0 P:a4 S:f9 pc: fa97, reg_addr: fae6, cycle:  20049
fa97 b0 4d c9 BCS  REL   A:d3 X: 2 Y:c0 P:a4 S:f9 pc: fa99, reg_addr: fae6, cycle:  20051
fa99 c9 d3 d0 CMP  IMM   A:d3 X: 2 Y:c0 P:a4 S:f9 pc: fa9b, reg_addr:   d3, cycle:  20053
fa9b d0 49 60 BNE  REL   A:d3 X: 2 Y:c0 P:27 S:f9 pc: fa9d, reg_addr: fae6, cycle:  20055
fa9d 60 24  1 RTS  IMPL  A:d3 X: 2 Y:c0 P:27 S:f9 pc: ee32, reg_addr:    0, cycle:  20061
ee32 ad 47  6 LDA  ABS   A:d3 X: 2 Y:c0 P:27 S:fb pc: ee35, reg_addr:  647, cycle:  20065
ee35 c9 52 f0 CMP  IMM   A:52 X: 2 Y:c0 P:25 S:fb pc: ee37, reg_addr:   52, cycle:  20067
ee37 f0  2 84 BEQ  REL   A:52 X: 2 Y:c0 P:27 S:fb pc: ee3b, reg_addr: ee3b, cycle:  20070
ee3b c8 a9 37 INY  IMPL  A:52 X: 2 Y:c0 P:27 S:fb pc: ee3c, reg_addr:    0, cycle:  20072
ee3c a9 37 8d LDA  IMM   A:52 X: 2 Y:c1 P:a5 S:fb pc: ee3e, reg_addr:   37, cycle:  20074
ee3e 8d 47  6 STA  ABS   A:37 X: 2 Y:c1 P:25 S:fb pc: ee41, reg_addr:  647, cycle:  20078
ee41 20 9e fa JSR  ABS   A:37 X: 2 Y:c1 P:25 S:fb pc: fa9e, reg_addr: fa9e, cycle:  20084
fa9e 24  1 38 BIT  ZP    A:37 X: 2 Y:c1 P:25 S:f9 pc: faa0, reg_addr:    1, cycle:  20087
faa0 38 a9 10 SEC  IMPL  A:37 X: 2 Y:c1 P:e5 S:f9 pc: faa1, reg_addr:    0, cycle:  20089
faa1 a9 10 60 LDA  IMM   A:37 X: 2 Y:c1 P:e5 S:f9 pc: faa3, reg_addr:   10, cycle:  20091
faa3 60 50 40 RTS  IMPL  A:10 X: 2 Y:c1 P:65 S:f9 pc: ee44, reg_addr:    0, cycle:  20097
ee44  3 45 ea SLO  INDX  A:10 X: 2 Y:c1 P:65 S:fb pc: ee46, reg_addr:  647, cycle:  20105
ee46 ea ea ea NOP  IMPL  A:7e X: 2 Y:c1 P:64 S:fb pc: ee47, reg_addr:    0, cycle:  20107
ee47 ea ea ea NOP  IMPL  A:7e X: 2 Y:c1 P:64 S:fb pc: ee48, reg_addr:    0, cycle:  20109
ee48 ea ea 20 NOP  IMPL  A:7e X: 2 Y:c1 P:64 S:fb pc: ee49, reg_addr:    0, cycle:  20111
ee49 ea 20 a4 NOP  IMPL  A:7e X: 2 Y:c1 P:64 S:fb pc: ee4a, reg_addr:    0, cycle:  20113
ee4a 20 a4 fa JSR  ABS   A:7e X: 2 Y:c1 P:64 S:fb pc: faa4, reg_addr: faa4, cycle:  20119
faa4 50 40 f0 BVC  REL   A:7e X: 2 Y:c1 P:64 S:f9 pc: faa6, reg_addr: fae6, cycle:  20121
faa6 f0 3e 30 BEQ  REL   A:7e X: 2 Y:c1 P:64 S:f9 pc: faa8, reg_addr: fae6, cycle:  20123
faa8 30 3c b0 BMI  REL   A:7e X: 2 Y:c1 P:64 S:f9 pc: faaa, reg_addr: fae6, cycle:  20125
faaa b0 3a c9 BCS  REL   A:7e X: 2 Y:c1 P:64 S:f9 pc: faac, reg_addr: fae6, cycle:  20127
faac c9 7e d0 CMP  IMM   A:7e X: 2 Y:c1 P:64 S:f9 pc: faae, reg_addr:   7e, cycle:  20129
faae d0 36 60 BNE  REL   A:7e X: 2 Y:c1 P:67 S:f9 pc: fab0, reg_addr: fae6, cycle:  20131
fab0 60 24  1 RTS  IMPL  A:7e X: 2 Y:c1 P:67 S:f9 pc: ee4d, reg_addr:    0, cycle:  20137
ee4d ad 47  6 LDA  ABS   A:7e X: 2 Y:c1 P:67 S:fb pc: ee50, reg_addr:  647, cycle:  20141
ee50 c9 6e f0 CMP  IMM   A:6e X: 2 Y:c1 P:65 S:fb pc: ee52, reg_addr:   6e, cycle:  20143
ee52 f0  2 84 BEQ  REL   A:6e X: 2 Y:c1 P:67 S:fb pc: ee56, reg_addr: ee56, cycle:  20146
ee56 c8 a9 a5 INY  IMPL  A:6e X: 2 Y:c1 P:67 S:fb pc: ee57, reg_addr:    0, cycle:  20148
ee57 a9 a5 85 LDA  IMM   A:6e X: 2 Y:c2 P:e5 S:fb pc: ee59, reg_addr:   a5, cycle:  20150
ee59 85 47 20 STA  ZP    A:a5 X: 2 Y:c2 P:e5 S:fb pc: ee5b, reg_addr:   47, cycle:  20153
ee5b 20 7b fa JSR  ABS   A:a5 X: 2 Y:c2 P:e5 S:fb pc: fa7b, reg_addr: fa7b, cycle:  20159
fa7b 24  1 18 BIT  ZP    A:a5 X: 2 Y:c2 P:e5 S:f9 pc: fa7d, reg_addr:    1, cycle:  20162
fa7d 18 a9 b3 CLC  IMPL  A:a5 X: 2 Y:c2 P:e5 S:f9 pc: fa7e, reg_addr:    0, cycle:  20164
fa7e a9 b3 60 LDA  IMM   A:a5 X: 2 Y:c2 P:e4 S:f9 pc: fa80, reg_addr:   b3, cycle:  20166
fa80 60 50 63 RTS  IMPL  A:b3 X: 2 Y:c2 P:e4 S:f9 pc: ee5e, reg_addr:    0, cycle:  20172
ee5e  7 47 ea SLO  ZP    A:b3 X: 2 Y:c2 P:e4 S:fb pc: ee60, reg_addr:   47, cycle:  20177
ee60 ea ea ea NOP  IMPL  A:fb X: 2 Y:c2 P:e5 S:fb pc: ee61, reg_addr:    0, cycle:  20179
ee61 ea ea ea NOP  IMPL  A:fb X: 2 Y:c2 P:e5 S:fb pc: ee62, reg_addr:    0, cycle:  20181
ee62 ea ea 20 NOP  IMPL  A:fb X: 2 Y:c2 P:e5 S:fb pc: ee63, reg_addr:    0, cycle:  20183
ee63 ea 20 81 NOP  IMPL  A:fb X: 2 Y:c2 P:e5 S:fb pc: ee64, reg_addr:    0, cycle:  20185
ee64 20 81 fa JSR  ABS   A:fb X: 2 Y:c2 P:e5 S:fb pc: fa81, reg_addr: fa81, cycle:  20191
fa81 50 63 90 BVC  REL   A:fb X: 2 Y:c2 P:e5 S:f9 pc: fa83, reg_addr: fae6, cycle:  20193
fa83 90 61 10 BCC  REL   A:fb X: 2 Y:c2 P:e5 S:f9 pc: fa85, reg_addr: fae6, cycle:  20195
fa85 10 5f c9 BPL  REL   A:fb X: 2 Y:c2 P:e5 S:f9 pc: fa87, reg_addr: fae6, cycle:  20197
fa87 c9 fb d0 CMP  IMM   A:fb X: 2 Y:c2 P:e5 S:f9 pc: fa89, reg_addr:   fb, cycle:  20199
fa89 d0 5b 60 BNE  REL   A:fb X: 2 Y:c2 P:67 S:f9 pc: fa8b, reg_addr: fae6, cycle:  20201
fa8b 60 b8 18 RTS  IMPL  A:fb X: 2 Y:c2 P:67 S:f9 pc: ee67, reg_addr:    0, cycle:  20207
ee67 a5 47 c9 LDA  ZP    A:fb X: 2 Y:c2 P:67 S:fb pc: ee69, reg_addr:   47, cycle:  20210
ee69 c9 4a f0 CMP  IMM   A:4a X: 2 Y:c2 P:65 S:fb pc: ee6b, reg_addr:   4a, cycle:  20212
ee6b f0  2 84 BEQ  REL   A:4a X: 2 Y:c2 P:67 S:fb pc: ee6f, reg_addr: ee6f, cycle:  20215
ee6f c8 a9 29 INY  IMPL  A:4a X: 2 Y:c2 P:67 S:fb pc: ee70, reg_addr:    0, cycle:  20217
ee70 a9 29 85 LDA  IMM   A:4a X: 2 Y:c3 P:e5 S:fb pc: ee72, reg_addr:   29, cycle:  20219
ee72 85 47 20 STA  ZP    A:29 X: 2 Y:c3 P:65 S:fb pc: ee74, reg_addr:   47, cycle:  20222
ee74 20 8c fa JSR  ABS   A:29 X: 2 Y:c3 P:65 S:fb pc: fa8c, reg_addr: fa8c, cycle:  20228
fa8c b8 18 a9 CLV  IMPL  A:29 X: 2 Y:c3 P:65 S:f9 pc: fa8d, reg_addr:    0, cycle:  20230
fa8d 18 a9 c3 CLC  IMPL  A:29 X: 2 Y:c3 P:25 S:f9 pc: fa8e, reg_addr:    0, cycle:  20232
fa8e a9 c3 60 LDA  IMM   A:29 X: 2 Y:c3 P:24 S:f9 pc: fa90, reg_addr:   c3, cycle:  20234
fa90 60 70 53 RTS  IMPL  A:c3 X: 2 Y:c3 P:a4 S:f9 pc: ee77, reg_addr:    0, cycle:  20240
ee77  7 47 ea SLO  ZP    A:c3 X: 2 Y:c3 P:a4 S:fb pc: ee79, reg_addr:   47, cycle:  20245
ee79 ea ea ea NOP  IMPL  A:d3 X: 2 Y:c3 P:a4 S:fb pc: ee7a, reg_addr:    0, cycle:  20247
ee7a ea ea ea NOP  IMPL  A:d3 X: 2 Y:c3 P:a4 S:fb pc: ee7b, reg_addr:    0, cycle:  20249
ee7b ea ea 20 NOP  IMPL  A:d3 X: 2 Y:c3 P:a4 S:fb pc: ee7c, reg_addr:    0, cycle:  20251
ee7c ea 20 91 NOP  IMPL  A:d3 X: 2 Y:c3 P:a4 S:fb pc: ee7d, reg_addr:    0, cycle:  20253
ee7d 20 91 fa JSR  ABS   A:d3 X: 2 Y:c3 P:a4 S:fb pc: fa91, reg_addr: fa91, cycle:  20259
fa91 70 53 f0 BVS  REL   A:d3 X: 2 Y:c3 P:a4 S:f9 pc: fa93, reg_addr: fae6, cycle:  20261
fa93 f0 51 10 BEQ  REL   A:d3 X: 2 Y:c3 P:a4 S:f9 pc: fa95, reg_addr: fae6, cycle:  20263
fa95 10 4f b0 BPL  REL   A:d3 X: 2 Y:c3 P:a4 S:f9 pc: fa97, reg_addr: fae6, cycle:  20265
fa97 b0 4d c9 BCS  REL   A:d3 X: 2 Y:c3 P:a4 S:f9 pc: fa99, reg_addr: fae6, cycle:  20267
fa99 c9 d3 d0 CMP  IMM   A:d3 X: 2 Y:c3 P:a4 S:f9 pc: fa9b, reg_addr:   d3, cycle:  20269
fa9b d0 49 60 BNE  REL   A:d3 X: 2 Y:c3 P:27 S:f9 pc: fa9d, reg_addr: fae6, cycle:  20271
fa9d 60 24  1 RTS  IMPL  A:d3 X: 2 Y:c3 P:27 S:f9 pc: ee80, reg_addr:    0, cycle:  20277
ee80 a5 47 c9 LDA  ZP    A:d3 X: 2 Y:c3 P:27 S:fb pc: ee82, reg_addr:   47, cycle:  20280
ee82 c9 52 f0 CMP  IMM   A:52 X: 2 Y:c3 P:25 S:fb pc: ee84, reg_addr:   52, cycle:  20282
ee84 f0  2 84 BEQ  REL   A:52 X: 2 Y:c3 P:27 S:fb pc: ee88, reg_addr: ee88, cycle:  20285
ee88 c8 a9 37 INY  IMPL  A:52 X: 2 Y:c3 P:27 S:fb pc: ee89, reg_addr:    0, cycle:  20287
ee89 a9 37 85 LDA  IMM   A:52 X: 2 Y:c4 P:a5 S:fb pc: ee8b, reg_addr:   37, cycle:  20289
ee8b 85 47 20 STA  ZP    A:37 X: 2 Y:c4 P:25 S:fb pc: ee8d, reg_addr:   47, cycle:  20292
ee8d 20 9e fa JSR  ABS   A:37 X: 2 Y:c4 P:25 S:fb pc: fa9e, reg_addr: fa9e, cycle:  20298
fa9e 24  1 38 BIT  ZP    A:37 X: 2 Y:c4 P:25 S:f9 pc: faa0, reg_addr:    1, cycle:  20301
faa0 38 a9 10 SEC  IMPL  A:37 X: 2 Y:c4 P:e5 S:f9 pc: faa1, reg_addr:    0, cycle:  20303
faa1 a9 10 60 LDA  IMM   A:37 X: 2 Y:c4 P:e5 S:f9 pc: faa3, reg_addr:   10, cycle:  20305
faa3 60 50 40 RTS  IMPL  A:10 X: 2 Y:c4 P:65 S:f9 pc: ee90, reg_addr:    0, cycle:  20311
ee90  7 47 ea SLO  ZP    A:10 X: 2 Y:c4 P:65 S:fb pc: ee92, reg_addr:   47, cycle:  20316
ee92 ea ea ea NOP  IMPL  A:7e X: 2 Y:c4 P:64 S:fb pc: ee93, reg_addr:    0, cycle:  20318
ee93 ea ea ea NOP  IMPL  A:7e X: 2 Y:c4 P:64 S:fb pc: ee94, reg_addr:    0, cycle:  20320
ee94 ea ea 20 NOP  IMPL  A:7e X: 2 Y:c4 P:64 S:fb pc: ee95, reg_addr:    0, cycle:  20322
ee95 ea 20 a4 NOP  IMPL  A:7e X: 2 Y:c4 P:64 S:fb pc: ee96, reg_addr:    0, cycle:  20324
ee96 20 a4 fa JSR  ABS   A:7e X: 2 Y:c4 P:64 S:fb pc: faa4, reg_addr: faa4, cycle:  20330
faa4 50 40 f0 BVC  REL   A:7e X: 2 Y:c4 P:64 S:f9 pc: faa6, reg_addr: fae6, cycle:  20332
faa6 f0 3e 30 BEQ  REL   A:7e X: 2 Y:c4 P:64 S:f9 pc: faa8, reg_addr: fae6, cycle:  20334
faa8 30 3c b0 BMI  REL   A:7e X: 2 Y:c4 P:64 S:f9 pc: faaa, reg_addr: fae6, cycle:  20336
faaa b0 3a c9 BCS  REL   A:7e X: 2 Y:c4 P:64 S:f9 pc: faac, reg_addr: fae6, cycle:  20338
faac c9 7e d0 CMP  IMM   A:7e X: 2 Y:c4 P:64 S:f9 pc: faae, reg_addr:   7e, cycle:  20340
faae d0 36 60 BNE  REL   A:7e X: 2 Y:c4 P:67 S:f9 pc: fab0, reg_addr: fae6, cycle:  20342
fab0 60 24  1 RTS  IMPL  A:7e X: 2 Y:c4 P:67 S:f9 pc: ee99, reg_addr:    0, cycle:  20348
ee99 a5 47 c9 LDA  ZP    A:7e X: 2 Y:c4 P:67 S:fb pc: ee9b, reg_addr:   47, cycle:  20351
ee9b c9 6e f0 CMP  IMM   A:6e X: 2 Y:c4 P:65 S:fb pc: ee9d, reg_addr:   6e, cycle:  20353
ee9d f0  2 84 BEQ  REL   A:6e X: 2 Y:c4 P:67 S:fb pc: eea1, reg_addr: eea1, cycle:  20356
eea1 c8 a9 a5 INY  IMPL  A:6e X: 2 Y:c4 P:67 S:fb pc: eea2, reg_addr:    0, cycle:  20358
eea2 a9 a5 8d LDA  IMM   A:6e X: 2 Y:c5 P:e5 S:fb pc: eea4, reg_addr:   a5, cycle:  20360
eea4 8d 47  6 STA  ABS   A:a5 X: 2 Y:c5 P:e5 S:fb pc: eea7, reg_addr:  647, cycle:  20364
eea7 20 7b fa JSR  ABS   A:a5 X: 2 Y:c5 P:e5 S:fb pc: fa7b, reg_addr: fa7b, cycle:  20370
fa7b 24  1 18 BIT  ZP    A:a5 X: 2 Y:c5 P:e5 S:f9 pc: fa7d, reg_addr:    1, cycle:  20373
fa7d 18 a9 b3 CLC  IMPL  A:a5 X: 2 Y:c5 P:e5 S:f9 pc: fa7e, reg_addr:    0, cycle:  20375
fa7e a9 b3 60 LDA  IMM   A:a5 X: 2 Y:c5 P:e4 S:f9 pc: fa80, reg_addr:   b3, cycle:  20377
fa80 60 50 63 RTS  IMPL  A:b3 X: 2 Y:c5 P:e4 S:f9 pc: eeaa, reg_addr:    0, cycle:  20383
eeaa  f 47  6 SLO  ABS   A:b3 X: 2 Y:c5 P:e4 S:fb pc: eead, reg_addr:  647, cycle:  20389
eead ea ea ea NOP  IMPL  A:fb X: 2 Y:c5 P:e5 S:fb pc: eeae, reg_addr:    0, cycle:  20391
eeae ea ea ea NOP  IMPL  A:fb X: 2 Y:c5 P:e5 S:fb pc: eeaf, reg_addr:    0, cycle:  20393
eeaf ea ea 20 NOP  IMPL  A:fb X: 2 Y:c5 P:e5 S:fb pc: eeb0, reg_addr:    0, cycle:  20395
eeb0 ea 20 81 NOP  IMPL  A:fb X: 2 Y:c5 P:e5 S:fb pc: eeb1, reg_addr:    0, cycle:  20397
eeb1 20 81 fa JSR  ABS   A:fb X: 2 Y:c5 P:e5 S:fb pc: fa81, reg_addr: fa81, cycle:  20403
fa81 50 63 90 BVC  REL   A:fb X: 2 Y:c5 P:e5 S:f9 pc: fa83, reg_addr: fae6, cycle:  20405
fa83 90 61 10 BCC  REL   A:fb X: 2 Y:c5 P:e5 S:f9 pc: fa85, reg_addr: fae6, cycle:  20407
fa85 10 5f c9 BPL  REL   A:fb X: 2 Y:c5 P:e5 S:f9 pc: fa87, reg_addr: fae6, cycle:  20409
fa87 c9 fb d0 CMP  IMM   A:fb X: 2 Y:c5 P:e5 S:f9 pc: fa89, reg_addr:   fb, cycle:  20411
fa89 d0 5b 60 BNE  REL   A:fb X: 2 Y:c5 P:67 S:f9 pc: fa8b, reg_addr: fae6, cycle:  20413
fa8b 60 b8 18 RTS  IMPL  A:fb X: 2 Y:c5 P:67 S:f9 pc: eeb4, reg_addr:    0, cycle:  20419
eeb4 ad 47  6 LDA  ABS   A:fb X: 2 Y:c5 P:67 S:fb pc: eeb7, reg_addr:  647, cycle:  20423
eeb7 c9 4a f0 CMP  IMM   A:4a X: 2 Y:c5 P:65 S:fb pc: eeb9, reg_addr:   4a, cycle:  20425
eeb9 f0  2 84 BEQ  REL   A:4a X: 2 Y:c5 P:67 S:fb pc: eebd, reg_addr: eebd, cycle:  20428
eebd c8 a9 29 INY  IMPL  A:4a X: 2 Y:c5 P:67 S:fb pc: eebe, reg_addr:    0, cycle:  20430
eebe a9 29 8d LDA  IMM   A:4a X: 2 Y:c6 P:e5 S:fb pc: eec0, reg_addr:   29, cycle:  20432
eec0 8d 47  6 STA  ABS   A:29 X: 2 Y:c6 P:65 S:fb pc: eec3, reg_addr:  647, cycle:  20436
eec3 20 8c fa JSR  ABS   A:29 X: 2 Y:c6 P:65 S:fb pc: fa8c, reg_addr: fa8c, cycle:  20442
fa8c b8 18 a9 CLV  IMPL  A:29 X: 2 Y:c6 P:65 S:f9 pc: fa8d, reg_addr:    0, cycle:  20444
fa8d 18 a9 c3 CLC  IMPL  A:29 X: 2 Y:c6 P:25 S:f9 pc: fa8e, reg_addr:    0, cycle:  20446
fa8e a9 c3 60 LDA  IMM   A:29 X: 2 Y:c6 P:24 S:f9 pc: fa90, reg_addr:   c3, cycle:  20448
fa90 60 70 53 RTS  IMPL  A:c3 X: 2 Y:c6 P:a4 S:f9 pc: eec6, reg_addr:    0, cycle:  20454
eec6  f 47  6 SLO  ABS   A:c3 X: 2 Y:c6 P:a4 S:fb pc: eec9, reg_addr:  647, cycle:  20460
eec9 ea ea ea NOP  IMPL  A:d3 X: 2 Y:c6 P:a4 S:fb pc: eeca, reg_addr:    0, cycle:  20462
eeca ea ea ea NOP  IMPL  A:d3 X: 2 Y:c6 P:a4 S:fb pc: eecb, reg_addr:    0, cycle:  20464
eecb ea ea 20 NOP  IMPL  A:d3 X: 2 Y:c6 P:a4 S:fb pc: eecc, reg_addr:    0, cycle:  20466
eecc ea 20 91 NOP  IMPL  A:d3 X: 2 Y:c6 P:a4 S:fb pc: eecd, reg_addr:    0, cycle:  20468
eecd 20 91 fa JSR  ABS   A:d3 X: 2 Y:c6 P:a4 S:fb pc: fa91, reg_addr: fa91, cycle:  20474
fa91 70 53 f0 BVS  REL   A:d3 X: 2 Y:c6 P:a4 S:f9 pc: fa93, reg_addr: fae6, cycle:  20476
fa93 f0 51 10 BEQ  REL   A:d3 X: 2 Y:c6 P:a4 S:f9 pc: fa95, reg_addr: fae6, cycle:  20478
fa95 10 4f b0 BPL  REL   A:d3 X: 2 Y:c6 P:a4 S:f9 pc: fa97, reg_addr: fae6, cycle:  20480
fa97 b0 4d c9 BCS  REL   A:d3 X: 2 Y:c6 P:a4 S:f9 pc: fa99, reg_addr: fae6, cycle:  20482
fa99 c9 d3 d0 CMP  IMM   A:d3 X: 2 Y:c6 P:a4 S:f9 pc: fa9b, reg_addr:   d3, cycle:  20484
fa9b d0 49 60 BNE  REL   A:d3 X: 2 Y:c6 P:27 S:f9 pc: fa9d, reg_addr: fae6, cycle:  20486
fa9d 60 24  1 RTS  IMPL  A:d3 X: 2 Y:c6 P:27 S:f9 pc: eed0, reg_addr:    0, cycle:  20492
eed0 ad 47  6 LDA  ABS   A:d3 X: 2 Y:c6 P:27 S:fb pc: eed3, reg_addr:  647, cycle:  20496
eed3 c9 52 f0 CMP  IMM   A:52 X: 2 Y:c6 P:25 S:fb pc: eed5, reg_addr:   52, cycle:  20498
eed5 f0  2 84 BEQ  REL   A:52 X: 2 Y:c6 P:27 S:fb pc: eed9, reg_addr: eed9, cycle:  20501
eed9 c8 a9 37 INY  IMPL  A:52 X: 2 Y:c6 P:27 S:fb pc: eeda, reg_addr:    0, cycle:  20503
eeda a9 37 8d LDA  IMM   A:52 X: 2 Y:c7 P:a5 S:fb pc: eedc, reg_addr:   37, cycle:  20505
eedc 8d 47  6 STA  ABS   A:37 X: 2 Y:c7 P:25 S:fb pc: eedf, reg_addr:  647, cycle:  20509
eedf 20 9e fa JSR  ABS   A:37 X: 2 Y:c7 P:25 S:fb pc: fa9e, reg_addr: fa9e, cycle:  20515
fa9e 24  1 38 BIT  ZP    A:37 X: 2 Y:c7 P:25 S:f9 pc: faa0, reg_addr:    1, cycle:  20518
faa0 38 a9 10 SEC  IMPL  A:37 X: 2 Y:c7 P:e5 S:f9 pc: faa1, reg_addr:    0, cycle:  20520
faa1 a9 10 60 LDA  IMM   A:37 X: 2 Y:c7 P:e5 S:f9 pc: faa3, reg_addr:   10, cycle:  20522
faa3 60 50 40 RTS  IMPL  A:10 X: 2 Y:c7 P:65 S:f9 pc: eee2, reg_addr:    0, cycle:  20528
eee2  f 47  6 SLO  ABS   A:10 X: 2 Y:c7 P:65 S:fb pc: eee5, reg_addr:  647, cycle:  20534
eee5 ea ea ea NOP  IMPL  A:7e X: 2 Y:c7 P:64 S:fb pc: eee6, reg_addr:    0, cycle:  20536
eee6 ea ea ea NOP  IMPL  A:7e X: 2 Y:c7 P:64 S:fb pc: eee7, reg_addr:    0, cycle:  20538
eee7 ea ea 20 NOP  IMPL  A:7e X: 2 Y:c7 P:64 S:fb pc: eee8, reg_addr:    0, cycle:  20540
eee8 ea 20 a4 NOP  IMPL  A:7e X: 2 Y:c7 P:64 S:fb pc: eee9, reg_addr:    0, cycle:  20542
eee9 20 a4 fa JSR  ABS   A:7e X: 2 Y:c7 P:64 S:fb pc: faa4, reg_addr: faa4, cycle:  20548
faa4 50 40 f0 BVC  REL   A:7e X: 2 Y:c7 P:64 S:f9 pc: faa6, reg_addr: fae6, cycle:  20550
faa6 f0 3e 30 BEQ  REL   A:7e X: 2 Y:c7 P:64 S:f9 pc: faa8, reg_addr: fae6, cycle:  20552
faa8 30 3c b0 BMI  REL   A:7e X: 2 Y:c7 P:64 S:f9 pc: faaa, reg_addr: fae6, cycle:  20554
faaa b0 3a c9 BCS  REL   A:7e X: 2 Y:c7 P:64 S:f9 pc: faac, reg_addr: fae6, cycle:  20556
faac c9 7e d0 CMP  IMM   A:7e X: 2 Y:c7 P:64 S:f9 pc: faae, reg_addr:   7e, cycle:  20558
faae d0 36 60 BNE  REL   A:7e X: 2 Y:c7 P:67 S:f9 pc: fab0, reg_addr: fae6, cycle:  20560
fab0 60 24  1 RTS  IMPL  A:7e X: 2 Y:c7 P:67 S:f9 pc: eeec, reg_addr:    0, cycle:  20566
eeec ad 47  6 LDA  ABS   A:7e X: 2 Y:c7 P:67 S:fb pc: eeef, reg_addr:  647, cycle:  20570
eeef c9 6e f0 CMP  IMM   A:6e X: 2 Y:c7 P:65 S:fb pc: eef1, reg_addr:   6e, cycle:  20572
eef1 f0  2 84 BEQ  REL   A:6e X: 2 Y:c7 P:67 S:fb pc: eef5, reg_addr: eef5, cycle:  20575
eef5 a9 a5 8d LDA  IMM   A:6e X: 2 Y:c7 P:67 S:fb pc: eef7, reg_addr:   a5, cycle:  20577
eef7 8d 47  6 STA  ABS   A:a5 X: 2 Y:c7 P:e5 S:fb pc: eefa, reg_addr:  647, cycle:  20581
eefa a9 48 85 LDA  IMM   A:a5 X: 2 Y:c7 P:e5 S:fb pc: eefc, reg_addr:   48, cycle:  20583
eefc 85 45 a9 STA  ZP    A:48 X: 2 Y:c7 P:65 S:fb pc: eefe, reg_addr:   45, cycle:  20586
eefe a9  5 85 LDA  IMM   A:48 X: 2 Y:c7 P:65 S:fb pc: ef00, reg_addr:    5, cycle:  20588
ef00 85 46 a0 STA  ZP    A: 5 X: 2 Y:c7 P:65 S:fb pc: ef02, reg_addr:   46, cycle:  20591
ef02 a0 ff 20 LDY  IMM   A: 5 X: 2 Y:c7 P:65 S:fb pc: ef04, reg_addr:   ff, cycle:  20593
ef04 20 7b fa JSR  ABS   A: 5 X: 2 Y:ff P:e5 S:fb pc: fa7b, reg_addr: fa7b, cycle:  20599
fa7b 24  1 18 BIT  ZP    A: 5 X: 2 Y:ff P:e5 S:f9 pc: fa7d, reg_addr:    1, cycle:  20602
fa7d 18 a9 b3 CLC  IMPL  A: 5 X: 2 Y:ff P:e5 S:f9 pc: fa7e, reg_addr:    0, cycle:  20604
fa7e a9 b3 60 LDA  IMM   A: 5 X: 2 Y:ff P:e4 S:f9 pc: fa80, reg_addr:   b3, cycle:  20606
fa80 60 50 63 RTS  IMPL  A:b3 X: 2 Y:ff P:e4 S:f9 pc: ef07, reg_addr:    0, cycle:  20612
ef07 13 45 ea SLO  INDY  A:b3 X: 2 Y:ff P:e4 S:fb pc: ef09, reg_addr:  647, cycle:  20621
ef09 ea ea  8 NOP  IMPL  A:fb X: 2 Y:ff P:e5 S:fb pc: ef0a, reg_addr:    0, cycle:  20623
ef0a ea  8 48 NOP  IMPL  A:fb X: 2 Y:ff P:e5 S:fb pc: ef0b, reg_addr:    0, cycle:  20625
ef0b  8 48 a0 PHP  IMPL  A:fb X: 2 Y:ff P:e5 S:fb pc: ef0c, reg_addr:    0, cycle:  20628
ef0c 48 a0 c8 PHA  IMPL  A:fb X: 2 Y:ff P:e5 S:fa pc: ef0d, reg_addr:    0, cycle:  20631
ef0d a0 c8 68 LDY  IMM   A:fb X: 2 Y:ff P:e5 S:f9 pc: ef0f, reg_addr:   c8, cycle:  20633
ef0f 68 28 20 PLA  IMPL  A:fb X: 2 Y:c8 P:e5 S:f9 pc: ef10, reg_addr:    0, cycle:  20637
ef10 28 20 81 PLP  IMPL  A:fb X: 2 Y:c8 P:e5 S:fa pc: ef11, reg_addr:    0, cycle:  20641
ef11 20 81 fa JSR  ABS   A:fb X: 2 Y:c8 P:e5 S:fb pc: fa81, reg_addr: fa81, cycle:  20647
fa81 50 63 90 BVC  REL   A:fb X: 2 Y:c8 P:e5 S:f9 pc: fa83, reg_addr: fae6, cycle:  20649
fa83 90 61 10 BCC  REL   A:fb X: 2 Y:c8 P:e5 S:f9 pc: fa85, reg_addr: fae6, cycle:  20651
fa85 10 5f c9 BPL  REL   A:fb X: 2 Y:c8 P:e5 S:f9 pc: fa87, reg_addr: fae6, cycle:  20653
fa87 c9 fb d0 CMP  IMM   A:fb X: 2 Y:c8 P:e5 S:f9 pc: fa89, reg_addr:   fb, cycle:  20655
fa89 d0 5b 60 BNE  REL   A:fb X: 2 Y:c8 P:67 S:f9 pc: fa8b, reg_addr: fae6, cycle:  20657
fa8b 60 b8 18 RTS  IMPL  A:fb X: 2 Y:c8 P:67 S:f9 pc: ef14, reg_addr:    0, cycle:  20663
ef14 ad 47  6 LDA  ABS   A:fb X: 2 Y:c8 P:67 S:fb pc: ef17, reg_addr:  647, cycle:  20667
ef17 c9 4a f0 CMP  IMM   A:4a X: 2 Y:c8 P:65 S:fb pc: ef19, reg_addr:   4a, cycle:  20669
ef19 f0  2 84 BEQ  REL   A:4a X: 2 Y:c8 P:67 S:fb pc: ef1d, reg_addr: ef1d, cycle:  20672
ef1d a0 ff a9 LDY  IMM   A:4a X: 2 Y:c8 P:67 S:fb pc: ef1f, reg_addr:   ff, cycle:  20674
ef1f a9 29 8d LDA  IMM   A:4a X: 2 Y:ff P:e5 S:fb pc: ef21, reg_addr:   29, cycle:  20676
ef21 8d 47  6 STA  ABS   A:29 X: 2 Y:ff P:65 S:fb pc: ef24, reg_addr:  647, cycle:  20680
ef24 20 8c fa JSR  ABS   A:29 X: 2 Y:ff P:65 S:fb pc: fa8c, reg_addr: fa8c, cycle:  20686
fa8c b8 18 a9 CLV  IMPL  A:29 X: 2 Y:ff P:65 S:f9 pc: fa8d, reg_addr:    0, cycle:  20688
fa8d 18 a9 c3 CLC  IMPL  A:29 X: 2 Y:ff P:25 S:f9 pc: fa8e, reg_addr:    0, cycle:  20690
fa8e a9 c3 60 LDA  IMM   A:29 X: 2 Y:ff P:24 S:f9 pc: fa90, reg_addr:   c3, cycle:  20692
fa90 60 70 53 RTS  IMPL  A:c3 X: 2 Y:ff P:a4 S:f9 pc: ef27, reg_addr:    0, cycle:  20698
ef27 13 45 ea SLO  INDY  A:c3 X: 2 Y:ff P:a4 S:fb pc: ef29, reg_addr:  647, cycle:  20707
ef29 ea ea  8 NOP  IMPL  A:d3 X: 2 Y:ff P:a4 S:fb pc: ef2a, reg_addr:    0, cycle:  20709
ef2a ea  8 48 NOP  IMPL  A:d3 X: 2 Y:ff P:a4 S:fb pc: ef2b, reg_addr:    0, cycle:  20711
ef2b  8 48 a0 PHP  IMPL  A:d3 X: 2 Y:ff P:a4 S:fb pc: ef2c, reg_addr:    0, cycle:  20714
ef2c 48 a0 c9 PHA  IMPL  A:d3 X: 2 Y:ff P:a4 S:fa pc: ef2d, reg_addr:    0, cycle:  20717
ef2d a0 c9 68 LDY  IMM   A:d3 X: 2 Y:ff P:a4 S:f9 pc: ef2f, reg_addr:   c9, cycle:  20719
ef2f 68 28 20 PLA  IMPL  A:d3 X: 2 Y:c9 P:a4 S:f9 pc: ef30, reg_addr:    0, cycle:  20723
ef30 28 20 91 PLP  IMPL  A:d3 X: 2 Y:c9 P:a4 S:fa pc: ef31, reg_addr:    0, cycle:  20727
ef31 20 91 fa JSR  ABS   A:d3 X: 2 Y:c9 P:a4 S:fb pc: fa91, reg_addr: fa91, cycle:  20733
fa91 70 53 f0 BVS  REL   A:d3 X: 2 Y:c9 P:a4 S:f9 pc: fa93, reg_addr: fae6, cycle:  20735
fa93 f0 51 10 BEQ  REL   A:d3 X: 2 Y:c9 P:a4 S:f9 pc: fa95, reg_addr: fae6, cycle:  20737
fa95 10 4f b0 BPL  REL   A:d3 X: 2 Y:c9 P:a4 S:f9 pc: fa97, reg_addr: fae6, cycle:  20739
fa97 b0 4d c9 BCS  REL   A:d3 X: 2 Y:c9 P:a4 S:f9 pc: fa99, reg_addr: fae6, cycle:  20741
fa99 c9 d3 d0 CMP  IMM   A:d3 X: 2 Y:c9 P:a4 S:f9 pc: fa9b, reg_addr:   d3, cycle:  20743
fa9b d0 49 60 BNE  REL   A:d3 X: 2 Y:c9 P:27 S:f9 pc: fa9d, reg_addr: fae6, cycle:  20745
fa9d 60 24  1 RTS  IMPL  A:d3 X: 2 Y:c9 P:27 S:f9 pc: ef34, reg_addr:    0, cycle:  20751
ef34 ad 47  6 LDA  ABS   A:d3 X: 2 Y:c9 P:27 S:fb pc: ef37, reg_addr:  647, cycle:  20755
ef37 c9 52 f0 CMP  IMM   A:52 X: 2 Y:c9 P:25 S:fb pc: ef39, reg_addr:   52, cycle:  20757
ef39 f0  2 84 BEQ  REL   A:52 X: 2 Y:c9 P:27 S:fb pc: ef3d, reg_addr: ef3d, cycle:  20760
ef3d a0 ff a9 LDY  IMM   A:52 X: 2 Y:c9 P:27 S:fb pc: ef3f, reg_addr:   ff, cycle:  20762
ef3f a9 37 8d LDA  IMM   A:52 X: 2 Y:ff P:a5 S:fb pc: ef41, reg_addr:   37, cycle:  20764
ef41 8d 47  6 STA  ABS   A:37 X: 2 Y:ff P:25 S:fb pc: ef44, reg_addr:  647, cycle:  20768
ef44 20 9e fa JSR  ABS   A:37 X: 2 Y:ff P:25 S:fb pc: fa9e, reg_addr: fa9e, cycle:  20774
fa9e 24  1 38 BIT  ZP    A:37 X: 2 Y:ff P:25 S:f9 pc: faa0, reg_addr:    1, cycle:  20777
faa0 38 a9 10 SEC  IMPL  A:37 X: 2 Y:ff P:e5 S:f9 pc: faa1, reg_addr:    0, cycle:  20779
faa1 a9 10 60 LDA  IMM   A:37 X: 2 Y:ff P:e5 S:f9 pc: faa3, reg_addr:   10, cycle:  20781
faa3 60 50 40 RTS  IMPL  A:10 X: 2 Y:ff P:65 S:f9 pc: ef47, reg_addr:    0, cycle:  20787
ef47 13 45 ea SLO  INDY  A:10 X: 2 Y:ff P:65 S:fb pc: ef49, reg_addr:  647, cycle:  20796
ef49 ea ea  8 NOP  IMPL  A:7e X: 2 Y:ff P:64 S:fb pc: ef4a, reg_addr:    0, cycle:  20798
ef4a ea  8 48 NOP  IMPL  A:7e X: 2 Y:ff P:64 S:fb pc: ef4b, reg_addr:    0, cycle:  20800
ef4b  8 48 a0 PHP  IMPL  A:7e X: 2 Y:ff P:64 S:fb pc: ef4c, reg_addr:    0, cycle:  20803
ef4c 48 a0 ca PHA  IMPL  A:7e X: 2 Y:ff P:64 S:fa pc: ef4d, reg_addr:    0, cycle:  20806
ef4d a0 ca 68 LDY  IMM   A:7e X: 2 Y:ff P:64 S:f9 pc: ef4f, reg_addr:   ca, cycle:  20808
ef4f 68 28 20 PLA  IMPL  A:7e X: 2 Y:ca P:e4 S:f9 pc: ef50, reg_addr:    0, cycle:  20812
ef50 28 20 a4 PLP  IMPL  A:7e X: 2 Y:ca P:64 S:fa pc: ef51, reg_addr:    0, cycle:  20816
ef51 20 a4 fa JSR  ABS   A:7e X: 2 Y:ca P:64 S:fb pc: faa4, reg_addr: faa4, cycle:  20822
faa4 50 40 f0 BVC  REL   A:7e X: 2 Y:ca P:64 S:f9 pc: faa6, reg_addr: fae6, cycle:  20824
faa6 f0 3e 30 BEQ  REL   A:7e X: 2 Y:ca P:64 S:f9 pc: faa8, reg_addr: fae6, cycle:  20826
faa8 30 3c b0 BMI  REL   A:7e X: 2 Y:ca P:64 S:f9 pc: faaa, reg_addr: fae6, cycle:  20828
faaa b0 3a c9 BCS  REL   A:7e X: 2 Y:ca P:64 S:f9 pc: faac, reg_addr: fae6, cycle:  20830
faac c9 7e d0 CMP  IMM   A:7e X: 2 Y:ca P:64 S:f9 pc: faae, reg_addr:   7e, cycle:  20832
faae d0 36 60 BNE  REL   A:7e X: 2 Y:ca P:67 S:f9 pc: fab0, reg_addr: fae6, cycle:  20834
fab0 60 24  1 RTS  IMPL  A:7e X: 2 Y:ca P:67 S:f9 pc: ef54, reg_addr:    0, cycle:  20840
ef54 ad 47  6 LDA  ABS   A:7e X: 2 Y:ca P:67 S:fb pc: ef57, reg_addr:  647, cycle:  20844
ef57 c9 6e f0 CMP  IMM   A:6e X: 2 Y:ca P:65 S:fb pc: ef59, reg_addr:   6e, cycle:  20846
ef59 f0  2 84 BEQ  REL   A:6e X: 2 Y:ca P:67 S:fb pc: ef5d, reg_addr: ef5d, cycle:  20849
ef5d a0 cb a2 LDY  IMM   A:6e X: 2 Y:ca P:67 S:fb pc: ef5f, reg_addr:   cb, cycle:  20851
ef5f a2 ff a9 LDX  IMM   A:6e X: 2 Y:cb P:e5 S:fb pc: ef61, reg_addr:   ff, cycle:  20853
ef61 a9 a5 85 LDA  IMM   A:6e X:ff Y:cb P:e5 S:fb pc: ef63, reg_addr:   a5, cycle:  20855
ef63 85 47 20 STA  ZP    A:a5 X:ff Y:cb P:e5 S:fb pc: ef65, reg_addr:   47, cycle:  20858
ef65 20 7b fa JSR  ABS   A:a5 X:ff Y:cb P:e5 S:fb pc: fa7b, reg_addr: fa7b, cycle:  20864
fa7b 24  1 18 BIT  ZP    A:a5 X:ff Y:cb P:e5 S:f9 pc: fa7d, reg_addr:    1, cycle:  20867
fa7d 18 a9 b3 CLC  IMPL  A:a5 X:ff Y:cb P:e5 S:f9 pc: fa7e, reg_addr:    0, cycle:  20869
fa7e a9 b3 60 LDA  IMM   A:a5 X:ff Y:cb P:e4 S:f9 pc: fa80, reg_addr:   b3, cycle:  20871
fa80 60 50 63 RTS  IMPL  A:b3 X:ff Y:cb P:e4 S:f9 pc: ef68, reg_addr:    0, cycle:  20877
ef68 17 48 ea SLO  ZPX   A:b3 X:ff Y:cb P:e4 S:fb pc: ef6a, reg_addr:   47, cycle:  20883
ef6a ea ea ea NOP  IMPL  A:fb X:ff Y:cb P:e5 S:fb pc: ef6b, reg_addr:    0, cycle:  20885
ef6b ea ea ea NOP  IMPL  A:fb X:ff Y:cb P:e5 S:fb pc: ef6c, reg_addr:    0, cycle:  20887
ef6c ea ea 20 NOP  IMPL  A:fb X:ff Y:cb P:e5 S:fb pc: ef6d, reg_addr:    0, cycle:  20889
ef6d ea 20 81 NOP  IMPL  A:fb X:ff Y:cb P:e5 S:fb pc: ef6e, reg_addr:    0, cycle:  20891
ef6e 20 81 fa JSR  ABS   A:fb X:ff Y:cb P:e5 S:fb pc: fa81, reg_addr: fa81, cycle:  20897
fa81 50 63 90 BVC  REL   A:fb X:ff Y:cb P:e5 S:f9 pc: fa83, reg_addr: fae6, cycle:  20899
fa83 90 61 10 BCC  REL   A:fb X:ff Y:cb P:e5 S:f9 pc: fa85, reg_addr: fae6, cycle:  20901
fa85 10 5f c9 BPL  REL   A:fb X:ff Y:cb P:e5 S:f9 pc: fa87, reg_addr: fae6, cycle:  20903
fa87 c9 fb d0 CMP  IMM   A:fb X:ff Y:cb P:e5 S:f9 pc: fa89, reg_addr:   fb, cycle:  20905
fa89 d0 5b 60 BNE  REL   A:fb X:ff Y:cb P:67 S:f9 pc: fa8b, reg_addr: fae6, cycle:  20907
fa8b 60 b8 18 RTS  IMPL  A:fb X:ff Y:cb P:67 S:f9 pc: ef71, reg_addr:    0, cycle:  20913
ef71 a5 47 c9 LDA  ZP    A:fb X:ff Y:cb P:67 S:fb pc: ef73, reg_addr:   47, cycle:  20916
ef73 c9 4a f0 CMP  IMM   A:4a X:ff Y:cb P:65 S:fb pc: ef75, reg_addr:   4a, cycle:  20918
ef75 f0  2 84 BEQ  REL   A:4a X:ff Y:cb P:67 S:fb pc: ef79, reg_addr: ef79, cycle:  20921
ef79 c8 a9 29 INY  IMPL  A:4a X:ff Y:cb P:67 S:fb pc: ef7a, reg_addr:    0, cycle:  20923
ef7a a9 29 85 LDA  IMM   A:4a X:ff Y:cc P:e5 S:fb pc: ef7c, reg_addr:   29, cycle:  20925
ef7c 85 47 20 STA  ZP    A:29 X:ff Y:cc P:65 S:fb pc: ef7e, reg_addr:   47, cycle:  20928
ef7e 20 8c fa JSR  ABS   A:29 X:ff Y:cc P:65 S:fb pc: fa8c, reg_addr: fa8c, cycle:  20934
fa8c b8 18 a9 CLV  IMPL  A:29 X:ff Y:cc P:65 S:f9 pc: fa8d, reg_addr:    0, cycle:  20936
fa8d 18 a9 c3 CLC  IMPL  A:29 X:ff Y:cc P:25 S:f9 pc: fa8e, reg_addr:    0, cycle:  20938
fa8e a9 c3 60 LDA  IMM   A:29 X:ff Y:cc P:24 S:f9 pc: fa90, reg_addr:   c3, cycle:  20940
fa90 60 70 53 RTS  IMPL  A:c3 X:ff Y:cc P:a4 S:f9 pc: ef81, reg_addr:    0, cycle:  20946
ef81 17 48 ea SLO  ZPX   A:c3 X:ff Y:cc P:a4 S:fb pc: ef83, reg_addr:   47, cycle:  20952
ef83 ea ea ea NOP  IMPL  A:d3 X:ff Y:cc P:a4 S:fb pc: ef84, reg_addr:    0, cycle:  20954
ef84 ea ea ea NOP  IMPL  A:d3 X:ff Y:cc P:a4 S:fb pc: ef85, reg_addr:    0, cycle:  20956
ef85 ea ea 20 NOP  IMPL  A:d3 X:ff Y:cc P:a4 S:fb pc: ef86, reg_addr:    0, cycle:  20958
ef86 ea 20 91 NOP  IMPL  A:d3 X:ff Y:cc P:a4 S:fb pc: ef87, reg_addr:    0, cycle:  20960
ef87 20 91 fa JSR  ABS   A:d3 X:ff Y:cc P:a4 S:fb pc: fa91, reg_addr: fa91, cycle:  20966
fa91 70 53 f0 BVS  REL   A:d3 X:ff Y:cc P:a4 S:f9 pc: fa93, reg_addr: fae6, cycle:  20968
fa93 f0 51 10 BEQ  REL   A:d3 X:ff Y:cc P:a4 S:f9 pc: fa95, reg_addr: fae6, cycle:  20970
fa95 10 4f b0 BPL  REL   A:d3 X:ff Y:cc P:a4 S:f9 pc: fa97, reg_addr: fae6, cycle:  20972
fa97 b0 4d c9 BCS  REL   A:d3 X:ff Y:cc P:a4 S:f9 pc: fa99, reg_addr: fae6, cycle:  20974
fa99 c9 d3 d0 CMP  IMM   A:d3 X:ff Y:cc P:a4 S:f9 pc: fa9b, reg_addr:   d3, cycle:  20976
fa9b d0 49 60 BNE  REL   A:d3 X:ff Y:cc P:27 S:f9 pc: fa9d, reg_addr: fae6, cycle:  20978
fa9d 60 24  1 RTS  IMPL  A:d3 X:ff Y:cc P:27 S:f9 pc: ef8a, reg_addr:    0, cycle:  20984
ef8a a5 47 c9 LDA  ZP    A:d3 X:ff Y:cc P:27 S:fb pc: ef8c, reg_addr:   47, cycle:  20987
ef8c c9 52 f0 CMP  IMM   A:52 X:ff Y:cc P:25 S:fb pc: ef8e, reg_addr:   52, cycle:  20989
ef8e f0  2 84 BEQ  REL   A:52 X:ff Y:cc P:27 S:fb pc: ef92, reg_addr: ef92, cycle:  20992
ef92 c8 a9 37 INY  IMPL  A:52 X:ff Y:cc P:27 S:fb pc: ef93, reg_addr:    0, cycle:  20994
ef93 a9 37 85 LDA  IMM   A:52 X:ff Y:cd P:a5 S:fb pc: ef95, reg_addr:   37, cycle:  20996
ef95 85 47 20 STA  ZP    A:37 X:ff Y:cd P:25 S:fb pc: ef97, reg_addr:   47, cycle:  20999
ef97 20 9e fa JSR  ABS   A:37 X:ff Y:cd P:25 S:fb pc: fa9e, reg_addr: fa9e, cycle:  21005
fa9e 24  1 38 BIT  ZP    A:37 X:ff Y:cd P:25 S:f9 pc: faa0, reg_addr:    1, cycle:  21008
faa0 38 a9 10 SEC  IMPL  A:37 X:ff Y:cd P:e5 S:f9 pc: faa1, reg_addr:    0, cycle:  21010
faa1 a9 10 60 LDA  IMM   A:37 X:ff Y:cd P:e5 S:f9 pc: faa3, reg_addr:   10, cycle:  21012
faa3 60 50 40 RTS  IMPL  A:10 X:ff Y:cd P:65 S:f9 pc: ef9a, reg_addr:    0, cycle:  21018
ef9a 17 48 ea SLO  ZPX   A:10 X:ff Y:cd P:65 S:fb pc: ef9c, reg_addr:   47, cycle:  21024
ef9c ea ea ea NOP  IMPL  A:7e X:ff Y:cd P:64 S:fb pc: ef9d, reg_addr:    0, cycle:  21026
ef9d ea ea ea NOP  IMPL  A:7e X:ff Y:cd P:64 S:fb pc: ef9e, reg_addr:    0, cycle:  21028
ef9e ea ea 20 NOP  IMPL  A:7e X:ff Y:cd P:64 S:fb pc: ef9f, reg_addr:    0, cycle:  21030
ef9f ea 20 a4 NOP  IMPL  A:7e X:ff Y:cd P:64 S:fb pc: efa0, reg_addr:    0, cycle:  21032
efa0 20 a4 fa JSR  ABS   A:7e X:ff Y:cd P:64 S:fb pc: faa4, reg_addr: faa4, cycle:  21038
faa4 50 40 f0 BVC  REL   A:7e X:ff Y:cd P:64 S:f9 pc: faa6, reg_addr: fae6, cycle:  21040
faa6 f0 3e 30 BEQ  REL   A:7e X:ff Y:cd P:64 S:f9 pc: faa8, reg_addr: fae6, cycle:  21042
faa8 30 3c b0 BMI  REL   A:7e X:ff Y:cd P:64 S:f9 pc: faaa, reg_addr: fae6, cycle:  21044
faaa b0 3a c9 BCS  REL   A:7e X:ff Y:cd P:64 S:f9 pc: faac, reg_addr: fae6, cycle:  21046
faac c9 7e d0 CMP  IMM   A:7e X:ff Y:cd P:64 S:f9 pc: faae, reg_addr:   7e, cycle:  21048
faae d0 36 60 BNE  REL   A:7e X:ff Y:cd P:67 S:f9 pc: fab0, reg_addr: fae6, cycle:  21050
fab0 60 24  1 RTS  IMPL  A:7e X:ff Y:cd P:67 S:f9 pc: efa3, reg_addr:    0, cycle:  21056
efa3 a5 47 c9 LDA  ZP    A:7e X:ff Y:cd P:67 S:fb pc: efa5, reg_addr:   47, cycle:  21059
efa5 c9 6e f0 CMP  IMM   A:6e X:ff Y:cd P:65 S:fb pc: efa7, reg_addr:   6e, cycle:  21061
efa7 f0  2 84 BEQ  REL   A:6e X:ff Y:cd P:67 S:fb pc: efab, reg_addr: efab, cycle:  21064
efab a9 a5 8d LDA  IMM   A:6e X:ff Y:cd P:67 S:fb pc: efad, reg_addr:   a5, cycle:  21066
efad 8d 47  6 STA  ABS   A:a5 X:ff Y:cd P:e5 S:fb pc: efb0, reg_addr:  647, cycle:  21070
efb0 a0 ff 20 LDY  IMM   A:a5 X:ff Y:cd P:e5 S:fb pc: efb2, reg_addr:   ff, cycle:  21072
efb2 20 7b fa JSR  ABS   A:a5 X:ff Y:ff P:e5 S:fb pc: fa7b, reg_addr: fa7b, cycle:  21078
fa7b 24  1 18 BIT  ZP    A:a5 X:ff Y:ff P:e5 S:f9 pc: fa7d, reg_addr:    1, cycle:  21081
fa7d 18 a9 b3 CLC  IMPL  A:a5 X:ff Y:ff P:e5 S:f9 pc: fa7e, reg_addr:    0, cycle:  21083
fa7e a9 b3 60 LDA  IMM   A:a5 X:ff Y:ff P:e4 S:f9 pc: fa80, reg_addr:   b3, cycle:  21085
fa80 60 50 63 RTS  IMPL  A:b3 X:ff Y:ff P:e4 S:f9 pc: efb5, reg_addr:    0, cycle:  21091
efb5 1b 48  5 SLO  ABSY  A:b3 X:ff Y:ff P:e4 S:fb pc: efb8, reg_addr:  647, cycle:  21099
efb8 ea ea  8 NOP  IMPL  A:fb X:ff Y:ff P:e5 S:fb pc: efb9, reg_addr:    0, cycle:  21101
efb9 ea  8 48 NOP  IMPL  A:fb X:ff Y:ff P:e5 S:fb pc: efba, reg_addr:    0, cycle:  21103
efba  8 48 a0 PHP  IMPL  A:fb X:ff Y:ff P:e5 S:fb pc: efbb, reg_addr:    0, cycle:  21106
efbb 48 a0 ce PHA  IMPL  A:fb X:ff Y:ff P:e5 S:fa pc: efbc, reg_addr:    0, cycle:  21109
efbc a0 ce 68 LDY  IMM   A:fb X:ff Y:ff P:e5 S:f9 pc: efbe, reg_addr:   ce, cycle:  21111
efbe 68 28 20 PLA  IMPL  A:fb X:ff Y:ce P:e5 S:f9 pc: efbf, reg_addr:    0, cycle:  21115
efbf 28 20 81 PLP  IMPL  A:fb X:ff Y:ce P:e5 S:fa pc: efc0, reg_addr:    0, cycle:  21119
efc0 20 81 fa JSR  ABS   A:fb X:ff Y:ce P:e5 S:fb pc: fa81, reg_addr: fa81, cycle:  21125
fa81 50 63 90 BVC  REL   A:fb X:ff Y:ce P:e5 S:f9 pc: fa83, reg_addr: fae6, cycle:  21127
fa83 90 61 10 BCC  REL   A:fb X:ff Y:ce P:e5 S:f9 pc: fa85, reg_addr: fae6, cycle:  21129
fa85 10 5f c9 BPL  REL   A:fb X:ff Y:ce P:e5 S:f9 pc: fa87, reg_addr: fae6, cycle:  21131
fa87 c9 fb d0 CMP  IMM   A:fb X:ff Y:ce P:e5 S:f9 pc: fa89, reg_addr:   fb, cycle:  21133
fa89 d0 5b 60 BNE  REL   A:fb X:ff Y:ce P:67 S:f9 pc: fa8b, reg_addr: fae6, cycle:  21135
fa8b 60 b8 18 RTS  IMPL  A:fb X:ff Y:ce P:67 S:f9 pc: efc3, reg_addr:    0, cycle:  21141
efc3 ad 47  6 LDA  ABS   A:fb X:ff Y:ce P:67 S:fb pc: efc6, reg_addr:  647, cycle:  21145
efc6 c9 4a f0 CMP  IMM   A:4a X:ff Y:ce P:65 S:fb pc: efc8, reg_addr:   4a, cycle:  21147
efc8 f0  2 84 BEQ  REL   A:4a X:ff Y:ce P:67 S:fb pc: efcc, reg_addr: efcc, cycle:  21150
efcc a0 ff a9 LDY  IMM   A:4a X:ff Y:ce P:67 S:fb pc: efce, reg_addr:   ff, cycle:  21152
efce a9 29 8d LDA  IMM   A:4a X:ff Y:ff P:e5 S:fb pc: efd0, reg_addr:   29, cycle:  21154
efd0 8d 47  6 STA  ABS   A:29 X:ff Y:ff P:65 S:fb pc: efd3, reg_addr:  647, cycle:  21158
efd3 20 8c fa JSR  ABS   A:29 X:ff Y:ff P:65 S:fb pc: fa8c, reg_addr: fa8c, cycle:  21164
fa8c b8 18 a9 CLV  IMPL  A:29 X:ff Y:ff P:65 S:f9 pc: fa8d, reg_addr:    0, cycle:  21166
fa8d 18 a9 c3 CLC  IMPL  A:29 X:ff Y:ff P:25 S:f9 pc: fa8e, reg_addr:    0, cycle:  21168
fa8e a9 c3 60 LDA  IMM   A:29 X:ff Y:ff P:24 S:f9 pc: fa90, reg_addr:   c3, cycle:  21170
fa90 60 70 53 RTS  IMPL  A:c3 X:ff Y:ff P:a4 S:f9 pc: efd6, reg_addr:    0, cycle:  21176
efd6 1b 48  5 SLO  ABSY  A:c3 X:ff Y:ff P:a4 S:fb pc: efd9, reg_addr:  647, cycle:  21184
efd9 ea ea  8 NOP  IMPL  A:d3 X:ff Y:ff P:a4 S:fb pc: efda, reg_addr:    0, cycle:  21186
efda ea  8 48 NOP  IMPL  A:d3 X:ff Y:ff P:a4 S:fb pc: efdb, reg_addr:    0, cycle:  21188
efdb  8 48 a0 PHP  IMPL  A:d3 X:ff Y:ff P:a4 S:fb pc: efdc, reg_addr:    0, cycle:  21191
efdc 48 a0 cf PHA  IMPL  A:d3 X:ff Y:ff P:a4 S:fa pc: efdd, reg_addr:    0, cycle:  21194
efdd a0 cf 68 LDY  IMM   A:d3 X:ff Y:ff P:a4 S:f9 pc: efdf, reg_addr:   cf, cycle:  21196
efdf 68 28 20 PLA  IMPL  A:d3 X:ff Y:cf P:a4 S:f9 pc: efe0, reg_addr:    0, cycle:  21200
efe0 28 20 91 PLP  IMPL  A:d3 X:ff Y:cf P:a4 S:fa pc: efe1, reg_addr:    0, cycle:  21204
efe1 20 91 fa JSR  ABS   A:d3 X:ff Y:cf P:a4 S:fb pc: fa91, reg_addr: fa91, cycle:  21210
fa91 70 53 f0 BVS  REL   A:d3 X:ff Y:cf P:a4 S:f9 pc: fa93, reg_addr: fae6, cycle:  21212
fa93 f0 51 10 BEQ  REL   A:d3 X:ff Y:cf P:a4 S:f9 pc: fa95, reg_addr: fae6, cycle:  21214
fa95 10 4f b0 BPL  REL   A:d3 X:ff Y:cf P:a4 S:f9 pc: fa97, reg_addr: fae6, cycle:  21216
fa97 b0 4d c9 BCS  REL   A:d3 X:ff Y:cf P:a4 S:f9 pc: fa99, reg_addr: fae6, cycle:  21218
fa99 c9 d3 d0 CMP  IMM   A:d3 X:ff Y:cf P:a4 S:f9 pc: fa9b, reg_addr:   d3, cycle:  21220
fa9b d0 49 60 BNE  REL   A:d3 X:ff Y:cf P:27 S:f9 pc: fa9d, reg_addr: fae6, cycle:  21222
fa9d 60 24  1 RTS  IMPL  A:d3 X:ff Y:cf P:27 S:f9 pc: efe4, reg_addr:    0, cycle:  21228
efe4 ad 47  6 LDA  ABS   A:d3 X:ff Y:cf P:27 S:fb pc: efe7, reg_addr:  647, cycle:  21232
efe7 c9 52 f0 CMP  IMM   A:52 X:ff Y:cf P:25 S:fb pc: efe9, reg_addr:   52, cycle:  21234
efe9 f0  2 84 BEQ  REL   A:52 X:ff Y:cf P:27 S:fb pc: efed, reg_addr: efed, cycle:  21237
efed a0 ff a9 LDY  IMM   A:52 X:ff Y:cf P:27 S:fb pc: efef, reg_addr:   ff, cycle:  21239
efef a9 37 8d LDA  IMM   A:52 X:ff Y:ff P:a5 S:fb pc: eff1, reg_addr:   37, cycle:  21241
eff1 8d 47  6 STA  ABS   A:37 X:ff Y:ff P:25 S:fb pc: eff4, reg_addr:  647, cycle:  21245
eff4 20 9e fa JSR  ABS   A:37 X:ff Y:ff P:25 S:fb pc: fa9e, reg_addr: fa9e, cycle:  21251
fa9e 24  1 38 BIT  ZP    A:37 X:ff Y:ff P:25 S:f9 pc: faa0, reg_addr:    1, cycle:  21254
faa0 38 a9 10 SEC  IMPL  A:37 X:ff Y:ff P:e5 S:f9 pc: faa1, reg_addr:    0, cycle:  21256
faa1 a9 10 60 LDA  IMM   A:37 X:ff Y:ff P:e5 S:f9 pc: faa3, reg_addr:   10, cycle:  21258
faa3 60 50 40 RTS  IMPL  A:10 X:ff Y:ff P:65 S:f9 pc: eff7, reg_addr:    0, cycle:  21264
eff7 1b 48  5 SLO  ABSY  A:10 X:ff Y:ff P:65 S:fb pc: effa, reg_addr:  647, cycle:  21272
effa ea ea  8 NOP  IMPL  A:7e X:ff Y:ff P:64 S:fb pc: effb, reg_addr:    0, cycle:  21274
effb ea  8 48 NOP  IMPL  A:7e X:ff Y:ff P:64 S:fb pc: effc, reg_addr:    0, cycle:  21276
effc  8 48 a0 PHP  IMPL  A:7e X:ff Y:ff P:64 S:fb pc: effd, reg_addr:    0, cycle:  21279
effd 48 a0 d0 PHA  IMPL  A:7e X:ff Y:ff P:64 S:fa pc: effe, reg_addr:    0, cycle:  21282
effe a0 d0 68 LDY  IMM   A:7e X:ff Y:ff P:64 S:f9 pc: f000, reg_addr:   d0, cycle:  21284
f000 68 28 20 PLA  IMPL  A:7e X:ff Y:d0 P:e4 S:f9 pc: f001, reg_addr:    0, cycle:  21288
f001 28 20 a4 PLP  IMPL  A:7e X:ff Y:d0 P:64 S:fa pc: f002, reg_addr:    0, cycle:  21292
f002 20 a4 fa JSR  ABS   A:7e X:ff Y:d0 P:64 S:fb pc: faa4, reg_addr: faa4, cycle:  21298
faa4 50 40 f0 BVC  REL   A:7e X:ff Y:d0 P:64 S:f9 pc: faa6, reg_addr: fae6, cycle:  21300
faa6 f0 3e 30 BEQ  REL   A:7e X:ff Y:d0 P:64 S:f9 pc: faa8, reg_addr: fae6, cycle:  21302
faa8 30 3c b0 BMI  REL   A:7e X:ff Y:d0 P:64 S:f9 pc: faaa, reg_addr: fae6, cycle:  21304
faaa b0 3a c9 BCS  REL   A:7e X:ff Y:d0 P:64 S:f9 pc: faac, reg_addr: fae6, cycle:  21306
faac c9 7e d0 CMP  IMM   A:7e X:ff Y:d0 P:64 S:f9 pc: faae, reg_addr:   7e, cycle:  21308
faae d0 36 60 BNE  REL   A:7e X:ff Y:d0 P:67 S:f9 pc: fab0, reg_addr: fae6, cycle:  21310
fab0 60 24  1 RTS  IMPL  A:7e X:ff Y:d0 P:67 S:f9 pc: f005, reg_addr:    0, cycle:  21316
f005 ad 47  6 LDA  ABS   A:7e X:ff Y:d0 P:67 S:fb pc: f008, reg_addr:  647, cycle:  21320
f008 c9 6e f0 CMP  IMM   A:6e X:ff Y:d0 P:65 S:fb pc: f00a, reg_addr:   6e, cycle:  21322
f00a f0  2 84 BEQ  REL   A:6e X:ff Y:d0 P:67 S:fb pc: f00e, reg_addr: f00e, cycle:  21325
f00e a0 d1 a2 LDY  IMM   A:6e X:ff Y:d0 P:67 S:fb pc: f010, reg_addr:   d1, cycle:  21327
f010 a2 ff a9 LDX  IMM   A:6e X:ff Y:d1 P:e5 S:fb pc: f012, reg_addr:   ff, cycle:  21329
f012 a9 a5 8d LDA  IMM   A:6e X:ff Y:d1 P:e5 S:fb pc: f014, reg_addr:   a5, cycle:  21331
f014 8d 47  6 STA  ABS   A:a5 X:ff Y:d1 P:e5 S:fb pc: f017, reg_addr:  647, cycle:  21335
f017 20 7b fa JSR  ABS   A:a5 X:ff Y:d1 P:e5 S:fb pc: fa7b, reg_addr: fa7b, cycle:  21341
fa7b 24  1 18 BIT  ZP    A:a5 X:ff Y:d1 P:e5 S:f9 pc: fa7d, reg_addr:    1, cycle:  21344
fa7d 18 a9 b3 CLC  IMPL  A:a5 X:ff Y:d1 P:e5 S:f9 pc: fa7e, reg_addr:    0, cycle:  21346
fa7e a9 b3 60 LDA  IMM   A:a5 X:ff Y:d1 P:e4 S:f9 pc: fa80, reg_addr:   b3, cycle:  21348
fa80 60 50 63 RTS  IMPL  A:b3 X:ff Y:d1 P:e4 S:f9 pc: f01a, reg_addr:    0, cycle:  21354
f01a 1f 48  5 SLO  ABSX  A:b3 X:ff Y:d1 P:e4 S:fb pc: f01d, reg_addr:  647, cycle:  21362
f01d ea ea ea NOP  IMPL  A:fb X:ff Y:d1 P:e5 S:fb pc: f01e, reg_addr:    0, cycle:  21364
f01e ea ea ea NOP  IMPL  A:fb X:ff Y:d1 P:e5 S:fb pc: f01f, reg_addr:    0, cycle:  21366
f01f ea ea 20 NOP  IMPL  A:fb X:ff Y:d1 P:e5 S:fb pc: f020, reg_addr:    0, cycle:  21368
f020 ea 20 81 NOP  IMPL  A:fb X:ff Y:d1 P:e5 S:fb pc: f021, reg_addr:    0, cycle:  21370
f021 20 81 fa JSR  ABS   A:fb X:ff Y:d1 P:e5 S:fb pc: fa81, reg_addr: fa81, cycle:  21376
fa81 50 63 90 BVC  REL   A:fb X:ff Y:d1 P:e5 S:f9 pc: fa83, reg_addr: fae6, cycle:  21378
fa83 90 61 10 BCC  REL   A:fb X:ff Y:d1 P:e5 S:f9 pc: fa85, reg_addr: fae6, cycle:  21380
fa85 10 5f c9 BPL  REL   A:fb X:ff Y:d1 P:e5 S:f9 pc: fa87, reg_addr: fae6, cycle:  21382
fa87 c9 fb d0 CMP  IMM   A:fb X:ff Y:d1 P:e5 S:f9 pc: fa89, reg_addr:   fb, cycle:  21384
fa89 d0 5b 60 BNE  REL   A:fb X:ff Y:d1 P:67 S:f9 pc: fa8b, reg_addr: fae6, cycle:  21386
fa8b 60 b8 18 RTS  IMPL  A:fb X:ff Y:d1 P:67 S:f9 pc: f024, reg_addr:    0, cycle:  21392
f024 ad 47  6 LDA  ABS   A:fb X:ff Y:d1 P:67 S:fb pc: f027, reg_addr:  647, cycle:  21396
f027 c9 4a f0 CMP  IMM   A:4a X:ff Y:d1 P:65 S:fb pc: f029, reg_addr:   4a, cycle:  21398
f029 f0  2 84 BEQ  REL   A:4a X:ff Y:d1 P:67 S:fb pc: f02d, reg_addr: f02d, cycle:  21401
f02d c8 a9 29 INY  IMPL  A:4a X:ff Y:d1 P:67 S:fb pc: f02e, reg_addr:    0, cycle:  21403
f02e a9 29 8d LDA  IMM   A:4a X:ff Y:d2 P:e5 S:fb pc: f030, reg_addr:   29, cycle:  21405
f030 8d 47  6 STA  ABS   A:29 X:ff Y:d2 P:65 S:fb pc: f033, reg_addr:  647, cycle:  21409
f033 20 8c fa JSR  ABS   A:29 X:ff Y:d2 P:65 S:fb pc: fa8c, reg_addr: fa8c, cycle:  21415
fa8c b8 18 a9 CLV  IMPL  A:29 X:ff Y:d2 P:65 S:f9 pc: fa8d, reg_addr:    0, cycle:  21417
fa8d 18 a9 c3 CLC  IMPL  A:29 X:ff Y:d2 P:25 S:f9 pc: fa8e, reg_addr:    0, cycle:  21419
fa8e a9 c3 60 LDA  IMM   A:29 X:ff Y:d2 P:24 S:f9 pc: fa90, reg_addr:   c3, cycle:  21421
fa90 60 70 53 RTS  IMPL  A:c3 X:ff Y:d2 P:a4 S:f9 pc: f036, reg_addr:    0, cycle:  21427
f036 1f 48  5 SLO  ABSX  A:c3 X:ff Y:d2 P:a4 S:fb pc: f039, reg_addr:  647, cycle:  21435
f039 ea ea ea NOP  IMPL  A:d3 X:ff Y:d2 P:a4 S:fb pc: f03a, reg_addr:    0, cycle:  21437
f03a ea ea ea NOP  IMPL  A:d3 X:ff Y:d2 P:a4 S:fb pc: f03b, reg_addr:    0, cycle:  21439
f03b ea ea 20 NOP  IMPL  A:d3 X:ff Y:d2 P:a4 S:fb pc: f03c, reg_addr:    0, cycle:  21441
f03c ea 20 91 NOP  IMPL  A:d3 X:ff Y:d2 P:a4 S:fb pc: f03d, reg_addr:    0, cycle:  21443
f03d 20 91 fa JSR  ABS   A:d3 X:ff Y:d2 P:a4 S:fb pc: fa91, reg_addr: fa91, cycle:  21449
fa91 70 53 f0 BVS  REL   A:d3 X:ff Y:d2 P:a4 S:f9 pc: fa93, reg_addr: fae6, cycle:  21451
fa93 f0 51 10 BEQ  REL   A:d3 X:ff Y:d2 P:a4 S:f9 pc: fa95, reg_addr: fae6, cycle:  21453
fa95 10 4f b0 BPL  REL   A:d3 X:ff Y:d2 P:a4 S:f9 pc: fa97, reg_addr: fae6, cycle:  21455
fa97 b0 4d c9 BCS  REL   A:d3 X:ff Y:d2 P:a4 S:f9 pc: fa99, reg_addr: fae6, cycle:  21457
fa99 c9 d3 d0 CMP  IMM   A:d3 X:ff Y:d2 P:a4 S:f9 pc: fa9b, reg_addr:   d3, cycle:  21459
fa9b d0 49 60 BNE  REL   A:d3 X:ff Y:d2 P:27 S:f9 pc: fa9d, reg_addr: fae6, cycle:  21461
fa9d 60 24  1 RTS  IMPL  A:d3 X:ff Y:d2 P:27 S:f9 pc: f040, reg_addr:    0, cycle:  21467
f040 ad 47  6 LDA  ABS   A:d3 X:ff Y:d2 P:27 S:fb pc: f043, reg_addr:  647, cycle:  21471
f043 c9 52 f0 CMP  IMM   A:52 X:ff Y:d2 P:25 S:fb pc: f045, reg_addr:   52, cycle:  21473
f045 f0  2 84 BEQ  REL   A:52 X:ff Y:d2 P:27 S:fb pc: f049, reg_addr: f049, cycle:  21476
f049 c8 a9 37 INY  IMPL  A:52 X:ff Y:d2 P:27 S:fb pc: f04a, reg_addr:    0, cycle:  21478
f04a a9 37 8d LDA  IMM   A:52 X:ff Y:d3 P:a5 S:fb pc: f04c, reg_addr:   37, cycle:  21480
f04c 8d 47  6 STA  ABS   A:37 X:ff Y:d3 P:25 S:fb pc: f04f, reg_addr:  647, cycle:  21484
f04f 20 9e fa JSR  ABS   A:37 X:ff Y:d3 P:25 S:fb pc: fa9e, reg_addr: fa9e, cycle:  21490
fa9e 24  1 38 BIT  ZP    A:37 X:ff Y:d3 P:25 S:f9 pc: faa0, reg_addr:    1, cycle:  21493
faa0 38 a9 10 SEC  IMPL  A:37 X:ff Y:d3 P:e5 S:f9 pc: faa1, reg_addr:    0, cycle:  21495
faa1 a9 10 60 LDA  IMM   A:37 X:ff Y:d3 P:e5 S:f9 pc: faa3, reg_addr:   10, cycle:  21497
faa3 60 50 40 RTS  IMPL  A:10 X:ff Y:d3 P:65 S:f9 pc: f052, reg_addr:    0, cycle:  21503
f052 1f 48  5 SLO  ABSX  A:10 X:ff Y:d3 P:65 S:fb pc: f055, reg_addr:  647, cycle:  21511
f055 ea ea ea NOP  IMPL  A:7e X:ff Y:d3 P:64 S:fb pc: f056, reg_addr:    0, cycle:  21513
f056 ea ea ea NOP  IMPL  A:7e X:ff Y:d3 P:64 S:fb pc: f057, reg_addr:    0, cycle:  21515
f057 ea ea 20 NOP  IMPL  A:7e X:ff Y:d3 P:64 S:fb pc: f058, reg_addr:    0, cycle:  21517
f058 ea 20 a4 NOP  IMPL  A:7e X:ff Y:d3 P:64 S:fb pc: f059, reg_addr:    0, cycle:  21519
f059 20 a4 fa JSR  ABS   A:7e X:ff Y:d3 P:64 S:fb pc: faa4, reg_addr: faa4, cycle:  21525
faa4 50 40 f0 BVC  REL   A:7e X:ff Y:d3 P:64 S:f9 pc: faa6, reg_addr: fae6, cycle:  21527
faa6 f0 3e 30 BEQ  REL   A:7e X:ff Y:d3 P:64 S:f9 pc: faa8, reg_addr: fae6, cycle:  21529
faa8 30 3c b0 BMI  REL   A:7e X:ff Y:d3 P:64 S:f9 pc: faaa, reg_addr: fae6, cycle:  21531
faaa b0 3a c9 BCS  REL   A:7e X:ff Y:d3 P:64 S:f9 pc: faac, reg_addr: fae6, cycle:  21533
faac c9 7e d0 CMP  IMM   A:7e X:ff Y:d3 P:64 S:f9 pc: faae, reg_addr:   7e, cycle:  21535
faae d0 36 60 BNE  REL   A:7e X:ff Y:d3 P:67 S:f9 pc: fab0, reg_addr: fae6, cycle:  21537
fab0 60 24  1 RTS  IMPL  A:7e X:ff Y:d3 P:67 S:f9 pc: f05c, reg_addr:    0, cycle:  21543
f05c ad 47  6 LDA  ABS   A:7e X:ff Y:d3 P:67 S:fb pc: f05f, reg_addr:  647, cycle:  21547
f05f c9 6e f0 CMP  IMM   A:6e X:ff Y:d3 P:65 S:fb pc: f061, reg_addr:   6e, cycle:  21549
f061 f0  2 84 BEQ  REL   A:6e X:ff Y:d3 P:67 S:fb pc: f065, reg_addr: f065, cycle:  21552
f065 60 a9 ff RTS  IMPL  A:6e X:ff Y:d3 P:67 S:fb pc: c644, reg_addr:    0, cycle:  21558
c644 20 66 f0 JSR  ABS   A:6e X:ff Y:d3 P:67 S:fd pc: f066, reg_addr: f066, cycle:  21564
f066 a9 ff 85 LDA  IMM   A:6e X:ff Y:d3 P:67 S:fb pc: f068, reg_addr:   ff, cycle:  21566
f068 85  1 a0 STA  ZP    A:ff X:ff Y:d3 P:e5 S:fb pc: f06a, reg_addr:    1, cycle:  21569
f06a a0 d4 a2 LDY  IMM   A:ff X:ff Y:d3 P:e5 S:fb pc: f06c, reg_addr:   d4, cycle:  21571
f06c a2  2 a9 LDX  IMM   A:ff X:ff Y:d4 P:e5 S:fb pc: f06e, reg_addr:    2, cycle:  21573
f06e a9 47 85 LDA  IMM   A:ff X: 2 Y:d4 P:65 S:fb pc: f070, reg_addr:   47, cycle:  21575
f070 85 47 a9 STA  ZP    A:47 X: 2 Y:d4 P:65 S:fb pc: f072, reg_addr:   47, cycle:  21578
f072 a9  6 85 LDA  IMM   A:47 X: 2 Y:d4 P:65 S:fb pc: f074, reg_addr:    6, cycle:  21580
f074 85 48 a9 STA  ZP    A: 6 X: 2 Y:d4 P:65 S:fb pc: f076, reg_addr:   48, cycle:  21583
f076 a9 a5 8d LDA  IMM   A: 6 X: 2 Y:d4 P:65 S:fb pc: f078, reg_addr:   a5, cycle:  21585
f078 8d 47  6 STA  ABS   A:a5 X: 2 Y:d4 P:e5 S:fb pc: f07b, reg_addr:  647, cycle:  21589
f07b 20 53 fb JSR  ABS   A:a5 X: 2 Y:d4 P:e5 S:fb pc: fb53, reg_addr: fb53, cycle:  21595
fb53 24  1 18 BIT  ZP    A:a5 X: 2 Y:d4 P:e5 S:f9 pc: fb55, reg_addr:    1, cycle:  21598
fb55 18 a9 b3 CLC  IMPL  A:a5 X: 2 Y:d4 P:e5 S:f9 pc: fb56, reg_addr:    0, cycle:  21600
fb56 a9 b3 60 LDA  IMM   A:a5 X: 2 Y:d4 P:e4 S:f9 pc: fb58, reg_addr:   b3, cycle:  21602
fb58 60 50 1a RTS  IMPL  A:b3 X: 2 Y:d4 P:e4 S:f9 pc: f07e, reg_addr:    0, cycle:  21608
f07e 23 45 ea RLA  INDX  A:b3 X: 2 Y:d4 P:e4 S:fb pc: f080, reg_addr:  647, cycle:  21616
f080 ea ea ea NOP  IMPL  A: 2 X: 2 Y:d4 P:65 S:fb pc: f081, reg_addr:    0, cycle:  21618
f081 ea ea ea NOP  IMPL  A: 2 X: 2 Y:d4 P:65 S:fb pc: f082, reg_addr:    0, cycle:  21620
f082 ea ea 20 NOP  IMPL  A: 2 X: 2 Y:d4 P:65 S:fb pc: f083, reg_addr:    0, cycle:  21622
f083 ea 20 59 NOP  IMPL  A: 2 X: 2 Y:d4 P:65 S:fb pc: f084, reg_addr:    0, cycle:  21624
f084 20 59 fb JSR  ABS   A: 2 X: 2 Y:d4 P:65 S:fb pc: fb59, reg_addr: fb59, cycle:  21630
fb59 50 1a 90 BVC  REL   A: 2 X: 2 Y:d4 P:65 S:f9 pc: fb5b, reg_addr: fb75, cycle:  21632
fb5b 90 18 30 BCC  REL   A: 2 X: 2 Y:d4 P:65 S:f9 pc: fb5d, reg_addr: fb75, cycle:  21634
fb5d 30 16 c9 BMI  REL   A: 2 X: 2 Y:d4 P:65 S:f9 pc: fb5f, reg_addr: fb75, cycle:  21636
fb5f c9  2 d0 CMP  IMM   A: 2 X: 2 Y:d4 P:65 S:f9 pc: fb61, reg_addr:    2, cycle:  21638
fb61 d0 12 60 BNE  REL   A: 2 X: 2 Y:d4 P:67 S:f9 pc: fb63, reg_addr: fb75, cycle:  21640
fb63 60 b8 18 RTS  IMPL  A: 2 X: 2 Y:d4 P:67 S:f9 pc: f087, reg_addr:    0, cycle:  21646
f087 ad 47  6 LDA  ABS   A: 2 X: 2 Y:d4 P:67 S:fb pc: f08a, reg_addr:  647, cycle:  21650
f08a c9 4a f0 CMP  IMM   A:4a X: 2 Y:d4 P:65 S:fb pc: f08c, reg_addr:   4a, cycle:  21652
f08c f0  2 84 BEQ  REL   A:4a X: 2 Y:d4 P:67 S:fb pc: f090, reg_addr: f090, cycle:  21655
f090 c8 a9 29 INY  IMPL  A:4a X: 2 Y:d4 P:67 S:fb pc: f091, reg_addr:    0, cycle:  21657
f091 a9 29 8d LDA  IMM   A:4a X: 2 Y:d5 P:e5 S:fb pc: f093, reg_addr:   29, cycle:  21659
f093 8d 47  6 STA  ABS   A:29 X: 2 Y:d5 P:65 S:fb pc: f096, reg_addr:  647, cycle:  21663
f096 20 64 fb JSR  ABS   A:29 X: 2 Y:d5 P:65 S:fb pc: fb64, reg_addr: fb64, cycle:  21669
fb64 b8 18 a9 CLV  IMPL  A:29 X: 2 Y:d5 P:65 S:f9 pc: fb65, reg_addr:    0, cycle:  21671
fb65 18 a9 42 CLC  IMPL  A:29 X: 2 Y:d5 P:25 S:f9 pc: fb66, reg_addr:    0, cycle:  21673
fb66 a9 42 60 LDA  IMM   A:29 X: 2 Y:d5 P:24 S:f9 pc: fb68, reg_addr:   42, cycle:  21675
fb68 60 70  a RTS  IMPL  A:42 X: 2 Y:d5 P:24 S:f9 pc: f099, reg_addr:    0, cycle:  21681
f099 23 45 ea RLA  INDX  A:42 X: 2 Y:d5 P:24 S:fb pc: f09b, reg_addr:  647, cycle:  21689
f09b ea ea ea NOP  IMPL  A:42 X: 2 Y:d5 P:24 S:fb pc: f09c, reg_addr:    0, cycle:  21691
f09c ea ea ea NOP  IMPL  A:42 X: 2 Y:d5 P:24 S:fb pc: f09d, reg_addr:    0, cycle:  21693
f09d ea ea 20 NOP  IMPL  A:42 X: 2 Y:d5 P:24 S:fb pc: f09e, reg_addr:    0, cycle:  21695
f09e ea 20 69 NOP  IMPL  A:42 X: 2 Y:d5 P:24 S:fb pc: f09f, reg_addr:    0, cycle:  21697
f09f 20 69 fb JSR  ABS   A:42 X: 2 Y:d5 P:24 S:fb pc: fb69, reg_addr: fb69, cycle:  21703
fb69 70  a f0 BVS  REL   A:42 X: 2 Y:d5 P:24 S:f9 pc: fb6b, reg_addr: fb75, cycle:  21705
fb6b f0  8 30 BEQ  REL   A:42 X: 2 Y:d5 P:24 S:f9 pc: fb6d, reg_addr: fb75, cycle:  21707
fb6d 30  6 b0 BMI  REL   A:42 X: 2 Y:d5 P:24 S:f9 pc: fb6f, reg_addr: fb75, cycle:  21709
fb6f b0  4 c9 BCS  REL   A:42 X: 2 Y:d5 P:24 S:f9 pc: fb71, reg_addr: fb75, cycle:  21711
fb71 c9 42 f0 CMP  IMM   A:42 X: 2 Y:d5 P:24 S:f9 pc: fb73, reg_addr:   42, cycle:  21713
fb73 f0  2 84 BEQ  REL   A:42 X: 2 Y:d5 P:27 S:f9 pc: fb77, reg_addr: fb77, cycle:  21716
fb77 60  0  0 RTS  IMPL  A:42 X: 2 Y:d5 P:27 S:f9 pc: f0a2, reg_addr:    0, cycle:  21722
f0a2 ad 47  6 LDA  ABS   A:42 X: 2 Y:d5 P:27 S:fb pc: f0a5, reg_addr:  647, cycle:  21726
f0a5 c9 52 f0 CMP  IMM   A:52 X: 2 Y:d5 P:25 S:fb pc: f0a7, reg_addr:   52, cycle:  21728
f0a7 f0  2 84 BEQ  REL   A:52 X: 2 Y:d5 P:27 S:fb pc: f0ab, reg_addr: f0ab, cycle:  21731
f0ab c8 a9 37 INY  IMPL  A:52 X: 2 Y:d5 P:27 S:fb pc: f0ac, reg_addr:    0, cycle:  21733
f0ac a9 37 8d LDA  IMM   A:52 X: 2 Y:d6 P:a5 S:fb pc: f0ae, reg_addr:   37, cycle:  21735
f0ae 8d 47  6 STA  ABS   A:37 X: 2 Y:d6 P:25 S:fb pc: f0b1, reg_addr:  647, cycle:  21739
f0b1 20 68 fa JSR  ABS   A:37 X: 2 Y:d6 P:25 S:fb pc: fa68, reg_addr: fa68, cycle:  21745
fa68 24  1 38 BIT  ZP    A:37 X: 2 Y:d6 P:25 S:f9 pc: fa6a, reg_addr:    1, cycle:  21748
fa6a 38 a9 75 SEC  IMPL  A:37 X: 2 Y:d6 P:e5 S:f9 pc: fa6b, reg_addr:    0, cycle:  21750
fa6b a9 75 60 LDA  IMM   A:37 X: 2 Y:d6 P:e5 S:f9 pc: fa6d, reg_addr:   75, cycle:  21752
fa6d 60 50 76 RTS  IMPL  A:75 X: 2 Y:d6 P:65 S:f9 pc: f0b4, reg_addr:    0, cycle:  21758
f0b4 23 45 ea RLA  INDX  A:75 X: 2 Y:d6 P:65 S:fb pc: f0b6, reg_addr:  647, cycle:  21766
f0b6 ea ea ea NOP  IMPL  A:65 X: 2 Y:d6 P:64 S:fb pc: f0b7, reg_addr:    0, cycle:  21768
f0b7 ea ea ea NOP  IMPL  A:65 X: 2 Y:d6 P:64 S:fb pc: f0b8, reg_addr:    0, cycle:  21770
f0b8 ea ea 20 NOP  IMPL  A:65 X: 2 Y:d6 P:64 S:fb pc: f0b9, reg_addr:    0, cycle:  21772
f0b9 ea 20 6e NOP  IMPL  A:65 X: 2 Y:d6 P:64 S:fb pc: f0ba, reg_addr:    0, cycle:  21774
f0ba 20 6e fa JSR  ABS   A:65 X: 2 Y:d6 P:64 S:fb pc: fa6e, reg_addr: fa6e, cycle:  21780
fa6e 50 76 f0 BVC  REL   A:65 X: 2 Y:d6 P:64 S:f9 pc: fa70, reg_addr: fae6, cycle:  21782
fa70 f0 74 30 BEQ  REL   A:65 X: 2 Y:d6 P:64 S:f9 pc: fa72, reg_addr: fae6, cycle:  21784
fa72 30 72 b0 BMI  REL   A:65 X: 2 Y:d6 P:64 S:f9 pc: fa74, reg_addr: fae6, cycle:  21786
fa74 b0 70 c9 BCS  REL   A:65 X: 2 Y:d6 P:64 S:f9 pc: fa76, reg_addr: fae6, cycle:  21788
fa76 c9 65 d0 CMP  IMM   A:65 X: 2 Y:d6 P:64 S:f9 pc: fa78, reg_addr:   65, cycle:  21790
fa78 d0 6c 60 BNE  REL   A:65 X: 2 Y:d6 P:67 S:f9 pc: fa7a, reg_addr: fae6, cycle:  21792
fa7a 60 24  1 RTS  IMPL  A:65 X: 2 Y:d6 P:67 S:f9 pc: f0bd, reg_addr:    0, cycle:  21798
f0bd ad 47  6 LDA  ABS   A:65 X: 2 Y:d6 P:67 S:fb pc: f0c0, reg_addr:  647, cycle:  21802
f0c0 c9 6f f0 CMP  IMM   A:6f X: 2 Y:d6 P:65 S:fb pc: f0c2, reg_addr:   6f, cycle:  21804
f0c2 f0  2 84 BEQ  REL   A:6f X: 2 Y:d6 P:67 S:fb pc: f0c6, reg_addr: f0c6, cycle:  21807
f0c6 c8 a9 a5 INY  IMPL  A:6f X: 2 Y:d6 P:67 S:fb pc: f0c7, reg_addr:    0, cycle:  21809
f0c7 a9 a5 85 LDA  IMM   A:6f X: 2 Y:d7 P:e5 S:fb pc: f0c9, reg_addr:   a5, cycle:  21811
f0c9 85 47 20 STA  ZP    A:a5 X: 2 Y:d7 P:e5 S:fb pc: f0cb, reg_addr:   47, cycle:  21814
f0cb 20 53 fb JSR  ABS   A:a5 X: 2 Y:d7 P:e5 S:fb pc: fb53, reg_addr: fb53, cycle:  21820
fb53 24  1 18 BIT  ZP    A:a5 X: 2 Y:d7 P:e5 S:f9 pc: fb55, reg_addr:    1, cycle:  21823
fb55 18 a9 b3 CLC  IMPL  A:a5 X: 2 Y:d7 P:e5 S:f9 pc: fb56, reg_addr:    0, cycle:  21825
fb56 a9 b3 60 LDA  IMM   A:a5 X: 2 Y:d7 P:e4 S:f9 pc: fb58, reg_addr:   b3, cycle:  21827
fb58 60 50 1a RTS  IMPL  A:b3 X: 2 Y:d7 P:e4 S:f9 pc: f0ce, reg_addr:    0, cycle:  21833
f0ce 27 47 ea RLA  ZP    A:b3 X: 2 Y:d7 P:e4 S:fb pc: f0d0, reg_addr:   47, cycle:  21838
f0d0 ea ea ea NOP  IMPL  A: 2 X: 2 Y:d7 P:65 S:fb pc: f0d1, reg_addr:    0, cycle:  21840
f0d1 ea ea ea NOP  IMPL  A: 2 X: 2 Y:d7 P:65 S:fb pc: f0d2, reg_addr:    0, cycle:  21842
f0d2 ea ea 20 NOP  IMPL  A: 2 X: 2 Y:d7 P:65 S:fb pc: f0d3, reg_addr:    0, cycle:  21844
f0d3 ea 20 59 NOP  IMPL  A: 2 X: 2 Y:d7 P:65 S:fb pc: f0d4, reg_addr:    0, cycle:  21846
f0d4 20 59 fb JSR  ABS   A: 2 X: 2 Y:d7 P:65 S:fb pc: fb59, reg_addr: fb59, cycle:  21852
fb59 50 1a 90 BVC  REL   A: 2 X: 2 Y:d7 P:65 S:f9 pc: fb5b, reg_addr: fb75, cycle:  21854
fb5b 90 18 30 BCC  REL   A: 2 X: 2 Y:d7 P:65 S:f9 pc: fb5d, reg_addr: fb75, cycle:  21856
fb5d 30 16 c9 BMI  REL   A: 2 X: 2 Y:d7 P:65 S:f9 pc: fb5f, reg_addr: fb75, cycle:  21858
fb5f c9  2 d0 CMP  IMM   A: 2 X: 2 Y:d7 P:65 S:f9 pc: fb61, reg_addr:    2, cycle:  21860
fb61 d0 12 60 BNE  REL   A: 2 X: 2 Y:d7 P:67 S:f9 pc: fb63, reg_addr: fb75, cycle:  21862
fb63 60 b8 18 RTS  IMPL  A: 2 X: 2 Y:d7 P:67 S:f9 pc: f0d7, reg_addr:    0, cycle:  21868
f0d7 a5 47 c9 LDA  ZP    A: 2 X: 2 Y:d7 P:67 S:fb pc: f0d9, reg_addr:   47, cycle:  21871
f0d9 c9 4a f0 CMP  IMM   A:4a X: 2 Y:d7 P:65 S:fb pc: f0db, reg_addr:   4a, cycle:  21873
f0db f0  2 84 BEQ  REL   A:4a X: 2 Y:d7 P:67 S:fb pc: f0df, reg_addr: f0df, cycle:  21876
f0df c8 a9 29 INY  IMPL  A:4a X: 2 Y:d7 P:67 S:fb pc: f0e0, reg_addr:    0, cycle:  21878
f0e0 a9 29 85 LDA  IMM   A:4a X: 2 Y:d8 P:e5 S:fb pc: f0e2, reg_addr:   29, cycle:  21880
f0e2 85 47 20 STA  ZP    A:29 X: 2 Y:d8 P:65 S:fb pc: f0e4, reg_addr:   47, cycle:  21883
f0e4 20 64 fb JSR  ABS   A:29 X: 2 Y:d8 P:65 S:fb pc: fb64, reg_addr: fb64, cycle:  21889
fb64 b8 18 a9 CLV  IMPL  A:29 X: 2 Y:d8 P:65 S:f9 pc: fb65, reg_addr:    0, cycle:  21891
fb65 18 a9 42 CLC  IMPL  A:29 X: 2 Y:d8 P:25 S:f9 pc: fb66, reg_addr:    0, cycle:  21893
fb66 a9 42 60 LDA  IMM   A:29 X: 2 Y:d8 P:24 S:f9 pc: fb68, reg_addr:   42, cycle:  21895
fb68 60 70  a RTS  IMPL  A:42 X: 2 Y:d8 P:24 S:f9 pc: f0e7, reg_addr:    0, cycle:  21901
f0e7 27 47 ea RLA  ZP    A:42 X: 2 Y:d8 P:24 S:fb pc: f0e9, reg_addr:   47, cycle:  21906
f0e9 ea ea ea NOP  IMPL  A:42 X: 2 Y:d8 P:24 S:fb pc: f0ea, reg_addr:    0, cycle:  21908
f0ea ea ea ea NOP  IMPL  A:42 X: 2 Y:d8 P:24 S:fb pc: f0eb, reg_addr:    0, cycle:  21910
f0eb ea ea 20 NOP  IMPL  A:42 X: 2 Y:d8 P:24 S:fb pc: f0ec, reg_addr:    0, cycle:  21912
f0ec ea 20 69 NOP  IMPL  A:42 X: 2 Y:d8 P:24 S:fb pc: f0ed, reg_addr:    0, cycle:  21914
f0ed 20 69 fb JSR  ABS   A:42 X: 2 Y:d8 P:24 S:fb pc: fb69, reg_addr: fb69, cycle:  21920
fb69 70  a f0 BVS  REL   A:42 X: 2 Y:d8 P:24 S:f9 pc: fb6b, reg_addr: fb75, cycle:  21922
fb6b f0  8 30 BEQ  REL   A:42 X: 2 Y:d8 P:24 S:f9 pc: fb6d, reg_addr: fb75, cycle:  21924
fb6d 30  6 b0 BMI  REL   A:42 X: 2 Y:d8 P:24 S:f9 pc: fb6f, reg_addr: fb75, cycle:  21926
fb6f b0  4 c9 BCS  REL   A:42 X: 2 Y:d8 P:24 S:f9 pc: fb71, reg_addr: fb75, cycle:  21928
fb71 c9 42 f0 CMP  IMM   A:42 X: 2 Y:d8 P:24 S:f9 pc: fb73, reg_addr:   42, cycle:  21930
fb73 f0  2 84 BEQ  REL   A:42 X: 2 Y:d8 P:27 S:f9 pc: fb77, reg_addr: fb77, cycle:  21933
fb77 60  0  0 RTS  IMPL  A:42 X: 2 Y:d8 P:27 S:f9 pc: f0f0, reg_addr:    0, cycle:  21939
f0f0 a5 47 c9 LDA  ZP    A:42 X: 2 Y:d8 P:27 S:fb pc: f0f2, reg_addr:   47, cycle:  21942
f0f2 c9 52 f0 CMP  IMM   A:52 X: 2 Y:d8 P:25 S:fb pc: f0f4, reg_addr:   52, cycle:  21944
f0f4 f0  2 84 BEQ  REL   A:52 X: 2 Y:d8 P:27 S:fb pc: f0f8, reg_addr: f0f8, cycle:  21947
f0f8 c8 a9 37 INY  IMPL  A:52 X: 2 Y:d8 P:27 S:fb pc: f0f9, reg_addr:    0, cycle:  21949
f0f9 a9 37 85 LDA  IMM   A:52 X: 2 Y:d9 P:a5 S:fb pc: f0fb, reg_addr:   37, cycle:  21951
f0fb 85 47 20 STA  ZP    A:37 X: 2 Y:d9 P:25 S:fb pc: f0fd, reg_addr:   47, cycle:  21954
f0fd 20 68 fa JSR  ABS   A:37 X: 2 Y:d9 P:25 S:fb pc: fa68, reg_addr: fa68, cycle:  21960
fa68 24  1 38 BIT  ZP    A:37 X: 2 Y:d9 P:25 S:f9 pc: fa6a, reg_addr:    1, cycle:  21963
fa6a 38 a9 75 SEC  IMPL  A:37 X: 2 Y:d9 P:e5 S:f9 pc: fa6b, reg_addr:    0, cycle:  21965
fa6b a9 75 60 LDA  IMM   A:37 X: 2 Y:d9 P:e5 S:f9 pc: fa6d, reg_addr:   75, cycle:  21967
fa6d 60 50 76 RTS  IMPL  A:75 X: 2 Y:d9 P:65 S:f9 pc: f100, reg_addr:    0, cycle:  21973
f100 27 47 ea RLA  ZP    A:75 X: 2 Y:d9 P:65 S:fb pc: f102, reg_addr:   47, cycle:  21978
f102 ea ea ea NOP  IMPL  A:65 X: 2 Y:d9 P:64 S:fb pc: f103, reg_addr:    0, cycle:  21980
f103 ea ea ea NOP  IMPL  A:65 X: 2 Y:d9 P:64 S:fb pc: f104, reg_addr:    0, cycle:  21982
f104 ea ea 20 NOP  IMPL  A:65 X: 2 Y:d9 P:64 S:fb pc: f105, reg_addr:    0, cycle:  21984
f105 ea 20 6e NOP  IMPL  A:65 X: 2 Y:d9 P:64 S:fb pc: f106, reg_addr:    0, cycle:  21986
f106 20 6e fa JSR  ABS   A:65 X: 2 Y:d9 P:64 S:fb pc: fa6e, reg_addr: fa6e, cycle:  21992
fa6e 50 76 f0 BVC  REL   A:65 X: 2 Y:d9 P:64 S:f9 pc: fa70, reg_addr: fae6, cycle:  21994
fa70 f0 74 30 BEQ  REL   A:65 X: 2 Y:d9 P:64 S:f9 pc: fa72, reg_addr: fae6, cycle:  21996
fa72 30 72 b0 BMI  REL   A:65 X: 2 Y:d9 P:64 S:f9 pc: fa74, reg_addr: fae6, cycle:  21998
fa74 b0 70 c9 BCS  REL   A:65 X: 2 Y:d9 P:64 S:f9 pc: fa76, reg_addr: fae6, cycle:  22000
fa76 c9 65 d0 CMP  IMM   A:65 X: 2 Y:d9 P:64 S:f9 pc: fa78, reg_addr:   65, cycle:  22002
fa78 d0 6c 60 BNE  REL   A:65 X: 2 Y:d9 P:67 S:f9 pc: fa7a, reg_addr: fae6, cycle:  22004
fa7a 60 24  1 RTS  IMPL  A:65 X: 2 Y:d9 P:67 S:f9 pc: f109, reg_addr:    0, cycle:  22010
f109 a5 47 c9 LDA  ZP    A:65 X: 2 Y:d9 P:67 S:fb pc: f10b, reg_addr:   47, cycle:  22013
f10b c9 6f f0 CMP  IMM   A:6f X: 2 Y:d9 P:65 S:fb pc: f10d, reg_addr:   6f, cycle:  22015
f10d f0  2 84 BEQ  REL   A:6f X: 2 Y:d9 P:67 S:fb pc: f111, reg_addr: f111, cycle:  22018
f111 c8 a9 a5 INY  IMPL  A:6f X: 2 Y:d9 P:67 S:fb pc: f112, reg_addr:    0, cycle:  22020
f112 a9 a5 8d LDA  IMM   A:6f X: 2 Y:da P:e5 S:fb pc: f114, reg_addr:   a5, cycle:  22022
f114 8d 47  6 STA  ABS   A:a5 X: 2 Y:da P:e5 S:fb pc: f117, reg_addr:  647, cycle:  22026
f117 20 53 fb JSR  ABS   A:a5 X: 2 Y:da P:e5 S:fb pc: fb53, reg_addr: fb53, cycle:  22032
fb53 24  1 18 BIT  ZP    A:a5 X: 2 Y:da P:e5 S:f9 pc: fb55, reg_addr:    1, cycle:  22035
fb55 18 a9 b3 CLC  IMPL  A:a5 X: 2 Y:da P:e5 S:f9 pc: fb56, reg_addr:    0, cycle:  22037
fb56 a9 b3 60 LDA  IMM   A:a5 X: 2 Y:da P:e4 S:f9 pc: fb58, reg_addr:   b3, cycle:  22039
fb58 60 50 1a RTS  IMPL  A:b3 X: 2 Y:da P:e4 S:f9 pc: f11a, reg_addr:    0, cycle:  22045
f11a 2f 47  6 RLA  ABS   A:b3 X: 2 Y:da P:e4 S:fb pc: f11d, reg_addr:  647, cycle:  22051
f11d ea ea ea NOP  IMPL  A: 2 X: 2 Y:da P:65 S:fb pc: f11e, reg_addr:    0, cycle:  22053
f11e ea ea ea NOP  IMPL  A: 2 X: 2 Y:da P:65 S:fb pc: f11f, reg_addr:    0, cycle:  22055
f11f ea ea 20 NOP  IMPL  A: 2 X: 2 Y:da P:65 S:fb pc: f120, reg_addr:    0, cycle:  22057
f120 ea 20 59 NOP  IMPL  A: 2 X: 2 Y:da P:65 S:fb pc: f121, reg_addr:    0, cycle:  22059
f121 20 59 fb JSR  ABS   A: 2 X: 2 Y:da P:65 S:fb pc: fb59, reg_addr: fb59, cycle:  22065
fb59 50 1a 90 BVC  REL   A: 2 X: 2 Y:da P:65 S:f9 pc: fb5b, reg_addr: fb75, cycle:  22067
fb5b 90 18 30 BCC  REL   A: 2 X: 2 Y:da P:65 S:f9 pc: fb5d, reg_addr: fb75, cycle:  22069
fb5d 30 16 c9 BMI  REL   A: 2 X: 2 Y:da P:65 S:f9 pc: fb5f, reg_addr: fb75, cycle:  22071
fb5f c9  2 d0 CMP  IMM   A: 2 X: 2 Y:da P:65 S:f9 pc: fb61, reg_addr:    2, cycle:  22073
fb61 d0 12 60 BNE  REL   A: 2 X: 2 Y:da P:67 S:f9 pc: fb63, reg_addr: fb75, cycle:  22075
fb63 60 b8 18 RTS  IMPL  A: 2 X: 2 Y:da P:67 S:f9 pc: f124, reg_addr:    0, cycle:  22081
f124 ad 47  6 LDA  ABS   A: 2 X: 2 Y:da P:67 S:fb pc: f127, reg_addr:  647, cycle:  22085
f127 c9 4a f0 CMP  IMM   A:4a X: 2 Y:da P:65 S:fb pc: f129, reg_addr:   4a, cycle:  22087
f129 f0  2 84 BEQ  REL   A:4a X: 2 Y:da P:67 S:fb pc: f12d, reg_addr: f12d, cycle:  22090
f12d c8 a9 29 INY  IMPL  A:4a X: 2 Y:da P:67 S:fb pc: f12e, reg_addr:    0, cycle:  22092
f12e a9 29 8d LDA  IMM   A:4a X: 2 Y:db P:e5 S:fb pc: f130, reg_addr:   29, cycle:  22094
f130 8d 47  6 STA  ABS   A:29 X: 2 Y:db P:65 S:fb pc: f133, reg_addr:  647, cycle:  22098
f133 20 64 fb JSR  ABS   A:29 X: 2 Y:db P:65 S:fb pc: fb64, reg_addr: fb64, cycle:  22104
fb64 b8 18 a9 CLV  IMPL  A:29 X: 2 Y:db P:65 S:f9 pc: fb65, reg_addr:    0, cycle:  22106
fb65 18 a9 42 CLC  IMPL  A:29 X: 2 Y:db P:25 S:f9 pc: fb66, reg_addr:    0, cycle:  22108
fb66 a9 42 60 LDA  IMM   A:29 X: 2 Y:db P:24 S:f9 pc: fb68, reg_addr:   42, cycle:  22110
fb68 60 70  a RTS  IMPL  A:42 X: 2 Y:db P:24 S:f9 pc: f136, reg_addr:    0, cycle:  22116
f136 2f 47  6 RLA  ABS   A:42 X: 2 Y:db P:24 S:fb pc: f139, reg_addr:  647, cycle:  22122
f139 ea ea ea NOP  IMPL  A:42 X: 2 Y:db P:24 S:fb pc: f13a, reg_addr:    0, cycle:  22124
f13a ea ea ea NOP  IMPL  A:42 X: 2 Y:db P:24 S:fb pc: f13b, reg_addr:    0, cycle:  22126
f13b ea ea 20 NOP  IMPL  A:42 X: 2 Y:db P:24 S:fb pc: f13c, reg_addr:    0, cycle:  22128
f13c ea 20 69 NOP  IMPL  A:42 X: 2 Y:db P:24 S:fb pc: f13d, reg_addr:    0, cycle:  22130
f13d 20 69 fb JSR  ABS   A:42 X: 2 Y:db P:24 S:fb pc: fb69, reg_addr: fb69, cycle:  22136
fb69 70  a f0 BVS  REL   A:42 X: 2 Y:db P:24 S:f9 pc: fb6b, reg_addr: fb75, cycle:  22138
fb6b f0  8 30 BEQ  REL   A:42 X: 2 Y:db P:24 S:f9 pc: fb6d, reg_addr: fb75, cycle:  22140
fb6d 30  6 b0 BMI  REL   A:42 X: 2 Y:db P:24 S:f9 pc: fb6f, reg_addr: fb75, cycle:  22142
fb6f b0  4 c9 BCS  REL   A:42 X: 2 Y:db P:24 S:f9 pc: fb71, reg_addr: fb75, cycle:  22144
fb71 c9 42 f0 CMP  IMM   A:42 X: 2 Y:db P:24 S:f9 pc: fb73, reg_addr:   42, cycle:  22146
fb73 f0  2 84 BEQ  REL   A:42 X: 2 Y:db P:27 S:f9 pc: fb77, reg_addr: fb77, cycle:  22149
fb77 60  0  0 RTS  IMPL  A:42 X: 2 Y:db P:27 S:f9 pc: f140, reg_addr:    0, cycle:  22155
f140 ad 47  6 LDA  ABS   A:42 X: 2 Y:db P:27 S:fb pc: f143, reg_addr:  647, cycle:  22159
f143 c9 52 f0 CMP  IMM   A:52 X: 2 Y:db P:25 S:fb pc: f145, reg_addr:   52, cycle:  22161
f145 f0  2 84 BEQ  REL   A:52 X: 2 Y:db P:27 S:fb pc: f149, reg_addr: f149, cycle:  22164
f149 c8 a9 37 INY  IMPL  A:52 X: 2 Y:db P:27 S:fb pc: f14a, reg_addr:    0, cycle:  22166
f14a a9 37 8d LDA  IMM   A:52 X: 2 Y:dc P:a5 S:fb pc: f14c, reg_addr:   37, cycle:  22168
f14c 8d 47  6 STA  ABS   A:37 X: 2 Y:dc P:25 S:fb pc: f14f, reg_addr:  647, cycle:  22172
f14f 20 68 fa JSR  ABS   A:37 X: 2 Y:dc P:25 S:fb pc: fa68, reg_addr: fa68, cycle:  22178
fa68 24  1 38 BIT  ZP    A:37 X: 2 Y:dc P:25 S:f9 pc: fa6a, reg_addr:    1, cycle:  22181
fa6a 38 a9 75 SEC  IMPL  A:37 X: 2 Y:dc P:e5 S:f9 pc: fa6b, reg_addr:    0, cycle:  22183
fa6b a9 75 60 LDA  IMM   A:37 X: 2 Y:dc P:e5 S:f9 pc: fa6d, reg_addr:   75, cycle:  22185
fa6d 60 50 76 RTS  IMPL  A:75 X: 2 Y:dc P:65 S:f9 pc: f152, reg_addr:    0, cycle:  22191
f152 2f 47  6 RLA  ABS   A:75 X: 2 Y:dc P:65 S:fb pc: f155, reg_addr:  647, cycle:  22197
f155 ea ea ea NOP  IMPL  A:65 X: 2 Y:dc P:64 S:fb pc: f156, reg_addr:    0, cycle:  22199
f156 ea ea ea NOP  IMPL  A:65 X: 2 Y:dc P:64 S:fb pc: f157, reg_addr:    0, cycle:  22201
f157 ea ea 20 NOP  IMPL  A:65 X: 2 Y:dc P:64 S:fb pc: f158, reg_addr:    0, cycle:  22203
f158 ea 20 6e NOP  IMPL  A:65 X: 2 Y:dc P:64 S:fb pc: f159, reg_addr:    0, cycle:  22205
f159 20 6e fa JSR  ABS   A:65 X: 2 Y:dc P:64 S:fb pc: fa6e, reg_addr: fa6e, cycle:  22211
fa6e 50 76 f0 BVC  REL   A:65 X: 2 Y:dc P:64 S:f9 pc: fa70, reg_addr: fae6, cycle:  22213
fa70 f0 74 30 BEQ  REL   A:65 X: 2 Y:dc P:64 S:f9 pc: fa72, reg_addr: fae6, cycle:  22215
fa72 30 72 b0 BMI  REL   A:65 X: 2 Y:dc P:64 S:f9 pc: fa74, reg_addr: fae6, cycle:  22217
fa74 b0 70 c9 BCS  REL   A:65 X: 2 Y:dc P:64 S:f9 pc: fa76, reg_addr: fae6, cycle:  22219
fa76 c9 65 d0 CMP  IMM   A:65 X: 2 Y:dc P:64 S:f9 pc: fa78, reg_addr:   65, cycle:  22221
fa78 d0 6c 60 BNE  REL   A:65 X: 2 Y:dc P:67 S:f9 pc: fa7a, reg_addr: fae6, cycle:  22223
fa7a 60 24  1 RTS  IMPL  A:65 X: 2 Y:dc P:67 S:f9 pc: f15c, reg_addr:    0, cycle:  22229
f15c ad 47  6 LDA  ABS   A:65 X: 2 Y:dc P:67 S:fb pc: f15f, reg_addr:  647, cycle:  22233
f15f c9 6f f0 CMP  IMM   A:6f X: 2 Y:dc P:65 S:fb pc: f161, reg_addr:   6f, cycle:  22235
f161 f0  2 84 BEQ  REL   A:6f X: 2 Y:dc P:67 S:fb pc: f165, reg_addr: f165, cycle:  22238
f165 a9 a5 8d LDA  IMM   A:6f X: 2 Y:dc P:67 S:fb pc: f167, reg_addr:   a5, cycle:  22240
f167 8d 47  6 STA  ABS   A:a5 X: 2 Y:dc P:e5 S:fb pc: f16a, reg_addr:  647, cycle:  22244
f16a a9 48 85 LDA  IMM   A:a5 X: 2 Y:dc P:e5 S:fb pc: f16c, reg_addr:   48, cycle:  22246
f16c 85 45 a9 STA  ZP    A:48 X: 2 Y:dc P:65 S:fb pc: f16e, reg_addr:   45, cycle:  22249
f16e a9  5 85 LDA  IMM   A:48 X: 2 Y:dc P:65 S:fb pc: f170, reg_addr:    5, cycle:  22251
f170 85 46 a0 STA  ZP    A: 5 X: 2 Y:dc P:65 S:fb pc: f172, reg_addr:   46, cycle:  22254
f172 a0 ff 20 LDY  IMM   A: 5 X: 2 Y:dc P:65 S:fb pc: f174, reg_addr:   ff, cycle:  22256
f174 20 53 fb JSR  ABS   A: 5 X: 2 Y:ff P:e5 S:fb pc: fb53, reg_addr: fb53, cycle:  22262
fb53 24  1 18 BIT  ZP    A: 5 X: 2 Y:ff P:e5 S:f9 pc: fb55, reg_addr:    1, cycle:  22265
fb55 18 a9 b3 CLC  IMPL  A: 5 X: 2 Y:ff P:e5 S:f9 pc: fb56, reg_addr:    0, cycle:  22267
fb56 a9 b3 60 LDA  IMM   A: 5 X: 2 Y:ff P:e4 S:f9 pc: fb58, reg_addr:   b3, cycle:  22269
fb58 60 50 1a RTS  IMPL  A:b3 X: 2 Y:ff P:e4 S:f9 pc: f177, reg_addr:    0, cycle:  22275
f177 33 45 ea RLA  INDY  A:b3 X: 2 Y:ff P:e4 S:fb pc: f179, reg_addr:  647, cycle:  22284
f179 ea ea  8 NOP  IMPL  A: 2 X: 2 Y:ff P:65 S:fb pc: f17a, reg_addr:    0, cycle:  22286
f17a ea  8 48 NOP  IMPL  A: 2 X: 2 Y:ff P:65 S:fb pc: f17b, reg_addr:    0, cycle:  22288
f17b  8 48 a0 PHP  IMPL  A: 2 X: 2 Y:ff P:65 S:fb pc: f17c, reg_addr:    0, cycle:  22291
f17c 48 a0 dd PHA  IMPL  A: 2 X: 2 Y:ff P:65 S:fa pc: f17d, reg_addr:    0, cycle:  22294
f17d a0 dd 68 LDY  IMM   A: 2 X: 2 Y:ff P:65 S:f9 pc: f17f, reg_addr:   dd, cycle:  22296
f17f 68 28 20 PLA  IMPL  A: 2 X: 2 Y:dd P:e5 S:f9 pc: f180, reg_addr:    0, cycle:  22300
f180 28 20 59 PLP  IMPL  A: 2 X: 2 Y:dd P:65 S:fa pc: f181, reg_addr:    0, cycle:  22304
f181 20 59 fb JSR  ABS   A: 2 X: 2 Y:dd P:65 S:fb pc: fb59, reg_addr: fb59, cycle:  22310
fb59 50 1a 90 BVC  REL   A: 2 X: 2 Y:dd P:65 S:f9 pc: fb5b, reg_addr: fb75, cycle:  22312
fb5b 90 18 30 BCC  REL   A: 2 X: 2 Y:dd P:65 S:f9 pc: fb5d, reg_addr: fb75, cycle:  22314
fb5d 30 16 c9 BMI  REL   A: 2 X: 2 Y:dd P:65 S:f9 pc: fb5f, reg_addr: fb75, cycle:  22316
fb5f c9  2 d0 CMP  IMM   A: 2 X: 2 Y:dd P:65 S:f9 pc: fb61, reg_addr:    2, cycle:  22318
fb61 d0 12 60 BNE  REL   A: 2 X: 2 Y:dd P:67 S:f9 pc: fb63, reg_addr: fb75, cycle:  22320
fb63 60 b8 18 RTS  IMPL  A: 2 X: 2 Y:dd P:67 S:f9 pc: f184, reg_addr:    0, cycle:  22326
f184 ad 47  6 LDA  ABS   A: 2 X: 2 Y:dd P:67 S:fb pc: f187, reg_addr:  647, cycle:  22330
f187 c9 4a f0 CMP  IMM   A:4a X: 2 Y:dd P:65 S:fb pc: f189, reg_addr:   4a, cycle:  22332
f189 f0  2 84 BEQ  REL   A:4a X: 2 Y:dd P:67 S:fb pc: f18d, reg_addr: f18d, cycle:  22335
f18d a0 ff a9 LDY  IMM   A:4a X: 2 Y:dd P:67 S:fb pc: f18f, reg_addr:   ff, cycle:  22337
f18f a9 29 8d LDA  IMM   A:4a X: 2 Y:ff P:e5 S:fb pc: f191, reg_addr:   29, cycle:  22339
f191 8d 47  6 STA  ABS   A:29 X: 2 Y:ff P:65 S:fb pc: f194, reg_addr:  647, cycle:  22343
f194 20 64 fb JSR  ABS   A:29 X: 2 Y:ff P:65 S:fb pc: fb64, reg_addr: fb64, cycle:  22349
fb64 b8 18 a9 CLV  IMPL  A:29 X: 2 Y:ff P:65 S:f9 pc: fb65, reg_addr:    0, cycle:  22351
fb65 18 a9 42 CLC  IMPL  A:29 X: 2 Y:ff P:25 S:f9 pc: fb66, reg_addr:    0, cycle:  22353
fb66 a9 42 60 LDA  IMM   A:29 X: 2 Y:ff P:24 S:f9 pc: fb68, reg_addr:   42, cycle:  22355
fb68 60 70  a RTS  IMPL  A:42 X: 2 Y:ff P:24 S:f9 pc: f197, reg_addr:    0, cycle:  22361
f197 33 45 ea RLA  INDY  A:42 X: 2 Y:ff P:24 S:fb pc: f199, reg_addr:  647, cycle:  22370
f199 ea ea  8 NOP  IMPL  A:42 X: 2 Y:ff P:24 S:fb pc: f19a, reg_addr:    0, cycle:  22372
f19a ea  8 48 NOP  IMPL  A:42 X: 2 Y:ff P:24 S:fb pc: f19b, reg_addr:    0, cycle:  22374
f19b  8 48 a0 PHP  IMPL  A:42 X: 2 Y:ff P:24 S:fb pc: f19c, reg_addr:    0, cycle:  22377
f19c 48 a0 de PHA  IMPL  A:42 X: 2 Y:ff P:24 S:fa pc: f19d, reg_addr:    0, cycle:  22380
f19d a0 de 68 LDY  IMM   A:42 X: 2 Y:ff P:24 S:f9 pc: f19f, reg_addr:   de, cycle:  22382
f19f 68 28 20 PLA  IMPL  A:42 X: 2 Y:de P:a4 S:f9 pc: f1a0, reg_addr:    0, cycle:  22386
f1a0 28 20 69 PLP  IMPL  A:42 X: 2 Y:de P:24 S:fa pc: f1a1, reg_addr:    0, cycle:  22390
f1a1 20 69 fb JSR  ABS   A:42 X: 2 Y:de P:24 S:fb pc: fb69, reg_addr: fb69, cycle:  22396
fb69 70  a f0 BVS  REL   A:42 X: 2 Y:de P:24 S:f9 pc: fb6b, reg_addr: fb75, cycle:  22398
fb6b f0  8 30 BEQ  REL   A:42 X: 2 Y:de P:24 S:f9 pc: fb6d, reg_addr: fb75, cycle:  22400
fb6d 30  6 b0 BMI  REL   A:42 X: 2 Y:de P:24 S:f9 pc: fb6f, reg_addr: fb75, cycle:  22402
fb6f b0  4 c9 BCS  REL   A:42 X: 2 Y:de P:24 S:f9 pc: fb71, reg_addr: fb75, cycle:  22404
fb71 c9 42 f0 CMP  IMM   A:42 X: 2 Y:de P:24 S:f9 pc: fb73, reg_addr:   42, cycle:  22406
fb73 f0  2 84 BEQ  REL   A:42 X: 2 Y:de P:27 S:f9 pc: fb77, reg_addr: fb77, cycle:  22409
fb77 60  0  0 RTS  IMPL  A:42 X: 2 Y:de P:27 S:f9 pc: f1a4, reg_addr:    0, cycle:  22415
f1a4 ad 47  6 LDA  ABS   A:42 X: 2 Y:de P:27 S:fb pc: f1a7, reg_addr:  647, cycle:  22419
f1a7 c9 52 f0 CMP  IMM   A:52 X: 2 Y:de P:25 S:fb pc: f1a9, reg_addr:   52, cycle:  22421
f1a9 f0  2 84 BEQ  REL   A:52 X: 2 Y:de P:27 S:fb pc: f1ad, reg_addr: f1ad, cycle:  22424
f1ad a0 ff a9 LDY  IMM   A:52 X: 2 Y:de P:27 S:fb pc: f1af, reg_addr:   ff, cycle:  22426
f1af a9 37 8d LDA  IMM   A:52 X: 2 Y:ff P:a5 S:fb pc: f1b1, reg_addr:   37, cycle:  22428
f1b1 8d 47  6 STA  ABS   A:37 X: 2 Y:ff P:25 S:fb pc: f1b4, reg_addr:  647, cycle:  22432
f1b4 20 68 fa JSR  ABS   A:37 X: 2 Y:ff P:25 S:fb pc: fa68, reg_addr: fa68, cycle:  22438
fa68 24  1 38 BIT  ZP    A:37 X: 2 Y:ff P:25 S:f9 pc: fa6a, reg_addr:    1, cycle:  22441
fa6a 38 a9 75 SEC  IMPL  A:37 X: 2 Y:ff P:e5 S:f9 pc: fa6b, reg_addr:    0, cycle:  22443
fa6b a9 75 60 LDA  IMM   A:37 X: 2 Y:ff P:e5 S:f9 pc: fa6d, reg_addr:   75, cycle:  22445
fa6d 60 50 76 RTS  IMPL  A:75 X: 2 Y:ff P:65 S:f9 pc: f1b7, reg_addr:    0, cycle:  22451
f1b7 33 45 ea RLA  INDY  A:75 X: 2 Y:ff P:65 S:fb pc: f1b9, reg_addr:  647, cycle:  22460
f1b9 ea ea  8 NOP  IMPL  A:65 X: 2 Y:ff P:64 S:fb pc: f1ba, reg_addr:    0, cycle:  22462
f1ba ea  8 48 NOP  IMPL  A:65 X: 2 Y:ff P:64 S:fb pc: f1bb, reg_addr:    0, cycle:  22464
f1bb  8 48 a0 PHP  IMPL  A:65 X: 2 Y:ff P:64 S:fb pc: f1bc, reg_addr:    0, cycle:  22467
f1bc 48 a0 df PHA  IMPL  A:65 X: 2 Y:ff P:64 S:fa pc: f1bd, reg_addr:    0, cycle:  22470
f1bd a0 df 68 LDY  IMM   A:65 X: 2 Y:ff P:64 S:f9 pc: f1bf, reg_addr:   df, cycle:  22472
f1bf 68 28 20 PLA  IMPL  A:65 X: 2 Y:df P:e4 S:f9 pc: f1c0, reg_addr:    0, cycle:  22476
f1c0 28 20 6e PLP  IMPL  A:65 X: 2 Y:df P:64 S:fa pc: f1c1, reg_addr:    0, cycle:  22480
f1c1 20 6e fa JSR  ABS   A:65 X: 2 Y:df P:64 S:fb pc: fa6e, reg_addr: fa6e, cycle:  22486
fa6e 50 76 f0 BVC  REL   A:65 X: 2 Y:df P:64 S:f9 pc: fa70, reg_addr: fae6, cycle:  22488
fa70 f0 74 30 BEQ  REL   A:65 X: 2 Y:df P:64 S:f9 pc: fa72, reg_addr: fae6, cycle:  22490
fa72 30 72 b0 BMI  REL   A:65 X: 2 Y:df P:64 S:f9 pc: fa74, reg_addr: fae6, cycle:  22492
fa74 b0 70 c9 BCS  REL   A:65 X: 2 Y:df P:64 S:f9 pc: fa76, reg_addr: fae6, cycle:  22494
fa76 c9 65 d0 CMP  IMM   A:65 X: 2 Y:df P:64 S:f9 pc: fa78, reg_addr:   65, cycle:  22496
fa78 d0 6c 60 BNE  REL   A:65 X: 2 Y:df P:67 S:f9 pc: fa7a, reg_addr: fae6, cycle:  22498
fa7a 60 24  1 RTS  IMPL  A:65 X: 2 Y:df P:67 S:f9 pc: f1c4, reg_addr:    0, cycle:  22504
f1c4 ad 47  6 LDA  ABS   A:65 X: 2 Y:df P:67 S:fb pc: f1c7, reg_addr:  647, cycle:  22508
f1c7 c9 6f f0 CMP  IMM   A:6f X: 2 Y:df P:65 S:fb pc: f1c9, reg_addr:   6f, cycle:  22510
f1c9 f0  2 84 BEQ  REL   A:6f X: 2 Y:df P:67 S:fb pc: f1cd, reg_addr: f1cd, cycle:  22513
f1cd a0 e0 a2 LDY  IMM   A:6f X: 2 Y:df P:67 S:fb pc: f1cf, reg_addr:   e0, cycle:  22515
f1cf a2 ff a9 LDX  IMM   A:6f X: 2 Y:e0 P:e5 S:fb pc: f1d1, reg_addr:   ff, cycle:  22517
f1d1 a9 a5 85 LDA  IMM   A:6f X:ff Y:e0 P:e5 S:fb pc: f1d3, reg_addr:   a5, cycle:  22519
f1d3 85 47 20 STA  ZP    A:a5 X:ff Y:e0 P:e5 S:fb pc: f1d5, reg_addr:   47, cycle:  22522
f1d5 20 53 fb JSR  ABS   A:a5 X:ff Y:e0 P:e5 S:fb pc: fb53, reg_addr: fb53, cycle:  22528
fb53 24  1 18 BIT  ZP    A:a5 X:ff Y:e0 P:e5 S:f9 pc: fb55, reg_addr:    1, cycle:  22531
fb55 18 a9 b3 CLC  IMPL  A:a5 X:ff Y:e0 P:e5 S:f9 pc: fb56, reg_addr:    0, cycle:  22533
fb56 a9 b3 60 LDA  IMM   A:a5 X:ff Y:e0 P:e4 S:f9 pc: fb58, reg_addr:   b3, cycle:  22535
fb58 60 50 1a RTS  IMPL  A:b3 X:ff Y:e0 P:e4 S:f9 pc: f1d8, reg_addr:    0, cycle:  22541
f1d8 37 48 ea RLA  ZPX   A:b3 X:ff Y:e0 P:e4 S:fb pc: f1da, reg_addr:   47, cycle:  22547
f1da ea ea ea NOP  IMPL  A: 2 X:ff Y:e0 P:65 S:fb pc: f1db, reg_addr:    0, cycle:  22549
f1db ea ea ea NOP  IMPL  A: 2 X:ff Y:e0 P:65 S:fb pc: f1dc, reg_addr:    0, cycle:  22551
f1dc ea ea 20 NOP  IMPL  A: 2 X:ff Y:e0 P:65 S:fb pc: f1dd, reg_addr:    0, cycle:  22553
f1dd ea 20 59 NOP  IMPL  A: 2 X:ff Y:e0 P:65 S:fb pc: f1de, reg_addr:    0, cycle:  22555
f1de 20 59 fb JSR  ABS   A: 2 X:ff Y:e0 P:65 S:fb pc: fb59, reg_addr: fb59, cycle:  22561
fb59 50 1a 90 BVC  REL   A: 2 X:ff Y:e0 P:65 S:f9 pc: fb5b, reg_addr: fb75, cycle:  22563
fb5b 90 18 30 BCC  REL   A: 2 X:ff Y:e0 P:65 S:f9 pc: fb5d, reg_addr: fb75, cycle:  22565
fb5d 30 16 c9 BMI  REL   A: 2 X:ff Y:e0 P:65 S:f9 pc: fb5f, reg_addr: fb75, cycle:  22567
fb5f c9  2 d0 CMP  IMM   A: 2 X:ff Y:e0 P:65 S:f9 pc: fb61, reg_addr:    2, cycle:  22569
fb61 d0 12 60 BNE  REL   A: 2 X:ff Y:e0 P:67 S:f9 pc: fb63, reg_addr: fb75, cycle:  22571
fb63 60 b8 18 RTS  IMPL  A: 2 X:ff Y:e0 P:67 S:f9 pc: f1e1, reg_addr:    0, cycle:  22577
f1e1 a5 47 c9 LDA  ZP    A: 2 X:ff Y:e0 P:67 S:fb pc: f1e3, reg_addr:   47, cycle:  22580
f1e3 c9 4a f0 CMP  IMM   A:4a X:ff Y:e0 P:65 S:fb pc: f1e5, reg_addr:   4a, cycle:  22582
f1e5 f0  2 84 BEQ  REL   A:4a X:ff Y:e0 P:67 S:fb pc: f1e9, reg_addr: f1e9, cycle:  22585
f1e9 c8 a9 29 INY  IMPL  A:4a X:ff Y:e0 P:67 S:fb pc: f1ea, reg_addr:    0, cycle:  22587
f1ea a9 29 85 LDA  IMM   A:4a X:ff Y:e1 P:e5 S:fb pc: f1ec, reg_addr:   29, cycle:  22589
f1ec 85 47 20 STA  ZP    A:29 X:ff Y:e1 P:65 S:fb pc: f1ee, reg_addr:   47, cycle:  22592
f1ee 20 64 fb JSR  ABS   A:29 X:ff Y:e1 P:65 S:fb pc: fb64, reg_addr: fb64, cycle:  22598
fb64 b8 18 a9 CLV  IMPL  A:29 X:ff Y:e1 P:65 S:f9 pc: fb65, reg_addr:    0, cycle:  22600
fb65 18 a9 42 CLC  IMPL  A:29 X:ff Y:e1 P:25 S:f9 pc: fb66, reg_addr:    0, cycle:  22602
fb66 a9 42 60 LDA  IMM   A:29 X:ff Y:e1 P:24 S:f9 pc: fb68, reg_addr:   42, cycle:  22604
fb68 60 70  a RTS  IMPL  A:42 X:ff Y:e1 P:24 S:f9 pc: f1f1, reg_addr:    0, cycle:  22610
f1f1 37 48 ea RLA  ZPX   A:42 X:ff Y:e1 P:24 S:fb pc: f1f3, reg_addr:   47, cycle:  22616
f1f3 ea ea ea NOP  IMPL  A:42 X:ff Y:e1 P:24 S:fb pc: f1f4, reg_addr:    0, cycle:  22618
f1f4 ea ea ea NOP  IMPL  A:42 X:ff Y:e1 P:24 S:fb pc: f1f5, reg_addr:    0, cycle:  22620
f1f5 ea ea 20 NOP  IMPL  A:42 X:ff Y:e1 P:24 S:fb pc: f1f6, reg_addr:    0, cycle:  22622
f1f6 ea 20 69 NOP  IMPL  A:42 X:ff Y:e1 P:24 S:fb pc: f1f7, reg_addr:    0, cycle:  22624
f1f7 20 69 fb JSR  ABS   A:42 X:ff Y:e1 P:24 S:fb pc: fb69, reg_addr: fb69, cycle:  22630
fb69 70  a f0 BVS  REL   A:42 X:ff Y:e1 P:24 S:f9 pc: fb6b, reg_addr: fb75, cycle:  22632
fb6b f0  8 30 BEQ  REL   A:42 X:ff Y:e1 P:24 S:f9 pc: fb6d, reg_addr: fb75, cycle:  22634
fb6d 30  6 b0 BMI  REL   A:42 X:ff Y:e1 P:24 S:f9 pc: fb6f, reg_addr: fb75, cycle:  22636
fb6f b0  4 c9 BCS  REL   A:42 X:ff Y:e1 P:24 S:f9 pc: fb71, reg_addr: fb75, cycle:  22638
fb71 c9 42 f0 CMP  IMM   A:42 X:ff Y:e1 P:24 S:f9 pc: fb73, reg_addr:   42, cycle:  22640
fb73 f0  2 84 BEQ  REL   A:42 X:ff Y:e1 P:27 S:f9 pc: fb77, reg_addr: fb77, cycle:  22643
fb77 60  0  0 RTS  IMPL  A:42 X:ff Y:e1 P:27 S:f9 pc: f1fa, reg_addr:    0, cycle:  22649
f1fa a5 47 c9 LDA  ZP    A:42 X:ff Y:e1 P:27 S:fb pc: f1fc, reg_addr:   47, cycle:  22652
f1fc c9 52 f0 CMP  IMM   A:52 X:ff Y:e1 P:25 S:fb pc: f1fe, reg_addr:   52, cycle:  22654
f1fe f0  2 84 BEQ  REL   A:52 X:ff Y:e1 P:27 S:fb pc: f202, reg_addr: f202, cycle:  22657
f202 c8 a9 37 INY  IMPL  A:52 X:ff Y:e1 P:27 S:fb pc: f203, reg_addr:    0, cycle:  22659
f203 a9 37 85 LDA  IMM   A:52 X:ff Y:e2 P:a5 S:fb pc: f205, reg_addr:   37, cycle:  22661
f205 85 47 20 STA  ZP    A:37 X:ff Y:e2 P:25 S:fb pc: f207, reg_addr:   47, cycle:  22664
f207 20 68 fa JSR  ABS   A:37 X:ff Y:e2 P:25 S:fb pc: fa68, reg_addr: fa68, cycle:  22670
fa68 24  1 38 BIT  ZP    A:37 X:ff Y:e2 P:25 S:f9 pc: fa6a, reg_addr:    1, cycle:  22673
fa6a 38 a9 75 SEC  IMPL  A:37 X:ff Y:e2 P:e5 S:f9 pc: fa6b, reg_addr:    0, cycle:  22675
fa6b a9 75 60 LDA  IMM   A:37 X:ff Y:e2 P:e5 S:f9 pc: fa6d, reg_addr:   75, cycle:  22677
fa6d 60 50 76 RTS  IMPL  A:75 X:ff Y:e2 P:65 S:f9 pc: f20a, reg_addr:    0, cycle:  22683
f20a 37 48 ea RLA  ZPX   A:75 X:ff Y:e2 P:65 S:fb pc: f20c, reg_addr:   47, cycle:  22689
f20c ea ea ea NOP  IMPL  A:65 X:ff Y:e2 P:64 S:fb pc: f20d, reg_addr:    0, cycle:  22691
f20d ea ea ea NOP  IMPL  A:65 X:ff Y:e2 P:64 S:fb pc: f20e, reg_addr:    0, cycle:  22693
f20e ea ea 20 NOP  IMPL  A:65 X:ff Y:e2 P:64 S:fb pc: f20f, reg_addr:    0, cycle:  22695
f20f ea 20 6e NOP  IMPL  A:65 X:ff Y:e2 P:64 S:fb pc: f210, reg_addr:    0, cycle:  22697
f210 20 6e fa JSR  ABS   A:65 X:ff Y:e2 P:64 S:fb pc: fa6e, reg_addr: fa6e, cycle:  22703
fa6e 50 76 f0 BVC  REL   A:65 X:ff Y:e2 P:64 S:f9 pc: fa70, reg_addr: fae6, cycle:  22705
fa70 f0 74 30 BEQ  REL   A:65 X:ff Y:e2 P:64 S:f9 pc: fa72, reg_addr: fae6, cycle:  22707
fa72 30 72 b0 BMI  REL   A:65 X:ff Y:e2 P:64 S:f9 pc: fa74, reg_addr: fae6, cycle:  22709
fa74 b0 70 c9 BCS  REL   A:65 X:ff Y:e2 P:64 S:f9 pc: fa76, reg_addr: fae6, cycle:  22711
fa76 c9 65 d0 CMP  IMM   A:65 X:ff Y:e2 P:64 S:f9 pc: fa78, reg_addr:   65, cycle:  22713
fa78 d0 6c 60 BNE  REL   A:65 X:ff Y:e2 P:67 S:f9 pc: fa7a, reg_addr: fae6, cycle:  22715
fa7a 60 24  1 RTS  IMPL  A:65 X:ff Y:e2 P:67 S:f9 pc: f213, reg_addr:    0, cycle:  22721
f213 a5 47 c9 LDA  ZP    A:65 X:ff Y:e2 P:67 S:fb pc: f215, reg_addr:   47, cycle:  22724
f215 c9 6f f0 CMP  IMM   A:6f X:ff Y:e2 P:65 S:fb pc: f217, reg_addr:   6f, cycle:  22726
f217 f0  2 84 BEQ  REL   A:6f X:ff Y:e2 P:67 S:fb pc: f21b, reg_addr: f21b, cycle:  22729
f21b a9 a5 8d LDA  IMM   A:6f X:ff Y:e2 P:67 S:fb pc: f21d, reg_addr:   a5, cycle:  22731
f21d 8d 47  6 STA  ABS   A:a5 X:ff Y:e2 P:e5 S:fb pc: f220, reg_addr:  647, cycle:  22735
f220 a0 ff 20 LDY  IMM   A:a5 X:ff Y:e2 P:e5 S:fb pc: f222, reg_addr:   ff, cycle:  22737
f222 20 53 fb JSR  ABS   A:a5 X:ff Y:ff P:e5 S:fb pc: fb53, reg_addr: fb53, cycle:  22743
fb53 24  1 18 BIT  ZP    A:a5 X:ff Y:ff P:e5 S:f9 pc: fb55, reg_addr:    1, cycle:  22746
fb55 18 a9 b3 CLC  IMPL  A:a5 X:ff Y:ff P:e5 S:f9 pc: fb56, reg_addr:    0, cycle:  22748
fb56 a9 b3 60 LDA  IMM   A:a5 X:ff Y:ff P:e4 S:f9 pc: fb58, reg_addr:   b3, cycle:  22750
fb58 60 50 1a RTS  IMPL  A:b3 X:ff Y:ff P:e4 S:f9 pc: f225, reg_addr:    0, cycle:  22756
f225 3b 48  5 RLA  ABSY  A:b3 X:ff Y:ff P:e4 S:fb pc: f228, reg_addr:  647, cycle:  22764
f228 ea ea  8 NOP  IMPL  A: 2 X:ff Y:ff P:65 S:fb pc: f229, reg_addr:    0, cycle:  22766
f229 ea  8 48 NOP  IMPL  A: 2 X:ff Y:ff P:65 S:fb pc: f22a, reg_addr:    0, cycle:  22768
f22a  8 48 a0 PHP  IMPL  A: 2 X:ff Y:ff P:65 S:fb pc: f22b, reg_addr:    0, cycle:  22771
f22b 48 a0 e3 PHA  IMPL  A: 2 X:ff Y:ff P:65 S:fa pc: f22c, reg_addr:    0, cycle:  22774
f22c a0 e3 68 LDY  IMM   A: 2 X:ff Y:ff P:65 S:f9 pc: f22e, reg_addr:   e3, cycle:  22776
f22e 68 28 20 PLA  IMPL  A: 2 X:ff Y:e3 P:e5 S:f9 pc: f22f, reg_addr:    0, cycle:  22780
f22f 28 20 59 PLP  IMPL  A: 2 X:ff Y:e3 P:65 S:fa pc: f230, reg_addr:    0, cycle:  22784
f230 20 59 fb JSR  ABS   A: 2 X:ff Y:e3 P:65 S:fb pc: fb59, reg_addr: fb59, cycle:  22790
fb59 50 1a 90 BVC  REL   A: 2 X:ff Y:e3 P:65 S:f9 pc: fb5b, reg_addr: fb75, cycle:  22792
fb5b 90 18 30 BCC  REL   A: 2 X:ff Y:e3 P:65 S:f9 pc: fb5d, reg_addr: fb75, cycle:  22794
fb5d 30 16 c9 BMI  REL   A: 2 X:ff Y:e3 P:65 S:f9 pc: fb5f, reg_addr: fb75, cycle:  22796
fb5f c9  2 d0 CMP  IMM   A: 2 X:ff Y:e3 P:65 S:f9 pc: fb61, reg_addr:    2, cycle:  22798
fb61 d0 12 60 BNE  REL   A: 2 X:ff Y:e3 P:67 S:f9 pc: fb63, reg_addr: fb75, cycle:  22800
fb63 60 b8 18 RTS  IMPL  A: 2 X:ff Y:e3 P:67 S:f9 pc: f233, reg_addr:    0, cycle:  22806
f233 ad 47  6 LDA  ABS   A: 2 X:ff Y:e3 P:67 S:fb pc: f236, reg_addr:  647, cycle:  22810
f236 c9 4a f0 CMP  IMM   A:4a X:ff Y:e3 P:65 S:fb pc: f238, reg_addr:   4a, cycle:  22812
f238 f0  2 84 BEQ  REL   A:4a X:ff Y:e3 P:67 S:fb pc: f23c, reg_addr: f23c, cycle:  22815
f23c a0 ff a9 LDY  IMM   A:4a X:ff Y:e3 P:67 S:fb pc: f23e, reg_addr:   ff, cycle:  22817
f23e a9 29 8d LDA  IMM   A:4a X:ff Y:ff P:e5 S:fb pc: f240, reg_addr:   29, cycle:  22819
f240 8d 47  6 STA  ABS   A:29 X:ff Y:ff P:65 S:fb pc: f243, reg_addr:  647, cycle:  22823
f243 20 64 fb JSR  ABS   A:29 X:ff Y:ff P:65 S:fb pc: fb64, reg_addr: fb64, cycle:  22829
fb64 b8 18 a9 CLV  IMPL  A:29 X:ff Y:ff P:65 S:f9 pc: fb65, reg_addr:    0, cycle:  22831
fb65 18 a9 42 CLC  IMPL  A:29 X:ff Y:ff P:25 S:f9 pc: fb66, reg_addr:    0, cycle:  22833
fb66 a9 42 60 LDA  IMM   A:29 X:ff Y:ff P:24 S:f9 pc: fb68, reg_addr:   42, cycle:  22835
fb68 60 70  a RTS  IMPL  A:42 X:ff Y:ff P:24 S:f9 pc: f246, reg_addr:    0, cycle:  22841
f246 3b 48  5 RLA  ABSY  A:42 X:ff Y:ff P:24 S:fb pc: f249, reg_addr:  647, cycle:  22849
f249 ea ea  8 NOP  IMPL  A:42 X:ff Y:ff P:24 S:fb pc: f24a, reg_addr:    0, cycle:  22851
f24a ea  8 48 NOP  IMPL  A:42 X:ff Y:ff P:24 S:fb pc: f24b, reg_addr:    0, cycle:  22853
f24b  8 48 a0 PHP  IMPL  A:42 X:ff Y:ff P:24 S:fb pc: f24c, reg_addr:    0, cycle:  22856
f24c 48 a0 e4 PHA  IMPL  A:42 X:ff Y:ff P:24 S:fa pc: f24d, reg_addr:    0, cycle:  22859
f24d a0 e4 68 LDY  IMM   A:42 X:ff Y:ff P:24 S:f9 pc: f24f, reg_addr:   e4, cycle:  22861
f24f 68 28 20 PLA  IMPL  A:42 X:ff Y:e4 P:a4 S:f9 pc: f250, reg_addr:    0, cycle:  22865
f250 28 20 69 PLP  IMPL  A:42 X:ff Y:e4 P:24 S:fa pc: f251, reg_addr:    0, cycle:  22869
f251 20 69 fb JSR  ABS   A:42 X:ff Y:e4 P:24 S:fb pc: fb69, reg_addr: fb69, cycle:  22875
fb69 70  a f0 BVS  REL   A:42 X:ff Y:e4 P:24 S:f9 pc: fb6b, reg_addr: fb75, cycle:  22877
fb6b f0  8 30 BEQ  REL   A:42 X:ff Y:e4 P:24 S:f9 pc: fb6d, reg_addr: fb75, cycle:  22879
fb6d 30  6 b0 BMI  REL   A:42 X:ff Y:e4 P:24 S:f9 pc: fb6f, reg_addr: fb75, cycle:  22881
fb6f b0  4 c9 BCS  REL   A:42 X:ff Y:e4 P:24 S:f9 pc: fb71, reg_addr: fb75, cycle:  22883
fb71 c9 42 f0 CMP  IMM   A:42 X:ff Y:e4 P:24 S:f9 pc: fb73, reg_addr:   42, cycle:  22885
fb73 f0  2 84 BEQ  REL   A:42 X:ff Y:e4 P:27 S:f9 pc: fb77, reg_addr: fb77, cycle:  22888
fb77 60  0  0 RTS  IMPL  A:42 X:ff Y:e4 P:27 S:f9 pc: f254, reg_addr:    0, cycle:  22894
f254 ad 47  6 LDA  ABS   A:42 X:ff Y:e4 P:27 S:fb pc: f257, reg_addr:  647, cycle:  22898
f257 c9 52 f0 CMP  IMM   A:52 X:ff Y:e4 P:25 S:fb pc: f259, reg_addr:   52, cycle:  22900
f259 f0  2 84 BEQ  REL   A:52 X:ff Y:e4 P:27 S:fb pc: f25d, reg_addr: f25d, cycle:  22903
f25d a0 ff a9 LDY  IMM   A:52 X:ff Y:e4 P:27 S:fb pc: f25f, reg_addr:   ff, cycle:  22905
f25f a9 37 8d LDA  IMM   A:52 X:ff Y:ff P:a5 S:fb pc: f261, reg_addr:   37, cycle:  22907
f261 8d 47  6 STA  ABS   A:37 X:ff Y:ff P:25 S:fb pc: f264, reg_addr:  647, cycle:  22911
f264 20 68 fa JSR  ABS   A:37 X:ff Y:ff P:25 S:fb pc: fa68, reg_addr: fa68, cycle:  22917
fa68 24  1 38 BIT  ZP    A:37 X:ff Y:ff P:25 S:f9 pc: fa6a, reg_addr:    1, cycle:  22920
fa6a 38 a9 75 SEC  IMPL  A:37 X:ff Y:ff P:e5 S:f9 pc: fa6b, reg_addr:    0, cycle:  22922
fa6b a9 75 60 LDA  IMM   A:37 X:ff Y:ff P:e5 S:f9 pc: fa6d, reg_addr:   75, cycle:  22924
fa6d 60 50 76 RTS  IMPL  A:75 X:ff Y:ff P:65 S:f9 pc: f267, reg_addr:    0, cycle:  22930
f267 3b 48  5 RLA  ABSY  A:75 X:ff Y:ff P:65 S:fb pc: f26a, reg_addr:  647, cycle:  22938
f26a ea ea  8 NOP  IMPL  A:65 X:ff Y:ff P:64 S:fb pc: f26b, reg_addr:    0, cycle:  22940
f26b ea  8 48 NOP  IMPL  A:65 X:ff Y:ff P:64 S:fb pc: f26c, reg_addr:    0, cycle:  22942
f26c  8 48 a0 PHP  IMPL  A:65 X:ff Y:ff P:64 S:fb pc: f26d, reg_addr:    0, cycle:  22945
f26d 48 a0 e5 PHA  IMPL  A:65 X:ff Y:ff P:64 S:fa pc: f26e, reg_addr:    0, cycle:  22948
f26e a0 e5 68 LDY  IMM   A:65 X:ff Y:ff P:64 S:f9 pc: f270, reg_addr:   e5, cycle:  22950
f270 68 28 20 PLA  IMPL  A:65 X:ff Y:e5 P:e4 S:f9 pc: f271, reg_addr:    0, cycle:  22954
f271 28 20 6e PLP  IMPL  A:65 X:ff Y:e5 P:64 S:fa pc: f272, reg_addr:    0, cycle:  22958
f272 20 6e fa JSR  ABS   A:65 X:ff Y:e5 P:64 S:fb pc: fa6e, reg_addr: fa6e, cycle:  22964
fa6e 50 76 f0 BVC  REL   A:65 X:ff Y:e5 P:64 S:f9 pc: fa70, reg_addr: fae6, cycle:  22966
fa70 f0 74 30 BEQ  REL   A:65 X:ff Y:e5 P:64 S:f9 pc: fa72, reg_addr: fae6, cycle:  22968
fa72 30 72 b0 BMI  REL   A:65 X:ff Y:e5 P:64 S:f9 pc: fa74, reg_addr: fae6, cycle:  22970
fa74 b0 70 c9 BCS  REL   A:65 X:ff Y:e5 P:64 S:f9 pc: fa76, reg_addr: fae6, cycle:  22972
fa76 c9 65 d0 CMP  IMM   A:65 X:ff Y:e5 P:64 S:f9 pc: fa78, reg_addr:   65, cycle:  22974
fa78 d0 6c 60 BNE  REL   A:65 X:ff Y:e5 P:67 S:f9 pc: fa7a, reg_addr: fae6, cycle:  22976
fa7a 60 24  1 RTS  IMPL  A:65 X:ff Y:e5 P:67 S:f9 pc: f275, reg_addr:    0, cycle:  22982
f275 ad 47  6 LDA  ABS   A:65 X:ff Y:e5 P:67 S:fb pc: f278, reg_addr:  647, cycle:  22986
f278 c9 6f f0 CMP  IMM   A:6f X:ff Y:e5 P:65 S:fb pc: f27a, reg_addr:   6f, cycle:  22988
f27a f0  2 84 BEQ  REL   A:6f X:ff Y:e5 P:67 S:fb pc: f27e, reg_addr: f27e, cycle:  22991
f27e a0 e6 a2 LDY  IMM   A:6f X:ff Y:e5 P:67 S:fb pc: f280, reg_addr:   e6, cycle:  22993
f280 a2 ff a9 LDX  IMM   A:6f X:ff Y:e6 P:e5 S:fb pc: f282, reg_addr:   ff, cycle:  22995
f282 a9 a5 8d LDA  IMM   A:6f X:ff Y:e6 P:e5 S:fb pc: f284, reg_addr:   a5, cycle:  22997
f284 8d 47  6 STA  ABS   A:a5 X:ff Y:e6 P:e5 S:fb pc: f287, reg_addr:  647, cycle:  23001
f287 20 53 fb JSR  ABS   A:a5 X:ff Y:e6 P:e5 S:fb pc: fb53, reg_addr: fb53, cycle:  23007
fb53 24  1 18 BIT  ZP    A:a5 X:ff Y:e6 P:e5 S:f9 pc: fb55, reg_addr:    1, cycle:  23010
fb55 18 a9 b3 CLC  IMPL  A:a5 X:ff Y:e6 P:e5 S:f9 pc: fb56, reg_addr:    0, cycle:  23012
fb56 a9 b3 60 LDA  IMM   A:a5 X:ff Y:e6 P:e4 S:f9 pc: fb58, reg_addr:   b3, cycle:  23014
fb58 60 50 1a RTS  IMPL  A:b3 X:ff Y:e6 P:e4 S:f9 pc: f28a, reg_addr:    0, cycle:  23020
f28a 3f 48  5 RLA  ABSX  A:b3 X:ff Y:e6 P:e4 S:fb pc: f28d, reg_addr:  647, cycle:  23028
f28d ea ea ea NOP  IMPL  A: 2 X:ff Y:e6 P:65 S:fb pc: f28e, reg_addr:    0, cycle:  23030
f28e ea ea ea NOP  IMPL  A: 2 X:ff Y:e6 P:65 S:fb pc: f28f, reg_addr:    0, cycle:  23032
f28f ea ea 20 NOP  IMPL  A: 2 X:ff Y:e6 P:65 S:fb pc: f290, reg_addr:    0, cycle:  23034
f290 ea 20 59 NOP  IMPL  A: 2 X:ff Y:e6 P:65 S:fb pc: f291, reg_addr:    0, cycle:  23036
f291 20 59 fb JSR  ABS   A: 2 X:ff Y:e6 P:65 S:fb pc: fb59, reg_addr: fb59, cycle:  23042
fb59 50 1a 90 BVC  REL   A: 2 X:ff Y:e6 P:65 S:f9 pc: fb5b, reg_addr: fb75, cycle:  23044
fb5b 90 18 30 BCC  REL   A: 2 X:ff Y:e6 P:65 S:f9 pc: fb5d, reg_addr: fb75, cycle:  23046
fb5d 30 16 c9 BMI  REL   A: 2 X:ff Y:e6 P:65 S:f9 pc: fb5f, reg_addr: fb75, cycle:  23048
fb5f c9  2 d0 CMP  IMM   A: 2 X:ff Y:e6 P:65 S:f9 pc: fb61, reg_addr:    2, cycle:  23050
fb61 d0 12 60 BNE  REL   A: 2 X:ff Y:e6 P:67 S:f9 pc: fb63, reg_addr: fb75, cycle:  23052
fb63 60 b8 18 RTS  IMPL  A: 2 X:ff Y:e6 P:67 S:f9 pc: f294, reg_addr:    0, cycle:  23058
f294 ad 47  6 LDA  ABS   A: 2 X:ff Y:e6 P:67 S:fb pc: f297, reg_addr:  647, cycle:  23062
f297 c9 4a f0 CMP  IMM   A:4a X:ff Y:e6 P:65 S:fb pc: f299, reg_addr:   4a, cycle:  23064
f299 f0  2 84 BEQ  REL   A:4a X:ff Y:e6 P:67 S:fb pc: f29d, reg_addr: f29d, cycle:  23067
f29d c8 a9 29 INY  IMPL  A:4a X:ff Y:e6 P:67 S:fb pc: f29e, reg_addr:    0, cycle:  23069
f29e a9 29 8d LDA  IMM   A:4a X:ff Y:e7 P:e5 S:fb pc: f2a0, reg_addr:   29, cycle:  23071
f2a0 8d 47  6 STA  ABS   A:29 X:ff Y:e7 P:65 S:fb pc: f2a3, reg_addr:  647, cycle:  23075
f2a3 20 64 fb JSR  ABS   A:29 X:ff Y:e7 P:65 S:fb pc: fb64, reg_addr: fb64, cycle:  23081
fb64 b8 18 a9 CLV  IMPL  A:29 X:ff Y:e7 P:65 S:f9 pc: fb65, reg_addr:    0, cycle:  23083
fb65 18 a9 42 CLC  IMPL  A:29 X:ff Y:e7 P:25 S:f9 pc: fb66, reg_addr:    0, cycle:  23085
fb66 a9 42 60 LDA  IMM   A:29 X:ff Y:e7 P:24 S:f9 pc: fb68, reg_addr:   42, cycle:  23087
fb68 60 70  a RTS  IMPL  A:42 X:ff Y:e7 P:24 S:f9 pc: f2a6, reg_addr:    0, cycle:  23093
f2a6 3f 48  5 RLA  ABSX  A:42 X:ff Y:e7 P:24 S:fb pc: f2a9, reg_addr:  647, cycle:  23101
f2a9 ea ea ea NOP  IMPL  A:42 X:ff Y:e7 P:24 S:fb pc: f2aa, reg_addr:    0, cycle:  23103
f2aa ea ea ea NOP  IMPL  A:42 X:ff Y:e7 P:24 S:fb pc: f2ab, reg_addr:    0, cycle:  23105
f2ab ea ea 20 NOP  IMPL  A:42 X:ff Y:e7 P:24 S:fb pc: f2ac, reg_addr:    0, cycle:  23107
f2ac ea 20 69 NOP  IMPL  A:42 X:ff Y:e7 P:24 S:fb pc: f2ad, reg_addr:    0, cycle:  23109
f2ad 20 69 fb JSR  ABS   A:42 X:ff Y:e7 P:24 S:fb pc: fb69, reg_addr: fb69, cycle:  23115
fb69 70  a f0 BVS  REL   A:42 X:ff Y:e7 P:24 S:f9 pc: fb6b, reg_addr: fb75, cycle:  23117
fb6b f0  8 30 BEQ  REL   A:42 X:ff Y:e7 P:24 S:f9 pc: fb6d, reg_addr: fb75, cycle:  23119
fb6d 30  6 b0 BMI  REL   A:42 X:ff Y:e7 P:24 S:f9 pc: fb6f, reg_addr: fb75, cycle:  23121
fb6f b0  4 c9 BCS  REL   A:42 X:ff Y:e7 P:24 S:f9 pc: fb71, reg_addr: fb75, cycle:  23123
fb71 c9 42 f0 CMP  IMM   A:42 X:ff Y:e7 P:24 S:f9 pc: fb73, reg_addr:   42, cycle:  23125
fb73 f0  2 84 BEQ  REL   A:42 X:ff Y:e7 P:27 S:f9 pc: fb77, reg_addr: fb77, cycle:  23128
fb77 60  0  0 RTS  IMPL  A:42 X:ff Y:e7 P:27 S:f9 pc: f2b0, reg_addr:    0, cycle:  23134
f2b0 ad 47  6 LDA  ABS   A:42 X:ff Y:e7 P:27 S:fb pc: f2b3, reg_addr:  647, cycle:  23138
f2b3 c9 52 f0 CMP  IMM   A:52 X:ff Y:e7 P:25 S:fb pc: f2b5, reg_addr:   52, cycle:  23140
f2b5 f0  2 84 BEQ  REL   A:52 X:ff Y:e7 P:27 S:fb pc: f2b9, reg_addr: f2b9, cycle:  23143
f2b9 c8 a9 37 INY  IMPL  A:52 X:ff Y:e7 P:27 S:fb pc: f2ba, reg_addr:    0, cycle:  23145
f2ba a9 37 8d LDA  IMM   A:52 X:ff Y:e8 P:a5 S:fb pc: f2bc, reg_addr:   37, cycle:  23147
f2bc 8d 47  6 STA  ABS   A:37 X:ff Y:e8 P:25 S:fb pc: f2bf, reg_addr:  647, cycle:  23151
f2bf 20 68 fa JSR  ABS   A:37 X:ff Y:e8 P:25 S:fb pc: fa68, reg_addr: fa68, cycle:  23157
fa68 24  1 38 BIT  ZP    A:37 X:ff Y:e8 P:25 S:f9 pc: fa6a, reg_addr:    1, cycle:  23160
fa6a 38 a9 75 SEC  IMPL  A:37 X:ff Y:e8 P:e5 S:f9 pc: fa6b, reg_addr:    0, cycle:  23162
fa6b a9 75 60 LDA  IMM   A:37 X:ff Y:e8 P:e5 S:f9 pc: fa6d, reg_addr:   75, cycle:  23164
fa6d 60 50 76 RTS  IMPL  A:75 X:ff Y:e8 P:65 S:f9 pc: f2c2, reg_addr:    0, cycle:  23170
f2c2 3f 48  5 RLA  ABSX  A:75 X:ff Y:e8 P:65 S:fb pc: f2c5, reg_addr:  647, cycle:  23178
f2c5 ea ea ea NOP  IMPL  A:65 X:ff Y:e8 P:64 S:fb pc: f2c6, reg_addr:    0, cycle:  23180
f2c6 ea ea ea NOP  IMPL  A:65 X:ff Y:e8 P:64 S:fb pc: f2c7, reg_addr:    0, cycle:  23182
f2c7 ea ea 20 NOP  IMPL  A:65 X:ff Y:e8 P:64 S:fb pc: f2c8, reg_addr:    0, cycle:  23184
f2c8 ea 20 6e NOP  IMPL  A:65 X:ff Y:e8 P:64 S:fb pc: f2c9, reg_addr:    0, cycle:  23186
f2c9 20 6e fa JSR  ABS   A:65 X:ff Y:e8 P:64 S:fb pc: fa6e, reg_addr: fa6e, cycle:  23192
fa6e 50 76 f0 BVC  REL   A:65 X:ff Y:e8 P:64 S:f9 pc: fa70, reg_addr: fae6, cycle:  23194
fa70 f0 74 30 BEQ  REL   A:65 X:ff Y:e8 P:64 S:f9 pc: fa72, reg_addr: fae6, cycle:  23196
fa72 30 72 b0 BMI  REL   A:65 X:ff Y:e8 P:64 S:f9 pc: fa74, reg_addr: fae6, cycle:  23198
fa74 b0 70 c9 BCS  REL   A:65 X:ff Y:e8 P:64 S:f9 pc: fa76, reg_addr: fae6, cycle:  23200
fa76 c9 65 d0 CMP  IMM   A:65 X:ff Y:e8 P:64 S:f9 pc: fa78, reg_addr:   65, cycle:  23202
fa78 d0 6c 60 BNE  REL   A:65 X:ff Y:e8 P:67 S:f9 pc: fa7a, reg_addr: fae6, cycle:  23204
fa7a 60 24  1 RTS  IMPL  A:65 X:ff Y:e8 P:67 S:f9 pc: f2cc, reg_addr:    0, cycle:  23210
f2cc ad 47  6 LDA  ABS   A:65 X:ff Y:e8 P:67 S:fb pc: f2cf, reg_addr:  647, cycle:  23214
f2cf c9 6f f0 CMP  IMM   A:6f X:ff Y:e8 P:65 S:fb pc: f2d1, reg_addr:   6f, cycle:  23216
f2d1 f0  2 84 BEQ  REL   A:6f X:ff Y:e8 P:67 S:fb pc: f2d5, reg_addr: f2d5, cycle:  23219
f2d5 60 a9 ff RTS  IMPL  A:6f X:ff Y:e8 P:67 S:fb pc: c647, reg_addr:    0, cycle:  23225
c647 20 d6 f2 JSR  ABS   A:6f X:ff Y:e8 P:67 S:fd pc: f2d6, reg_addr: f2d6, cycle:  23231
f2d6 a9 ff 85 LDA  IMM   A:6f X:ff Y:e8 P:67 S:fb pc: f2d8, reg_addr:   ff, cycle:  23233
f2d8 85  1 a0 STA  ZP    A:ff X:ff Y:e8 P:e5 S:fb pc: f2da, reg_addr:    1, cycle:  23236
f2da a0 e9 a2 LDY  IMM   A:ff X:ff Y:e8 P:e5 S:fb pc: f2dc, reg_addr:   e9, cycle:  23238
f2dc a2  2 a9 LDX  IMM   A:ff X:ff Y:e9 P:e5 S:fb pc: f2de, reg_addr:    2, cycle:  23240
f2de a9 47 85 LDA  IMM   A:ff X: 2 Y:e9 P:65 S:fb pc: f2e0, reg_addr:   47, cycle:  23242
f2e0 85 47 a9 STA  ZP    A:47 X: 2 Y:e9 P:65 S:fb pc: f2e2, reg_addr:   47, cycle:  23245
f2e2 a9  6 85 LDA  IMM   A:47 X: 2 Y:e9 P:65 S:fb pc: f2e4, reg_addr:    6, cycle:  23247
f2e4 85 48 a9 STA  ZP    A: 6 X: 2 Y:e9 P:65 S:fb pc: f2e6, reg_addr:   48, cycle:  23250
f2e6 a9 a5 8d LDA  IMM   A: 6 X: 2 Y:e9 P:65 S:fb pc: f2e8, reg_addr:   a5, cycle:  23252
f2e8 8d 47  6 STA  ABS   A:a5 X: 2 Y:e9 P:e5 S:fb pc: f2eb, reg_addr:  647, cycle:  23256
f2eb 20 1d fb JSR  ABS   A:a5 X: 2 Y:e9 P:e5 S:fb pc: fb1d, reg_addr: fb1d, cycle:  23262
fb1d 24  1 18 BIT  ZP    A:a5 X: 2 Y:e9 P:e5 S:f9 pc: fb1f, reg_addr:    1, cycle:  23265
fb1f 18 a9 b3 CLC  IMPL  A:a5 X: 2 Y:e9 P:e5 S:f9 pc: fb20, reg_addr:    0, cycle:  23267
fb20 a9 b3 60 LDA  IMM   A:a5 X: 2 Y:e9 P:e4 S:f9 pc: fb22, reg_addr:   b3, cycle:  23269
fb22 60 50 50 RTS  IMPL  A:b3 X: 2 Y:e9 P:e4 S:f9 pc: f2ee, reg_addr:    0, cycle:  23275
f2ee 43 45 ea SRE  INDX  A:b3 X: 2 Y:e9 P:e4 S:fb pc: f2f0, reg_addr:  647, cycle:  23283
f2f0 ea ea ea NOP  IMPL  A:e1 X: 2 Y:e9 P:e5 S:fb pc: f2f1, reg_addr:    0, cycle:  23285
f2f1 ea ea ea NOP  IMPL  A:e1 X: 2 Y:e9 P:e5 S:fb pc: f2f2, reg_addr:    0, cycle:  23287
f2f2 ea ea 20 NOP  IMPL  A:e1 X: 2 Y:e9 P:e5 S:fb pc: f2f3, reg_addr:    0, cycle:  23289
f2f3 ea 20 23 NOP  IMPL  A:e1 X: 2 Y:e9 P:e5 S:fb pc: f2f4, reg_addr:    0, cycle:  23291
f2f4 20 23 fb JSR  ABS   A:e1 X: 2 Y:e9 P:e5 S:fb pc: fb23, reg_addr: fb23, cycle:  23297
fb23 50 50 90 BVC  REL   A:e1 X: 2 Y:e9 P:e5 S:f9 pc: fb25, reg_addr: fb75, cycle:  23299
fb25 90 4e 10 BCC  REL   A:e1 X: 2 Y:e9 P:e5 S:f9 pc: fb27, reg_addr: fb75, cycle:  23301
fb27 10 4c c9 BPL  REL   A:e1 X: 2 Y:e9 P:e5 S:f9 pc: fb29, reg_addr: fb75, cycle:  23303
fb29 c9 e1 d0 CMP  IMM   A:e1 X: 2 Y:e9 P:e5 S:f9 pc: fb2b, reg_addr:   e1, cycle:  23305
fb2b d0 48 60 BNE  REL   A:e1 X: 2 Y:e9 P:67 S:f9 pc: fb2d, reg_addr: fb75, cycle:  23307
fb2d 60 b8 18 RTS  IMPL  A:e1 X: 2 Y:e9 P:67 S:f9 pc: f2f7, reg_addr:    0, cycle:  23313
f2f7 ad 47  6 LDA  ABS   A:e1 X: 2 Y:e9 P:67 S:fb pc: f2fa, reg_addr:  647, cycle:  23317
f2fa c9 52 f0 CMP  IMM   A:52 X: 2 Y:e9 P:65 S:fb pc: f2fc, reg_addr:   52, cycle:  23319
f2fc f0  2 84 BEQ  REL   A:52 X: 2 Y:e9 P:67 S:fb pc: f300, reg_addr: f300, cycle:  23322
f300 c8 a9 29 INY  IMPL  A:52 X: 2 Y:e9 P:67 S:fb pc: f301, reg_addr:    0, cycle:  23324
f301 a9 29 8d LDA  IMM   A:52 X: 2 Y:ea P:e5 S:fb pc: f303, reg_addr:   29, cycle:  23326
f303 8d 47  6 STA  ABS   A:29 X: 2 Y:ea P:65 S:fb pc: f306, reg_addr:  647, cycle:  23330
f306 20 2e fb JSR  ABS   A:29 X: 2 Y:ea P:65 S:fb pc: fb2e, reg_addr: fb2e, cycle:  23336
fb2e b8 18 a9 CLV  IMPL  A:29 X: 2 Y:ea P:65 S:f9 pc: fb2f, reg_addr:    0, cycle:  23338
fb2f 18 a9 42 CLC  IMPL  A:29 X: 2 Y:ea P:25 S:f9 pc: fb30, reg_addr:    0, cycle:  23340
fb30 a9 42 60 LDA  IMM   A:29 X: 2 Y:ea P:24 S:f9 pc: fb32, reg_addr:   42, cycle:  23342
fb32 60 70 40 RTS  IMPL  A:42 X: 2 Y:ea P:24 S:f9 pc: f309, reg_addr:    0, cycle:  23348
f309 43 45 ea SRE  INDX  A:42 X: 2 Y:ea P:24 S:fb pc: f30b, reg_addr:  647, cycle:  23356
f30b ea ea ea NOP  IMPL  A:56 X: 2 Y:ea P:25 S:fb pc: f30c, reg_addr:    0, cycle:  23358
f30c ea ea ea NOP  IMPL  A:56 X: 2 Y:ea P:25 S:fb pc: f30d, reg_addr:    0, cycle:  23360
f30d ea ea 20 NOP  IMPL  A:56 X: 2 Y:ea P:25 S:fb pc: f30e, reg_addr:    0, cycle:  23362
f30e ea 20 33 NOP  IMPL  A:56 X: 2 Y:ea P:25 S:fb pc: f30f, reg_addr:    0, cycle:  23364
f30f 20 33 fb JSR  ABS   A:56 X: 2 Y:ea P:25 S:fb pc: fb33, reg_addr: fb33, cycle:  23370
fb33 70 40 f0 BVS  REL   A:56 X: 2 Y:ea P:25 S:f9 pc: fb35, reg_addr: fb75, cycle:  23372
fb35 f0 3e 30 BEQ  REL   A:56 X: 2 Y:ea P:25 S:f9 pc: fb37, reg_addr: fb75, cycle:  23374
fb37 30 3c 90 BMI  REL   A:56 X: 2 Y:ea P:25 S:f9 pc: fb39, reg_addr: fb75, cycle:  23376
fb39 90 3a c9 BCC  REL   A:56 X: 2 Y:ea P:25 S:f9 pc: fb3b, reg_addr: fb75, cycle:  23378
fb3b c9 56 d0 CMP  IMM   A:56 X: 2 Y:ea P:25 S:f9 pc: fb3d, reg_addr:   56, cycle:  23380
fb3d d0 36 60 BNE  REL   A:56 X: 2 Y:ea P:27 S:f9 pc: fb3f, reg_addr: fb75, cycle:  23382
fb3f 60 24  1 RTS  IMPL  A:56 X: 2 Y:ea P:27 S:f9 pc: f312, reg_addr:    0, cycle:  23388
f312 ad 47  6 LDA  ABS   A:56 X: 2 Y:ea P:27 S:fb pc: f315, reg_addr:  647, cycle:  23392
f315 c9 14 f0 CMP  IMM   A:14 X: 2 Y:ea P:25 S:fb pc: f317, reg_addr:   14, cycle:  23394
f317 f0  2 84 BEQ  REL   A:14 X: 2 Y:ea P:27 S:fb pc: f31b, reg_addr: f31b, cycle:  23397
f31b c8 a9 37 INY  IMPL  A:14 X: 2 Y:ea P:27 S:fb pc: f31c, reg_addr:    0, cycle:  23399
f31c a9 37 8d LDA  IMM   A:14 X: 2 Y:eb P:a5 S:fb pc: f31e, reg_addr:   37, cycle:  23401
f31e 8d 47  6 STA  ABS   A:37 X: 2 Y:eb P:25 S:fb pc: f321, reg_addr:  647, cycle:  23405
f321 20 40 fb JSR  ABS   A:37 X: 2 Y:eb P:25 S:fb pc: fb40, reg_addr: fb40, cycle:  23411
fb40 24  1 38 BIT  ZP    A:37 X: 2 Y:eb P:25 S:f9 pc: fb42, reg_addr:    1, cycle:  23414
fb42 38 a9 75 SEC  IMPL  A:37 X: 2 Y:eb P:e5 S:f9 pc: fb43, reg_addr:    0, cycle:  23416
fb43 a9 75 60 LDA  IMM   A:37 X: 2 Y:eb P:e5 S:f9 pc: fb45, reg_addr:   75, cycle:  23418
fb45 60 50 2d RTS  IMPL  A:75 X: 2 Y:eb P:65 S:f9 pc: f324, reg_addr:    0, cycle:  23424
f324 43 45 ea SRE  INDX  A:75 X: 2 Y:eb P:65 S:fb pc: f326, reg_addr:  647, cycle:  23432
f326 ea ea ea NOP  IMPL  A:6e X: 2 Y:eb P:65 S:fb pc: f327, reg_addr:    0, cycle:  23434
f327 ea ea ea NOP  IMPL  A:6e X: 2 Y:eb P:65 S:fb pc: f328, reg_addr:    0, cycle:  23436
f328 ea ea 20 NOP  IMPL  A:6e X: 2 Y:eb P:65 S:fb pc: f329, reg_addr:    0, cycle:  23438
f329 ea 20 46 NOP  IMPL  A:6e X: 2 Y:eb P:65 S:fb pc: f32a, reg_addr:    0, cycle:  23440
f32a 20 46 fb JSR  ABS   A:6e X: 2 Y:eb P:65 S:fb pc: fb46, reg_addr: fb46, cycle:  23446
fb46 50 2d f0 BVC  REL   A:6e X: 2 Y:eb P:65 S:f9 pc: fb48, reg_addr: fb75, cycle:  23448
fb48 f0 2b 30 BEQ  REL   A:6e X: 2 Y:eb P:65 S:f9 pc: fb4a, reg_addr: fb75, cycle:  23450
fb4a 30 29 90 BMI  REL   A:6e X: 2 Y:eb P:65 S:f9 pc: fb4c, reg_addr: fb75, cycle:  23452
fb4c 90 27 c9 BCC  REL   A:6e X: 2 Y:eb P:65 S:f9 pc: fb4e, reg_addr: fb75, cycle:  23454
fb4e c9 6e d0 CMP  IMM   A:6e X: 2 Y:eb P:65 S:f9 pc: fb50, reg_addr:   6e, cycle:  23456
fb50 d0 23 60 BNE  REL   A:6e X: 2 Y:eb P:67 S:f9 pc: fb52, reg_addr: fb75, cycle:  23458
fb52 60 24  1 RTS  IMPL  A:6e X: 2 Y:eb P:67 S:f9 pc: f32d, reg_addr:    0, cycle:  23464
f32d ad 47  6 LDA  ABS   A:6e X: 2 Y:eb P:67 S:fb pc: f330, reg_addr:  647, cycle:  23468
f330 c9 1b f0 CMP  IMM   A:1b X: 2 Y:eb P:65 S:fb pc: f332, reg_addr:   1b, cycle:  23470
f332 f0  2 84 BEQ  REL   A:1b X: 2 Y:eb P:67 S:fb pc: f336, reg_addr: f336, cycle:  23473
f336 c8 a9 a5 INY  IMPL  A:1b X: 2 Y:eb P:67 S:fb pc: f337, reg_addr:    0, cycle:  23475
f337 a9 a5 85 LDA  IMM   A:1b X: 2 Y:ec P:e5 S:fb pc: f339, reg_addr:   a5, cycle:  23477
f339 85 47 20 STA  ZP    A:a5 X: 2 Y:ec P:e5 S:fb pc: f33b, reg_addr:   47, cycle:  23480
f33b 20 1d fb JSR  ABS   A:a5 X: 2 Y:ec P:e5 S:fb pc: fb1d, reg_addr: fb1d, cycle:  23486
fb1d 24  1 18 BIT  ZP    A:a5 X: 2 Y:ec P:e5 S:f9 pc: fb1f, reg_addr:    1, cycle:  23489
fb1f 18 a9 b3 CLC  IMPL  A:a5 X: 2 Y:ec P:e5 S:f9 pc: fb20, reg_addr:    0, cycle:  23491
fb20 a9 b3 60 LDA  IMM   A:a5 X: 2 Y:ec P:e4 S:f9 pc: fb22, reg_addr:   b3, cycle:  23493
fb22 60 50 50 RTS  IMPL  A:b3 X: 2 Y:ec P:e4 S:f9 pc: f33e, reg_addr:    0, cycle:  23499
f33e 47 47 ea SRE  ZP    A:b3 X: 2 Y:ec P:e4 S:fb pc: f340, reg_addr:   47, cycle:  23504
f340 ea ea ea NOP  IMPL  A:e1 X: 2 Y:ec P:e5 S:fb pc: f341, reg_addr:    0, cycle:  23506
f341 ea ea ea NOP  IMPL  A:e1 X: 2 Y:ec P:e5 S:fb pc: f342, reg_addr:    0, cycle:  23508
f342 ea ea 20 NOP  IMPL  A:e1 X: 2 Y:ec P:e5 S:fb pc: f343, reg_addr:    0, cycle:  23510
f343 ea 20 23 NOP  IMPL  A:e1 X: 2 Y:ec P:e5 S:fb pc: f344, reg_addr:    0, cycle:  23512
f344 20 23 fb JSR  ABS   A:e1 X: 2 Y:ec P:e5 S:fb pc: fb23, reg_addr: fb23, cycle:  23518
fb23 50 50 90 BVC  REL   A:e1 X: 2 Y:ec P:e5 S:f9 pc: fb25, reg_addr: fb75, cycle:  23520
fb25 90 4e 10 BCC  REL   A:e1 X: 2 Y:ec P:e5 S:f9 pc: fb27, reg_addr: fb75, cycle:  23522
fb27 10 4c c9 BPL  REL   A:e1 X: 2 Y:ec P:e5 S:f9 pc: fb29, reg_addr: fb75, cycle:  23524
fb29 c9 e1 d0 CMP  IMM   A:e1 X: 2 Y:ec P:e5 S:f9 pc: fb2b, reg_addr:   e1, cycle:  23526
fb2b d0 48 60 BNE  REL   A:e1 X: 2 Y:ec P:67 S:f9 pc: fb2d, reg_addr: fb75, cycle:  23528
fb2d 60 b8 18 RTS  IMPL  A:e1 X: 2 Y:ec P:67 S:f9 pc: f347, reg_addr:    0, cycle:  23534
f347 a5 47 c9 LDA  ZP    A:e1 X: 2 Y:ec P:67 S:fb pc: f349, reg_addr:   47, cycle:  23537
f349 c9 52 f0 CMP  IMM   A:52 X: 2 Y:ec P:65 S:fb pc: f34b, reg_addr:   52, cycle:  23539
f34b f0  2 84 BEQ  REL   A:52 X: 2 Y:ec P:67 S:fb pc: f34f, reg_addr: f34f, cycle:  23542
f34f c8 a9 29 INY  IMPL  A:52 X: 2 Y:ec P:67 S:fb pc: f350, reg_addr:    0, cycle:  23544
f350 a9 29 85 LDA  IMM   A:52 X: 2 Y:ed P:e5 S:fb pc: f352, reg_addr:   29, cycle:  23546
f352 85 47 20 STA  ZP    A:29 X: 2 Y:ed P:65 S:fb pc: f354, reg_addr:   47, cycle:  23549
f354 20 2e fb JSR  ABS   A:29 X: 2 Y:ed P:65 S:fb pc: fb2e, reg_addr: fb2e, cycle:  23555
fb2e b8 18 a9 CLV  IMPL  A:29 X: 2 Y:ed P:65 S:f9 pc: fb2f, reg_addr:    0, cycle:  23557
fb2f 18 a9 42 CLC  IMPL  A:29 X: 2 Y:ed P:25 S:f9 pc: fb30, reg_addr:    0, cycle:  23559
fb30 a9 42 60 LDA  IMM   A:29 X: 2 Y:ed P:24 S:f9 pc: fb32, reg_addr:   42, cycle:  23561
fb32 60 70 40 RTS  IMPL  A:42 X: 2 Y:ed P:24 S:f9 pc: f357, reg_addr:    0, cycle:  23567
f357 47 47 ea SRE  ZP    A:42 X: 2 Y:ed P:24 S:fb pc: f359, reg_addr:   47, cycle:  23572
f359 ea ea ea NOP  IMPL  A:56 X: 2 Y:ed P:25 S:fb pc: f35a, reg_addr:    0, cycle:  23574
f35a ea ea ea NOP  IMPL  A:56 X: 2 Y:ed P:25 S:fb pc: f35b, reg_addr:    0, cycle:  23576
f35b ea ea 20 NOP  IMPL  A:56 X: 2 Y:ed P:25 S:fb pc: f35c, reg_addr:    0, cycle:  23578
f35c ea 20 33 NOP  IMPL  A:56 X: 2 Y:ed P:25 S:fb pc: f35d, reg_addr:    0, cycle:  23580
f35d 20 33 fb JSR  ABS   A:56 X: 2 Y:ed P:25 S:fb pc: fb33, reg_addr: fb33, cycle:  23586
fb33 70 40 f0 BVS  REL   A:56 X: 2 Y:ed P:25 S:f9 pc: fb35, reg_addr: fb75, cycle:  23588
fb35 f0 3e 30 BEQ  REL   A:56 X: 2 Y:ed P:25 S:f9 pc: fb37, reg_addr: fb75, cycle:  23590
fb37 30 3c 90 BMI  REL   A:56 X: 2 Y:ed P:25 S:f9 pc: fb39, reg_addr: fb75, cycle:  23592
fb39 90 3a c9 BCC  REL   A:56 X: 2 Y:ed P:25 S:f9 pc: fb3b, reg_addr: fb75, cycle:  23594
fb3b c9 56 d0 CMP  IMM   A:56 X: 2 Y:ed P:25 S:f9 pc: fb3d, reg_addr:   56, cycle:  23596
fb3d d0 36 60 BNE  REL   A:56 X: 2 Y:ed P:27 S:f9 pc: fb3f, reg_addr: fb75, cycle:  23598
fb3f 60 24  1 RTS  IMPL  A:56 X: 2 Y:ed P:27 S:f9 pc: f360, reg_addr:    0, cycle:  23604
f360 a5 47 c9 LDA  ZP    A:56 X: 2 Y:ed P:27 S:fb pc: f362, reg_addr:   47, cycle:  23607
f362 c9 14 f0 CMP  IMM   A:14 X: 2 Y:ed P:25 S:fb pc: f364, reg_addr:   14, cycle:  23609
f364 f0  2 84 BEQ  REL   A:14 X: 2 Y:ed P:27 S:fb pc: f368, reg_addr: f368, cycle:  23612
f368 c8 a9 37 INY  IMPL  A:14 X: 2 Y:ed P:27 S:fb pc: f369, reg_addr:    0, cycle:  23614
f369 a9 37 85 LDA  IMM   A:14 X: 2 Y:ee P:a5 S:fb pc: f36b, reg_addr:   37, cycle:  23616
f36b 85 47 20 STA  ZP    A:37 X: 2 Y:ee P:25 S:fb pc: f36d, reg_addr:   47, cycle:  23619
f36d 20 40 fb JSR  ABS   A:37 X: 2 Y:ee P:25 S:fb pc: fb40, reg_addr: fb40, cycle:  23625
fb40 24  1 38 BIT  ZP    A:37 X: 2 Y:ee P:25 S:f9 pc: fb42, reg_addr:    1, cycle:  23628
fb42 38 a9 75 SEC  IMPL  A:37 X: 2 Y:ee P:e5 S:f9 pc: fb43, reg_addr:    0, cycle:  23630
fb43 a9 75 60 LDA  IMM   A:37 X: 2 Y:ee P:e5 S:f9 pc: fb45, reg_addr:   75, cycle:  23632
fb45 60 50 2d RTS  IMPL  A:75 X: 2 Y:ee P:65 S:f9 pc: f370, reg_addr:    0, cycle:  23638
f370 47 47 ea SRE  ZP    A:75 X: 2 Y:ee P:65 S:fb pc: f372, reg_addr:   47, cycle:  23643
f372 ea ea ea NOP  IMPL  A:6e X: 2 Y:ee P:65 S:fb pc: f373, reg_addr:    0, cycle:  23645
f373 ea ea ea NOP  IMPL  A:6e X: 2 Y:ee P:65 S:fb pc: f374, reg_addr:    0, cycle:  23647
f374 ea ea 20 NOP  IMPL  A:6e X: 2 Y:ee P:65 S:fb pc: f375, reg_addr:    0, cycle:  23649
f375 ea 20 46 NOP  IMPL  A:6e X: 2 Y:ee P:65 S:fb pc: f376, reg_addr:    0, cycle:  23651
f376 20 46 fb JSR  ABS   A:6e X: 2 Y:ee P:65 S:fb pc: fb46, reg_addr: fb46, cycle:  23657
fb46 50 2d f0 BVC  REL   A:6e X: 2 Y:ee P:65 S:f9 pc: fb48, reg_addr: fb75, cycle:  23659
fb48 f0 2b 30 BEQ  REL   A:6e X: 2 Y:ee P:65 S:f9 pc: fb4a, reg_addr: fb75, cycle:  23661
fb4a 30 29 90 BMI  REL   A:6e X: 2 Y:ee P:65 S:f9 pc: fb4c, reg_addr: fb75, cycle:  23663
fb4c 90 27 c9 BCC  REL   A:6e X: 2 Y:ee P:65 S:f9 pc: fb4e, reg_addr: fb75, cycle:  23665
fb4e c9 6e d0 CMP  IMM   A:6e X: 2 Y:ee P:65 S:f9 pc: fb50, reg_addr:   6e, cycle:  23667
fb50 d0 23 60 BNE  REL   A:6e X: 2 Y:ee P:67 S:f9 pc: fb52, reg_addr: fb75, cycle:  23669
fb52 60 24  1 RTS  IMPL  A:6e X: 2 Y:ee P:67 S:f9 pc: f379, reg_addr:    0, cycle:  23675
f379 a5 47 c9 LDA  ZP    A:6e X: 2 Y:ee P:67 S:fb pc: f37b, reg_addr:   47, cycle:  23678
f37b c9 1b f0 CMP  IMM   A:1b X: 2 Y:ee P:65 S:fb pc: f37d, reg_addr:   1b, cycle:  23680
f37d f0  2 84 BEQ  REL   A:1b X: 2 Y:ee P:67 S:fb pc: f381, reg_addr: f381, cycle:  23683
f381 c8 a9 a5 INY  IMPL  A:1b X: 2 Y:ee P:67 S:fb pc: f382, reg_addr:    0, cycle:  23685
f382 a9 a5 8d LDA  IMM   A:1b X: 2 Y:ef P:e5 S:fb pc: f384, reg_addr:   a5, cycle:  23687
f384 8d 47  6 STA  ABS   A:a5 X: 2 Y:ef P:e5 S:fb pc: f387, reg_addr:  647, cycle:  23691
f387 20 1d fb JSR  ABS   A:a5 X: 2 Y:ef P:e5 S:fb pc: fb1d, reg_addr: fb1d, cycle:  23697
fb1d 24  1 18 BIT  ZP    A:a5 X: 2 Y:ef P:e5 S:f9 pc: fb1f, reg_addr:    1, cycle:  23700
fb1f 18 a9 b3 CLC  IMPL  A:a5 X: 2 Y:ef P:e5 S:f9 pc: fb20, reg_addr:    0, cycle:  23702
fb20 a9 b3 60 LDA  IMM   A:a5 X: 2 Y:ef P:e4 S:f9 pc: fb22, reg_addr:   b3, cycle:  23704
fb22 60 50 50 RTS  IMPL  A:b3 X: 2 Y:ef P:e4 S:f9 pc: f38a, reg_addr:    0, cycle:  23710
f38a 4f 47  6 SRE  ABS   A:b3 X: 2 Y:ef P:e4 S:fb pc: f38d, reg_addr:  647, cycle:  23716
f38d ea ea ea NOP  IMPL  A:e1 X: 2 Y:ef P:e5 S:fb pc: f38e, reg_addr:    0, cycle:  23718
f38e ea ea ea NOP  IMPL  A:e1 X: 2 Y:ef P:e5 S:fb pc: f38f, reg_addr:    0, cycle:  23720
f38f ea ea 20 NOP  IMPL  A:e1 X: 2 Y:ef P:e5 S:fb pc: f390, reg_addr:    0, cycle:  23722
f390 ea 20 23 NOP  IMPL  A:e1 X: 2 Y:ef P:e5 S:fb pc: f391, reg_addr:    0, cycle:  23724
f391 20 23 fb JSR  ABS   A:e1 X: 2 Y:ef P:e5 S:fb pc: fb23, reg_addr: fb23, cycle:  23730
fb23 50 50 90 BVC  REL   A:e1 X: 2 Y:ef P:e5 S:f9 pc: fb25, reg_addr: fb75, cycle:  23732
fb25 90 4e 10 BCC  REL   A:e1 X: 2 Y:ef P:e5 S:f9 pc: fb27, reg_addr: fb75, cycle:  23734
fb27 10 4c c9 BPL  REL   A:e1 X: 2 Y:ef P:e5 S:f9 pc: fb29, reg_addr: fb75, cycle:  23736
fb29 c9 e1 d0 CMP  IMM   A:e1 X: 2 Y:ef P:e5 S:f9 pc: fb2b, reg_addr:   e1, cycle:  23738
fb2b d0 48 60 BNE  REL   A:e1 X: 2 Y:ef P:67 S:f9 pc: fb2d, reg_addr: fb75, cycle:  23740
fb2d 60 b8 18 RTS  IMPL  A:e1 X: 2 Y:ef P:67 S:f9 pc: f394, reg_addr:    0, cycle:  23746
f394 ad 47  6 LDA  ABS   A:e1 X: 2 Y:ef P:67 S:fb pc: f397, reg_addr:  647, cycle:  23750
f397 c9 52 f0 CMP  IMM   A:52 X: 2 Y:ef P:65 S:fb pc: f399, reg_addr:   52, cycle:  23752
f399 f0  2 84 BEQ  REL   A:52 X: 2 Y:ef P:67 S:fb pc: f39d, reg_addr: f39d, cycle:  23755
f39d c8 a9 29 INY  IMPL  A:52 X: 2 Y:ef P:67 S:fb pc: f39e, reg_addr:    0, cycle:  23757
f39e a9 29 8d LDA  IMM   A:52 X: 2 Y:f0 P:e5 S:fb pc: f3a0, reg_addr:   29, cycle:  23759
f3a0 8d 47  6 STA  ABS   A:29 X: 2 Y:f0 P:65 S:fb pc: f3a3, reg_addr:  647, cycle:  23763
f3a3 20 2e fb JSR  ABS   A:29 X: 2 Y:f0 P:65 S:fb pc: fb2e, reg_addr: fb2e, cycle:  23769
fb2e b8 18 a9 CLV  IMPL  A:29 X: 2 Y:f0 P:65 S:f9 pc: fb2f, reg_addr:    0, cycle:  23771
fb2f 18 a9 42 CLC  IMPL  A:29 X: 2 Y:f0 P:25 S:f9 pc: fb30, reg_addr:    0, cycle:  23773
fb30 a9 42 60 LDA  IMM   A:29 X: 2 Y:f0 P:24 S:f9 pc: fb32, reg_addr:   42, cycle:  23775
fb32 60 70 40 RTS  IMPL  A:42 X: 2 Y:f0 P:24 S:f9 pc: f3a6, reg_addr:    0, cycle:  23781
f3a6 4f 47  6 SRE  ABS   A:42 X: 2 Y:f0 P:24 S:fb pc: f3a9, reg_addr:  647, cycle:  23787
f3a9 ea ea ea NOP  IMPL  A:56 X: 2 Y:f0 P:25 S:fb pc: f3aa, reg_addr:    0, cycle:  23789
f3aa ea ea ea NOP  IMPL  A:56 X: 2 Y:f0 P:25 S:fb pc: f3ab, reg_addr:    0, cycle:  23791
f3ab ea ea 20 NOP  IMPL  A:56 X: 2 Y:f0 P:25 S:fb pc: f3ac, reg_addr:    0, cycle:  23793
f3ac ea 20 33 NOP  IMPL  A:56 X: 2 Y:f0 P:25 S:fb pc: f3ad, reg_addr:    0, cycle:  23795
f3ad 20 33 fb JSR  ABS   A:56 X: 2 Y:f0 P:25 S:fb pc: fb33, reg_addr: fb33, cycle:  23801
fb33 70 40 f0 BVS  REL   A:56 X: 2 Y:f0 P:25 S:f9 pc: fb35, reg_addr: fb75, cycle:  23803
fb35 f0 3e 30 BEQ  REL   A:56 X: 2 Y:f0 P:25 S:f9 pc: fb37, reg_addr: fb75, cycle:  23805
fb37 30 3c 90 BMI  REL   A:56 X: 2 Y:f0 P:25 S:f9 pc: fb39, reg_addr: fb75, cycle:  23807
fb39 90 3a c9 BCC  REL   A:56 X: 2 Y:f0 P:25 S:f9 pc: fb3b, reg_addr: fb75, cycle:  23809
fb3b c9 56 d0 CMP  IMM   A:56 X: 2 Y:f0 P:25 S:f9 pc: fb3d, reg_addr:   56, cycle:  23811
fb3d d0 36 60 BNE  REL   A:56 X: 2 Y:f0 P:27 S:f9 pc: fb3f, reg_addr: fb75, cycle:  23813
fb3f 60 24  1 RTS  IMPL  A:56 X: 2 Y:f0 P:27 S:f9 pc: f3b0, reg_addr:    0, cycle:  23819
f3b0 ad 47  6 LDA  ABS   A:56 X: 2 Y:f0 P:27 S:fb pc: f3b3, reg_addr:  647, cycle:  23823
f3b3 c9 14 f0 CMP  IMM   A:14 X: 2 Y:f0 P:25 S:fb pc: f3b5, reg_addr:   14, cycle:  23825
f3b5 f0  2 84 BEQ  REL   A:14 X: 2 Y:f0 P:27 S:fb pc: f3b9, reg_addr: f3b9, cycle:  23828
f3b9 c8 a9 37 INY  IMPL  A:14 X: 2 Y:f0 P:27 S:fb pc: f3ba, reg_addr:    0, cycle:  23830
f3ba a9 37 8d LDA  IMM   A:14 X: 2 Y:f1 P:a5 S:fb pc: f3bc, reg_addr:   37, cycle:  23832
f3bc 8d 47  6 STA  ABS   A:37 X: 2 Y:f1 P:25 S:fb pc: f3bf, reg_addr:  647, cycle:  23836
f3bf 20 40 fb JSR  ABS   A:37 X: 2 Y:f1 P:25 S:fb pc: fb40, reg_addr: fb40, cycle:  23842
fb40 24  1 38 BIT  ZP    A:37 X: 2 Y:f1 P:25 S:f9 pc: fb42, reg_addr:    1, cycle:  23845
fb42 38 a9 75 SEC  IMPL  A:37 X: 2 Y:f1 P:e5 S:f9 pc: fb43, reg_addr:    0, cycle:  23847
fb43 a9 75 60 LDA  IMM   A:37 X: 2 Y:f1 P:e5 S:f9 pc: fb45, reg_addr:   75, cycle:  23849
fb45 60 50 2d RTS  IMPL  A:75 X: 2 Y:f1 P:65 S:f9 pc: f3c2, reg_addr:    0, cycle:  23855
f3c2 4f 47  6 SRE  ABS   A:75 X: 2 Y:f1 P:65 S:fb pc: f3c5, reg_addr:  647, cycle:  23861
f3c5 ea ea ea NOP  IMPL  A:6e X: 2 Y:f1 P:65 S:fb pc: f3c6, reg_addr:    0, cycle:  23863
f3c6 ea ea ea NOP  IMPL  A:6e X: 2 Y:f1 P:65 S:fb pc: f3c7, reg_addr:    0, cycle:  23865
f3c7 ea ea 20 NOP  IMPL  A:6e X: 2 Y:f1 P:65 S:fb pc: f3c8, reg_addr:    0, cycle:  23867
f3c8 ea 20 46 NOP  IMPL  A:6e X: 2 Y:f1 P:65 S:fb pc: f3c9, reg_addr:    0, cycle:  23869
f3c9 20 46 fb JSR  ABS   A:6e X: 2 Y:f1 P:65 S:fb pc: fb46, reg_addr: fb46, cycle:  23875
fb46 50 2d f0 BVC  REL   A:6e X: 2 Y:f1 P:65 S:f9 pc: fb48, reg_addr: fb75, cycle:  23877
fb48 f0 2b 30 BEQ  REL   A:6e X: 2 Y:f1 P:65 S:f9 pc: fb4a, reg_addr: fb75, cycle:  23879
fb4a 30 29 90 BMI  REL   A:6e X: 2 Y:f1 P:65 S:f9 pc: fb4c, reg_addr: fb75, cycle:  23881
fb4c 90 27 c9 BCC  REL   A:6e X: 2 Y:f1 P:65 S:f9 pc: fb4e, reg_addr: fb75, cycle:  23883
fb4e c9 6e d0 CMP  IMM   A:6e X: 2 Y:f1 P:65 S:f9 pc: fb50, reg_addr:   6e, cycle:  23885
fb50 d0 23 60 BNE  REL   A:6e X: 2 Y:f1 P:67 S:f9 pc: fb52, reg_addr: fb75, cycle:  23887
fb52 60 24  1 RTS  IMPL  A:6e X: 2 Y:f1 P:67 S:f9 pc: f3cc, reg_addr:    0, cycle:  23893
f3cc ad 47  6 LDA  ABS   A:6e X: 2 Y:f1 P:67 S:fb pc: f3cf, reg_addr:  647, cycle:  23897
f3cf c9 1b f0 CMP  IMM   A:1b X: 2 Y:f1 P:65 S:fb pc: f3d1, reg_addr:   1b, cycle:  23899
f3d1 f0  2 84 BEQ  REL   A:1b X: 2 Y:f1 P:67 S:fb pc: f3d5, reg_addr: f3d5, cycle:  23902
f3d5 a9 a5 8d LDA  IMM   A:1b X: 2 Y:f1 P:67 S:fb pc: f3d7, reg_addr:   a5, cycle:  23904
f3d7 8d 47  6 STA  ABS   A:a5 X: 2 Y:f1 P:e5 S:fb pc: f3da, reg_addr:  647, cycle:  23908
f3da a9 48 85 LDA  IMM   A:a5 X: 2 Y:f1 P:e5 S:fb pc: f3dc, reg_addr:   48, cycle:  23910
f3dc 85 45 a9 STA  ZP    A:48 X: 2 Y:f1 P:65 S:fb pc: f3de, reg_addr:   45, cycle:  23913
f3de a9  5 85 LDA  IMM   A:48 X: 2 Y:f1 P:65 S:fb pc: f3e0, reg_addr:    5, cycle:  23915
f3e0 85 46 a0 STA  ZP    A: 5 X: 2 Y:f1 P:65 S:fb pc: f3e2, reg_addr:   46, cycle:  23918
f3e2 a0 ff 20 LDY  IMM   A: 5 X: 2 Y:f1 P:65 S:fb pc: f3e4, reg_addr:   ff, cycle:  23920
f3e4 20 1d fb JSR  ABS   A: 5 X: 2 Y:ff P:e5 S:fb pc: fb1d, reg_addr: fb1d, cycle:  23926
fb1d 24  1 18 BIT  ZP    A: 5 X: 2 Y:ff P:e5 S:f9 pc: fb1f, reg_addr:    1, cycle:  23929
fb1f 18 a9 b3 CLC  IMPL  A: 5 X: 2 Y:ff P:e5 S:f9 pc: fb20, reg_addr:    0, cycle:  23931
fb20 a9 b3 60 LDA  IMM   A: 5 X: 2 Y:ff P:e4 S:f9 pc: fb22, reg_addr:   b3, cycle:  23933
fb22 60 50 50 RTS  IMPL  A:b3 X: 2 Y:ff P:e4 S:f9 pc: f3e7, reg_addr:    0, cycle:  23939
f3e7 53 45 ea SRE  INDY  A:b3 X: 2 Y:ff P:e4 S:fb pc: f3e9, reg_addr:  647, cycle:  23948
f3e9 ea ea  8 NOP  IMPL  A:e1 X: 2 Y:ff P:e5 S:fb pc: f3ea, reg_addr:    0, cycle:  23950
f3ea ea  8 48 NOP  IMPL  A:e1 X: 2 Y:ff P:e5 S:fb pc: f3eb, reg_addr:    0, cycle:  23952
f3eb  8 48 a0 PHP  IMPL  A:e1 X: 2 Y:ff P:e5 S:fb pc: f3ec, reg_addr:    0, cycle:  23955
f3ec 48 a0 f2 PHA  IMPL  A:e1 X: 2 Y:ff P:e5 S:fa pc: f3ed, reg_addr:    0, cycle:  23958
f3ed a0 f2 68 LDY  IMM   A:e1 X: 2 Y:ff P:e5 S:f9 pc: f3ef, reg_addr:   f2, cycle:  23960
f3ef 68 28 20 PLA  IMPL  A:e1 X: 2 Y:f2 P:e5 S:f9 pc: f3f0, reg_addr:    0, cycle:  23964
f3f0 28 20 23 PLP  IMPL  A:e1 X: 2 Y:f2 P:e5 S:fa pc: f3f1, reg_addr:    0, cycle:  23968
f3f1 20 23 fb JSR  ABS   A:e1 X: 2 Y:f2 P:e5 S:fb pc: fb23, reg_addr: fb23, cycle:  23974
fb23 50 50 90 BVC  REL   A:e1 X: 2 Y:f2 P:e5 S:f9 pc: fb25, reg_addr: fb75, cycle:  23976
fb25 90 4e 10 BCC  REL   A:e1 X: 2 Y:f2 P:e5 S:f9 pc: fb27, reg_addr: fb75, cycle:  23978
fb27 10 4c c9 BPL  REL   A:e1 X: 2 Y:f2 P:e5 S:f9 pc: fb29, reg_addr: fb75, cycle:  23980
fb29 c9 e1 d0 CMP  IMM   A:e1 X: 2 Y:f2 P:e5 S:f9 pc: fb2b, reg_addr:   e1, cycle:  23982
fb2b d0 48 60 BNE  REL   A:e1 X: 2 Y:f2 P:67 S:f9 pc: fb2d, reg_addr: fb75, cycle:  23984
fb2d 60 b8 18 RTS  IMPL  A:e1 X: 2 Y:f2 P:67 S:f9 pc: f3f4, reg_addr:    0, cycle:  23990
f3f4 ad 47  6 LDA  ABS   A:e1 X: 2 Y:f2 P:67 S:fb pc: f3f7, reg_addr:  647, cycle:  23994
f3f7 c9 52 f0 CMP  IMM   A:52 X: 2 Y:f2 P:65 S:fb pc: f3f9, reg_addr:   52, cycle:  23996
f3f9 f0  2 84 BEQ  REL   A:52 X: 2 Y:f2 P:67 S:fb pc: f3fd, reg_addr: f3fd, cycle:  23999
f3fd a0 ff a9 LDY  IMM   A:52 X: 2 Y:f2 P:67 S:fb pc: f3ff, reg_addr:   ff, cycle:  24001
f3ff a9 29 8d LDA  IMM   A:52 X: 2 Y:ff P:e5 S:fb pc: f401, reg_addr:   29, cycle:  24003
f401 8d 47  6 STA  ABS   A:29 X: 2 Y:ff P:65 S:fb pc: f404, reg_addr:  647, cycle:  24007
f404 20 2e fb JSR  ABS   A:29 X: 2 Y:ff P:65 S:fb pc: fb2e, reg_addr: fb2e, cycle:  24013
fb2e b8 18 a9 CLV  IMPL  A:29 X: 2 Y:ff P:65 S:f9 pc: fb2f, reg_addr:    0, cycle:  24015
fb2f 18 a9 42 CLC  IMPL  A:29 X: 2 Y:ff P:25 S:f9 pc: fb30, reg_addr:    0, cycle:  24017
fb30 a9 42 60 LDA  IMM   A:29 X: 2 Y:ff P:24 S:f9 pc: fb32, reg_addr:   42, cycle:  24019
fb32 60 70 40 RTS  IMPL  A:42 X: 2 Y:ff P:24 S:f9 pc: f407, reg_addr:    0, cycle:  24025
f407 53 45 ea SRE  INDY  A:42 X: 2 Y:ff P:24 S:fb pc: f409, reg_addr:  647, cycle:  24034
f409 ea ea  8 NOP  IMPL  A:56 X: 2 Y:ff P:25 S:fb pc: f40a, reg_addr:    0, cycle:  24036
f40a ea  8 48 NOP  IMPL  A:56 X: 2 Y:ff P:25 S:fb pc: f40b, reg_addr:    0, cycle:  24038
f40b  8 48 a0 PHP  IMPL  A:56 X: 2 Y:ff P:25 S:fb pc: f40c, reg_addr:    0, cycle:  24041
f40c 48 a0 f3 PHA  IMPL  A:56 X: 2 Y:ff P:25 S:fa pc: f40d, reg_addr:    0, cycle:  24044
f40d a0 f3 68 LDY  IMM   A:56 X: 2 Y:ff P:25 S:f9 pc: f40f, reg_addr:   f3, cycle:  24046
f40f 68 28 20 PLA  IMPL  A:56 X: 2 Y:f3 P:a5 S:f9 pc: f410, reg_addr:    0, cycle:  24050
f410 28 20 33 PLP  IMPL  A:56 X: 2 Y:f3 P:25 S:fa pc: f411, reg_addr:    0, cycle:  24054
f411 20 33 fb JSR  ABS   A:56 X: 2 Y:f3 P:25 S:fb pc: fb33, reg_addr: fb33, cycle:  24060
fb33 70 40 f0 BVS  REL   A:56 X: 2 Y:f3 P:25 S:f9 pc: fb35, reg_addr: fb75, cycle:  24062
fb35 f0 3e 30 BEQ  REL   A:56 X: 2 Y:f3 P:25 S:f9 pc: fb37, reg_addr: fb75, cycle:  24064
fb37 30 3c 90 BMI  REL   A:56 X: 2 Y:f3 P:25 S:f9 pc: fb39, reg_addr: fb75, cycle:  24066
fb39 90 3a c9 BCC  REL   A:56 X: 2 Y:f3 P:25 S:f9 pc: fb3b, reg_addr: fb75, cycle:  24068
fb3b c9 56 d0 CMP  IMM   A:56 X: 2 Y:f3 P:25 S:f9 pc: fb3d, reg_addr:   56, cycle:  24070
fb3d d0 36 60 BNE  REL   A:56 X: 2 Y:f3 P:27 S:f9 pc: fb3f, reg_addr: fb75, cycle:  24072
fb3f 60 24  1 RTS  IMPL  A:56 X: 2 Y:f3 P:27 S:f9 pc: f414, reg_addr:    0, cycle:  24078
f414 ad 47  6 LDA  ABS   A:56 X: 2 Y:f3 P:27 S:fb pc: f417, reg_addr:  647, cycle:  24082
f417 c9 14 f0 CMP  IMM   A:14 X: 2 Y:f3 P:25 S:fb pc: f419, reg_addr:   14, cycle:  24084
f419 f0  2 84 BEQ  REL   A:14 X: 2 Y:f3 P:27 S:fb pc: f41d, reg_addr: f41d, cycle:  24087
f41d a0 ff a9 LDY  IMM   A:14 X: 2 Y:f3 P:27 S:fb pc: f41f, reg_addr:   ff, cycle:  24089
f41f a9 37 8d LDA  IMM   A:14 X: 2 Y:ff P:a5 S:fb pc: f421, reg_addr:   37, cycle:  24091
f421 8d 47  6 STA  ABS   A:37 X: 2 Y:ff P:25 S:fb pc: f424, reg_addr:  647, cycle:  24095
f424 20 40 fb JSR  ABS   A:37 X: 2 Y:ff P:25 S:fb pc: fb40, reg_addr: fb40, cycle:  24101
fb40 24  1 38 BIT  ZP    A:37 X: 2 Y:ff P:25 S:f9 pc: fb42, reg_addr:    1, cycle:  24104
fb42 38 a9 75 SEC  IMPL  A:37 X: 2 Y:ff P:e5 S:f9 pc: fb43, reg_addr:    0, cycle:  24106
fb43 a9 75 60 LDA  IMM   A:37 X: 2 Y:ff P:e5 S:f9 pc: fb45, reg_addr:   75, cycle:  24108
fb45 60 50 2d RTS  IMPL  A:75 X: 2 Y:ff P:65 S:f9 pc: f427, reg_addr:    0, cycle:  24114
f427 53 45 ea SRE  INDY  A:75 X: 2 Y:ff P:65 S:fb pc: f429, reg_addr:  647, cycle:  24123
f429 ea ea  8 NOP  IMPL  A:6e X: 2 Y:ff P:65 S:fb pc: f42a, reg_addr:    0, cycle:  24125
f42a ea  8 48 NOP  IMPL  A:6e X: 2 Y:ff P:65 S:fb pc: f42b, reg_addr:    0, cycle:  24127
f42b  8 48 a0 PHP  IMPL  A:6e X: 2 Y:ff P:65 S:fb pc: f42c, reg_addr:    0, cycle:  24130
f42c 48 a0 f4 PHA  IMPL  A:6e X: 2 Y:ff P:65 S:fa pc: f42d, reg_addr:    0, cycle:  24133
f42d a0 f4 68 LDY  IMM   A:6e X: 2 Y:ff P:65 S:f9 pc: f42f, reg_addr:   f4, cycle:  24135
f42f 68 28 20 PLA  IMPL  A:6e X: 2 Y:f4 P:e5 S:f9 pc: f430, reg_addr:    0, cycle:  24139
f430 28 20 46 PLP  IMPL  A:6e X: 2 Y:f4 P:65 S:fa pc: f431, reg_addr:    0, cycle:  24143
f431 20 46 fb JSR  ABS   A:6e X: 2 Y:f4 P:65 S:fb pc: fb46, reg_addr: fb46, cycle:  24149
fb46 50 2d f0 BVC  REL   A:6e X: 2 Y:f4 P:65 S:f9 pc: fb48, reg_addr: fb75, cycle:  24151
fb48 f0 2b 30 BEQ  REL   A:6e X: 2 Y:f4 P:65 S:f9 pc: fb4a, reg_addr: fb75, cycle:  24153
fb4a 30 29 90 BMI  REL   A:6e X: 2 Y:f4 P:65 S:f9 pc: fb4c, reg_addr: fb75, cycle:  24155
fb4c 90 27 c9 BCC  REL   A:6e X: 2 Y:f4 P:65 S:f9 pc: fb4e, reg_addr: fb75, cycle:  24157
fb4e c9 6e d0 CMP  IMM   A:6e X: 2 Y:f4 P:65 S:f9 pc: fb50, reg_addr:   6e, cycle:  24159
fb50 d0 23 60 BNE  REL   A:6e X: 2 Y:f4 P:67 S:f9 pc: fb52, reg_addr: fb75, cycle:  24161
fb52 60 24  1 RTS  IMPL  A:6e X: 2 Y:f4 P:67 S:f9 pc: f434, reg_addr:    0, cycle:  24167
f434 ad 47  6 LDA  ABS   A:6e X: 2 Y:f4 P:67 S:fb pc: f437, reg_addr:  647, cycle:  24171
f437 c9 1b f0 CMP  IMM   A:1b X: 2 Y:f4 P:65 S:fb pc: f439, reg_addr:   1b, cycle:  24173
f439 f0  2 84 BEQ  REL   A:1b X: 2 Y:f4 P:67 S:fb pc: f43d, reg_addr: f43d, cycle:  24176
f43d a0 f5 a2 LDY  IMM   A:1b X: 2 Y:f4 P:67 S:fb pc: f43f, reg_addr:   f5, cycle:  24178
f43f a2 ff a9 LDX  IMM   A:1b X: 2 Y:f5 P:e5 S:fb pc: f441, reg_addr:   ff, cycle:  24180
f441 a9 a5 85 LDA  IMM   A:1b X:ff Y:f5 P:e5 S:fb pc: f443, reg_addr:   a5, cycle:  24182
f443 85 47 20 STA  ZP    A:a5 X:ff Y:f5 P:e5 S:fb pc: f445, reg_addr:   47, cycle:  24185
f445 20 1d fb JSR  ABS   A:a5 X:ff Y:f5 P:e5 S:fb pc: fb1d, reg_addr: fb1d, cycle:  24191
fb1d 24  1 18 BIT  ZP    A:a5 X:ff Y:f5 P:e5 S:f9 pc: fb1f, reg_addr:    1, cycle:  24194
fb1f 18 a9 b3 CLC  IMPL  A:a5 X:ff Y:f5 P:e5 S:f9 pc: fb20, reg_addr:    0, cycle:  24196
fb20 a9 b3 60 LDA  IMM   A:a5 X:ff Y:f5 P:e4 S:f9 pc: fb22, reg_addr:   b3, cycle:  24198
fb22 60 50 50 RTS  IMPL  A:b3 X:ff Y:f5 P:e4 S:f9 pc: f448, reg_addr:    0, cycle:  24204
f448 57 48 ea SRE  ZPX   A:b3 X:ff Y:f5 P:e4 S:fb pc: f44a, reg_addr:   47, cycle:  24210
f44a ea ea ea NOP  IMPL  A:e1 X:ff Y:f5 P:e5 S:fb pc: f44b, reg_addr:    0, cycle:  24212
f44b ea ea ea NOP  IMPL  A:e1 X:ff Y:f5 P:e5 S:fb pc: f44c, reg_addr:    0, cycle:  24214
f44c ea ea 20 NOP  IMPL  A:e1 X:ff Y:f5 P:e5 S:fb pc: f44d, reg_addr:    0, cycle:  24216
f44d ea 20 23 NOP  IMPL  A:e1 X:ff Y:f5 P:e5 S:fb pc: f44e, reg_addr:    0, cycle:  24218
f44e 20 23 fb JSR  ABS   A:e1 X:ff Y:f5 P:e5 S:fb pc: fb23, reg_addr: fb23, cycle:  24224
fb23 50 50 90 BVC  REL   A:e1 X:ff Y:f5 P:e5 S:f9 pc: fb25, reg_addr: fb75, cycle:  24226
fb25 90 4e 10 BCC  REL   A:e1 X:ff Y:f5 P:e5 S:f9 pc: fb27, reg_addr: fb75, cycle:  24228
fb27 10 4c c9 BPL  REL   A:e1 X:ff Y:f5 P:e5 S:f9 pc: fb29, reg_addr: fb75, cycle:  24230
fb29 c9 e1 d0 CMP  IMM   A:e1 X:ff Y:f5 P:e5 S:f9 pc: fb2b, reg_addr:   e1, cycle:  24232
fb2b d0 48 60 BNE  REL   A:e1 X:ff Y:f5 P:67 S:f9 pc: fb2d, reg_addr: fb75, cycle:  24234
fb2d 60 b8 18 RTS  IMPL  A:e1 X:ff Y:f5 P:67 S:f9 pc: f451, reg_addr:    0, cycle:  24240
f451 a5 47 c9 LDA  ZP    A:e1 X:ff Y:f5 P:67 S:fb pc: f453, reg_addr:   47, cycle:  24243
f453 c9 52 f0 CMP  IMM   A:52 X:ff Y:f5 P:65 S:fb pc: f455, reg_addr:   52, cycle:  24245
f455 f0  2 84 BEQ  REL   A:52 X:ff Y:f5 P:67 S:fb pc: f459, reg_addr: f459, cycle:  24248
f459 c8 a9 29 INY  IMPL  A:52 X:ff Y:f5 P:67 S:fb pc: f45a, reg_addr:    0, cycle:  24250
f45a a9 29 85 LDA  IMM   A:52 X:ff Y:f6 P:e5 S:fb pc: f45c, reg_addr:   29, cycle:  24252
f45c 85 47 20 STA  ZP    A:29 X:ff Y:f6 P:65 S:fb pc: f45e, reg_addr:   47, cycle:  24255
f45e 20 2e fb JSR  ABS   A:29 X:ff Y:f6 P:65 S:fb pc: fb2e, reg_addr: fb2e, cycle:  24261
fb2e b8 18 a9 CLV  IMPL  A:29 X:ff Y:f6 P:65 S:f9 pc: fb2f, reg_addr:    0, cycle:  24263
fb2f 18 a9 42 CLC  IMPL  A:29 X:ff Y:f6 P:25 S:f9 pc: fb30, reg_addr:    0, cycle:  24265
fb30 a9 42 60 LDA  IMM   A:29 X:ff Y:f6 P:24 S:f9 pc: fb32, reg_addr:   42, cycle:  24267
fb32 60 70 40 RTS  IMPL  A:42 X:ff Y:f6 P:24 S:f9 pc: f461, reg_addr:    0, cycle:  24273
f461 57 48 ea SRE  ZPX   A:42 X:ff Y:f6 P:24 S:fb pc: f463, reg_addr:   47, cycle:  24279
f463 ea ea ea NOP  IMPL  A:56 X:ff Y:f6 P:25 S:fb pc: f464, reg_addr:    0, cycle:  24281
f464 ea ea ea NOP  IMPL  A:56 X:ff Y:f6 P:25 S:fb pc: f465, reg_addr:    0, cycle:  24283
f465 ea ea 20 NOP  IMPL  A:56 X:ff Y:f6 P:25 S:fb pc: f466, reg_addr:    0, cycle:  24285
f466 ea 20 33 NOP  IMPL  A:56 X:ff Y:f6 P:25 S:fb pc: f467, reg_addr:    0, cycle:  24287
f467 20 33 fb JSR  ABS   A:56 X:ff Y:f6 P:25 S:fb pc: fb33, reg_addr: fb33, cycle:  24293
fb33 70 40 f0 BVS  REL   A:56 X:ff Y:f6 P:25 S:f9 pc: fb35, reg_addr: fb75, cycle:  24295
fb35 f0 3e 30 BEQ  REL   A:56 X:ff Y:f6 P:25 S:f9 pc: fb37, reg_addr: fb75, cycle:  24297
fb37 30 3c 90 BMI  REL   A:56 X:ff Y:f6 P:25 S:f9 pc: fb39, reg_addr: fb75, cycle:  24299
fb39 90 3a c9 BCC  REL   A:56 X:ff Y:f6 P:25 S:f9 pc: fb3b, reg_addr: fb75, cycle:  24301
fb3b c9 56 d0 CMP  IMM   A:56 X:ff Y:f6 P:25 S:f9 pc: fb3d, reg_addr:   56, cycle:  24303
fb3d d0 36 60 BNE  REL   A:56 X:ff Y:f6 P:27 S:f9 pc: fb3f, reg_addr: fb75, cycle:  24305
fb3f 60 24  1 RTS  IMPL  A:56 X:ff Y:f6 P:27 S:f9 pc: f46a, reg_addr:    0, cycle:  24311
f46a a5 47 c9 LDA  ZP    A:56 X:ff Y:f6 P:27 S:fb pc: f46c, reg_addr:   47, cycle:  24314
f46c c9 14 f0 CMP  IMM   A:14 X:ff Y:f6 P:25 S:fb pc: f46e, reg_addr:   14, cycle:  24316
f46e f0  2 84 BEQ  REL   A:14 X:ff Y:f6 P:27 S:fb pc: f472, reg_addr: f472, cycle:  24319
f472 c8 a9 37 INY  IMPL  A:14 X:ff Y:f6 P:27 S:fb pc: f473, reg_addr:    0, cycle:  24321
f473 a9 37 85 LDA  IMM   A:14 X:ff Y:f7 P:a5 S:fb pc: f475, reg_addr:   37, cycle:  24323
f475 85 47 20 STA  ZP    A:37 X:ff Y:f7 P:25 S:fb pc: f477, reg_addr:   47, cycle:  24326
f477 20 40 fb JSR  ABS   A:37 X:ff Y:f7 P:25 S:fb pc: fb40, reg_addr: fb40, cycle:  24332
fb40 24  1 38 BIT  ZP    A:37 X:ff Y:f7 P:25 S:f9 pc: fb42, reg_addr:    1, cycle:  24335
fb42 38 a9 75 SEC  IMPL  A:37 X:ff Y:f7 P:e5 S:f9 pc: fb43, reg_addr:    0, cycle:  24337
fb43 a9 75 60 LDA  IMM   A:37 X:ff Y:f7 P:e5 S:f9 pc: fb45, reg_addr:   75, cycle:  24339
fb45 60 50 2d RTS  IMPL  A:75 X:ff Y:f7 P:65 S:f9 pc: f47a, reg_addr:    0, cycle:  24345
f47a 57 48 ea SRE  ZPX   A:75 X:ff Y:f7 P:65 S:fb pc: f47c, reg_addr:   47, cycle:  24351
f47c ea ea ea NOP  IMPL  A:6e X:ff Y:f7 P:65 S:fb pc: f47d, reg_addr:    0, cycle:  24353
f47d ea ea ea NOP  IMPL  A:6e X:ff Y:f7 P:65 S:fb pc: f47e, reg_addr:    0, cycle:  24355
f47e ea ea 20 NOP  IMPL  A:6e X:ff Y:f7 P:65 S:fb pc: f47f, reg_addr:    0, cycle:  24357
f47f ea 20 46 NOP  IMPL  A:6e X:ff Y:f7 P:65 S:fb pc: f480, reg_addr:    0, cycle:  24359
f480 20 46 fb JSR  ABS   A:6e X:ff Y:f7 P:65 S:fb pc: fb46, reg_addr: fb46, cycle:  24365
fb46 50 2d f0 BVC  REL   A:6e X:ff Y:f7 P:65 S:f9 pc: fb48, reg_addr: fb75, cycle:  24367
fb48 f0 2b 30 BEQ  REL   A:6e X:ff Y:f7 P:65 S:f9 pc: fb4a, reg_addr: fb75, cycle:  24369
fb4a 30 29 90 BMI  REL   A:6e X:ff Y:f7 P:65 S:f9 pc: fb4c, reg_addr: fb75, cycle:  24371
fb4c 90 27 c9 BCC  REL   A:6e X:ff Y:f7 P:65 S:f9 pc: fb4e, reg_addr: fb75, cycle:  24373
fb4e c9 6e d0 CMP  IMM   A:6e X:ff Y:f7 P:65 S:f9 pc: fb50, reg_addr:   6e, cycle:  24375
fb50 d0 23 60 BNE  REL   A:6e X:ff Y:f7 P:67 S:f9 pc: fb52, reg_addr: fb75, cycle:  24377
fb52 60 24  1 RTS  IMPL  A:6e X:ff Y:f7 P:67 S:f9 pc: f483, reg_addr:    0, cycle:  24383
f483 a5 47 c9 LDA  ZP    A:6e X:ff Y:f7 P:67 S:fb pc: f485, reg_addr:   47, cycle:  24386
f485 c9 1b f0 CMP  IMM   A:1b X:ff Y:f7 P:65 S:fb pc: f487, reg_addr:   1b, cycle:  24388
f487 f0  2 84 BEQ  REL   A:1b X:ff Y:f7 P:67 S:fb pc: f48b, reg_addr: f48b, cycle:  24391
f48b a9 a5 8d LDA  IMM   A:1b X:ff Y:f7 P:67 S:fb pc: f48d, reg_addr:   a5, cycle:  24393
f48d 8d 47  6 STA  ABS   A:a5 X:ff Y:f7 P:e5 S:fb pc: f490, reg_addr:  647, cycle:  24397
f490 a0 ff 20 LDY  IMM   A:a5 X:ff Y:f7 P:e5 S:fb pc: f492, reg_addr:   ff, cycle:  24399
f492 20 1d fb JSR  ABS   A:a5 X:ff Y:ff P:e5 S:fb pc: fb1d, reg_addr: fb1d, cycle:  24405
fb1d 24  1 18 BIT  ZP    A:a5 X:ff Y:ff P:e5 S:f9 pc: fb1f, reg_addr:    1, cycle:  24408
fb1f 18 a9 b3 CLC  IMPL  A:a5 X:ff Y:ff P:e5 S:f9 pc: fb20, reg_addr:    0, cycle:  24410
fb20 a9 b3 60 LDA  IMM   A:a5 X:ff Y:ff P:e4 S:f9 pc: fb22, reg_addr:   b3, cycle:  24412
fb22 60 50 50 RTS  IMPL  A:b3 X:ff Y:ff P:e4 S:f9 pc: f495, reg_addr:    0, cycle:  24418
f495 5b 48  5 SRE  ABSY  A:b3 X:ff Y:ff P:e4 S:fb pc: f498, reg_addr:  647, cycle:  24426
f498 ea ea  8 NOP  IMPL  A:e1 X:ff Y:ff P:e5 S:fb pc: f499, reg_addr:    0, cycle:  24428
f499 ea  8 48 NOP  IMPL  A:e1 X:ff Y:ff P:e5 S:fb pc: f49a, reg_addr:    0, cycle:  24430
f49a  8 48 a0 PHP  IMPL  A:e1 X:ff Y:ff P:e5 S:fb pc: f49b, reg_addr:    0, cycle:  24433
f49b 48 a0 f8 PHA  IMPL  A:e1 X:ff Y:ff P:e5 S:fa pc: f49c, reg_addr:    0, cycle:  24436
f49c a0 f8 68 LDY  IMM   A:e1 X:ff Y:ff P:e5 S:f9 pc: f49e, reg_addr:   f8, cycle:  24438
f49e 68 28 20 PLA  IMPL  A:e1 X:ff Y:f8 P:e5 S:f9 pc: f49f, reg_addr:    0, cycle:  24442
f49f 28 20 23 PLP  IMPL  A:e1 X:ff Y:f8 P:e5 S:fa pc: f4a0, reg_addr:    0, cycle:  24446
f4a0 20 23 fb JSR  ABS   A:e1 X:ff Y:f8 P:e5 S:fb pc: fb23, reg_addr: fb23, cycle:  24452
fb23 50 50 90 BVC  REL   A:e1 X:ff Y:f8 P:e5 S:f9 pc: fb25, reg_addr: fb75, cycle:  24454
fb25 90 4e 10 BCC  REL   A:e1 X:ff Y:f8 P:e5 S:f9 pc: fb27, reg_addr: fb75, cycle:  24456
fb27 10 4c c9 BPL  REL   A:e1 X:ff Y:f8 P:e5 S:f9 pc: fb29, reg_addr: fb75, cycle:  24458
fb29 c9 e1 d0 CMP  IMM   A:e1 X:ff Y:f8 P:e5 S:f9 pc: fb2b, reg_addr:   e1, cycle:  24460
fb2b d0 48 60 BNE  REL   A:e1 X:ff Y:f8 P:67 S:f9 pc: fb2d, reg_addr: fb75, cycle:  24462
fb2d 60 b8 18 RTS  IMPL  A:e1 X:ff Y:f8 P:67 S:f9 pc: f4a3, reg_addr:    0, cycle:  24468
f4a3 ad 47  6 LDA  ABS   A:e1 X:ff Y:f8 P:67 S:fb pc: f4a6, reg_addr:  647, cycle:  24472
f4a6 c9 52 f0 CMP  IMM   A:52 X:ff Y:f8 P:65 S:fb pc: f4a8, reg_addr:   52, cycle:  24474
f4a8 f0  2 84 BEQ  REL   A:52 X:ff Y:f8 P:67 S:fb pc: f4ac, reg_addr: f4ac, cycle:  24477
f4ac a0 ff a9 LDY  IMM   A:52 X:ff Y:f8 P:67 S:fb pc: f4ae, reg_addr:   ff, cycle:  24479
f4ae a9 29 8d LDA  IMM   A:52 X:ff Y:ff P:e5 S:fb pc: f4b0, reg_addr:   29, cycle:  24481
f4b0 8d 47  6 STA  ABS   A:29 X:ff Y:ff P:65 S:fb pc: f4b3, reg_addr:  647, cycle:  24485
f4b3 20 2e fb JSR  ABS   A:29 X:ff Y:ff P:65 S:fb pc: fb2e, reg_addr: fb2e, cycle:  24491
fb2e b8 18 a9 CLV  IMPL  A:29 X:ff Y:ff P:65 S:f9 pc: fb2f, reg_addr:    0, cycle:  24493
fb2f 18 a9 42 CLC  IMPL  A:29 X:ff Y:ff P:25 S:f9 pc: fb30, reg_addr:    0, cycle:  24495
fb30 a9 42 60 LDA  IMM   A:29 X:ff Y:ff P:24 S:f9 pc: fb32, reg_addr:   42, cycle:  24497
fb32 60 70 40 RTS  IMPL  A:42 X:ff Y:ff P:24 S:f9 pc: f4b6, reg_addr:    0, cycle:  24503
f4b6 5b 48  5 SRE  ABSY  A:42 X:ff Y:ff P:24 S:fb pc: f4b9, reg_addr:  647, cycle:  24511
f4b9 ea ea  8 NOP  IMPL  A:56 X:ff Y:ff P:25 S:fb pc: f4ba, reg_addr:    0, cycle:  24513
f4ba ea  8 48 NOP  IMPL  A:56 X:ff Y:ff P:25 S:fb pc: f4bb, reg_addr:    0, cycle:  24515
f4bb  8 48 a0 PHP  IMPL  A:56 X:ff Y:ff P:25 S:fb pc: f4bc, reg_addr:    0, cycle:  24518
f4bc 48 a0 f9 PHA  IMPL  A:56 X:ff Y:ff P:25 S:fa pc: f4bd, reg_addr:    0, cycle:  24521
f4bd a0 f9 68 LDY  IMM   A:56 X:ff Y:ff P:25 S:f9 pc: f4bf, reg_addr:   f9, cycle:  24523
f4bf 68 28 20 PLA  IMPL  A:56 X:ff Y:f9 P:a5 S:f9 pc: f4c0, reg_addr:    0, cycle:  24527
f4c0 28 20 33 PLP  IMPL  A:56 X:ff Y:f9 P:25 S:fa pc: f4c1, reg_addr:    0, cycle:  24531
f4c1 20 33 fb JSR  ABS   A:56 X:ff Y:f9 P:25 S:fb pc: fb33, reg_addr: fb33, cycle:  24537
fb33 70 40 f0 BVS  REL   A:56 X:ff Y:f9 P:25 S:f9 pc: fb35, reg_addr: fb75, cycle:  24539
fb35 f0 3e 30 BEQ  REL   A:56 X:ff Y:f9 P:25 S:f9 pc: fb37, reg_addr: fb75, cycle:  24541
fb37 30 3c 90 BMI  REL   A:56 X:ff Y:f9 P:25 S:f9 pc: fb39, reg_addr: fb75, cycle:  24543
fb39 90 3a c9 BCC  REL   A:56 X:ff Y:f9 P:25 S:f9 pc: fb3b, reg_addr: fb75, cycle:  24545
fb3b c9 56 d0 CMP  IMM   A:56 X:ff Y:f9 P:25 S:f9 pc: fb3d, reg_addr:   56, cycle:  24547
fb3d d0 36 60 BNE  REL   A:56 X:ff Y:f9 P:27 S:f9 pc: fb3f, reg_addr: fb75, cycle:  24549
fb3f 60 24  1 RTS  IMPL  A:56 X:ff Y:f9 P:27 S:f9 pc: f4c4, reg_addr:    0, cycle:  24555
f4c4 ad 47  6 LDA  ABS   A:56 X:ff Y:f9 P:27 S:fb pc: f4c7, reg_addr:  647, cycle:  24559
f4c7 c9 14 f0 CMP  IMM   A:14 X:ff Y:f9 P:25 S:fb pc: f4c9, reg_addr:   14, cycle:  24561
f4c9 f0  2 84 BEQ  REL   A:14 X:ff Y:f9 P:27 S:fb pc: f4cd, reg_addr: f4cd, cycle:  24564
f4cd a0 ff a9 LDY  IMM   A:14 X:ff Y:f9 P:27 S:fb pc: f4cf, reg_addr:   ff, cycle:  24566
f4cf a9 37 8d LDA  IMM   A:14 X:ff Y:ff P:a5 S:fb pc: f4d1, reg_addr:   37, cycle:  24568
f4d1 8d 47  6 STA  ABS   A:37 X:ff Y:ff P:25 S:fb pc: f4d4, reg_addr:  647, cycle:  24572
f4d4 20 40 fb JSR  ABS   A:37 X:ff Y:ff P:25 S:fb pc: fb40, reg_addr: fb40, cycle:  24578
fb40 24  1 38 BIT  ZP    A:37 X:ff Y:ff P:25 S:f9 pc: fb42, reg_addr:    1, cycle:  24581
fb42 38 a9 75 SEC  IMPL  A:37 X:ff Y:ff P:e5 S:f9 pc: fb43, reg_addr:    0, cycle:  24583
fb43 a9 75 60 LDA  IMM   A:37 X:ff Y:ff P:e5 S:f9 pc: fb45, reg_addr:   75, cycle:  24585
fb45 60 50 2d RTS  IMPL  A:75 X:ff Y:ff P:65 S:f9 pc: f4d7, reg_addr:    0, cycle:  24591
f4d7 5b 48  5 SRE  ABSY  A:75 X:ff Y:ff P:65 S:fb pc: f4da, reg_addr:  647, cycle:  24599
f4da ea ea  8 NOP  IMPL  A:6e X:ff Y:ff P:65 S:fb pc: f4db, reg_addr:    0, cycle:  24601
f4db ea  8 48 NOP  IMPL  A:6e X:ff Y:ff P:65 S:fb pc: f4dc, reg_addr:    0, cycle:  24603
f4dc  8 48 a0 PHP  IMPL  A:6e X:ff Y:ff P:65 S:fb pc: f4dd, reg_addr:    0, cycle:  24606
f4dd 48 a0 fa PHA  IMPL  A:6e X:ff Y:ff P:65 S:fa pc: f4de, reg_addr:    0, cycle:  24609
f4de a0 fa 68 LDY  IMM   A:6e X:ff Y:ff P:65 S:f9 pc: f4e0, reg_addr:   fa, cycle:  24611
f4e0 68 28 20 PLA  IMPL  A:6e X:ff Y:fa P:e5 S:f9 pc: f4e1, reg_addr:    0, cycle:  24615
f4e1 28 20 46 PLP  IMPL  A:6e X:ff Y:fa P:65 S:fa pc: f4e2, reg_addr:    0, cycle:  24619
f4e2 20 46 fb JSR  ABS   A:6e X:ff Y:fa P:65 S:fb pc: fb46, reg_addr: fb46, cycle:  24625
fb46 50 2d f0 BVC  REL   A:6e X:ff Y:fa P:65 S:f9 pc: fb48, reg_addr: fb75, cycle:  24627
fb48 f0 2b 30 BEQ  REL   A:6e X:ff Y:fa P:65 S:f9 pc: fb4a, reg_addr: fb75, cycle:  24629
fb4a 30 29 90 BMI  REL   A:6e X:ff Y:fa P:65 S:f9 pc: fb4c, reg_addr: fb75, cycle:  24631
fb4c 90 27 c9 BCC  REL   A:6e X:ff Y:fa P:65 S:f9 pc: fb4e, reg_addr: fb75, cycle:  24633
fb4e c9 6e d0 CMP  IMM   A:6e X:ff Y:fa P:65 S:f9 pc: fb50, reg_addr:   6e, cycle:  24635
fb50 d0 23 60 BNE  REL   A:6e X:ff Y:fa P:67 S:f9 pc: fb52, reg_addr: fb75, cycle:  24637
fb52 60 24  1 RTS  IMPL  A:6e X:ff Y:fa P:67 S:f9 pc: f4e5, reg_addr:    0, cycle:  24643
f4e5 ad 47  6 LDA  ABS   A:6e X:ff Y:fa P:67 S:fb pc: f4e8, reg_addr:  647, cycle:  24647
f4e8 c9 1b f0 CMP  IMM   A:1b X:ff Y:fa P:65 S:fb pc: f4ea, reg_addr:   1b, cycle:  24649
f4ea f0  2 84 BEQ  REL   A:1b X:ff Y:fa P:67 S:fb pc: f4ee, reg_addr: f4ee, cycle:  24652
f4ee a0 fb a2 LDY  IMM   A:1b X:ff Y:fa P:67 S:fb pc: f4f0, reg_addr:   fb, cycle:  24654
f4f0 a2 ff a9 LDX  IMM   A:1b X:ff Y:fb P:e5 S:fb pc: f4f2, reg_addr:   ff, cycle:  24656
f4f2 a9 a5 8d LDA  IMM   A:1b X:ff Y:fb P:e5 S:fb pc: f4f4, reg_addr:   a5, cycle:  24658
f4f4 8d 47  6 STA  ABS   A:a5 X:ff Y:fb P:e5 S:fb pc: f4f7, reg_addr:  647, cycle:  24662
f4f7 20 1d fb JSR  ABS   A:a5 X:ff Y:fb P:e5 S:fb pc: fb1d, reg_addr: fb1d, cycle:  24668
fb1d 24  1 18 BIT  ZP    A:a5 X:ff Y:fb P:e5 S:f9 pc: fb1f, reg_addr:    1, cycle:  24671
fb1f 18 a9 b3 CLC  IMPL  A:a5 X:ff Y:fb P:e5 S:f9 pc: fb20, reg_addr:    0, cycle:  24673
fb20 a9 b3 60 LDA  IMM   A:a5 X:ff Y:fb P:e4 S:f9 pc: fb22, reg_addr:   b3, cycle:  24675
fb22 60 50 50 RTS  IMPL  A:b3 X:ff Y:fb P:e4 S:f9 pc: f4fa, reg_addr:    0, cycle:  24681
f4fa 5f 48  5 SRE  ABSX  A:b3 X:ff Y:fb P:e4 S:fb pc: f4fd, reg_addr:  647, cycle:  24689
f4fd ea ea ea NOP  IMPL  A:e1 X:ff Y:fb P:e5 S:fb pc: f4fe, reg_addr:    0, cycle:  24691
f4fe ea ea ea NOP  IMPL  A:e1 X:ff Y:fb P:e5 S:fb pc: f4ff, reg_addr:    0, cycle:  24693
f4ff ea ea 20 NOP  IMPL  A:e1 X:ff Y:fb P:e5 S:fb pc: f500, reg_addr:    0, cycle:  24695
f500 ea 20 23 NOP  IMPL  A:e1 X:ff Y:fb P:e5 S:fb pc: f501, reg_addr:    0, cycle:  24697
f501 20 23 fb JSR  ABS   A:e1 X:ff Y:fb P:e5 S:fb pc: fb23, reg_addr: fb23, cycle:  24703
fb23 50 50 90 BVC  REL   A:e1 X:ff Y:fb P:e5 S:f9 pc: fb25, reg_addr: fb75, cycle:  24705
fb25 90 4e 10 BCC  REL   A:e1 X:ff Y:fb P:e5 S:f9 pc: fb27, reg_addr: fb75, cycle:  24707
fb27 10 4c c9 BPL  REL   A:e1 X:ff Y:fb P:e5 S:f9 pc: fb29, reg_addr: fb75, cycle:  24709
fb29 c9 e1 d0 CMP  IMM   A:e1 X:ff Y:fb P:e5 S:f9 pc: fb2b, reg_addr:   e1, cycle:  24711
fb2b d0 48 60 BNE  REL   A:e1 X:ff Y:fb P:67 S:f9 pc: fb2d, reg_addr: fb75, cycle:  24713
fb2d 60 b8 18 RTS  IMPL  A:e1 X:ff Y:fb P:67 S:f9 pc: f504, reg_addr:    0, cycle:  24719
f504 ad 47  6 LDA  ABS   A:e1 X:ff Y:fb P:67 S:fb pc: f507, reg_addr:  647, cycle:  24723
f507 c9 52 f0 CMP  IMM   A:52 X:ff Y:fb P:65 S:fb pc: f509, reg_addr:   52, cycle:  24725
f509 f0  2 84 BEQ  REL   A:52 X:ff Y:fb P:67 S:fb pc: f50d, reg_addr: f50d, cycle:  24728
f50d c8 a9 29 INY  IMPL  A:52 X:ff Y:fb P:67 S:fb pc: f50e, reg_addr:    0, cycle:  24730
f50e a9 29 8d LDA  IMM   A:52 X:ff Y:fc P:e5 S:fb pc: f510, reg_addr:   29, cycle:  24732
f510 8d 47  6 STA  ABS   A:29 X:ff Y:fc P:65 S:fb pc: f513, reg_addr:  647, cycle:  24736
f513 20 2e fb JSR  ABS   A:29 X:ff Y:fc P:65 S:fb pc: fb2e, reg_addr: fb2e, cycle:  24742
fb2e b8 18 a9 CLV  IMPL  A:29 X:ff Y:fc P:65 S:f9 pc: fb2f, reg_addr:    0, cycle:  24744
fb2f 18 a9 42 CLC  IMPL  A:29 X:ff Y:fc P:25 S:f9 pc: fb30, reg_addr:    0, cycle:  24746
fb30 a9 42 60 LDA  IMM   A:29 X:ff Y:fc P:24 S:f9 pc: fb32, reg_addr:   42, cycle:  24748
fb32 60 70 40 RTS  IMPL  A:42 X:ff Y:fc P:24 S:f9 pc: f516, reg_addr:    0, cycle:  24754
f516 5f 48  5 SRE  ABSX  A:42 X:ff Y:fc P:24 S:fb pc: f519, reg_addr:  647, cycle:  24762
f519 ea ea ea NOP  IMPL  A:56 X:ff Y:fc P:25 S:fb pc: f51a, reg_addr:    0, cycle:  24764
f51a ea ea ea NOP  IMPL  A:56 X:ff Y:fc P:25 S:fb pc: f51b, reg_addr:    0, cycle:  24766
f51b ea ea 20 NOP  IMPL  A:56 X:ff Y:fc P:25 S:fb pc: f51c, reg_addr:    0, cycle:  24768
f51c ea 20 33 NOP  IMPL  A:56 X:ff Y:fc P:25 S:fb pc: f51d, reg_addr:    0, cycle:  24770
f51d 20 33 fb JSR  ABS   A:56 X:ff Y:fc P:25 S:fb pc: fb33, reg_addr: fb33, cycle:  24776
fb33 70 40 f0 BVS  REL   A:56 X:ff Y:fc P:25 S:f9 pc: fb35, reg_addr: fb75, cycle:  24778
fb35 f0 3e 30 BEQ  REL   A:56 X:ff Y:fc P:25 S:f9 pc: fb37, reg_addr: fb75, cycle:  24780
fb37 30 3c 90 BMI  REL   A:56 X:ff Y:fc P:25 S:f9 pc: fb39, reg_addr: fb75, cycle:  24782
fb39 90 3a c9 BCC  REL   A:56 X:ff Y:fc P:25 S:f9 pc: fb3b, reg_addr: fb75, cycle:  24784
fb3b c9 56 d0 CMP  IMM   A:56 X:ff Y:fc P:25 S:f9 pc: fb3d, reg_addr:   56, cycle:  24786
fb3d d0 36 60 BNE  REL   A:56 X:ff Y:fc P:27 S:f9 pc: fb3f, reg_addr: fb75, cycle:  24788
fb3f 60 24  1 RTS  IMPL  A:56 X:ff Y:fc P:27 S:f9 pc: f520, reg_addr:    0, cycle:  24794
f520 ad 47  6 LDA  ABS   A:56 X:ff Y:fc P:27 S:fb pc: f523, reg_addr:  647, cycle:  24798
f523 c9 14 f0 CMP  IMM   A:14 X:ff Y:fc P:25 S:fb pc: f525, reg_addr:   14, cycle:  24800
f525 f0  2 84 BEQ  REL   A:14 X:ff Y:fc P:27 S:fb pc: f529, reg_addr: f529, cycle:  24803
f529 c8 a9 37 INY  IMPL  A:14 X:ff Y:fc P:27 S:fb pc: f52a, reg_addr:    0, cycle:  24805
f52a a9 37 8d LDA  IMM   A:14 X:ff Y:fd P:a5 S:fb pc: f52c, reg_addr:   37, cycle:  24807
f52c 8d 47  6 STA  ABS   A:37 X:ff Y:fd P:25 S:fb pc: f52f, reg_addr:  647, cycle:  24811
f52f 20 40 fb JSR  ABS   A:37 X:ff Y:fd P:25 S:fb pc: fb40, reg_addr: fb40, cycle:  24817
fb40 24  1 38 BIT  ZP    A:37 X:ff Y:fd P:25 S:f9 pc: fb42, reg_addr:    1, cycle:  24820
fb42 38 a9 75 SEC  IMPL  A:37 X:ff Y:fd P:e5 S:f9 pc: fb43, reg_addr:    0, cycle:  24822
fb43 a9 75 60 LDA  IMM   A:37 X:ff Y:fd P:e5 S:f9 pc: fb45, reg_addr:   75, cycle:  24824
fb45 60 50 2d RTS  IMPL  A:75 X:ff Y:fd P:65 S:f9 pc: f532, reg_addr:    0, cycle:  24830
f532 5f 48  5 SRE  ABSX  A:75 X:ff Y:fd P:65 S:fb pc: f535, reg_addr:  647, cycle:  24838
f535 ea ea ea NOP  IMPL  A:6e X:ff Y:fd P:65 S:fb pc: f536, reg_addr:    0, cycle:  24840
f536 ea ea ea NOP  IMPL  A:6e X:ff Y:fd P:65 S:fb pc: f537, reg_addr:    0, cycle:  24842
f537 ea ea 20 NOP  IMPL  A:6e X:ff Y:fd P:65 S:fb pc: f538, reg_addr:    0, cycle:  24844
f538 ea 20 46 NOP  IMPL  A:6e X:ff Y:fd P:65 S:fb pc: f539, reg_addr:    0, cycle:  24846
f539 20 46 fb JSR  ABS   A:6e X:ff Y:fd P:65 S:fb pc: fb46, reg_addr: fb46, cycle:  24852
fb46 50 2d f0 BVC  REL   A:6e X:ff Y:fd P:65 S:f9 pc: fb48, reg_addr: fb75, cycle:  24854
fb48 f0 2b 30 BEQ  REL   A:6e X:ff Y:fd P:65 S:f9 pc: fb4a, reg_addr: fb75, cycle:  24856
fb4a 30 29 90 BMI  REL   A:6e X:ff Y:fd P:65 S:f9 pc: fb4c, reg_addr: fb75, cycle:  24858
fb4c 90 27 c9 BCC  REL   A:6e X:ff Y:fd P:65 S:f9 pc: fb4e, reg_addr: fb75, cycle:  24860
fb4e c9 6e d0 CMP  IMM   A:6e X:ff Y:fd P:65 S:f9 pc: fb50, reg_addr:   6e, cycle:  24862
fb50 d0 23 60 BNE  REL   A:6e X:ff Y:fd P:67 S:f9 pc: fb52, reg_addr: fb75, cycle:  24864
fb52 60 24  1 RTS  IMPL  A:6e X:ff Y:fd P:67 S:f9 pc: f53c, reg_addr:    0, cycle:  24870
f53c ad 47  6 LDA  ABS   A:6e X:ff Y:fd P:67 S:fb pc: f53f, reg_addr:  647, cycle:  24874
f53f c9 1b f0 CMP  IMM   A:1b X:ff Y:fd P:65 S:fb pc: f541, reg_addr:   1b, cycle:  24876
f541 f0  2 84 BEQ  REL   A:1b X:ff Y:fd P:67 S:fb pc: f545, reg_addr: f545, cycle:  24879
f545 60 a9 ff RTS  IMPL  A:1b X:ff Y:fd P:67 S:fb pc: c64a, reg_addr:    0, cycle:  24885
c64a a5  0 85 LDA  ZP    A:1b X:ff Y:fd P:67 S:fd pc: c64c, reg_addr:    0, cycle:  24888
c64c 85 11 a9 STA  ZP    A: 0 X:ff Y:fd P:67 S:fd pc: c64e, reg_addr:   11, cycle:  24891
c64e a9  0 85 LDA  IMM   A: 0 X:ff Y:fd P:67 S:fd pc: c650, reg_addr:    0, cycle:  24893
c650 85  0 20 STA  ZP    A: 0 X:ff Y:fd P:67 S:fd pc: c652, reg_addr:    0, cycle:  24896
c652 20 46 f5 JSR  ABS   A: 0 X:ff Y:fd P:67 S:fd pc: f546, reg_addr: f546, cycle:  24902
f546 a9 ff 85 LDA  IMM   A: 0 X:ff Y:fd P:67 S:fb pc: f548, reg_addr:   ff, cycle:  24904
f548 85  1 a0 STA  ZP    A:ff X:ff Y:fd P:e5 S:fb pc: f54a, reg_addr:    1, cycle:  24907
f54a a0  1 a2 LDY  IMM   A:ff X:ff Y:fd P:e5 S:fb pc: f54c, reg_addr:    1, cycle:  24909
f54c a2  2 a9 LDX  IMM   A:ff X:ff Y: 1 P:65 S:fb pc: f54e, reg_addr:    2, cycle:  24911
f54e a9 47 85 LDA  IMM   A:ff X: 2 Y: 1 P:65 S:fb pc: f550, reg_addr:   47, cycle:  24913
f550 85 47 a9 STA  ZP    A:47 X: 2 Y: 1 P:65 S:fb pc: f552, reg_addr:   47, cycle:  24916
f552 a9  6 85 LDA  IMM   A:47 X: 2 Y: 1 P:65 S:fb pc: f554, reg_addr:    6, cycle:  24918
f554 85 48 a9 STA  ZP    A: 6 X: 2 Y: 1 P:65 S:fb pc: f556, reg_addr:   48, cycle:  24921
f556 a9 a5 8d LDA  IMM   A: 6 X: 2 Y: 1 P:65 S:fb pc: f558, reg_addr:   a5, cycle:  24923
f558 8d 47  6 STA  ABS   A:a5 X: 2 Y: 1 P:e5 S:fb pc: f55b, reg_addr:  647, cycle:  24927
f55b 20 e9 fa JSR  ABS   A:a5 X: 2 Y: 1 P:e5 S:fb pc: fae9, reg_addr: fae9, cycle:  24933
fae9 24  1 18 BIT  ZP    A:a5 X: 2 Y: 1 P:e5 S:f9 pc: faeb, reg_addr:    1, cycle:  24936
faeb 18 a9 b2 CLC  IMPL  A:a5 X: 2 Y: 1 P:e5 S:f9 pc: faec, reg_addr:    0, cycle:  24938
faec a9 b2 60 LDA  IMM   A:a5 X: 2 Y: 1 P:e4 S:f9 pc: faee, reg_addr:   b2, cycle:  24940
faee 60 70 2a RTS  IMPL  A:b2 X: 2 Y: 1 P:e4 S:f9 pc: f55e, reg_addr:    0, cycle:  24946
f55e 63 45 ea RRA  INDX  A:b2 X: 2 Y: 1 P:e4 S:fb pc: f560, reg_addr:  647, cycle:  24954
f560 ea ea ea NOP  IMPL  A: 5 X: 2 Y: 1 P:25 S:fb pc: f561, reg_addr:    0, cycle:  24956
f561 ea ea ea NOP  IMPL  A: 5 X: 2 Y: 1 P:25 S:fb pc: f562, reg_addr:    0, cycle:  24958
f562 ea ea 20 NOP  IMPL  A: 5 X: 2 Y: 1 P:25 S:fb pc: f563, reg_addr:    0, cycle:  24960
f563 ea 20 ef NOP  IMPL  A: 5 X: 2 Y: 1 P:25 S:fb pc: f564, reg_addr:    0, cycle:  24962
f564 20 ef fa JSR  ABS   A: 5 X: 2 Y: 1 P:25 S:fb pc: faef, reg_addr: faef, cycle:  24968
faef 70 2a 90 BVS  REL   A: 5 X: 2 Y: 1 P:25 S:f9 pc: faf1, reg_addr: fb1b, cycle:  24970
faf1 90 28 30 BCC  REL   A: 5 X: 2 Y: 1 P:25 S:f9 pc: faf3, reg_addr: fb1b, cycle:  24972
faf3 30 26 c9 BMI  REL   A: 5 X: 2 Y: 1 P:25 S:f9 pc: faf5, reg_addr: fb1b, cycle:  24974
faf5 c9  5 d0 CMP  IMM   A: 5 X: 2 Y: 1 P:25 S:f9 pc: faf7, reg_addr:    5, cycle:  24976
faf7 d0 22 60 BNE  REL   A: 5 X: 2 Y: 1 P:27 S:f9 pc: faf9, reg_addr: fb1b, cycle:  24978
faf9 60 b8 18 RTS  IMPL  A: 5 X: 2 Y: 1 P:27 S:f9 pc: f567, reg_addr:    0, cycle:  24984
f567 ad 47  6 LDA  ABS   A: 5 X: 2 Y: 1 P:27 S:fb pc: f56a, reg_addr:  647, cycle:  24988
f56a c9 52 f0 CMP  IMM   A:52 X: 2 Y: 1 P:25 S:fb pc: f56c, reg_addr:   52, cycle:  24990
f56c f0  2 84 BEQ  REL   A:52 X: 2 Y: 1 P:27 S:fb pc: f570, reg_addr: f570, cycle:  24993
f570 c8 a9 29 INY  IMPL  A:52 X: 2 Y: 1 P:27 S:fb pc: f571, reg_addr:    0, cycle:  24995
f571 a9 29 8d LDA  IMM   A:52 X: 2 Y: 2 P:25 S:fb pc: f573, reg_addr:   29, cycle:  24997
f573 8d 47  6 STA  ABS   A:29 X: 2 Y: 2 P:25 S:fb pc: f576, reg_addr:  647, cycle:  25001
f576 20 fa fa JSR  ABS   A:29 X: 2 Y: 2 P:25 S:fb pc: fafa, reg_addr: fafa, cycle:  25007
fafa b8 18 a9 CLV  IMPL  A:29 X: 2 Y: 2 P:25 S:f9 pc: fafb, reg_addr:    0, cycle:  25009
fafb 18 a9 42 CLC  IMPL  A:29 X: 2 Y: 2 P:25 S:f9 pc: fafc, reg_addr:    0, cycle:  25011
fafc a9 42 60 LDA  IMM   A:29 X: 2 Y: 2 P:24 S:f9 pc: fafe, reg_addr:   42, cycle:  25013
fafe 60 70 1a RTS  IMPL  A:42 X: 2 Y: 2 P:24 S:f9 pc: f579, reg_addr:    0, cycle:  25019
f579 63 45 ea RRA  INDX  A:42 X: 2 Y: 2 P:24 S:fb pc: f57b, reg_addr:  647, cycle:  25027
f57b ea ea ea NOP  IMPL  A:57 X: 2 Y: 2 P:24 S:fb pc: f57c, reg_addr:    0, cycle:  25029
f57c ea ea ea NOP  IMPL  A:57 X: 2 Y: 2 P:24 S:fb pc: f57d, reg_addr:    0, cycle:  25031
f57d ea ea 20 NOP  IMPL  A:57 X: 2 Y: 2 P:24 S:fb pc: f57e, reg_addr:    0, cycle:  25033
f57e ea 20 ff NOP  IMPL  A:57 X: 2 Y: 2 P:24 S:fb pc: f57f, reg_addr:    0, cycle:  25035
f57f 20 ff fa JSR  ABS   A:57 X: 2 Y: 2 P:24 S:fb pc: faff, reg_addr: faff, cycle:  25041
faff 70 1a 30 BVS  REL   A:57 X: 2 Y: 2 P:24 S:f9 pc: fb01, reg_addr: fb1b, cycle:  25043
fb01 30 18 b0 BMI  REL   A:57 X: 2 Y: 2 P:24 S:f9 pc: fb03, reg_addr: fb1b, cycle:  25045
fb03 b0 16 c9 BCS  REL   A:57 X: 2 Y: 2 P:24 S:f9 pc: fb05, reg_addr: fb1b, cycle:  25047
fb05 c9 57 d0 CMP  IMM   A:57 X: 2 Y: 2 P:24 S:f9 pc: fb07, reg_addr:   57, cycle:  25049
fb07 d0 12 60 BNE  REL   A:57 X: 2 Y: 2 P:27 S:f9 pc: fb09, reg_addr: fb1b, cycle:  25051
fb09 60 24  1 RTS  IMPL  A:57 X: 2 Y: 2 P:27 S:f9 pc: f582, reg_addr:    0, cycle:  25057
f582 ad 47  6 LDA  ABS   A:57 X: 2 Y: 2 P:27 S:fb pc: f585, reg_addr:  647, cycle:  25061
f585 c9 14 f0 CMP  IMM   A:14 X: 2 Y: 2 P:25 S:fb pc: f587, reg_addr:   14, cycle:  25063
f587 f0  2 84 BEQ  REL   A:14 X: 2 Y: 2 P:27 S:fb pc: f58b, reg_addr: f58b, cycle:  25066
f58b c8 a9 37 INY  IMPL  A:14 X: 2 Y: 2 P:27 S:fb pc: f58c, reg_addr:    0, cycle:  25068
f58c a9 37 8d LDA  IMM   A:14 X: 2 Y: 3 P:25 S:fb pc: f58e, reg_addr:   37, cycle:  25070
f58e 8d 47  6 STA  ABS   A:37 X: 2 Y: 3 P:25 S:fb pc: f591, reg_addr:  647, cycle:  25074
f591 20  a fb JSR  ABS   A:37 X: 2 Y: 3 P:25 S:fb pc: fb0a, reg_addr: fb0a, cycle:  25080
fb0a 24  1 38 BIT  ZP    A:37 X: 2 Y: 3 P:25 S:f9 pc: fb0c, reg_addr:    1, cycle:  25083
fb0c 38 a9 75 SEC  IMPL  A:37 X: 2 Y: 3 P:e5 S:f9 pc: fb0d, reg_addr:    0, cycle:  25085
fb0d a9 75 60 LDA  IMM   A:37 X: 2 Y: 3 P:e5 S:f9 pc: fb0f, reg_addr:   75, cycle:  25087
fb0f 60 70  9 RTS  IMPL  A:75 X: 2 Y: 3 P:65 S:f9 pc: f594, reg_addr:    0, cycle:  25093
f594 63 45 ea RRA  INDX  A:75 X: 2 Y: 3 P:65 S:fb pc: f596, reg_addr:  647, cycle:  25101
f596 ea ea ea NOP  IMPL  A:11 X: 2 Y: 3 P:25 S:fb pc: f597, reg_addr:    0, cycle:  25103
f597 ea ea ea NOP  IMPL  A:11 X: 2 Y: 3 P:25 S:fb pc: f598, reg_addr:    0, cycle:  25105
f598 ea ea 20 NOP  IMPL  A:11 X: 2 Y: 3 P:25 S:fb pc: f599, reg_addr:    0, cycle:  25107
f599 ea 20 10 NOP  IMPL  A:11 X: 2 Y: 3 P:25 S:fb pc: f59a, reg_addr:    0, cycle:  25109
f59a 20 10 fb JSR  ABS   A:11 X: 2 Y: 3 P:25 S:fb pc: fb10, reg_addr: fb10, cycle:  25115
fb10 70  9 30 BVS  REL   A:11 X: 2 Y: 3 P:25 S:f9 pc: fb12, reg_addr: fb1b, cycle:  25117
fb12 30  7 90 BMI  REL   A:11 X: 2 Y: 3 P:25 S:f9 pc: fb14, reg_addr: fb1b, cycle:  25119
fb14 90  5 c9 BCC  REL   A:11 X: 2 Y: 3 P:25 S:f9 pc: fb16, reg_addr: fb1b, cycle:  25121
fb16 c9 11 d0 CMP  IMM   A:11 X: 2 Y: 3 P:25 S:f9 pc: fb18, reg_addr:   11, cycle:  25123
fb18 d0  1 60 BNE  REL   A:11 X: 2 Y: 3 P:27 S:f9 pc: fb1a, reg_addr: fb1b, cycle:  25125
fb1a 60 85  0 RTS  IMPL  A:11 X: 2 Y: 3 P:27 S:f9 pc: f59d, reg_addr:    0, cycle:  25131
f59d ad 47  6 LDA  ABS   A:11 X: 2 Y: 3 P:27 S:fb pc: f5a0, reg_addr:  647, cycle:  25135
f5a0 c9 9b f0 CMP  IMM   A:9b X: 2 Y: 3 P:a5 S:fb pc: f5a2, reg_addr:   9b, cycle:  25137
f5a2 f0  2 84 BEQ  REL   A:9b X: 2 Y: 3 P:27 S:fb pc: f5a6, reg_addr: f5a6, cycle:  25140
f5a6 c8 a9 a5 INY  IMPL  A:9b X: 2 Y: 3 P:27 S:fb pc: f5a7, reg_addr:    0, cycle:  25142
f5a7 a9 a5 85 LDA  IMM   A:9b X: 2 Y: 4 P:25 S:fb pc: f5a9, reg_addr:   a5, cycle:  25144
f5a9 85 47 20 STA  ZP    A:a5 X: 2 Y: 4 P:a5 S:fb pc: f5ab, reg_addr:   47, cycle:  25147
f5ab 20 e9 fa JSR  ABS   A:a5 X: 2 Y: 4 P:a5 S:fb pc: fae9, reg_addr: fae9, cycle:  25153
fae9 24  1 18 BIT  ZP    A:a5 X: 2 Y: 4 P:a5 S:f9 pc: faeb, reg_addr:    1, cycle:  25156
faeb 18 a9 b2 CLC  IMPL  A:a5 X: 2 Y: 4 P:e5 S:f9 pc: faec, reg_addr:    0, cycle:  25158
faec a9 b2 60 LDA  IMM   A:a5 X: 2 Y: 4 P:e4 S:f9 pc: faee, reg_addr:   b2, cycle:  25160
faee 60 70 2a RTS  IMPL  A:b2 X: 2 Y: 4 P:e4 S:f9 pc: f5ae, reg_addr:    0, cycle:  25166
f5ae 67 47 ea RRA  ZP    A:b2 X: 2 Y: 4 P:e4 S:fb pc: f5b0, reg_addr:   47, cycle:  25171
f5b0 ea ea ea NOP  IMPL  A: 5 X: 2 Y: 4 P:25 S:fb pc: f5b1, reg_addr:    0, cycle:  25173
f5b1 ea ea ea NOP  IMPL  A: 5 X: 2 Y: 4 P:25 S:fb pc: f5b2, reg_addr:    0, cycle:  25175
f5b2 ea ea 20 NOP  IMPL  A: 5 X: 2 Y: 4 P:25 S:fb pc: f5b3, reg_addr:    0, cycle:  25177
f5b3 ea 20 ef NOP  IMPL  A: 5 X: 2 Y: 4 P:25 S:fb pc: f5b4, reg_addr:    0, cycle:  25179
f5b4 20 ef fa JSR  ABS   A: 5 X: 2 Y: 4 P:25 S:fb pc: faef, reg_addr: faef, cycle:  25185
faef 70 2a 90 BVS  REL   A: 5 X: 2 Y: 4 P:25 S:f9 pc: faf1, reg_addr: fb1b, cycle:  25187
faf1 90 28 30 BCC  REL   A: 5 X: 2 Y: 4 P:25 S:f9 pc: faf3, reg_addr: fb1b, cycle:  25189
faf3 30 26 c9 BMI  REL   A: 5 X: 2 Y: 4 P:25 S:f9 pc: faf5, reg_addr: fb1b, cycle:  25191
faf5 c9  5 d0 CMP  IMM   A: 5 X: 2 Y: 4 P:25 S:f9 pc: faf7, reg_addr:    5, cycle:  25193
faf7 d0 22 60 BNE  REL   A: 5 X: 2 Y: 4 P:27 S:f9 pc: faf9, reg_addr: fb1b, cycle:  25195
faf9 60 b8 18 RTS  IMPL  A: 5 X: 2 Y: 4 P:27 S:f9 pc: f5b7, reg_addr:    0, cycle:  25201
f5b7 a5 47 c9 LDA  ZP    A: 5 X: 2 Y: 4 P:27 S:fb pc: f5b9, reg_addr:   47, cycle:  25204
f5b9 c9 52 f0 CMP  IMM   A:52 X: 2 Y: 4 P:25 S:fb pc: f5bb, reg_addr:   52, cycle:  25206
f5bb f0  2 84 BEQ  REL   A:52 X: 2 Y: 4 P:27 S:fb pc: f5bf, reg_addr: f5bf, cycle:  25209
f5bf c8 a9 29 INY  IMPL  A:52 X: 2 Y: 4 P:27 S:fb pc: f5c0, reg_addr:    0, cycle:  25211
f5c0 a9 29 85 LDA  IMM   A:52 X: 2 Y: 5 P:25 S:fb pc: f5c2, reg_addr:   29, cycle:  25213
f5c2 85 47 20 STA  ZP    A:29 X: 2 Y: 5 P:25 S:fb pc: f5c4, reg_addr:   47, cycle:  25216
f5c4 20 fa fa JSR  ABS   A:29 X: 2 Y: 5 P:25 S:fb pc: fafa, reg_addr: fafa, cycle:  25222
fafa b8 18 a9 CLV  IMPL  A:29 X: 2 Y: 5 P:25 S:f9 pc: fafb, reg_addr:    0, cycle:  25224
fafb 18 a9 42 CLC  IMPL  A:29 X: 2 Y: 5 P:25 S:f9 pc: fafc, reg_addr:    0, cycle:  25226
fafc a9 42 60 LDA  IMM   A:29 X: 2 Y: 5 P:24 S:f9 pc: fafe, reg_addr:   42, cycle:  25228
fafe 60 70 1a RTS  IMPL  A:42 X: 2 Y: 5 P:24 S:f9 pc: f5c7, reg_addr:    0, cycle:  25234
f5c7 67 47 ea RRA  ZP    A:42 X: 2 Y: 5 P:24 S:fb pc: f5c9, reg_addr:   47, cycle:  25239
f5c9 ea ea ea NOP  IMPL  A:57 X: 2 Y: 5 P:24 S:fb pc: f5ca, reg_addr:    0, cycle:  25241
f5ca ea ea ea NOP  IMPL  A:57 X: 2 Y: 5 P:24 S:fb pc: f5cb, reg_addr:    0, cycle:  25243
f5cb ea ea 20 NOP  IMPL  A:57 X: 2 Y: 5 P:24 S:fb pc: f5cc, reg_addr:    0, cycle:  25245
f5cc ea 20 ff NOP  IMPL  A:57 X: 2 Y: 5 P:24 S:fb pc: f5cd, reg_addr:    0, cycle:  25247
f5cd 20 ff fa JSR  ABS   A:57 X: 2 Y: 5 P:24 S:fb pc: faff, reg_addr: faff, cycle:  25253
faff 70 1a 30 BVS  REL   A:57 X: 2 Y: 5 P:24 S:f9 pc: fb01, reg_addr: fb1b, cycle:  25255
fb01 30 18 b0 BMI  REL   A:57 X: 2 Y: 5 P:24 S:f9 pc: fb03, reg_addr: fb1b, cycle:  25257
fb03 b0 16 c9 BCS  REL   A:57 X: 2 Y: 5 P:24 S:f9 pc: fb05, reg_addr: fb1b, cycle:  25259
fb05 c9 57 d0 CMP  IMM   A:57 X: 2 Y: 5 P:24 S:f9 pc: fb07, reg_addr:   57, cycle:  25261
fb07 d0 12 60 BNE  REL   A:57 X: 2 Y: 5 P:27 S:f9 pc: fb09, reg_addr: fb1b, cycle:  25263
fb09 60 24  1 RTS  IMPL  A:57 X: 2 Y: 5 P:27 S:f9 pc: f5d0, reg_addr:    0, cycle:  25269
f5d0 a5 47 c9 LDA  ZP    A:57 X: 2 Y: 5 P:27 S:fb pc: f5d2, reg_addr:   47, cycle:  25272
f5d2 c9 14 f0 CMP  IMM   A:14 X: 2 Y: 5 P:25 S:fb pc: f5d4, reg_addr:   14, cycle:  25274
f5d4 f0  2 84 BEQ  REL   A:14 X: 2 Y: 5 P:27 S:fb pc: f5d8, reg_addr: f5d8, cycle:  25277
f5d8 c8 a9 37 INY  IMPL  A:14 X: 2 Y: 5 P:27 S:fb pc: f5d9, reg_addr:    0, cycle:  25279
f5d9 a9 37 85 LDA  IMM   A:14 X: 2 Y: 6 P:25 S:fb pc: f5db, reg_addr:   37, cycle:  25281
f5db 85 47 20 STA  ZP    A:37 X: 2 Y: 6 P:25 S:fb pc: f5dd, reg_addr:   47, cycle:  25284
f5dd 20  a fb JSR  ABS   A:37 X: 2 Y: 6 P:25 S:fb pc: fb0a, reg_addr: fb0a, cycle:  25290
fb0a 24  1 38 BIT  ZP    A:37 X: 2 Y: 6 P:25 S:f9 pc: fb0c, reg_addr:    1, cycle:  25293
fb0c 38 a9 75 SEC  IMPL  A:37 X: 2 Y: 6 P:e5 S:f9 pc: fb0d, reg_addr:    0, cycle:  25295
fb0d a9 75 60 LDA  IMM   A:37 X: 2 Y: 6 P:e5 S:f9 pc: fb0f, reg_addr:   75, cycle:  25297
fb0f 60 70  9 RTS  IMPL  A:75 X: 2 Y: 6 P:65 S:f9 pc: f5e0, reg_addr:    0, cycle:  25303
f5e0 67 47 ea RRA  ZP    A:75 X: 2 Y: 6 P:65 S:fb pc: f5e2, reg_addr:   47, cycle:  25308
f5e2 ea ea ea NOP  IMPL  A:11 X: 2 Y: 6 P:25 S:fb pc: f5e3, reg_addr:    0, cycle:  25310
f5e3 ea ea ea NOP  IMPL  A:11 X: 2 Y: 6 P:25 S:fb pc: f5e4, reg_addr:    0, cycle:  25312
f5e4 ea ea 20 NOP  IMPL  A:11 X: 2 Y: 6 P:25 S:fb pc: f5e5, reg_addr:    0, cycle:  25314
f5e5 ea 20 10 NOP  IMPL  A:11 X: 2 Y: 6 P:25 S:fb pc: f5e6, reg_addr:    0, cycle:  25316
f5e6 20 10 fb JSR  ABS   A:11 X: 2 Y: 6 P:25 S:fb pc: fb10, reg_addr: fb10, cycle:  25322
fb10 70  9 30 BVS  REL   A:11 X: 2 Y: 6 P:25 S:f9 pc: fb12, reg_addr: fb1b, cycle:  25324
fb12 30  7 90 BMI  REL   A:11 X: 2 Y: 6 P:25 S:f9 pc: fb14, reg_addr: fb1b, cycle:  25326
fb14 90  5 c9 BCC  REL   A:11 X: 2 Y: 6 P:25 S:f9 pc: fb16, reg_addr: fb1b, cycle:  25328
fb16 c9 11 d0 CMP  IMM   A:11 X: 2 Y: 6 P:25 S:f9 pc: fb18, reg_addr:   11, cycle:  25330
fb18 d0  1 60 BNE  REL   A:11 X: 2 Y: 6 P:27 S:f9 pc: fb1a, reg_addr: fb1b, cycle:  25332
fb1a 60 85  0 RTS  IMPL  A:11 X: 2 Y: 6 P:27 S:f9 pc: f5e9, reg_addr:    0, cycle:  25338
f5e9 a5 47 c9 LDA  ZP    A:11 X: 2 Y: 6 P:27 S:fb pc: f5eb, reg_addr:   47, cycle:  25341
f5eb c9 9b f0 CMP  IMM   A:9b X: 2 Y: 6 P:a5 S:fb pc: f5ed, reg_addr:   9b, cycle:  25343
f5ed f0  2 84 BEQ  REL   A:9b X: 2 Y: 6 P:27 S:fb pc: f5f1, reg_addr: f5f1, cycle:  25346
f5f1 c8 a9 a5 INY  IMPL  A:9b X: 2 Y: 6 P:27 S:fb pc: f5f2, reg_addr:    0, cycle:  25348
f5f2 a9 a5 8d LDA  IMM   A:9b X: 2 Y: 7 P:25 S:fb pc: f5f4, reg_addr:   a5, cycle:  25350
f5f4 8d 47  6 STA  ABS   A:a5 X: 2 Y: 7 P:a5 S:fb pc: f5f7, reg_addr:  647, cycle:  25354
f5f7 20 e9 fa JSR  ABS   A:a5 X: 2 Y: 7 P:a5 S:fb pc: fae9, reg_addr: fae9, cycle:  25360
fae9 24  1 18 BIT  ZP    A:a5 X: 2 Y: 7 P:a5 S:f9 pc: faeb, reg_addr:    1, cycle:  25363
faeb 18 a9 b2 CLC  IMPL  A:a5 X: 2 Y: 7 P:e5 S:f9 pc: faec, reg_addr:    0, cycle:  25365
faec a9 b2 60 LDA  IMM   A:a5 X: 2 Y: 7 P:e4 S:f9 pc: faee, reg_addr:   b2, cycle:  25367
faee 60 70 2a RTS  IMPL  A:b2 X: 2 Y: 7 P:e4 S:f9 pc: f5fa, reg_addr:    0, cycle:  25373
f5fa 6f 47  6 RRA  ABS   A:b2 X: 2 Y: 7 P:e4 S:fb pc: f5fd, reg_addr:  647, cycle:  25379
f5fd ea ea ea NOP  IMPL  A: 5 X: 2 Y: 7 P:25 S:fb pc: f5fe, reg_addr:    0, cycle:  25381
f5fe ea ea ea NOP  IMPL  A: 5 X: 2 Y: 7 P:25 S:fb pc: f5ff, reg_addr:    0, cycle:  25383
f5ff ea ea 20 NOP  IMPL  A: 5 X: 2 Y: 7 P:25 S:fb pc: f600, reg_addr:    0, cycle:  25385
f600 ea 20 ef NOP  IMPL  A: 5 X: 2 Y: 7 P:25 S:fb pc: f601, reg_addr:    0, cycle:  25387
f601 20 ef fa JSR  ABS   A: 5 X: 2 Y: 7 P:25 S:fb pc: faef, reg_addr: faef, cycle:  25393
faef 70 2a 90 BVS  REL   A: 5 X: 2 Y: 7 P:25 S:f9 pc: faf1, reg_addr: fb1b, cycle:  25395
faf1 90 28 30 BCC  REL   A: 5 X: 2 Y: 7 P:25 S:f9 pc: faf3, reg_addr: fb1b, cycle:  25397
faf3 30 26 c9 BMI  REL   A: 5 X: 2 Y: 7 P:25 S:f9 pc: faf5, reg_addr: fb1b, cycle:  25399
faf5 c9  5 d0 CMP  IMM   A: 5 X: 2 Y: 7 P:25 S:f9 pc: faf7, reg_addr:    5, cycle:  25401
faf7 d0 22 60 BNE  REL   A: 5 X: 2 Y: 7 P:27 S:f9 pc: faf9, reg_addr: fb1b, cycle:  25403
faf9 60 b8 18 RTS  IMPL  A: 5 X: 2 Y: 7 P:27 S:f9 pc: f604, reg_addr:    0, cycle:  25409
f604 ad 47  6 LDA  ABS   A: 5 X: 2 Y: 7 P:27 S:fb pc: f607, reg_addr:  647, cycle:  25413
f607 c9 52 f0 CMP  IMM   A:52 X: 2 Y: 7 P:25 S:fb pc: f609, reg_addr:   52, cycle:  25415
f609 f0  2 84 BEQ  REL   A:52 X: 2 Y: 7 P:27 S:fb pc: f60d, reg_addr: f60d, cycle:  25418
f60d c8 a9 29 INY  IMPL  A:52 X: 2 Y: 7 P:27 S:fb pc: f60e, reg_addr:    0, cycle:  25420
f60e a9 29 8d LDA  IMM   A:52 X: 2 Y: 8 P:25 S:fb pc: f610, reg_addr:   29, cycle:  25422
f610 8d 47  6 STA  ABS   A:29 X: 2 Y: 8 P:25 S:fb pc: f613, reg_addr:  647, cycle:  25426
f613 20 fa fa JSR  ABS   A:29 X: 2 Y: 8 P:25 S:fb pc: fafa, reg_addr: fafa, cycle:  25432
fafa b8 18 a9 CLV  IMPL  A:29 X: 2 Y: 8 P:25 S:f9 pc: fafb, reg_addr:    0, cycle:  25434
fafb 18 a9 42 CLC  IMPL  A:29 X: 2 Y: 8 P:25 S:f9 pc: fafc, reg_addr:    0, cycle:  25436
fafc a9 42 60 LDA  IMM   A:29 X: 2 Y: 8 P:24 S:f9 pc: fafe, reg_addr:   42, cycle:  25438
fafe 60 70 1a RTS  IMPL  A:42 X: 2 Y: 8 P:24 S:f9 pc: f616, reg_addr:    0, cycle:  25444
f616 6f 47  6 RRA  ABS   A:42 X: 2 Y: 8 P:24 S:fb pc: f619, reg_addr:  647, cycle:  25450
f619 ea ea ea NOP  IMPL  A:57 X: 2 Y: 8 P:24 S:fb pc: f61a, reg_addr:    0, cycle:  25452
f61a ea ea ea NOP  IMPL  A:57 X: 2 Y: 8 P:24 S:fb pc: f61b, reg_addr:    0, cycle:  25454
f61b ea ea 20 NOP  IMPL  A:57 X: 2 Y: 8 P:24 S:fb pc: f61c, reg_addr:    0, cycle:  25456
f61c ea 20 ff NOP  IMPL  A:57 X: 2 Y: 8 P:24 S:fb pc: f61d, reg_addr:    0, cycle:  25458
f61d 20 ff fa JSR  ABS   A:57 X: 2 Y: 8 P:24 S:fb pc: faff, reg_addr: faff, cycle:  25464
faff 70 1a 30 BVS  REL   A:57 X: 2 Y: 8 P:24 S:f9 pc: fb01, reg_addr: fb1b, cycle:  25466
fb01 30 18 b0 BMI  REL   A:57 X: 2 Y: 8 P:24 S:f9 pc: fb03, reg_addr: fb1b, cycle:  25468
fb03 b0 16 c9 BCS  REL   A:57 X: 2 Y: 8 P:24 S:f9 pc: fb05, reg_addr: fb1b, cycle:  25470
fb05 c9 57 d0 CMP  IMM   A:57 X: 2 Y: 8 P:24 S:f9 pc: fb07, reg_addr:   57, cycle:  25472
fb07 d0 12 60 BNE  REL   A:57 X: 2 Y: 8 P:27 S:f9 pc: fb09, reg_addr: fb1b, cycle:  25474
fb09 60 24  1 RTS  IMPL  A:57 X: 2 Y: 8 P:27 S:f9 pc: f620, reg_addr:    0, cycle:  25480
f620 ad 47  6 LDA  ABS   A:57 X: 2 Y: 8 P:27 S:fb pc: f623, reg_addr:  647, cycle:  25484
f623 c9 14 f0 CMP  IMM   A:14 X: 2 Y: 8 P:25 S:fb pc: f625, reg_addr:   14, cycle:  25486
f625 f0  2 84 BEQ  REL   A:14 X: 2 Y: 8 P:27 S:fb pc: f629, reg_addr: f629, cycle:  25489
f629 c8 a9 37 INY  IMPL  A:14 X: 2 Y: 8 P:27 S:fb pc: f62a, reg_addr:    0, cycle:  25491
f62a a9 37 8d LDA  IMM   A:14 X: 2 Y: 9 P:25 S:fb pc: f62c, reg_addr:   37, cycle:  25493
f62c 8d 47  6 STA  ABS   A:37 X: 2 Y: 9 P:25 S:fb pc: f62f, reg_addr:  647, cycle:  25497
f62f 20  a fb JSR  ABS   A:37 X: 2 Y: 9 P:25 S:fb pc: fb0a, reg_addr: fb0a, cycle:  25503
fb0a 24  1 38 BIT  ZP    A:37 X: 2 Y: 9 P:25 S:f9 pc: fb0c, reg_addr:    1, cycle:  25506
fb0c 38 a9 75 SEC  IMPL  A:37 X: 2 Y: 9 P:e5 S:f9 pc: fb0d, reg_addr:    0, cycle:  25508
fb0d a9 75 60 LDA  IMM   A:37 X: 2 Y: 9 P:e5 S:f9 pc: fb0f, reg_addr:   75, cycle:  25510
fb0f 60 70  9 RTS  IMPL  A:75 X: 2 Y: 9 P:65 S:f9 pc: f632, reg_addr:    0, cycle:  25516
f632 6f 47  6 RRA  ABS   A:75 X: 2 Y: 9 P:65 S:fb pc: f635, reg_addr:  647, cycle:  25522
f635 ea ea ea NOP  IMPL  A:11 X: 2 Y: 9 P:25 S:fb pc: f636, reg_addr:    0, cycle:  25524
f636 ea ea ea NOP  IMPL  A:11 X: 2 Y: 9 P:25 S:fb pc: f637, reg_addr:    0, cycle:  25526
f637 ea ea 20 NOP  IMPL  A:11 X: 2 Y: 9 P:25 S:fb pc: f638, reg_addr:    0, cycle:  25528
f638 ea 20 10 NOP  IMPL  A:11 X: 2 Y: 9 P:25 S:fb pc: f639, reg_addr:    0, cycle:  25530
f639 20 10 fb JSR  ABS   A:11 X: 2 Y: 9 P:25 S:fb pc: fb10, reg_addr: fb10, cycle:  25536
fb10 70  9 30 BVS  REL   A:11 X: 2 Y: 9 P:25 S:f9 pc: fb12, reg_addr: fb1b, cycle:  25538
fb12 30  7 90 BMI  REL   A:11 X: 2 Y: 9 P:25 S:f9 pc: fb14, reg_addr: fb1b, cycle:  25540
fb14 90  5 c9 BCC  REL   A:11 X: 2 Y: 9 P:25 S:f9 pc: fb16, reg_addr: fb1b, cycle:  25542
fb16 c9 11 d0 CMP  IMM   A:11 X: 2 Y: 9 P:25 S:f9 pc: fb18, reg_addr:   11, cycle:  25544
fb18 d0  1 60 BNE  REL   A:11 X: 2 Y: 9 P:27 S:f9 pc: fb1a, reg_addr: fb1b, cycle:  25546
fb1a 60 85  0 RTS  IMPL  A:11 X: 2 Y: 9 P:27 S:f9 pc: f63c, reg_addr:    0, cycle:  25552
f63c ad 47  6 LDA  ABS   A:11 X: 2 Y: 9 P:27 S:fb pc: f63f, reg_addr:  647, cycle:  25556
f63f c9 9b f0 CMP  IMM   A:9b X: 2 Y: 9 P:a5 S:fb pc: f641, reg_addr:   9b, cycle:  25558
f641 f0  2 84 BEQ  REL   A:9b X: 2 Y: 9 P:27 S:fb pc: f645, reg_addr: f645, cycle:  25561
f645 a9 a5 8d LDA  IMM   A:9b X: 2 Y: 9 P:27 S:fb pc: f647, reg_addr:   a5, cycle:  25563
f647 8d 47  6 STA  ABS   A:a5 X: 2 Y: 9 P:a5 S:fb pc: f64a, reg_addr:  647, cycle:  25567
f64a a9 48 85 LDA  IMM   A:a5 X: 2 Y: 9 P:a5 S:fb pc: f64c, reg_addr:   48, cycle:  25569
f64c 85 45 a9 STA  ZP    A:48 X: 2 Y: 9 P:25 S:fb pc: f64e, reg_addr:   45, cycle:  25572
f64e a9  5 85 LDA  IMM   A:48 X: 2 Y: 9 P:25 S:fb pc: f650, reg_addr:    5, cycle:  25574
f650 85 46 a0 STA  ZP    A: 5 X: 2 Y: 9 P:25 S:fb pc: f652, reg_addr:   46, cycle:  25577
f652 a0 ff 20 LDY  IMM   A: 5 X: 2 Y: 9 P:25 S:fb pc: f654, reg_addr:   ff, cycle:  25579
f654 20 e9 fa JSR  ABS   A: 5 X: 2 Y:ff P:a5 S:fb pc: fae9, reg_addr: fae9, cycle:  25585
fae9 24  1 18 BIT  ZP    A: 5 X: 2 Y:ff P:a5 S:f9 pc: faeb, reg_addr:    1, cycle:  25588
faeb 18 a9 b2 CLC  IMPL  A: 5 X: 2 Y:ff P:e5 S:f9 pc: faec, reg_addr:    0, cycle:  25590
faec a9 b2 60 LDA  IMM   A: 5 X: 2 Y:ff P:e4 S:f9 pc: faee, reg_addr:   b2, cycle:  25592
faee 60 70 2a RTS  IMPL  A:b2 X: 2 Y:ff P:e4 S:f9 pc: f657, reg_addr:    0, cycle:  25598
f657 73 45 ea RRA  INDY  A:b2 X: 2 Y:ff P:e4 S:fb pc: f659, reg_addr:  647, cycle:  25607
f659 ea ea  8 NOP  IMPL  A: 5 X: 2 Y:ff P:25 S:fb pc: f65a, reg_addr:    0, cycle:  25609
f65a ea  8 48 NOP  IMPL  A: 5 X: 2 Y:ff P:25 S:fb pc: f65b, reg_addr:    0, cycle:  25611
f65b  8 48 a0 PHP  IMPL  A: 5 X: 2 Y:ff P:25 S:fb pc: f65c, reg_addr:    0, cycle:  25614
f65c 48 a0  a PHA  IMPL  A: 5 X: 2 Y:ff P:25 S:fa pc: f65d, reg_addr:    0, cycle:  25617
f65d a0  a 68 LDY  IMM   A: 5 X: 2 Y:ff P:25 S:f9 pc: f65f, reg_addr:    a, cycle:  25619
f65f 68 28 20 PLA  IMPL  A: 5 X: 2 Y: a P:25 S:f9 pc: f660, reg_addr:    0, cycle:  25623
f660 28 20 ef PLP  IMPL  A: 5 X: 2 Y: a P:25 S:fa pc: f661, reg_addr:    0, cycle:  25627
f661 20 ef fa JSR  ABS   A: 5 X: 2 Y: a P:25 S:fb pc: faef, reg_addr: faef, cycle:  25633
faef 70 2a 90 BVS  REL   A: 5 X: 2 Y: a P:25 S:f9 pc: faf1, reg_addr: fb1b, cycle:  25635
faf1 90 28 30 BCC  REL   A: 5 X: 2 Y: a P:25 S:f9 pc: faf3, reg_addr: fb1b, cycle:  25637
faf3 30 26 c9 BMI  REL   A: 5 X: 2 Y: a P:25 S:f9 pc: faf5, reg_addr: fb1b, cycle:  25639
faf5 c9  5 d0 CMP  IMM   A: 5 X: 2 Y: a P:25 S:f9 pc: faf7, reg_addr:    5, cycle:  25641
faf7 d0 22 60 BNE  REL   A: 5 X: 2 Y: a P:27 S:f9 pc: faf9, reg_addr: fb1b, cycle:  25643
faf9 60 b8 18 RTS  IMPL  A: 5 X: 2 Y: a P:27 S:f9 pc: f664, reg_addr:    0, cycle:  25649
f664 ad 47  6 LDA  ABS   A: 5 X: 2 Y: a P:27 S:fb pc: f667, reg_addr:  647, cycle:  25653
f667 c9 52 f0 CMP  IMM   A:52 X: 2 Y: a P:25 S:fb pc: f669, reg_addr:   52, cycle:  25655
f669 f0  2 84 BEQ  REL   A:52 X: 2 Y: a P:27 S:fb pc: f66d, reg_addr: f66d, cycle:  25658
f66d a0 ff a9 LDY  IMM   A:52 X: 2 Y: a P:27 S:fb pc: f66f, reg_addr:   ff, cycle:  25660
f66f a9 29 8d LDA  IMM   A:52 X: 2 Y:ff P:a5 S:fb pc: f671, reg_addr:   29, cycle:  25662
f671 8d 47  6 STA  ABS   A:29 X: 2 Y:ff P:25 S:fb pc: f674, reg_addr:  647, cycle:  25666
f674 20 fa fa JSR  ABS   A:29 X: 2 Y:ff P:25 S:fb pc: fafa, reg_addr: fafa, cycle:  25672
fafa b8 18 a9 CLV  IMPL  A:29 X: 2 Y:ff P:25 S:f9 pc: fafb, reg_addr:    0, cycle:  25674
fafb 18 a9 42 CLC  IMPL  A:29 X: 2 Y:ff P:25 S:f9 pc: fafc, reg_addr:    0, cycle:  25676
fafc a9 42 60 LDA  IMM   A:29 X: 2 Y:ff P:24 S:f9 pc: fafe, reg_addr:   42, cycle:  25678
fafe 60 70 1a RTS  IMPL  A:42 X: 2 Y:ff P:24 S:f9 pc: f677, reg_addr:    0, cycle:  25684
f677 73 45 ea RRA  INDY  A:42 X: 2 Y:ff P:24 S:fb pc: f679, reg_addr:  647, cycle:  25693
f679 ea ea  8 NOP  IMPL  A:57 X: 2 Y:ff P:24 S:fb pc: f67a, reg_addr:    0, cycle:  25695
f67a ea  8 48 NOP  IMPL  A:57 X: 2 Y:ff P:24 S:fb pc: f67b, reg_addr:    0, cycle:  25697
f67b  8 48 a0 PHP  IMPL  A:57 X: 2 Y:ff P:24 S:fb pc: f67c, reg_addr:    0, cycle:  25700
f67c 48 a0  b PHA  IMPL  A:57 X: 2 Y:ff P:24 S:fa pc: f67d, reg_addr:    0, cycle:  25703
f67d a0  b 68 LDY  IMM   A:57 X: 2 Y:ff P:24 S:f9 pc: f67f, reg_addr:    b, cycle:  25705
f67f 68 28 20 PLA  IMPL  A:57 X: 2 Y: b P:24 S:f9 pc: f680, reg_addr:    0, cycle:  25709
f680 28 20 ff PLP  IMPL  A:57 X: 2 Y: b P:24 S:fa pc: f681, reg_addr:    0, cycle:  25713
f681 20 ff fa JSR  ABS   A:57 X: 2 Y: b P:24 S:fb pc: faff, reg_addr: faff, cycle:  25719
faff 70 1a 30 BVS  REL   A:57 X: 2 Y: b P:24 S:f9 pc: fb01, reg_addr: fb1b, cycle:  25721
fb01 30 18 b0 BMI  REL   A:57 X: 2 Y: b P:24 S:f9 pc: fb03, reg_addr: fb1b, cycle:  25723
fb03 b0 16 c9 BCS  REL   A:57 X: 2 Y: b P:24 S:f9 pc: fb05, reg_addr: fb1b, cycle:  25725
fb05 c9 57 d0 CMP  IMM   A:57 X: 2 Y: b P:24 S:f9 pc: fb07, reg_addr:   57, cycle:  25727
fb07 d0 12 60 BNE  REL   A:57 X: 2 Y: b P:27 S:f9 pc: fb09, reg_addr: fb1b, cycle:  25729
fb09 60 24  1 RTS  IMPL  A:57 X: 2 Y: b P:27 S:f9 pc: f684, reg_addr:    0, cycle:  25735
f684 ad 47  6 LDA  ABS   A:57 X: 2 Y: b P:27 S:fb pc: f687, reg_addr:  647, cycle:  25739
f687 c9 14 f0 CMP  IMM   A:14 X: 2 Y: b P:25 S:fb pc: f689, reg_addr:   14, cycle:  25741
f689 f0  2 84 BEQ  REL   A:14 X: 2 Y: b P:27 S:fb pc: f68d, reg_addr: f68d, cycle:  25744
f68d a0 ff a9 LDY  IMM   A:14 X: 2 Y: b P:27 S:fb pc: f68f, reg_addr:   ff, cycle:  25746
f68f a9 37 8d LDA  IMM   A:14 X: 2 Y:ff P:a5 S:fb pc: f691, reg_addr:   37, cycle:  25748
f691 8d 47  6 STA  ABS   A:37 X: 2 Y:ff P:25 S:fb pc: f694, reg_addr:  647, cycle:  25752
f694 20  a fb JSR  ABS   A:37 X: 2 Y:ff P:25 S:fb pc: fb0a, reg_addr: fb0a, cycle:  25758
fb0a 24  1 38 BIT  ZP    A:37 X: 2 Y:ff P:25 S:f9 pc: fb0c, reg_addr:    1, cycle:  25761
fb0c 38 a9 75 SEC  IMPL  A:37 X: 2 Y:ff P:e5 S:f9 pc: fb0d, reg_addr:    0, cycle:  25763
fb0d a9 75 60 LDA  IMM   A:37 X: 2 Y:ff P:e5 S:f9 pc: fb0f, reg_addr:   75, cycle:  25765
fb0f 60 70  9 RTS  IMPL  A:75 X: 2 Y:ff P:65 S:f9 pc: f697, reg_addr:    0, cycle:  25771
f697 73 45 ea RRA  INDY  A:75 X: 2 Y:ff P:65 S:fb pc: f699, reg_addr:  647, cycle:  25780
f699 ea ea  8 NOP  IMPL  A:11 X: 2 Y:ff P:25 S:fb pc: f69a, reg_addr:    0, cycle:  25782
f69a ea  8 48 NOP  IMPL  A:11 X: 2 Y:ff P:25 S:fb pc: f69b, reg_addr:    0, cycle:  25784
f69b  8 48 a0 PHP  IMPL  A:11 X: 2 Y:ff P:25 S:fb pc: f69c, reg_addr:    0, cycle:  25787
f69c 48 a0  c PHA  IMPL  A:11 X: 2 Y:ff P:25 S:fa pc: f69d, reg_addr:    0, cycle:  25790
f69d a0  c 68 LDY  IMM   A:11 X: 2 Y:ff P:25 S:f9 pc: f69f, reg_addr:    c, cycle:  25792
f69f 68 28 20 PLA  IMPL  A:11 X: 2 Y: c P:25 S:f9 pc: f6a0, reg_addr:    0, cycle:  25796
f6a0 28 20 10 PLP  IMPL  A:11 X: 2 Y: c P:25 S:fa pc: f6a1, reg_addr:    0, cycle:  25800
f6a1 20 10 fb JSR  ABS   A:11 X: 2 Y: c P:25 S:fb pc: fb10, reg_addr: fb10, cycle:  25806
fb10 70  9 30 BVS  REL   A:11 X: 2 Y: c P:25 S:f9 pc: fb12, reg_addr: fb1b, cycle:  25808
fb12 30  7 90 BMI  REL   A:11 X: 2 Y: c P:25 S:f9 pc: fb14, reg_addr: fb1b, cycle:  25810
fb14 90  5 c9 BCC  REL   A:11 X: 2 Y: c P:25 S:f9 pc: fb16, reg_addr: fb1b, cycle:  25812
fb16 c9 11 d0 CMP  IMM   A:11 X: 2 Y: c P:25 S:f9 pc: fb18, reg_addr:   11, cycle:  25814
fb18 d0  1 60 BNE  REL   A:11 X: 2 Y: c P:27 S:f9 pc: fb1a, reg_addr: fb1b, cycle:  25816
fb1a 60 85  0 RTS  IMPL  A:11 X: 2 Y: c P:27 S:f9 pc: f6a4, reg_addr:    0, cycle:  25822
f6a4 ad 47  6 LDA  ABS   A:11 X: 2 Y: c P:27 S:fb pc: f6a7, reg_addr:  647, cycle:  25826
f6a7 c9 9b f0 CMP  IMM   A:9b X: 2 Y: c P:a5 S:fb pc: f6a9, reg_addr:   9b, cycle:  25828
f6a9 f0  2 84 BEQ  REL   A:9b X: 2 Y: c P:27 S:fb pc: f6ad, reg_addr: f6ad, cycle:  25831
f6ad a0  d a2 LDY  IMM   A:9b X: 2 Y: c P:27 S:fb pc: f6af, reg_addr:    d, cycle:  25833
f6af a2 ff a9 LDX  IMM   A:9b X: 2 Y: d P:25 S:fb pc: f6b1, reg_addr:   ff, cycle:  25835
f6b1 a9 a5 85 LDA  IMM   A:9b X:ff Y: d P:a5 S:fb pc: f6b3, reg_addr:   a5, cycle:  25837
f6b3 85 47 20 STA  ZP    A:a5 X:ff Y: d P:a5 S:fb pc: f6b5, reg_addr:   47, cycle:  25840
f6b5 20 e9 fa JSR  ABS   A:a5 X:ff Y: d P:a5 S:fb pc: fae9, reg_addr: fae9, cycle:  25846
fae9 24  1 18 BIT  ZP    A:a5 X:ff Y: d P:a5 S:f9 pc: faeb, reg_addr:    1, cycle:  25849
faeb 18 a9 b2 CLC  IMPL  A:a5 X:ff Y: d P:e5 S:f9 pc: faec, reg_addr:    0, cycle:  25851
faec a9 b2 60 LDA  IMM   A:a5 X:ff Y: d P:e4 S:f9 pc: faee, reg_addr:   b2, cycle:  25853
faee 60 70 2a RTS  IMPL  A:b2 X:ff Y: d P:e4 S:f9 pc: f6b8, reg_addr:    0, cycle:  25859
f6b8 77 48 ea RRA  ZPX   A:b2 X:ff Y: d P:e4 S:fb pc: f6ba, reg_addr:   47, cycle:  25865
f6ba ea ea ea NOP  IMPL  A: 5 X:ff Y: d P:25 S:fb pc: f6bb, reg_addr:    0, cycle:  25867
f6bb ea ea ea NOP  IMPL  A: 5 X:ff Y: d P:25 S:fb pc: f6bc, reg_addr:    0, cycle:  25869
f6bc ea ea 20 NOP  IMPL  A: 5 X:ff Y: d P:25 S:fb pc: f6bd, reg_addr:    0, cycle:  25871
f6bd ea 20 ef NOP  IMPL  A: 5 X:ff Y: d P:25 S:fb pc: f6be, reg_addr:    0, cycle:  25873
f6be 20 ef fa JSR  ABS   A: 5 X:ff Y: d P:25 S:fb pc: faef, reg_addr: faef, cycle:  25879
faef 70 2a 90 BVS  REL   A: 5 X:ff Y: d P:25 S:f9 pc: faf1, reg_addr: fb1b, cycle:  25881
faf1 90 28 30 BCC  REL   A: 5 X:ff Y: d P:25 S:f9 pc: faf3, reg_addr: fb1b, cycle:  25883
faf3 30 26 c9 BMI  REL   A: 5 X:ff Y: d P:25 S:f9 pc: faf5, reg_addr: fb1b, cycle:  25885
faf5 c9  5 d0 CMP  IMM   A: 5 X:ff Y: d P:25 S:f9 pc: faf7, reg_addr:    5, cycle:  25887
faf7 d0 22 60 BNE  REL   A: 5 X:ff Y: d P:27 S:f9 pc: faf9, reg_addr: fb1b, cycle:  25889
faf9 60 b8 18 RTS  IMPL  A: 5 X:ff Y: d P:27 S:f9 pc: f6c1, reg_addr:    0, cycle:  25895
f6c1 a5 47 c9 LDA  ZP    A: 5 X:ff Y: d P:27 S:fb pc: f6c3, reg_addr:   47, cycle:  25898
f6c3 c9 52 f0 CMP  IMM   A:52 X:ff Y: d P:25 S:fb pc: f6c5, reg_addr:   52, cycle:  25900
f6c5 f0  2 84 BEQ  REL   A:52 X:ff Y: d P:27 S:fb pc: f6c9, reg_addr: f6c9, cycle:  25903
f6c9 c8 a9 29 INY  IMPL  A:52 X:ff Y: d P:27 S:fb pc: f6ca, reg_addr:    0, cycle:  25905
f6ca a9 29 85 LDA  IMM   A:52 X:ff Y: e P:25 S:fb pc: f6cc, reg_addr:   29, cycle:  25907
f6cc 85 47 20 STA  ZP    A:29 X:ff Y: e P:25 S:fb pc: f6ce, reg_addr:   47, cycle:  25910
f6ce 20 fa fa JSR  ABS   A:29 X:ff Y: e P:25 S:fb pc: fafa, reg_addr: fafa, cycle:  25916
fafa b8 18 a9 CLV  IMPL  A:29 X:ff Y: e P:25 S:f9 pc: fafb, reg_addr:    0, cycle:  25918
fafb 18 a9 42 CLC  IMPL  A:29 X:ff Y: e P:25 S:f9 pc: fafc, reg_addr:    0, cycle:  25920
fafc a9 42 60 LDA  IMM   A:29 X:ff Y: e P:24 S:f9 pc: fafe, reg_addr:   42, cycle:  25922
fafe 60 70 1a RTS  IMPL  A:42 X:ff Y: e P:24 S:f9 pc: f6d1, reg_addr:    0, cycle:  25928
f6d1 77 48 ea RRA  ZPX   A:42 X:ff Y: e P:24 S:fb pc: f6d3, reg_addr:   47, cycle:  25934
f6d3 ea ea ea NOP  IMPL  A:57 X:ff Y: e P:24 S:fb pc: f6d4, reg_addr:    0, cycle:  25936
f6d4 ea ea ea NOP  IMPL  A:57 X:ff Y: e P:24 S:fb pc: f6d5, reg_addr:    0, cycle:  25938
f6d5 ea ea 20 NOP  IMPL  A:57 X:ff Y: e P:24 S:fb pc: f6d6, reg_addr:    0, cycle:  25940
f6d6 ea 20 ff NOP  IMPL  A:57 X:ff Y: e P:24 S:fb pc: f6d7, reg_addr:    0, cycle:  25942
f6d7 20 ff fa JSR  ABS   A:57 X:ff Y: e P:24 S:fb pc: faff, reg_addr: faff, cycle:  25948
faff 70 1a 30 BVS  REL   A:57 X:ff Y: e P:24 S:f9 pc: fb01, reg_addr: fb1b, cycle:  25950
fb01 30 18 b0 BMI  REL   A:57 X:ff Y: e P:24 S:f9 pc: fb03, reg_addr: fb1b, cycle:  25952
fb03 b0 16 c9 BCS  REL   A:57 X:ff Y: e P:24 S:f9 pc: fb05, reg_addr: fb1b, cycle:  25954
fb05 c9 57 d0 CMP  IMM   A:57 X:ff Y: e P:24 S:f9 pc: fb07, reg_addr:   57, cycle:  25956
fb07 d0 12 60 BNE  REL   A:57 X:ff Y: e P:27 S:f9 pc: fb09, reg_addr: fb1b, cycle:  25958
fb09 60 24  1 RTS  IMPL  A:57 X:ff Y: e P:27 S:f9 pc: f6da, reg_addr:    0, cycle:  25964
f6da a5 47 c9 LDA  ZP    A:57 X:ff Y: e P:27 S:fb pc: f6dc, reg_addr:   47, cycle:  25967
f6dc c9 14 f0 CMP  IMM   A:14 X:ff Y: e P:25 S:fb pc: f6de, reg_addr:   14, cycle:  25969
f6de f0  2 84 BEQ  REL   A:14 X:ff Y: e P:27 S:fb pc: f6e2, reg_addr: f6e2, cycle:  25972
f6e2 c8 a9 37 INY  IMPL  A:14 X:ff Y: e P:27 S:fb pc: f6e3, reg_addr:    0, cycle:  25974
f6e3 a9 37 85 LDA  IMM   A:14 X:ff Y: f P:25 S:fb pc: f6e5, reg_addr:   37, cycle:  25976
f6e5 85 47 20 STA  ZP    A:37 X:ff Y: f P:25 S:fb pc: f6e7, reg_addr:   47, cycle:  25979
f6e7 20  a fb JSR  ABS   A:37 X:ff Y: f P:25 S:fb pc: fb0a, reg_addr: fb0a, cycle:  25985
fb0a 24  1 38 BIT  ZP    A:37 X:ff Y: f P:25 S:f9 pc: fb0c, reg_addr:    1, cycle:  25988
fb0c 38 a9 75 SEC  IMPL  A:37 X:ff Y: f P:e5 S:f9 pc: fb0d, reg_addr:    0, cycle:  25990
fb0d a9 75 60 LDA  IMM   A:37 X:ff Y: f P:e5 S:f9 pc: fb0f, reg_addr:   75, cycle:  25992
fb0f 60 70  9 RTS  IMPL  A:75 X:ff Y: f P:65 S:f9 pc: f6ea, reg_addr:    0, cycle:  25998
f6ea 77 48 ea RRA  ZPX   A:75 X:ff Y: f P:65 S:fb pc: f6ec, reg_addr:   47, cycle:  26004
f6ec ea ea ea NOP  IMPL  A:11 X:ff Y: f P:25 S:fb pc: f6ed, reg_addr:    0, cycle:  26006
f6ed ea ea ea NOP  IMPL  A:11 X:ff Y: f P:25 S:fb pc: f6ee, reg_addr:    0, cycle:  26008
f6ee ea ea 20 NOP  IMPL  A:11 X:ff Y: f P:25 S:fb pc: f6ef, reg_addr:    0, cycle:  26010
f6ef ea 20 10 NOP  IMPL  A:11 X:ff Y: f P:25 S:fb pc: f6f0, reg_addr:    0, cycle:  26012
f6f0 20 10 fb JSR  ABS   A:11 X:ff Y: f P:25 S:fb pc: fb10, reg_addr: fb10, cycle:  26018
fb10 70  9 30 BVS  REL   A:11 X:ff Y: f P:25 S:f9 pc: fb12, reg_addr: fb1b, cycle:  26020
fb12 30  7 90 BMI  REL   A:11 X:ff Y: f P:25 S:f9 pc: fb14, reg_addr: fb1b, cycle:  26022
fb14 90  5 c9 BCC  REL   A:11 X:ff Y: f P:25 S:f9 pc: fb16, reg_addr: fb1b, cycle:  26024
fb16 c9 11 d0 CMP  IMM   A:11 X:ff Y: f P:25 S:f9 pc: fb18, reg_addr:   11, cycle:  26026
fb18 d0  1 60 BNE  REL   A:11 X:ff Y: f P:27 S:f9 pc: fb1a, reg_addr: fb1b, cycle:  26028
fb1a 60 85  0 RTS  IMPL  A:11 X:ff Y: f P:27 S:f9 pc: f6f3, reg_addr:    0, cycle:  26034
f6f3 a5 47 c9 LDA  ZP    A:11 X:ff Y: f P:27 S:fb pc: f6f5, reg_addr:   47, cycle:  26037
f6f5 c9 9b f0 CMP  IMM   A:9b X:ff Y: f P:a5 S:fb pc: f6f7, reg_addr:   9b, cycle:  26039
f6f7 f0  2 84 BEQ  REL   A:9b X:ff Y: f P:27 S:fb pc: f6fb, reg_addr: f6fb, cycle:  26042
f6fb a9 a5 8d LDA  IMM   A:9b X:ff Y: f P:27 S:fb pc: f6fd, reg_addr:   a5, cycle:  26044
f6fd 8d 47  6 STA  ABS   A:a5 X:ff Y: f P:a5 S:fb pc: f700, reg_addr:  647, cycle:  26048
f700 a0 ff 20 LDY  IMM   A:a5 X:ff Y: f P:a5 S:fb pc: f702, reg_addr:   ff, cycle:  26050
f702 20 e9 fa JSR  ABS   A:a5 X:ff Y:ff P:a5 S:fb pc: fae9, reg_addr: fae9, cycle:  26056
fae9 24  1 18 BIT  ZP    A:a5 X:ff Y:ff P:a5 S:f9 pc: faeb, reg_addr:    1, cycle:  26059
faeb 18 a9 b2 CLC  IMPL  A:a5 X:ff Y:ff P:e5 S:f9 pc: faec, reg_addr:    0, cycle:  26061
faec a9 b2 60 LDA  IMM   A:a5 X:ff Y:ff P:e4 S:f9 pc: faee, reg_addr:   b2, cycle:  26063
faee 60 70 2a RTS  IMPL  A:b2 X:ff Y:ff P:e4 S:f9 pc: f705, reg_addr:    0, cycle:  26069
f705 7b 48  5 RRA  ABSY  A:b2 X:ff Y:ff P:e4 S:fb pc: f708, reg_addr:  647, cycle:  26077
f708 ea ea  8 NOP  IMPL  A: 5 X:ff Y:ff P:25 S:fb pc: f709, reg_addr:    0, cycle:  26079
f709 ea  8 48 NOP  IMPL  A: 5 X:ff Y:ff P:25 S:fb pc: f70a, reg_addr:    0, cycle:  26081
f70a  8 48 a0 PHP  IMPL  A: 5 X:ff Y:ff P:25 S:fb pc: f70b, reg_addr:    0, cycle:  26084
f70b 48 a0 10 PHA  IMPL  A: 5 X:ff Y:ff P:25 S:fa pc: f70c, reg_addr:    0, cycle:  26087
f70c a0 10 68 LDY  IMM   A: 5 X:ff Y:ff P:25 S:f9 pc: f70e, reg_addr:   10, cycle:  26089
f70e 68 28 20 PLA  IMPL  A: 5 X:ff Y:10 P:25 S:f9 pc: f70f, reg_addr:    0, cycle:  26093
f70f 28 20 ef PLP  IMPL  A: 5 X:ff Y:10 P:25 S:fa pc: f710, reg_addr:    0, cycle:  26097
f710 20 ef fa JSR  ABS   A: 5 X:ff Y:10 P:25 S:fb pc: faef, reg_addr: faef, cycle:  26103
faef 70 2a 90 BVS  REL   A: 5 X:ff Y:10 P:25 S:f9 pc: faf1, reg_addr: fb1b, cycle:  26105
faf1 90 28 30 BCC  REL   A: 5 X:ff Y:10 P:25 S:f9 pc: faf3, reg_addr: fb1b, cycle:  26107
faf3 30 26 c9 BMI  REL   A: 5 X:ff Y:10 P:25 S:f9 pc: faf5, reg_addr: fb1b, cycle:  26109
faf5 c9  5 d0 CMP  IMM   A: 5 X:ff Y:10 P:25 S:f9 pc: faf7, reg_addr:    5, cycle:  26111
faf7 d0 22 60 BNE  REL   A: 5 X:ff Y:10 P:27 S:f9 pc: faf9, reg_addr: fb1b, cycle:  26113
faf9 60 b8 18 RTS  IMPL  A: 5 X:ff Y:10 P:27 S:f9 pc: f713, reg_addr:    0, cycle:  26119
f713 ad 47  6 LDA  ABS   A: 5 X:ff Y:10 P:27 S:fb pc: f716, reg_addr:  647, cycle:  26123
f716 c9 52 f0 CMP  IMM   A:52 X:ff Y:10 P:25 S:fb pc: f718, reg_addr:   52, cycle:  26125
f718 f0  2 84 BEQ  REL   A:52 X:ff Y:10 P:27 S:fb pc: f71c, reg_addr: f71c, cycle:  26128
f71c a0 ff a9 LDY  IMM   A:52 X:ff Y:10 P:27 S:fb pc: f71e, reg_addr:   ff, cycle:  26130
f71e a9 29 8d LDA  IMM   A:52 X:ff Y:ff P:a5 S:fb pc: f720, reg_addr:   29, cycle:  26132
f720 8d 47  6 STA  ABS   A:29 X:ff Y:ff P:25 S:fb pc: f723, reg_addr:  647, cycle:  26136
f723 20 fa fa JSR  ABS   A:29 X:ff Y:ff P:25 S:fb pc: fafa, reg_addr: fafa, cycle:  26142
fafa b8 18 a9 CLV  IMPL  A:29 X:ff Y:ff P:25 S:f9 pc: fafb, reg_addr:    0, cycle:  26144
fafb 18 a9 42 CLC  IMPL  A:29 X:ff Y:ff P:25 S:f9 pc: fafc, reg_addr:    0, cycle:  26146
fafc a9 42 60 LDA  IMM   A:29 X:ff Y:ff P:24 S:f9 pc: fafe, reg_addr:   42, cycle:  26148
fafe 60 70 1a RTS  IMPL  A:42 X:ff Y:ff P:24 S:f9 pc: f726, reg_addr:    0, cycle:  26154
f726 7b 48  5 RRA  ABSY  A:42 X:ff Y:ff P:24 S:fb pc: f729, reg_addr:  647, cycle:  26162
f729 ea ea  8 NOP  IMPL  A:57 X:ff Y:ff P:24 S:fb pc: f72a, reg_addr:    0, cycle:  26164
f72a ea  8 48 NOP  IMPL  A:57 X:ff Y:ff P:24 S:fb pc: f72b, reg_addr:    0, cycle:  26166
f72b  8 48 a0 PHP  IMPL  A:57 X:ff Y:ff P:24 S:fb pc: f72c, reg_addr:    0, cycle:  26169
f72c 48 a0 11 PHA  IMPL  A:57 X:ff Y:ff P:24 S:fa pc: f72d, reg_addr:    0, cycle:  26172
f72d a0 11 68 LDY  IMM   A:57 X:ff Y:ff P:24 S:f9 pc: f72f, reg_addr:   11, cycle:  26174
f72f 68 28 20 PLA  IMPL  A:57 X:ff Y:11 P:24 S:f9 pc: f730, reg_addr:    0, cycle:  26178
f730 28 20 ff PLP  IMPL  A:57 X:ff Y:11 P:24 S:fa pc: f731, reg_addr:    0, cycle:  26182
f731 20 ff fa JSR  ABS   A:57 X:ff Y:11 P:24 S:fb pc: faff, reg_addr: faff, cycle:  26188
faff 70 1a 30 BVS  REL   A:57 X:ff Y:11 P:24 S:f9 pc: fb01, reg_addr: fb1b, cycle:  26190
fb01 30 18 b0 BMI  REL   A:57 X:ff Y:11 P:24 S:f9 pc: fb03, reg_addr: fb1b, cycle:  26192
fb03 b0 16 c9 BCS  REL   A:57 X:ff Y:11 P:24 S:f9 pc: fb05, reg_addr: fb1b, cycle:  26194
fb05 c9 57 d0 CMP  IMM   A:57 X:ff Y:11 P:24 S:f9 pc: fb07, reg_addr:   57, cycle:  26196
fb07 d0 12 60 BNE  REL   A:57 X:ff Y:11 P:27 S:f9 pc: fb09, reg_addr: fb1b, cycle:  26198
fb09 60 24  1 RTS  IMPL  A:57 X:ff Y:11 P:27 S:f9 pc: f734, reg_addr:    0, cycle:  26204
f734 ad 47  6 LDA  ABS   A:57 X:ff Y:11 P:27 S:fb pc: f737, reg_addr:  647, cycle:  26208
f737 c9 14 f0 CMP  IMM   A:14 X:ff Y:11 P:25 S:fb pc: f739, reg_addr:   14, cycle:  26210
f739 f0  2 84 BEQ  REL   A:14 X:ff Y:11 P:27 S:fb pc: f73d, reg_addr: f73d, cycle:  26213
f73d a0 ff a9 LDY  IMM   A:14 X:ff Y:11 P:27 S:fb pc: f73f, reg_addr:   ff, cycle:  26215
f73f a9 37 8d LDA  IMM   A:14 X:ff Y:ff P:a5 S:fb pc: f741, reg_addr:   37, cycle:  26217
f741 8d 47  6 STA  ABS   A:37 X:ff Y:ff P:25 S:fb pc: f744, reg_addr:  647, cycle:  26221
f744 20  a fb JSR  ABS   A:37 X:ff Y:ff P:25 S:fb pc: fb0a, reg_addr: fb0a, cycle:  26227
fb0a 24  1 38 BIT  ZP    A:37 X:ff Y:ff P:25 S:f9 pc: fb0c, reg_addr:    1, cycle:  26230
fb0c 38 a9 75 SEC  IMPL  A:37 X:ff Y:ff P:e5 S:f9 pc: fb0d, reg_addr:    0, cycle:  26232
fb0d a9 75 60 LDA  IMM   A:37 X:ff Y:ff P:e5 S:f9 pc: fb0f, reg_addr:   75, cycle:  26234
fb0f 60 70  9 RTS  IMPL  A:75 X:ff Y:ff P:65 S:f9 pc: f747, reg_addr:    0, cycle:  26240
f747 7b 48  5 RRA  ABSY  A:75 X:ff Y:ff P:65 S:fb pc: f74a, reg_addr:  647, cycle:  26248
f74a ea ea  8 NOP  IMPL  A:11 X:ff Y:ff P:25 S:fb pc: f74b, reg_addr:    0, cycle:  26250
f74b ea  8 48 NOP  IMPL  A:11 X:ff Y:ff P:25 S:fb pc: f74c, reg_addr:    0, cycle:  26252
f74c  8 48 a0 PHP  IMPL  A:11 X:ff Y:ff P:25 S:fb pc: f74d, reg_addr:    0, cycle:  26255
f74d 48 a0 12 PHA  IMPL  A:11 X:ff Y:ff P:25 S:fa pc: f74e, reg_addr:    0, cycle:  26258
f74e a0 12 68 LDY  IMM   A:11 X:ff Y:ff P:25 S:f9 pc: f750, reg_addr:   12, cycle:  26260
f750 68 28 20 PLA  IMPL  A:11 X:ff Y:12 P:25 S:f9 pc: f751, reg_addr:    0, cycle:  26264
f751 28 20 10 PLP  IMPL  A:11 X:ff Y:12 P:25 S:fa pc: f752, reg_addr:    0, cycle:  26268
f752 20 10 fb JSR  ABS   A:11 X:ff Y:12 P:25 S:fb pc: fb10, reg_addr: fb10, cycle:  26274
fb10 70  9 30 BVS  REL   A:11 X:ff Y:12 P:25 S:f9 pc: fb12, reg_addr: fb1b, cycle:  26276
fb12 30  7 90 BMI  REL   A:11 X:ff Y:12 P:25 S:f9 pc: fb14, reg_addr: fb1b, cycle:  26278
fb14 90  5 c9 BCC  REL   A:11 X:ff Y:12 P:25 S:f9 pc: fb16, reg_addr: fb1b, cycle:  26280
fb16 c9 11 d0 CMP  IMM   A:11 X:ff Y:12 P:25 S:f9 pc: fb18, reg_addr:   11, cycle:  26282
fb18 d0  1 60 BNE  REL   A:11 X:ff Y:12 P:27 S:f9 pc: fb1a, reg_addr: fb1b, cycle:  26284
fb1a 60 85  0 RTS  IMPL  A:11 X:ff Y:12 P:27 S:f9 pc: f755, reg_addr:    0, cycle:  26290
f755 ad 47  6 LDA  ABS   A:11 X:ff Y:12 P:27 S:fb pc: f758, reg_addr:  647, cycle:  26294
f758 c9 9b f0 CMP  IMM   A:9b X:ff Y:12 P:a5 S:fb pc: f75a, reg_addr:   9b, cycle:  26296
f75a f0  2 84 BEQ  REL   A:9b X:ff Y:12 P:27 S:fb pc: f75e, reg_addr: f75e, cycle:  26299
f75e a0 13 a2 LDY  IMM   A:9b X:ff Y:12 P:27 S:fb pc: f760, reg_addr:   13, cycle:  26301
f760 a2 ff a9 LDX  IMM   A:9b X:ff Y:13 P:25 S:fb pc: f762, reg_addr:   ff, cycle:  26303
f762 a9 a5 8d LDA  IMM   A:9b X:ff Y:13 P:a5 S:fb pc: f764, reg_addr:   a5, cycle:  26305
f764 8d 47  6 STA  ABS   A:a5 X:ff Y:13 P:a5 S:fb pc: f767, reg_addr:  647, cycle:  26309
f767 20 e9 fa JSR  ABS   A:a5 X:ff Y:13 P:a5 S:fb pc: fae9, reg_addr: fae9, cycle:  26315
fae9 24  1 18 BIT  ZP    A:a5 X:ff Y:13 P:a5 S:f9 pc: faeb, reg_addr:    1, cycle:  26318
faeb 18 a9 b2 CLC  IMPL  A:a5 X:ff Y:13 P:e5 S:f9 pc: faec, reg_addr:    0, cycle:  26320
faec a9 b2 60 LDA  IMM   A:a5 X:ff Y:13 P:e4 S:f9 pc: faee, reg_addr:   b2, cycle:  26322
faee 60 70 2a RTS  IMPL  A:b2 X:ff Y:13 P:e4 S:f9 pc: f76a, reg_addr:    0, cycle:  26328
f76a 7f 48  5 RRA  ABSX  A:b2 X:ff Y:13 P:e4 S:fb pc: f76d, reg_addr:  647, cycle:  26336
f76d ea ea ea NOP  IMPL  A: 5 X:ff Y:13 P:25 S:fb pc: f76e, reg_addr:    0, cycle:  26338
f76e ea ea ea NOP  IMPL  A: 5 X:ff Y:13 P:25 S:fb pc: f76f, reg_addr:    0, cycle:  26340
f76f ea ea 20 NOP  IMPL  A: 5 X:ff Y:13 P:25 S:fb pc: f770, reg_addr:    0, cycle:  26342
f770 ea 20 ef NOP  IMPL  A: 5 X:ff Y:13 P:25 S:fb pc: f771, reg_addr:    0, cycle:  26344
f771 20 ef fa JSR  ABS   A: 5 X:ff Y:13 P:25 S:fb pc: faef, reg_addr: faef, cycle:  26350
faef 70 2a 90 BVS  REL   A: 5 X:ff Y:13 P:25 S:f9 pc: faf1, reg_addr: fb1b, cycle:  26352
faf1 90 28 30 BCC  REL   A: 5 X:ff Y:13 P:25 S:f9 pc: faf3, reg_addr: fb1b, cycle:  26354
faf3 30 26 c9 BMI  REL   A: 5 X:ff Y:13 P:25 S:f9 pc: faf5, reg_addr: fb1b, cycle:  26356
faf5 c9  5 d0 CMP  IMM   A: 5 X:ff Y:13 P:25 S:f9 pc: faf7, reg_addr:    5, cycle:  26358
faf7 d0 22 60 BNE  REL   A: 5 X:ff Y:13 P:27 S:f9 pc: faf9, reg_addr: fb1b, cycle:  26360
faf9 60 b8 18 RTS  IMPL  A: 5 X:ff Y:13 P:27 S:f9 pc: f774, reg_addr:    0, cycle:  26366
f774 ad 47  6 LDA  ABS   A: 5 X:ff Y:13 P:27 S:fb pc: f777, reg_addr:  647, cycle:  26370
f777 c9 52 f0 CMP  IMM   A:52 X:ff Y:13 P:25 S:fb pc: f779, reg_addr:   52, cycle:  26372
f779 f0  2 84 BEQ  REL   A:52 X:ff Y:13 P:27 S:fb pc: f77d, reg_addr: f77d, cycle:  26375
f77d c8 a9 29 INY  IMPL  A:52 X:ff Y:13 P:27 S:fb pc: f77e, reg_addr:    0, cycle:  26377
f77e a9 29 8d LDA  IMM   A:52 X:ff Y:14 P:25 S:fb pc: f780, reg_addr:   29, cycle:  26379
f780 8d 47  6 STA  ABS   A:29 X:ff Y:14 P:25 S:fb pc: f783, reg_addr:  647, cycle:  26383
f783 20 fa fa JSR  ABS   A:29 X:ff Y:14 P:25 S:fb pc: fafa, reg_addr: fafa, cycle:  26389
fafa b8 18 a9 CLV  IMPL  A:29 X:ff Y:14 P:25 S:f9 pc: fafb, reg_addr:    0, cycle:  26391
fafb 18 a9 42 CLC  IMPL  A:29 X:ff Y:14 P:25 S:f9 pc: fafc, reg_addr:    0, cycle:  26393
fafc a9 42 60 LDA  IMM   A:29 X:ff Y:14 P:24 S:f9 pc: fafe, reg_addr:   42, cycle:  26395
fafe 60 70 1a RTS  IMPL  A:42 X:ff Y:14 P:24 S:f9 pc: f786, reg_addr:    0, cycle:  26401
f786 7f 48  5 RRA  ABSX  A:42 X:ff Y:14 P:24 S:fb pc: f789, reg_addr:  647, cycle:  26409
f789 ea ea ea NOP  IMPL  A:57 X:ff Y:14 P:24 S:fb pc: f78a, reg_addr:    0, cycle:  26411
f78a ea ea ea NOP  IMPL  A:57 X:ff Y:14 P:24 S:fb pc: f78b, reg_addr:    0, cycle:  26413
f78b ea ea 20 NOP  IMPL  A:57 X:ff Y:14 P:24 S:fb pc: f78c, reg_addr:    0, cycle:  26415
f78c ea 20 ff NOP  IMPL  A:57 X:ff Y:14 P:24 S:fb pc: f78d, reg_addr:    0, cycle:  26417
f78d 20 ff fa JSR  ABS   A:57 X:ff Y:14 P:24 S:fb pc: faff, reg_addr: faff, cycle:  26423
faff 70 1a 30 BVS  REL   A:57 X:ff Y:14 P:24 S:f9 pc: fb01, reg_addr: fb1b, cycle:  26425
fb01 30 18 b0 BMI  REL   A:57 X:ff Y:14 P:24 S:f9 pc: fb03, reg_addr: fb1b, cycle:  26427
fb03 b0 16 c9 BCS  REL   A:57 X:ff Y:14 P:24 S:f9 pc: fb05, reg_addr: fb1b, cycle:  26429
fb05 c9 57 d0 CMP  IMM   A:57 X:ff Y:14 P:24 S:f9 pc: fb07, reg_addr:   57, cycle:  26431
fb07 d0 12 60 BNE  REL   A:57 X:ff Y:14 P:27 S:f9 pc: fb09, reg_addr: fb1b, cycle:  26433
fb09 60 24  1 RTS  IMPL  A:57 X:ff Y:14 P:27 S:f9 pc: f790, reg_addr:    0, cycle:  26439
f790 ad 47  6 LDA  ABS   A:57 X:ff Y:14 P:27 S:fb pc: f793, reg_addr:  647, cycle:  26443
f793 c9 14 f0 CMP  IMM   A:14 X:ff Y:14 P:25 S:fb pc: f795, reg_addr:   14, cycle:  26445
f795 f0  2 84 BEQ  REL   A:14 X:ff Y:14 P:27 S:fb pc: f799, reg_addr: f799, cycle:  26448
f799 c8 a9 37 INY  IMPL  A:14 X:ff Y:14 P:27 S:fb pc: f79a, reg_addr:    0, cycle:  26450
f79a a9 37 8d LDA  IMM   A:14 X:ff Y:15 P:25 S:fb pc: f79c, reg_addr:   37, cycle:  26452
f79c 8d 47  6 STA  ABS   A:37 X:ff Y:15 P:25 S:fb pc: f79f, reg_addr:  647, cycle:  26456
f79f 20  a fb JSR  ABS   A:37 X:ff Y:15 P:25 S:fb pc: fb0a, reg_addr: fb0a, cycle:  26462
fb0a 24  1 38 BIT  ZP    A:37 X:ff Y:15 P:25 S:f9 pc: fb0c, reg_addr:    1, cycle:  26465
fb0c 38 a9 75 SEC  IMPL  A:37 X:ff Y:15 P:e5 S:f9 pc: fb0d, reg_addr:    0, cycle:  26467
fb0d a9 75 60 LDA  IMM   A:37 X:ff Y:15 P:e5 S:f9 pc: fb0f, reg_addr:   75, cycle:  26469
fb0f 60 70  9 RTS  IMPL  A:75 X:ff Y:15 P:65 S:f9 pc: f7a2, reg_addr:    0, cycle:  26475
f7a2 7f 48  5 RRA  ABSX  A:75 X:ff Y:15 P:65 S:fb pc: f7a5, reg_addr:  647, cycle:  26483
f7a5 ea ea ea NOP  IMPL  A:11 X:ff Y:15 P:25 S:fb pc: f7a6, reg_addr:    0, cycle:  26485
f7a6 ea ea ea NOP  IMPL  A:11 X:ff Y:15 P:25 S:fb pc: f7a7, reg_addr:    0, cycle:  26487
f7a7 ea ea 20 NOP  IMPL  A:11 X:ff Y:15 P:25 S:fb pc: f7a8, reg_addr:    0, cycle:  26489
f7a8 ea 20 10 NOP  IMPL  A:11 X:ff Y:15 P:25 S:fb pc: f7a9, reg_addr:    0, cycle:  26491
f7a9 20 10 fb JSR  ABS   A:11 X:ff Y:15 P:25 S:fb pc: fb10, reg_addr: fb10, cycle:  26497
fb10 70  9 30 BVS  REL   A:11 X:ff Y:15 P:25 S:f9 pc: fb12, reg_addr: fb1b, cycle:  26499
fb12 30  7 90 BMI  REL   A:11 X:ff Y:15 P:25 S:f9 pc: fb14, reg_addr: fb1b, cycle:  26501
fb14 90  5 c9 BCC  REL   A:11 X:ff Y:15 P:25 S:f9 pc: fb16, reg_addr: fb1b, cycle:  26503
fb16 c9 11 d0 CMP  IMM   A:11 X:ff Y:15 P:25 S:f9 pc: fb18, reg_addr:   11, cycle:  26505
fb18 d0  1 60 BNE  REL   A:11 X:ff Y:15 P:27 S:f9 pc: fb1a, reg_addr: fb1b, cycle:  26507
fb1a 60 85  0 RTS  IMPL  A:11 X:ff Y:15 P:27 S:f9 pc: f7ac, reg_addr:    0, cycle:  26513
f7ac ad 47  6 LDA  ABS   A:11 X:ff Y:15 P:27 S:fb pc: f7af, reg_addr:  647, cycle:  26517
f7af c9 9b f0 CMP  IMM   A:9b X:ff Y:15 P:a5 S:fb pc: f7b1, reg_addr:   9b, cycle:  26519
f7b1 f0  2 84 BEQ  REL   A:9b X:ff Y:15 P:27 S:fb pc: f7b5, reg_addr: f7b5, cycle:  26522
f7b5 60 18 a9 RTS  IMPL  A:9b X:ff Y:15 P:27 S:fb pc: c655, reg_addr:    0, cycle:  26528
c655 a5  0  5 LDA  ZP    A:9b X:ff Y:15 P:27 S:fd pc: c657, reg_addr:    0, cycle:  26531
c657  5 10  5 ORA  ZP    A: 0 X:ff Y:15 P:27 S:fd pc: c659, reg_addr:   10, cycle:  26534
c659  5 11 f0 ORA  ZP    A: 0 X:ff Y:15 P:27 S:fd pc: c65b, reg_addr:   11, cycle:  26537
c65b f0  e 20 BEQ  REL   A: 0 X:ff Y:15 P:27 S:fd pc: c66b, reg_addr: c66b, cycle:  26540
c66b 20 89 c6 JSR  ABS   A: 0 X:ff Y:15 P:27 S:fd pc: c689, reg_addr: c689, cycle:  26546
c689 a9  2 8d LDA  IMM   A: 0 X:ff Y:15 P:27 S:fb pc: c68b, reg_addr:    2, cycle:  26548
c68b 8d 15 40 STA  ABS   A: 2 X:ff Y:15 P:25 S:fb pc: c68e, reg_addr: 4015, cycle:  26552
c68e a9 3f 8d LDA  IMM   A: 2 X:ff Y:15 P:25 S:fb pc: c690, reg_addr:   3f, cycle:  26554
c690 8d  4 40 STA  ABS   A:3f X:ff Y:15 P:25 S:fb pc: c693, reg_addr: 4004, cycle:  26558
c693 a9 9a 8d LDA  IMM   A:3f X:ff Y:15 P:25 S:fb pc: c695, reg_addr:   9a, cycle:  26560
c695 8d  5 40 STA  ABS   A:9a X:ff Y:15 P:a5 S:fb pc: c698, reg_addr: 4005, cycle:  26564
c698 a9 ff 8d LDA  IMM   A:9a X:ff Y:15 P:a5 S:fb pc: c69a, reg_addr:   ff, cycle:  26566
c69a 8d  6 40 STA  ABS   A:ff X:ff Y:15 P:a5 S:fb pc: c69d, reg_addr: 4006, cycle:  26570
c69d a9  0 8d LDA  IMM   A:ff X:ff Y:15 P:a5 S:fb pc: c69f, reg_addr:    0, cycle:  26572
c69f 8d  7 40 STA  ABS   A: 0 X:ff Y:15 P:27 S:fb pc: c6a2, reg_addr: 4007, cycle:  26576
c6a2 60 a0 4e RTS  IMPL  A: 0 X:ff Y:15 P:27 S:fb pc: c66e, reg_addr:    0, cycle:  26582
c66e 60 a9  3 RTS  IMPL  A: 0 X:ff Y:15 P:27 S:fd pc:    1, reg_addr:    0, cycle:  26588
   1 ff  0  0 ISB  ABSX  A: 0 X:ff Y:15 P:27 S:ff pc:    4, reg_addr:   ff, cycle:  26595
   4  0 99  0 BRK  IMPL  A:b9 X:ff Y:15 P:a4 S:ff pc: c5f4, reg_addr:    0, cycle:  26602
c5f4 40 a2  0 RTI  IMPL  A:b9 X:ff Y:15 P:b4 S:fc pc:    6, reg_addr:    0, cycle:  26608
   6  0  0  0 BRK  IMPL  A:b9 X:ff Y:15 P:b4 S:ff
