c000 4c f5 c5 JMP  ABS   A:00 X:00 Y:00 P:24 S:fd pc: c5f5, reg_addr: c5f5
c5f5 a2 00 86 LDX  IMM   A:00 X:00 Y:00 P:24 S:fd pc: c5f7, reg_addr: 0000
c5f7 86 00 86 STX  ZP    A:00 X:00 Y:00 P:26 S:fd pc: c5f9, reg_addr: 0000
c5f9 86 10 86 STX  ZP    A:00 X:00 Y:00 P:26 S:fd pc: c5fb, reg_addr: 0010
c5fb 86 11 20 STX  ZP    A:00 X:00 Y:00 P:26 S:fd pc: c5fd, reg_addr: 0011
c5fd 20 2d c7 JSR  ABS   A:00 X:00 Y:00 P:26 S:fd pc: c72d, reg_addr: c72d
c72d ea 38 b0 NOP  IMPL  A:00 X:00 Y:00 P:26 S:fb pc: c72e, reg_addr: 0000
c72e 38 b0 04 SEC  IMPL  A:00 X:00 Y:00 P:26 S:fb pc: c72f, reg_addr: 0000
c72f b0 04 a2 BCS  REL   A:00 X:00 Y:00 P:27 S:fb pc: c735, reg_addr: c735
c735 ea 18 b0 NOP  IMPL  A:00 X:00 Y:00 P:27 S:fb pc: c736, reg_addr: 0000
c736 18 b0 03 CLC  IMPL  A:00 X:00 Y:00 P:27 S:fb pc: c737, reg_addr: 0000
c737 b0 03 4c BCS  REL   A:00 X:00 Y:00 P:26 S:fb pc: c739, reg_addr: c73c
c739 4c 40 c7 JMP  ABS   A:00 X:00 Y:00 P:26 S:fb pc: c740, reg_addr: c740
c740 ea 38 90 NOP  IMPL  A:00 X:00 Y:00 P:26 S:fb pc: c741, reg_addr: 0000
c741 38 90 03 SEC  IMPL  A:00 X:00 Y:00 P:26 S:fb pc: c742, reg_addr: 0000
c742 90 03 4c BCC  REL   A:00 X:00 Y:00 P:27 S:fb pc: c744, reg_addr: c747
c744 4c 4b c7 JMP  ABS   A:00 X:00 Y:00 P:27 S:fb pc: c74b, reg_addr: c74b
c74b ea 18 90 NOP  IMPL  A:00 X:00 Y:00 P:27 S:fb pc: c74c, reg_addr: 0000
c74c 18 90 04 CLC  IMPL  A:00 X:00 Y:00 P:27 S:fb pc: c74d, reg_addr: 0000
c74d 90 04 a2 BCC  REL   A:00 X:00 Y:00 P:26 S:fb pc: c753, reg_addr: c753
c753 ea a9 00 NOP  IMPL  A:00 X:00 Y:00 P:26 S:fb pc: c754, reg_addr: 0000
c754 a9 00 f0 LDA  IMM   A:00 X:00 Y:00 P:26 S:fb pc: c756, reg_addr: 0000
c756 f0 04 a2 BEQ  REL   A:00 X:00 Y:00 P:26 S:fb pc: c75c, reg_addr: c75c
c75c ea a9 40 NOP  IMPL  A:00 X:00 Y:00 P:26 S:fb pc: c75d, reg_addr: 0000
c75d a9 40 f0 LDA  IMM   A:00 X:00 Y:00 P:26 S:fb pc: c75f, reg_addr: 0040
c75f f0 03 4c BEQ  REL   A:40 X:00 Y:00 P:24 S:fb pc: c761, reg_addr: c764
c761 4c 68 c7 JMP  ABS   A:40 X:00 Y:00 P:24 S:fb pc: c768, reg_addr: c768
c768 ea a9 40 NOP  IMPL  A:40 X:00 Y:00 P:24 S:fb pc: c769, reg_addr: 0000
c769 a9 40 d0 LDA  IMM   A:40 X:00 Y:00 P:24 S:fb pc: c76b, reg_addr: 0040
c76b d0 04 a2 BNE  REL   A:40 X:00 Y:00 P:24 S:fb pc: c771, reg_addr: c771
c771 ea a9 00 NOP  IMPL  A:40 X:00 Y:00 P:24 S:fb pc: c772, reg_addr: 0000
c772 a9 00 d0 LDA  IMM   A:40 X:00 Y:00 P:24 S:fb pc: c774, reg_addr: 0000
c774 d0 03 4c BNE  REL   A:00 X:00 Y:00 P:26 S:fb pc: c776, reg_addr: c779
c776 4c 7d c7 JMP  ABS   A:00 X:00 Y:00 P:26 S:fb pc: c77d, reg_addr: c77d
c77d ea a9 ff NOP  IMPL  A:00 X:00 Y:00 P:26 S:fb pc: c77e, reg_addr: 0000
c77e a9 ff 85 LDA  IMM   A:00 X:00 Y:00 P:26 S:fb pc: c780, reg_addr: 00ff
c780 85 01 24 STA  ZP    A:ff X:00 Y:00 P:a4 S:fb pc: c782, reg_addr: 0001
c782 24 01 70 BIT  ZP    A:ff X:00 Y:00 P:a4 S:fb pc: c784, reg_addr: 0001
c784 70 04 a2 BVS  REL   A:ff X:00 Y:00 P:e4 S:fb pc: c78a, reg_addr: c78a
c78a ea 24 01 NOP  IMPL  A:ff X:00 Y:00 P:e4 S:fb pc: c78b, reg_addr: 0000
c78b 24 01 50 BIT  ZP    A:ff X:00 Y:00 P:e4 S:fb pc: c78d, reg_addr: 0001
c78d 50 03 4c BVC  REL   A:ff X:00 Y:00 P:e4 S:fb pc: c78f, reg_addr: c792
c78f 4c 96 c7 JMP  ABS   A:ff X:00 Y:00 P:e4 S:fb pc: c796, reg_addr: c796
c796 ea a9 00 NOP  IMPL  A:ff X:00 Y:00 P:e4 S:fb pc: c797, reg_addr: 0000
c797 a9 00 85 LDA  IMM   A:ff X:00 Y:00 P:e4 S:fb pc: c799, reg_addr: 0000
c799 85 01 24 STA  ZP    A:00 X:00 Y:00 P:66 S:fb pc: c79b, reg_addr: 0001
c79b 24 01 50 BIT  ZP    A:00 X:00 Y:00 P:66 S:fb pc: c79d, reg_addr: 0001
c79d 50 04 a2 BVC  REL   A:00 X:00 Y:00 P:26 S:fb pc: c7a3, reg_addr: c7a3
c7a3 ea 24 01 NOP  IMPL  A:00 X:00 Y:00 P:26 S:fb pc: c7a4, reg_addr: 0000
c7a4 24 01 70 BIT  ZP    A:00 X:00 Y:00 P:26 S:fb pc: c7a6, reg_addr: 0001
c7a6 70 03 4c BVS  REL   A:00 X:00 Y:00 P:26 S:fb pc: c7a8, reg_addr: c7ab
c7a8 4c af c7 JMP  ABS   A:00 X:00 Y:00 P:26 S:fb pc: c7af, reg_addr: c7af
c7af ea a9 00 NOP  IMPL  A:00 X:00 Y:00 P:26 S:fb pc: c7b0, reg_addr: 0000
c7b0 a9 00 10 LDA  IMM   A:00 X:00 Y:00 P:26 S:fb pc: c7b2, reg_addr: 0000
c7b2 10 04 a2 BPL  REL   A:00 X:00 Y:00 P:26 S:fb pc: c7b8, reg_addr: c7b8
c7b8 ea a9 80 NOP  IMPL  A:00 X:00 Y:00 P:26 S:fb pc: c7b9, reg_addr: 0000
c7b9 a9 80 10 LDA  IMM   A:00 X:00 Y:00 P:26 S:fb pc: c7bb, reg_addr: 0080
c7bb 10 03 4c BPL  REL   A:80 X:00 Y:00 P:a4 S:fb pc: c7bd, reg_addr: c7c0
c7bd 4c d9 c7 JMP  ABS   A:80 X:00 Y:00 P:a4 S:fb pc: c7d9, reg_addr: c7d9
c7d9 ea 60 ea NOP  IMPL  A:80 X:00 Y:00 P:a4 S:fb pc: c7da, reg_addr: 0000
c7da 60 ea a9 RTS  IMPL  A:80 X:00 Y:00 P:a4 S:fb pc: c600, reg_addr: 0000
c600 20 db c7 JSR  ABS   A:80 X:00 Y:00 P:a4 S:fd pc: c7db, reg_addr: c7db
c7db ea a9 ff NOP  IMPL  A:80 X:00 Y:00 P:a4 S:fb pc: c7dc, reg_addr: 0000
c7dc a9 ff 85 LDA  IMM   A:80 X:00 Y:00 P:a4 S:fb pc: c7de, reg_addr: 00ff
c7de 85 01 24 STA  ZP    A:ff X:00 Y:00 P:a4 S:fb pc: c7e0, reg_addr: 0001
c7e0 24 01 a9 BIT  ZP    A:ff X:00 Y:00 P:a4 S:fb pc: c7e2, reg_addr: 0001
c7e2 a9 00 38 LDA  IMM   A:ff X:00 Y:00 P:e4 S:fb pc: c7e4, reg_addr: 0000
c7e4 38 78 f8 SEC  IMPL  A:00 X:00 Y:00 P:66 S:fb pc: c7e5, reg_addr: 0000
c7e5 78 f8 08 SEI  IMPL  A:00 X:00 Y:00 P:67 S:fb pc: c7e6, reg_addr: 0000
c7e6 f8 08 68 SED  IMPL  A:00 X:00 Y:00 P:67 S:fb pc: c7e7, reg_addr: 0000
c7e7 08 68 29 PHP  IMPL  A:00 X:00 Y:00 P:6f S:fb pc: c7e8, reg_addr: 0000
c7e8 68 29 ef PLA  IMPL  A:00 X:00 Y:00 P:6f S:fa pc: c7e9, reg_addr: 0000
c7e9 29 ef c9 AND  IMM   A:6f X:00 Y:00 P:6d S:fb pc: c7eb, reg_addr: 00ef
c7eb c9 6f f0 CMP  IMM   A:6f X:00 Y:00 P:6d S:fb pc: c7ed, reg_addr: 006f
c7ed f0 04 a2 BEQ  REL   A:6f X:00 Y:00 P:6f S:fb pc: c7f3, reg_addr: c7f3
c7f3 ea a9 40 NOP  IMPL  A:6f X:00 Y:00 P:6f S:fb pc: c7f4, reg_addr: 0000
c7f4 a9 40 85 LDA  IMM   A:6f X:00 Y:00 P:6f S:fb pc: c7f6, reg_addr: 0040
c7f6 85 01 24 STA  ZP    A:40 X:00 Y:00 P:6d S:fb pc: c7f8, reg_addr: 0001
c7f8 24 01 d8 BIT  ZP    A:40 X:00 Y:00 P:6d S:fb pc: c7fa, reg_addr: 0001
c7fa d8 a9 10 CLD  IMPL  A:40 X:00 Y:00 P:6d S:fb pc: c7fb, reg_addr: 0000
c7fb a9 10 18 LDA  IMM   A:40 X:00 Y:00 P:65 S:fb pc: c7fd, reg_addr: 0010
c7fd 18 08 68 CLC  IMPL  A:10 X:00 Y:00 P:65 S:fb pc: c7fe, reg_addr: 0000
c7fe 08 68 29 PHP  IMPL  A:10 X:00 Y:00 P:64 S:fb pc: c7ff, reg_addr: 0000
c7ff 68 29 ef PLA  IMPL  A:10 X:00 Y:00 P:64 S:fa pc: c800, reg_addr: 0000
c800 29 ef c9 AND  IMM   A:64 X:00 Y:00 P:64 S:fb pc: c802, reg_addr: 00ef
c802 c9 64 f0 CMP  IMM   A:64 X:00 Y:00 P:64 S:fb pc: c804, reg_addr: 0064
c804 f0 04 a2 BEQ  REL   A:64 X:00 Y:00 P:67 S:fb pc: c80a, reg_addr: c80a
c80a ea a9 80 NOP  IMPL  A:64 X:00 Y:00 P:67 S:fb pc: c80b, reg_addr: 0000
c80b a9 80 85 LDA  IMM   A:64 X:00 Y:00 P:67 S:fb pc: c80d, reg_addr: 0080
c80d 85 01 24 STA  ZP    A:80 X:00 Y:00 P:e5 S:fb pc: c80f, reg_addr: 0001
c80f 24 01 f8 BIT  ZP    A:80 X:00 Y:00 P:e5 S:fb pc: c811, reg_addr: 0001
c811 f8 a9 00 SED  IMPL  A:80 X:00 Y:00 P:a5 S:fb pc: c812, reg_addr: 0000
c812 a9 00 38 LDA  IMM   A:80 X:00 Y:00 P:ad S:fb pc: c814, reg_addr: 0000
c814 38 08 68 SEC  IMPL  A:00 X:00 Y:00 P:2f S:fb pc: c815, reg_addr: 0000
c815 08 68 29 PHP  IMPL  A:00 X:00 Y:00 P:2f S:fb pc: c816, reg_addr: 0000
c816 68 29 ef PLA  IMPL  A:00 X:00 Y:00 P:2f S:fa pc: c817, reg_addr: 0000
c817 29 ef c9 AND  IMM   A:2f X:00 Y:00 P:2d S:fb pc: c819, reg_addr: 00ef
c819 c9 2f f0 CMP  IMM   A:2f X:00 Y:00 P:2d S:fb pc: c81b, reg_addr: 002f
c81b f0 04 a2 BEQ  REL   A:2f X:00 Y:00 P:2f S:fb pc: c821, reg_addr: c821
c821 ea a9 ff NOP  IMPL  A:2f X:00 Y:00 P:2f S:fb pc: c822, reg_addr: 0000
c822 a9 ff 48 LDA  IMM   A:2f X:00 Y:00 P:2f S:fb pc: c824, reg_addr: 00ff
c824 48 28 d0 PHA  IMPL  A:ff X:00 Y:00 P:ad S:fb pc: c825, reg_addr: 0000
c825 28 d0 09 PLP  IMPL  A:ff X:00 Y:00 P:ad S:fa pc: c826, reg_addr: 0000
c826 d0 09 10 BNE  REL   A:ff X:00 Y:00 P:ff S:fb pc: c828, reg_addr: c831
c828 10 07 50 BPL  REL   A:ff X:00 Y:00 P:ff S:fb pc: c82a, reg_addr: c831
c82a 50 05 90 BVC  REL   A:ff X:00 Y:00 P:ff S:fb pc: c82c, reg_addr: c831
c82c 90 03 4c BCC  REL   A:ff X:00 Y:00 P:ff S:fb pc: c82e, reg_addr: c831
c82e 4c 35 c8 JMP  ABS   A:ff X:00 Y:00 P:ff S:fb pc: c835, reg_addr: c835
c835 ea a9 04 NOP  IMPL  A:ff X:00 Y:00 P:ff S:fb pc: c836, reg_addr: 0000
c836 a9 04 48 LDA  IMM   A:ff X:00 Y:00 P:ff S:fb pc: c838, reg_addr: 0004
c838 48 28 f0 PHA  IMPL  A:04 X:00 Y:00 P:7d S:fb pc: c839, reg_addr: 0000
c839 28 f0 09 PLP  IMPL  A:04 X:00 Y:00 P:7d S:fa pc: c83a, reg_addr: 0000
c83a f0 09 30 BEQ  REL   A:04 X:00 Y:00 P:04 S:fb pc: c83c, reg_addr: c845
c83c 30 07 70 BMI  REL   A:04 X:00 Y:00 P:04 S:fb pc: c83e, reg_addr: c845
c83e 70 05 b0 BVS  REL   A:04 X:00 Y:00 P:04 S:fb pc: c840, reg_addr: c845
c840 b0 03 4c BCS  REL   A:04 X:00 Y:00 P:04 S:fb pc: c842, reg_addr: c845
c842 4c 49 c8 JMP  ABS   A:04 X:00 Y:00 P:04 S:fb pc: c849, reg_addr: c849
c849 ea f8 a9 NOP  IMPL  A:04 X:00 Y:00 P:04 S:fb pc: c84a, reg_addr: 0000
c84a f8 a9 ff SED  IMPL  A:04 X:00 Y:00 P:04 S:fb pc: c84b, reg_addr: 0000
c84b a9 ff 85 LDA  IMM   A:04 X:00 Y:00 P:0c S:fb pc: c84d, reg_addr: 00ff
c84d 85 01 24 STA  ZP    A:ff X:00 Y:00 P:8c S:fb pc: c84f, reg_addr: 0001
c84f 24 01 18 BIT  ZP    A:ff X:00 Y:00 P:8c S:fb pc: c851, reg_addr: 0001
c851 18 a9 00 CLC  IMPL  A:ff X:00 Y:00 P:cc S:fb pc: c852, reg_addr: 0000
c852 a9 00 48 LDA  IMM   A:ff X:00 Y:00 P:cc S:fb pc: c854, reg_addr: 0000
c854 48 a9 ff PHA  IMPL  A:00 X:00 Y:00 P:4e S:fb pc: c855, reg_addr: 0000
c855 a9 ff 68 LDA  IMM   A:00 X:00 Y:00 P:4e S:fa pc: c857, reg_addr: 00ff
c857 68 d0 09 PLA  IMPL  A:ff X:00 Y:00 P:cc S:fa pc: c858, reg_addr: 0000
c858 d0 09 30 BNE  REL   A:00 X:00 Y:00 P:4e S:fb pc: c85a, reg_addr: c863
c85a 30 07 50 BMI  REL   A:00 X:00 Y:00 P:4e S:fb pc: c85c, reg_addr: c863
c85c 50 05 b0 BVC  REL   A:00 X:00 Y:00 P:4e S:fb pc: c85e, reg_addr: c863
c85e b0 03 4c BCS  REL   A:00 X:00 Y:00 P:4e S:fb pc: c860, reg_addr: c863
c860 4c 67 c8 JMP  ABS   A:00 X:00 Y:00 P:4e S:fb pc: c867, reg_addr: c867
c867 ea a9 00 NOP  IMPL  A:00 X:00 Y:00 P:4e S:fb pc: c868, reg_addr: 0000
c868 a9 00 85 LDA  IMM   A:00 X:00 Y:00 P:4e S:fb pc: c86a, reg_addr: 0000
c86a 85 01 24 STA  ZP    A:00 X:00 Y:00 P:4e S:fb pc: c86c, reg_addr: 0001
c86c 24 01 38 BIT  ZP    A:00 X:00 Y:00 P:4e S:fb pc: c86e, reg_addr: 0001
c86e 38 a9 ff SEC  IMPL  A:00 X:00 Y:00 P:0e S:fb pc: c86f, reg_addr: 0000
c86f a9 ff 48 LDA  IMM   A:00 X:00 Y:00 P:0f S:fb pc: c871, reg_addr: 00ff
c871 48 a9 00 PHA  IMPL  A:ff X:00 Y:00 P:8d S:fb pc: c872, reg_addr: 0000
c872 a9 00 68 LDA  IMM   A:ff X:00 Y:00 P:8d S:fa pc: c874, reg_addr: 0000
c874 68 f0 09 PLA  IMPL  A:00 X:00 Y:00 P:0f S:fa pc: c875, reg_addr: 0000
c875 f0 09 10 BEQ  REL   A:ff X:00 Y:00 P:8d S:fb pc: c877, reg_addr: c880
c877 10 07 70 BPL  REL   A:ff X:00 Y:00 P:8d S:fb pc: c879, reg_addr: c880
c879 70 05 90 BVS  REL   A:ff X:00 Y:00 P:8d S:fb pc: c87b, reg_addr: c880
c87b 90 03 4c BCC  REL   A:ff X:00 Y:00 P:8d S:fb pc: c87d, reg_addr: c880
c87d 4c 84 c8 JMP  ABS   A:ff X:00 Y:00 P:8d S:fb pc: c884, reg_addr: c884
c884 60 ea 18 RTS  IMPL  A:ff X:00 Y:00 P:8d S:fb pc: c603, reg_addr: 0000
c603 20 85 c8 JSR  ABS   A:ff X:00 Y:00 P:8d S:fd pc: c885, reg_addr: c885
c885 ea 18 a9 NOP  IMPL  A:ff X:00 Y:00 P:8d S:fb pc: c886, reg_addr: 0000
c886 18 a9 ff CLC  IMPL  A:ff X:00 Y:00 P:8d S:fb pc: c887, reg_addr: 0000
c887 a9 ff 85 LDA  IMM   A:ff X:00 Y:00 P:8c S:fb pc: c889, reg_addr: 00ff
c889 85 01 24 STA  ZP    A:ff X:00 Y:00 P:8c S:fb pc: c88b, reg_addr: 0001
c88b 24 01 a9 BIT  ZP    A:ff X:00 Y:00 P:8c S:fb pc: c88d, reg_addr: 0001
c88d a9 55 09 LDA  IMM   A:ff X:00 Y:00 P:cc S:fb pc: c88f, reg_addr: 0055
c88f 09 aa b0 ORA  IMM   A:55 X:00 Y:00 P:4c S:fb pc: c891, reg_addr: 00aa
c891 b0 0b 10 BCS  REL   A:ff X:00 Y:00 P:cc S:fb pc: c893, reg_addr: c89e
c893 10 09 c9 BPL  REL   A:ff X:00 Y:00 P:cc S:fb pc: c895, reg_addr: c89e
c895 c9 ff d0 CMP  IMM   A:ff X:00 Y:00 P:cc S:fb pc: c897, reg_addr: 00ff
c897 d0 05 50 BNE  REL   A:ff X:00 Y:00 P:4f S:fb pc: c899, reg_addr: c89e
c899 50 03 4c BVC  REL   A:ff X:00 Y:00 P:4f S:fb pc: c89b, reg_addr: c89e
c89b 4c a2 c8 JMP  ABS   A:ff X:00 Y:00 P:4f S:fb pc: c8a2, reg_addr: c8a2
c8a2 ea 38 b8 NOP  IMPL  A:ff X:00 Y:00 P:4f S:fb pc: c8a3, reg_addr: 0000
c8a3 38 b8 a9 SEC  IMPL  A:ff X:00 Y:00 P:4f S:fb pc: c8a4, reg_addr: 0000
c8a4 b8 a9 00 CLV  IMPL  A:ff X:00 Y:00 P:4f S:fb pc: c8a5, reg_addr: 0000
c8a5 a9 00 09 LDA  IMM   A:ff X:00 Y:00 P:0f S:fb pc: c8a7, reg_addr: 0000
c8a7 09 00 d0 ORA  IMM   A:00 X:00 Y:00 P:0f S:fb pc: c8a9, reg_addr: 0000
c8a9 d0 09 70 BNE  REL   A:00 X:00 Y:00 P:0f S:fb pc: c8ab, reg_addr: c8b4
c8ab 70 07 90 BVS  REL   A:00 X:00 Y:00 P:0f S:fb pc: c8ad, reg_addr: c8b4
c8ad 90 05 30 BCC  REL   A:00 X:00 Y:00 P:0f S:fb pc: c8af, reg_addr: c8b4
c8af 30 03 4c BMI  REL   A:00 X:00 Y:00 P:0f S:fb pc: c8b1, reg_addr: c8b4
c8b1 4c b8 c8 JMP  ABS   A:00 X:00 Y:00 P:0f S:fb pc: c8b8, reg_addr: c8b8
c8b8 ea 18 24 NOP  IMPL  A:00 X:00 Y:00 P:0f S:fb pc: c8b9, reg_addr: 0000
c8b9 18 24 01 CLC  IMPL  A:00 X:00 Y:00 P:0f S:fb pc: c8ba, reg_addr: 0000
c8ba 24 01 a9 BIT  ZP    A:00 X:00 Y:00 P:0e S:fb pc: c8bc, reg_addr: 0001
c8bc a9 55 29 LDA  IMM   A:00 X:00 Y:00 P:ce S:fb pc: c8be, reg_addr: 0055
c8be 29 aa d0 AND  IMM   A:55 X:00 Y:00 P:4c S:fb pc: c8c0, reg_addr: 00aa
c8c0 d0 09 50 BNE  REL   A:00 X:00 Y:00 P:4e S:fb pc: c8c2, reg_addr: c8cb
c8c2 50 07 b0 BVC  REL   A:00 X:00 Y:00 P:4e S:fb pc: c8c4, reg_addr: c8cb
c8c4 b0 05 30 BCS  REL   A:00 X:00 Y:00 P:4e S:fb pc: c8c6, reg_addr: c8cb
c8c6 30 03 4c BMI  REL   A:00 X:00 Y:00 P:4e S:fb pc: c8c8, reg_addr: c8cb
c8c8 4c cf c8 JMP  ABS   A:00 X:00 Y:00 P:4e S:fb pc: c8cf, reg_addr: c8cf
c8cf ea 38 b8 NOP  IMPL  A:00 X:00 Y:00 P:4e S:fb pc: c8d0, reg_addr: 0000
c8d0 38 b8 a9 SEC  IMPL  A:00 X:00 Y:00 P:4e S:fb pc: c8d1, reg_addr: 0000
c8d1 b8 a9 f8 CLV  IMPL  A:00 X:00 Y:00 P:4f S:fb pc: c8d2, reg_addr: 0000
c8d2 a9 f8 29 LDA  IMM   A:00 X:00 Y:00 P:0f S:fb pc: c8d4, reg_addr: 00f8
c8d4 29 ef 90 AND  IMM   A:f8 X:00 Y:00 P:8d S:fb pc: c8d6, reg_addr: 00ef
c8d6 90 0b 10 BCC  REL   A:e8 X:00 Y:00 P:8d S:fb pc: c8d8, reg_addr: c8e3
c8d8 10 09 c9 BPL  REL   A:e8 X:00 Y:00 P:8d S:fb pc: c8da, reg_addr: c8e3
c8da c9 e8 d0 CMP  IMM   A:e8 X:00 Y:00 P:8d S:fb pc: c8dc, reg_addr: 00e8
c8dc d0 05 70 BNE  REL   A:e8 X:00 Y:00 P:0f S:fb pc: c8de, reg_addr: c8e3
c8de 70 03 4c BVS  REL   A:e8 X:00 Y:00 P:0f S:fb pc: c8e0, reg_addr: c8e3
c8e0 4c e7 c8 JMP  ABS   A:e8 X:00 Y:00 P:0f S:fb pc: c8e7, reg_addr: c8e7
c8e7 ea 18 24 NOP  IMPL  A:e8 X:00 Y:00 P:0f S:fb pc: c8e8, reg_addr: 0000
c8e8 18 24 01 CLC  IMPL  A:e8 X:00 Y:00 P:0f S:fb pc: c8e9, reg_addr: 0000
c8e9 24 01 a9 BIT  ZP    A:e8 X:00 Y:00 P:0e S:fb pc: c8eb, reg_addr: 0001
c8eb a9 5f 49 LDA  IMM   A:e8 X:00 Y:00 P:cc S:fb pc: c8ed, reg_addr: 005f
c8ed 49 aa b0 EOR  IMM   A:5f X:00 Y:00 P:4c S:fb pc: c8ef, reg_addr: 00aa
c8ef b0 0b 10 BCS  REL   A:f5 X:00 Y:00 P:cc S:fb pc: c8f1, reg_addr: c8fc
c8f1 10 09 c9 BPL  REL   A:f5 X:00 Y:00 P:cc S:fb pc: c8f3, reg_addr: c8fc
c8f3 c9 f5 d0 CMP  IMM   A:f5 X:00 Y:00 P:cc S:fb pc: c8f5, reg_addr: 00f5
c8f5 d0 05 50 BNE  REL   A:f5 X:00 Y:00 P:4f S:fb pc: c8f7, reg_addr: c8fc
c8f7 50 03 4c BVC  REL   A:f5 X:00 Y:00 P:4f S:fb pc: c8f9, reg_addr: c8fc
c8f9 4c 00 c9 JMP  ABS   A:f5 X:00 Y:00 P:4f S:fb pc: c900, reg_addr: c900
c900 ea 38 b8 NOP  IMPL  A:f5 X:00 Y:00 P:4f S:fb pc: c901, reg_addr: 0000
c901 38 b8 a9 SEC  IMPL  A:f5 X:00 Y:00 P:4f S:fb pc: c902, reg_addr: 0000
c902 b8 a9 70 CLV  IMPL  A:f5 X:00 Y:00 P:4f S:fb pc: c903, reg_addr: 0000
c903 a9 70 49 LDA  IMM   A:f5 X:00 Y:00 P:0f S:fb pc: c905, reg_addr: 0070
c905 49 70 d0 EOR  IMM   A:70 X:00 Y:00 P:0d S:fb pc: c907, reg_addr: 0070
c907 d0 09 70 BNE  REL   A:00 X:00 Y:00 P:0f S:fb pc: c909, reg_addr: c912
c909 70 07 90 BVS  REL   A:00 X:00 Y:00 P:0f S:fb pc: c90b, reg_addr: c912
c90b 90 05 30 BCC  REL   A:00 X:00 Y:00 P:0f S:fb pc: c90d, reg_addr: c912
c90d 30 03 4c BMI  REL   A:00 X:00 Y:00 P:0f S:fb pc: c90f, reg_addr: c912
c90f 4c 16 c9 JMP  ABS   A:00 X:00 Y:00 P:0f S:fb pc: c916, reg_addr: c916
c916 ea 18 24 NOP  IMPL  A:00 X:00 Y:00 P:0f S:fb pc: c917, reg_addr: 0000
c917 18 24 01 CLC  IMPL  A:00 X:00 Y:00 P:0f S:fb pc: c918, reg_addr: 0000
c918 24 01 a9 BIT  ZP    A:00 X:00 Y:00 P:0e S:fb pc: c91a, reg_addr: 0001
c91a a9 00 69 LDA  IMM   A:00 X:00 Y:00 P:ce S:fb pc: c91c, reg_addr: 0000
c91c 69 69 30 ADC  IMM   A:00 X:00 Y:00 P:4e S:fb pc: c91e, reg_addr: 0069
c91e 30 0b b0 BMI  REL   A:69 X:00 Y:00 P:0c S:fb pc: c920, reg_addr: c92b
c920 b0 09 c9 BCS  REL   A:69 X:00 Y:00 P:0c S:fb pc: c922, reg_addr: c92b
c922 c9 69 d0 CMP  IMM   A:69 X:00 Y:00 P:0c S:fb pc: c924, reg_addr: 0069
c924 d0 05 70 BNE  REL   A:69 X:00 Y:00 P:0f S:fb pc: c926, reg_addr: c92b
c926 70 03 4c BVS  REL   A:69 X:00 Y:00 P:0f S:fb pc: c928, reg_addr: c92b
c928 4c 2f c9 JMP  ABS   A:69 X:00 Y:00 P:0f S:fb pc: c92f, reg_addr: c92f
c92f ea 38 f8 NOP  IMPL  A:69 X:00 Y:00 P:0f S:fb pc: c930, reg_addr: 0000
c930 38 f8 24 SEC  IMPL  A:69 X:00 Y:00 P:0f S:fb pc: c931, reg_addr: 0000
c931 f8 24 01 SED  IMPL  A:69 X:00 Y:00 P:0f S:fb pc: c932, reg_addr: 0000
c932 24 01 a9 BIT  ZP    A:69 X:00 Y:00 P:0f S:fb pc: c934, reg_addr: 0001
c934 a9 01 69 LDA  IMM   A:69 X:00 Y:00 P:cd S:fb pc: c936, reg_addr: 0001
c936 69 69 30 ADC  IMM   A:01 X:00 Y:00 P:4d S:fb pc: c938, reg_addr: 0069
c938 30 0b b0 BMI  REL   A:6b X:00 Y:00 P:0c S:fb pc: c93a, reg_addr: c945
c93a b0 09 c9 BCS  REL   A:6b X:00 Y:00 P:0c S:fb pc: c93c, reg_addr: c945
c93c c9 6b d0 CMP  IMM   A:6b X:00 Y:00 P:0c S:fb pc: c93e, reg_addr: 006b
c93e d0 05 70 BNE  REL   A:6b X:00 Y:00 P:0f S:fb pc: c940, reg_addr: c945
c940 70 03 4c BVS  REL   A:6b X:00 Y:00 P:0f S:fb pc: c942, reg_addr: c945
c942 4c 49 c9 JMP  ABS   A:6b X:00 Y:00 P:0f S:fb pc: c949, reg_addr: c949
c949 ea d8 38 NOP  IMPL  A:6b X:00 Y:00 P:0f S:fb pc: c94a, reg_addr: 0000
c94a d8 38 b8 CLD  IMPL  A:6b X:00 Y:00 P:0f S:fb pc: c94b, reg_addr: 0000
c94b 38 b8 a9 SEC  IMPL  A:6b X:00 Y:00 P:07 S:fb pc: c94c, reg_addr: 0000
c94c b8 a9 7f CLV  IMPL  A:6b X:00 Y:00 P:07 S:fb pc: c94d, reg_addr: 0000
c94d a9 7f 69 LDA  IMM   A:6b X:00 Y:00 P:07 S:fb pc: c94f, reg_addr: 007f
c94f 69 7f 10 ADC  IMM   A:7f X:00 Y:00 P:05 S:fb pc: c951, reg_addr: 007f
c951 10 0b b0 BPL  REL   A:ff X:00 Y:00 P:c4 S:fb pc: c953, reg_addr: c95e
c953 b0 09 c9 BCS  REL   A:ff X:00 Y:00 P:c4 S:fb pc: c955, reg_addr: c95e
c955 c9 ff d0 CMP  IMM   A:ff X:00 Y:00 P:c4 S:fb pc: c957, reg_addr: 00ff
c957 d0 05 50 BNE  REL   A:ff X:00 Y:00 P:47 S:fb pc: c959, reg_addr: c95e
c959 50 03 4c BVC  REL   A:ff X:00 Y:00 P:47 S:fb pc: c95b, reg_addr: c95e
c95b 4c 62 c9 JMP  ABS   A:ff X:00 Y:00 P:47 S:fb pc: c962, reg_addr: c962
c962 ea 18 24 NOP  IMPL  A:ff X:00 Y:00 P:47 S:fb pc: c963, reg_addr: 0000
c963 18 24 01 CLC  IMPL  A:ff X:00 Y:00 P:47 S:fb pc: c964, reg_addr: 0000
c964 24 01 a9 BIT  ZP    A:ff X:00 Y:00 P:46 S:fb pc: c966, reg_addr: 0001
c966 a9 7f 69 LDA  IMM   A:ff X:00 Y:00 P:c4 S:fb pc: c968, reg_addr: 007f
c968 69 80 10 ADC  IMM   A:7f X:00 Y:00 P:44 S:fb pc: c96a, reg_addr: 0080
c96a 10 0b b0 BPL  REL   A:ff X:00 Y:00 P:84 S:fb pc: c96c, reg_addr: c977
c96c b0 09 c9 BCS  REL   A:ff X:00 Y:00 P:84 S:fb pc: c96e, reg_addr: c977
c96e c9 ff d0 CMP  IMM   A:ff X:00 Y:00 P:84 S:fb pc: c970, reg_addr: 00ff
c970 d0 05 70 BNE  REL   A:ff X:00 Y:00 P:07 S:fb pc: c972, reg_addr: c977
c972 70 03 4c BVS  REL   A:ff X:00 Y:00 P:07 S:fb pc: c974, reg_addr: c977
c974 4c 7b c9 JMP  ABS   A:ff X:00 Y:00 P:07 S:fb pc: c97b, reg_addr: c97b
c97b ea 38 b8 NOP  IMPL  A:ff X:00 Y:00 P:07 S:fb pc: c97c, reg_addr: 0000
c97c 38 b8 a9 SEC  IMPL  A:ff X:00 Y:00 P:07 S:fb pc: c97d, reg_addr: 0000
c97d b8 a9 7f CLV  IMPL  A:ff X:00 Y:00 P:07 S:fb pc: c97e, reg_addr: 0000
c97e a9 7f 69 LDA  IMM   A:ff X:00 Y:00 P:07 S:fb pc: c980, reg_addr: 007f
c980 69 80 d0 ADC  IMM   A:7f X:00 Y:00 P:05 S:fb pc: c982, reg_addr: 0080
c982 d0 09 30 BNE  REL   A:00 X:00 Y:00 P:07 S:fb pc: c984, reg_addr: c98d
c984 30 07 70 BMI  REL   A:00 X:00 Y:00 P:07 S:fb pc: c986, reg_addr: c98d
c986 70 05 90 BVS  REL   A:00 X:00 Y:00 P:07 S:fb pc: c988, reg_addr: c98d
c988 90 03 4c BCC  REL   A:00 X:00 Y:00 P:07 S:fb pc: c98a, reg_addr: c98d
c98a 4c 91 c9 JMP  ABS   A:00 X:00 Y:00 P:07 S:fb pc: c991, reg_addr: c991
c991 ea 38 b8 NOP  IMPL  A:00 X:00 Y:00 P:07 S:fb pc: c992, reg_addr: 0000
c992 38 b8 a9 SEC  IMPL  A:00 X:00 Y:00 P:07 S:fb pc: c993, reg_addr: 0000
c993 b8 a9 9f CLV  IMPL  A:00 X:00 Y:00 P:07 S:fb pc: c994, reg_addr: 0000
c994 a9 9f f0 LDA  IMM   A:00 X:00 Y:00 P:07 S:fb pc: c996, reg_addr: 009f
c996 f0 09 10 BEQ  REL   A:9f X:00 Y:00 P:85 S:fb pc: c998, reg_addr: c9a1
c998 10 07 70 BPL  REL   A:9f X:00 Y:00 P:85 S:fb pc: c99a, reg_addr: c9a1
c99a 70 05 90 BVS  REL   A:9f X:00 Y:00 P:85 S:fb pc: c99c, reg_addr: c9a1
c99c 90 03 4c BCC  REL   A:9f X:00 Y:00 P:85 S:fb pc: c99e, reg_addr: c9a1
c99e 4c a5 c9 JMP  ABS   A:9f X:00 Y:00 P:85 S:fb pc: c9a5, reg_addr: c9a5
c9a5 ea 18 24 NOP  IMPL  A:9f X:00 Y:00 P:85 S:fb pc: c9a6, reg_addr: 0000
c9a6 18 24 01 CLC  IMPL  A:9f X:00 Y:00 P:85 S:fb pc: c9a7, reg_addr: 0000
c9a7 24 01 a9 BIT  ZP    A:9f X:00 Y:00 P:84 S:fb pc: c9a9, reg_addr: 0001
c9a9 a9 00 d0 LDA  IMM   A:9f X:00 Y:00 P:c4 S:fb pc: c9ab, reg_addr: 0000
c9ab d0 09 30 BNE  REL   A:00 X:00 Y:00 P:46 S:fb pc: c9ad, reg_addr: c9b6
c9ad 30 07 50 BMI  REL   A:00 X:00 Y:00 P:46 S:fb pc: c9af, reg_addr: c9b6
c9af 50 05 b0 BVC  REL   A:00 X:00 Y:00 P:46 S:fb pc: c9b1, reg_addr: c9b6
c9b1 b0 03 4c BCS  REL   A:00 X:00 Y:00 P:46 S:fb pc: c9b3, reg_addr: c9b6
c9b3 4c ba c9 JMP  ABS   A:00 X:00 Y:00 P:46 S:fb pc: c9ba, reg_addr: c9ba
c9ba ea 24 01 NOP  IMPL  A:00 X:00 Y:00 P:46 S:fb pc: c9bb, reg_addr: 0000
c9bb 24 01 a9 BIT  ZP    A:00 X:00 Y:00 P:46 S:fb pc: c9bd, reg_addr: 0001
c9bd a9 40 c9 LDA  IMM   A:00 X:00 Y:00 P:c6 S:fb pc: c9bf, reg_addr: 0040
c9bf c9 40 30 CMP  IMM   A:40 X:00 Y:00 P:44 S:fb pc: c9c1, reg_addr: 0040
c9c1 30 09 90 BMI  REL   A:40 X:00 Y:00 P:47 S:fb pc: c9c3, reg_addr: c9cc
c9c3 90 07 d0 BCC  REL   A:40 X:00 Y:00 P:47 S:fb pc: c9c5, reg_addr: c9cc
c9c5 d0 05 50 BNE  REL   A:40 X:00 Y:00 P:47 S:fb pc: c9c7, reg_addr: c9cc
c9c7 50 03 4c BVC  REL   A:40 X:00 Y:00 P:47 S:fb pc: c9c9, reg_addr: c9cc
c9c9 4c d0 c9 JMP  ABS   A:40 X:00 Y:00 P:47 S:fb pc: c9d0, reg_addr: c9d0
c9d0 ea b8 c9 NOP  IMPL  A:40 X:00 Y:00 P:47 S:fb pc: c9d1, reg_addr: 0000
c9d1 b8 c9 3f CLV  IMPL  A:40 X:00 Y:00 P:47 S:fb pc: c9d2, reg_addr: 0000
c9d2 c9 3f f0 CMP  IMM   A:40 X:00 Y:00 P:07 S:fb pc: c9d4, reg_addr: 003f
c9d4 f0 09 30 BEQ  REL   A:40 X:00 Y:00 P:05 S:fb pc: c9d6, reg_addr: c9df
c9d6 30 07 90 BMI  REL   A:40 X:00 Y:00 P:05 S:fb pc: c9d8, reg_addr: c9df
c9d8 90 05 70 BCC  REL   A:40 X:00 Y:00 P:05 S:fb pc: c9da, reg_addr: c9df
c9da 70 03 4c BVS  REL   A:40 X:00 Y:00 P:05 S:fb pc: c9dc, reg_addr: c9df
c9dc 4c e3 c9 JMP  ABS   A:40 X:00 Y:00 P:05 S:fb pc: c9e3, reg_addr: c9e3
c9e3 ea c9 41 NOP  IMPL  A:40 X:00 Y:00 P:05 S:fb pc: c9e4, reg_addr: 0000
c9e4 c9 41 f0 CMP  IMM   A:40 X:00 Y:00 P:05 S:fb pc: c9e6, reg_addr: 0041
c9e6 f0 07 10 BEQ  REL   A:40 X:00 Y:00 P:84 S:fb pc: c9e8, reg_addr: c9ef
c9e8 10 05 10 BPL  REL   A:40 X:00 Y:00 P:84 S:fb pc: c9ea, reg_addr: c9ef
c9ea 10 03 4c BPL  REL   A:40 X:00 Y:00 P:84 S:fb pc: c9ec, reg_addr: c9ef
c9ec 4c f3 c9 JMP  ABS   A:40 X:00 Y:00 P:84 S:fb pc: c9f3, reg_addr: c9f3
c9f3 ea a9 80 NOP  IMPL  A:40 X:00 Y:00 P:84 S:fb pc: c9f4, reg_addr: 0000
c9f4 a9 80 c9 LDA  IMM   A:40 X:00 Y:00 P:84 S:fb pc: c9f6, reg_addr: 0080
c9f6 c9 00 f0 CMP  IMM   A:80 X:00 Y:00 P:84 S:fb pc: c9f8, reg_addr: 0000
c9f8 f0 07 10 BEQ  REL   A:80 X:00 Y:00 P:85 S:fb pc: c9fa, reg_addr: ca01
c9fa 10 05 90 BPL  REL   A:80 X:00 Y:00 P:85 S:fb pc: c9fc, reg_addr: ca01
c9fc 90 03 4c BCC  REL   A:80 X:00 Y:00 P:85 S:fb pc: c9fe, reg_addr: ca01
c9fe 4c 05 ca JMP  ABS   A:80 X:00 Y:00 P:85 S:fb pc: ca05, reg_addr: ca05
ca05 ea c9 80 NOP  IMPL  A:80 X:00 Y:00 P:85 S:fb pc: ca06, reg_addr: 0000
ca06 c9 80 d0 CMP  IMM   A:80 X:00 Y:00 P:85 S:fb pc: ca08, reg_addr: 0080
ca08 d0 07 30 BNE  REL   A:80 X:00 Y:00 P:07 S:fb pc: ca0a, reg_addr: ca11
ca0a 30 05 90 BMI  REL   A:80 X:00 Y:00 P:07 S:fb pc: ca0c, reg_addr: ca11
ca0c 90 03 4c BCC  REL   A:80 X:00 Y:00 P:07 S:fb pc: ca0e, reg_addr: ca11
ca0e 4c 15 ca JMP  ABS   A:80 X:00 Y:00 P:07 S:fb pc: ca15, reg_addr: ca15
ca15 ea c9 81 NOP  IMPL  A:80 X:00 Y:00 P:07 S:fb pc: ca16, reg_addr: 0000
ca16 c9 81 b0 CMP  IMM   A:80 X:00 Y:00 P:07 S:fb pc: ca18, reg_addr: 0081
ca18 b0 07 f0 BCS  REL   A:80 X:00 Y:00 P:84 S:fb pc: ca1a, reg_addr: ca21
ca1a f0 05 10 BEQ  REL   A:80 X:00 Y:00 P:84 S:fb pc: ca1c, reg_addr: ca21
ca1c 10 03 4c BPL  REL   A:80 X:00 Y:00 P:84 S:fb pc: ca1e, reg_addr: ca21
ca1e 4c 25 ca JMP  ABS   A:80 X:00 Y:00 P:84 S:fb pc: ca25, reg_addr: ca25
ca25 ea c9 7f NOP  IMPL  A:80 X:00 Y:00 P:84 S:fb pc: ca26, reg_addr: 0000
ca26 c9 7f 90 CMP  IMM   A:80 X:00 Y:00 P:84 S:fb pc: ca28, reg_addr: 007f
ca28 90 07 f0 BCC  REL   A:80 X:00 Y:00 P:05 S:fb pc: ca2a, reg_addr: ca31
ca2a f0 05 30 BEQ  REL   A:80 X:00 Y:00 P:05 S:fb pc: ca2c, reg_addr: ca31
ca2c 30 03 4c BMI  REL   A:80 X:00 Y:00 P:05 S:fb pc: ca2e, reg_addr: ca31
ca2e 4c 35 ca JMP  ABS   A:80 X:00 Y:00 P:05 S:fb pc: ca35, reg_addr: ca35
ca35 ea 24 01 NOP  IMPL  A:80 X:00 Y:00 P:05 S:fb pc: ca36, reg_addr: 0000
ca36 24 01 a0 BIT  ZP    A:80 X:00 Y:00 P:05 S:fb pc: ca38, reg_addr: 0001
ca38 a0 40 c0 LDY  IMM   A:80 X:00 Y:00 P:c5 S:fb pc: ca3a, reg_addr: 0040
ca3a c0 40 d0 CPY  IMM   A:80 X:00 Y:40 P:45 S:fb pc: ca3c, reg_addr: 0040
ca3c d0 09 30 BNE  REL   A:80 X:00 Y:40 P:47 S:fb pc: ca3e, reg_addr: ca47
ca3e 30 07 90 BMI  REL   A:80 X:00 Y:40 P:47 S:fb pc: ca40, reg_addr: ca47
ca40 90 05 50 BCC  REL   A:80 X:00 Y:40 P:47 S:fb pc: ca42, reg_addr: ca47
ca42 50 03 4c BVC  REL   A:80 X:00 Y:40 P:47 S:fb pc: ca44, reg_addr: ca47
ca44 4c 4b ca JMP  ABS   A:80 X:00 Y:40 P:47 S:fb pc: ca4b, reg_addr: ca4b
ca4b ea b8 c0 NOP  IMPL  A:80 X:00 Y:40 P:47 S:fb pc: ca4c, reg_addr: 0000
ca4c b8 c0 3f CLV  IMPL  A:80 X:00 Y:40 P:47 S:fb pc: ca4d, reg_addr: 0000
ca4d c0 3f f0 CPY  IMM   A:80 X:00 Y:40 P:07 S:fb pc: ca4f, reg_addr: 003f
ca4f f0 09 30 BEQ  REL   A:80 X:00 Y:40 P:05 S:fb pc: ca51, reg_addr: ca5a
ca51 30 07 90 BMI  REL   A:80 X:00 Y:40 P:05 S:fb pc: ca53, reg_addr: ca5a
ca53 90 05 70 BCC  REL   A:80 X:00 Y:40 P:05 S:fb pc: ca55, reg_addr: ca5a
ca55 70 03 4c BVS  REL   A:80 X:00 Y:40 P:05 S:fb pc: ca57, reg_addr: ca5a
ca57 4c 5e ca JMP  ABS   A:80 X:00 Y:40 P:05 S:fb pc: ca5e, reg_addr: ca5e
ca5e ea c0 41 NOP  IMPL  A:80 X:00 Y:40 P:05 S:fb pc: ca5f, reg_addr: 0000
ca5f c0 41 f0 CPY  IMM   A:80 X:00 Y:40 P:05 S:fb pc: ca61, reg_addr: 0041
ca61 f0 07 10 BEQ  REL   A:80 X:00 Y:40 P:84 S:fb pc: ca63, reg_addr: ca6a
ca63 10 05 10 BPL  REL   A:80 X:00 Y:40 P:84 S:fb pc: ca65, reg_addr: ca6a
ca65 10 03 4c BPL  REL   A:80 X:00 Y:40 P:84 S:fb pc: ca67, reg_addr: ca6a
ca67 4c 6e ca JMP  ABS   A:80 X:00 Y:40 P:84 S:fb pc: ca6e, reg_addr: ca6e
ca6e ea a0 80 NOP  IMPL  A:80 X:00 Y:40 P:84 S:fb pc: ca6f, reg_addr: 0000
ca6f a0 80 c0 LDY  IMM   A:80 X:00 Y:40 P:84 S:fb pc: ca71, reg_addr: 0080
ca71 c0 00 f0 CPY  IMM   A:80 X:00 Y:80 P:84 S:fb pc: ca73, reg_addr: 0000
ca73 f0 07 10 BEQ  REL   A:80 X:00 Y:80 P:85 S:fb pc: ca75, reg_addr: ca7c
ca75 10 05 90 BPL  REL   A:80 X:00 Y:80 P:85 S:fb pc: ca77, reg_addr: ca7c
ca77 90 03 4c BCC  REL   A:80 X:00 Y:80 P:85 S:fb pc: ca79, reg_addr: ca7c
ca79 4c 80 ca JMP  ABS   A:80 X:00 Y:80 P:85 S:fb pc: ca80, reg_addr: ca80
ca80 ea c0 80 NOP  IMPL  A:80 X:00 Y:80 P:85 S:fb pc: ca81, reg_addr: 0000
ca81 c0 80 d0 CPY  IMM   A:80 X:00 Y:80 P:85 S:fb pc: ca83, reg_addr: 0080
ca83 d0 07 30 BNE  REL   A:80 X:00 Y:80 P:07 S:fb pc: ca85, reg_addr: ca8c
ca85 30 05 90 BMI  REL   A:80 X:00 Y:80 P:07 S:fb pc: ca87, reg_addr: ca8c
ca87 90 03 4c BCC  REL   A:80 X:00 Y:80 P:07 S:fb pc: ca89, reg_addr: ca8c
ca89 4c 90 ca JMP  ABS   A:80 X:00 Y:80 P:07 S:fb pc: ca90, reg_addr: ca90
ca90 ea c0 81 NOP  IMPL  A:80 X:00 Y:80 P:07 S:fb pc: ca91, reg_addr: 0000
ca91 c0 81 b0 CPY  IMM   A:80 X:00 Y:80 P:07 S:fb pc: ca93, reg_addr: 0081
ca93 b0 07 f0 BCS  REL   A:80 X:00 Y:80 P:84 S:fb pc: ca95, reg_addr: ca9c
ca95 f0 05 10 BEQ  REL   A:80 X:00 Y:80 P:84 S:fb pc: ca97, reg_addr: ca9c
ca97 10 03 4c BPL  REL   A:80 X:00 Y:80 P:84 S:fb pc: ca99, reg_addr: ca9c
ca99 4c a0 ca JMP  ABS   A:80 X:00 Y:80 P:84 S:fb pc: caa0, reg_addr: caa0
caa0 ea c0 7f NOP  IMPL  A:80 X:00 Y:80 P:84 S:fb pc: caa1, reg_addr: 0000
caa1 c0 7f 90 CPY  IMM   A:80 X:00 Y:80 P:84 S:fb pc: caa3, reg_addr: 007f
caa3 90 07 f0 BCC  REL   A:80 X:00 Y:80 P:05 S:fb pc: caa5, reg_addr: caac
caa5 f0 05 30 BEQ  REL   A:80 X:00 Y:80 P:05 S:fb pc: caa7, reg_addr: caac
caa7 30 03 4c BMI  REL   A:80 X:00 Y:80 P:05 S:fb pc: caa9, reg_addr: caac
caa9 4c b0 ca JMP  ABS   A:80 X:00 Y:80 P:05 S:fb pc: cab0, reg_addr: cab0
cab0 ea 24 01 NOP  IMPL  A:80 X:00 Y:80 P:05 S:fb pc: cab1, reg_addr: 0000
cab1 24 01 a2 BIT  ZP    A:80 X:00 Y:80 P:05 S:fb pc: cab3, reg_addr: 0001
cab3 a2 40 e0 LDX  IMM   A:80 X:00 Y:80 P:c5 S:fb pc: cab5, reg_addr: 0040
cab5 e0 40 d0 CPX  IMM   A:80 X:40 Y:80 P:45 S:fb pc: cab7, reg_addr: 0040
cab7 d0 09 30 BNE  REL   A:80 X:40 Y:80 P:47 S:fb pc: cab9, reg_addr: cac2
cab9 30 07 90 BMI  REL   A:80 X:40 Y:80 P:47 S:fb pc: cabb, reg_addr: cac2
cabb 90 05 50 BCC  REL   A:80 X:40 Y:80 P:47 S:fb pc: cabd, reg_addr: cac2
cabd 50 03 4c BVC  REL   A:80 X:40 Y:80 P:47 S:fb pc: cabf, reg_addr: cac2
cabf 4c c6 ca JMP  ABS   A:80 X:40 Y:80 P:47 S:fb pc: cac6, reg_addr: cac6
cac6 ea b8 e0 NOP  IMPL  A:80 X:40 Y:80 P:47 S:fb pc: cac7, reg_addr: 0000
cac7 b8 e0 3f CLV  IMPL  A:80 X:40 Y:80 P:47 S:fb pc: cac8, reg_addr: 0000
cac8 e0 3f f0 CPX  IMM   A:80 X:40 Y:80 P:07 S:fb pc: caca, reg_addr: 003f
caca f0 09 30 BEQ  REL   A:80 X:40 Y:80 P:05 S:fb pc: cacc, reg_addr: cad5
cacc 30 07 90 BMI  REL   A:80 X:40 Y:80 P:05 S:fb pc: cace, reg_addr: cad5
cace 90 05 70 BCC  REL   A:80 X:40 Y:80 P:05 S:fb pc: cad0, reg_addr: cad5
cad0 70 03 4c BVS  REL   A:80 X:40 Y:80 P:05 S:fb pc: cad2, reg_addr: cad5
cad2 4c d9 ca JMP  ABS   A:80 X:40 Y:80 P:05 S:fb pc: cad9, reg_addr: cad9
cad9 ea e0 41 NOP  IMPL  A:80 X:40 Y:80 P:05 S:fb pc: cada, reg_addr: 0000
cada e0 41 f0 CPX  IMM   A:80 X:40 Y:80 P:05 S:fb pc: cadc, reg_addr: 0041
cadc f0 07 10 BEQ  REL   A:80 X:40 Y:80 P:84 S:fb pc: cade, reg_addr: cae5
cade 10 05 10 BPL  REL   A:80 X:40 Y:80 P:84 S:fb pc: cae0, reg_addr: cae5
cae0 10 03 4c BPL  REL   A:80 X:40 Y:80 P:84 S:fb pc: cae2, reg_addr: cae5
cae2 4c e9 ca JMP  ABS   A:80 X:40 Y:80 P:84 S:fb pc: cae9, reg_addr: cae9
cae9 ea a2 80 NOP  IMPL  A:80 X:40 Y:80 P:84 S:fb pc: caea, reg_addr: 0000
caea a2 80 e0 LDX  IMM   A:80 X:40 Y:80 P:84 S:fb pc: caec, reg_addr: 0080
caec e0 00 f0 CPX  IMM   A:80 X:80 Y:80 P:84 S:fb pc: caee, reg_addr: 0000
caee f0 07 10 BEQ  REL   A:80 X:80 Y:80 P:85 S:fb pc: caf0, reg_addr: caf7
caf0 10 05 90 BPL  REL   A:80 X:80 Y:80 P:85 S:fb pc: caf2, reg_addr: caf7
caf2 90 03 4c BCC  REL   A:80 X:80 Y:80 P:85 S:fb pc: caf4, reg_addr: caf7
caf4 4c fb ca JMP  ABS   A:80 X:80 Y:80 P:85 S:fb pc: cafb, reg_addr: cafb
cafb ea e0 80 NOP  IMPL  A:80 X:80 Y:80 P:85 S:fb pc: cafc, reg_addr: 0000
cafc e0 80 d0 CPX  IMM   A:80 X:80 Y:80 P:85 S:fb pc: cafe, reg_addr: 0080
cafe d0 07 30 BNE  REL   A:80 X:80 Y:80 P:07 S:fb pc: cb00, reg_addr: cb07
cb00 30 05 90 BMI  REL   A:80 X:80 Y:80 P:07 S:fb pc: cb02, reg_addr: cb07
cb02 90 03 4c BCC  REL   A:80 X:80 Y:80 P:07 S:fb pc: cb04, reg_addr: cb07
cb04 4c 0b cb JMP  ABS   A:80 X:80 Y:80 P:07 S:fb pc: cb0b, reg_addr: cb0b
cb0b ea e0 81 NOP  IMPL  A:80 X:80 Y:80 P:07 S:fb pc: cb0c, reg_addr: 0000
cb0c e0 81 b0 CPX  IMM   A:80 X:80 Y:80 P:07 S:fb pc: cb0e, reg_addr: 0081
cb0e b0 07 f0 BCS  REL   A:80 X:80 Y:80 P:84 S:fb pc: cb10, reg_addr: cb17
cb10 f0 05 10 BEQ  REL   A:80 X:80 Y:80 P:84 S:fb pc: cb12, reg_addr: cb17
cb12 10 03 4c BPL  REL   A:80 X:80 Y:80 P:84 S:fb pc: cb14, reg_addr: cb17
cb14 4c 1b cb JMP  ABS   A:80 X:80 Y:80 P:84 S:fb pc: cb1b, reg_addr: cb1b
cb1b ea e0 7f NOP  IMPL  A:80 X:80 Y:80 P:84 S:fb pc: cb1c, reg_addr: 0000
cb1c e0 7f 90 CPX  IMM   A:80 X:80 Y:80 P:84 S:fb pc: cb1e, reg_addr: 007f
cb1e 90 07 f0 BCC  REL   A:80 X:80 Y:80 P:05 S:fb pc: cb20, reg_addr: cb27
cb20 f0 05 30 BEQ  REL   A:80 X:80 Y:80 P:05 S:fb pc: cb22, reg_addr: cb27
cb22 30 03 4c BMI  REL   A:80 X:80 Y:80 P:05 S:fb pc: cb24, reg_addr: cb27
cb24 4c 2b cb JMP  ABS   A:80 X:80 Y:80 P:05 S:fb pc: cb2b, reg_addr: cb2b
cb2b ea 38 b8 NOP  IMPL  A:80 X:80 Y:80 P:05 S:fb pc: cb2c, reg_addr: 0000
cb2c 38 b8 a2 SEC  IMPL  A:80 X:80 Y:80 P:05 S:fb pc: cb2d, reg_addr: 0000
cb2d b8 a2 9f CLV  IMPL  A:80 X:80 Y:80 P:05 S:fb pc: cb2e, reg_addr: 0000
cb2e a2 9f f0 LDX  IMM   A:80 X:80 Y:80 P:05 S:fb pc: cb30, reg_addr: 009f
cb30 f0 09 10 BEQ  REL   A:80 X:9f Y:80 P:85 S:fb pc: cb32, reg_addr: cb3b
cb32 10 07 70 BPL  REL   A:80 X:9f Y:80 P:85 S:fb pc: cb34, reg_addr: cb3b
cb34 70 05 90 BVS  REL   A:80 X:9f Y:80 P:85 S:fb pc: cb36, reg_addr: cb3b
cb36 90 03 4c BCC  REL   A:80 X:9f Y:80 P:85 S:fb pc: cb38, reg_addr: cb3b
cb38 4c 3f cb JMP  ABS   A:80 X:9f Y:80 P:85 S:fb pc: cb3f, reg_addr: cb3f
cb3f ea 18 24 NOP  IMPL  A:80 X:9f Y:80 P:85 S:fb pc: cb40, reg_addr: 0000
cb40 18 24 01 CLC  IMPL  A:80 X:9f Y:80 P:85 S:fb pc: cb41, reg_addr: 0000
cb41 24 01 a2 BIT  ZP    A:80 X:9f Y:80 P:84 S:fb pc: cb43, reg_addr: 0001
cb43 a2 00 d0 LDX  IMM   A:80 X:9f Y:80 P:c4 S:fb pc: cb45, reg_addr: 0000
cb45 d0 09 30 BNE  REL   A:80 X:00 Y:80 P:46 S:fb pc: cb47, reg_addr: cb50
cb47 30 07 50 BMI  REL   A:80 X:00 Y:80 P:46 S:fb pc: cb49, reg_addr: cb50
cb49 50 05 b0 BVC  REL   A:80 X:00 Y:80 P:46 S:fb pc: cb4b, reg_addr: cb50
cb4b b0 03 4c BCS  REL   A:80 X:00 Y:80 P:46 S:fb pc: cb4d, reg_addr: cb50
cb4d 4c 54 cb JMP  ABS   A:80 X:00 Y:80 P:46 S:fb pc: cb54, reg_addr: cb54
cb54 ea 38 b8 NOP  IMPL  A:80 X:00 Y:80 P:46 S:fb pc: cb55, reg_addr: 0000
cb55 38 b8 a0 SEC  IMPL  A:80 X:00 Y:80 P:46 S:fb pc: cb56, reg_addr: 0000
cb56 b8 a0 9f CLV  IMPL  A:80 X:00 Y:80 P:47 S:fb pc: cb57, reg_addr: 0000
cb57 a0 9f f0 LDY  IMM   A:80 X:00 Y:80 P:07 S:fb pc: cb59, reg_addr: 009f
cb59 f0 09 10 BEQ  REL   A:80 X:00 Y:9f P:85 S:fb pc: cb5b, reg_addr: cb64
cb5b 10 07 70 BPL  REL   A:80 X:00 Y:9f P:85 S:fb pc: cb5d, reg_addr: cb64
cb5d 70 05 90 BVS  REL   A:80 X:00 Y:9f P:85 S:fb pc: cb5f, reg_addr: cb64
cb5f 90 03 4c BCC  REL   A:80 X:00 Y:9f P:85 S:fb pc: cb61, reg_addr: cb64
cb61 4c 68 cb JMP  ABS   A:80 X:00 Y:9f P:85 S:fb pc: cb68, reg_addr: cb68
cb68 ea 18 24 NOP  IMPL  A:80 X:00 Y:9f P:85 S:fb pc: cb69, reg_addr: 0000
cb69 18 24 01 CLC  IMPL  A:80 X:00 Y:9f P:85 S:fb pc: cb6a, reg_addr: 0000
cb6a 24 01 a0 BIT  ZP    A:80 X:00 Y:9f P:84 S:fb pc: cb6c, reg_addr: 0001
cb6c a0 00 d0 LDY  IMM   A:80 X:00 Y:9f P:c4 S:fb pc: cb6e, reg_addr: 0000
cb6e d0 09 30 BNE  REL   A:80 X:00 Y:00 P:46 S:fb pc: cb70, reg_addr: cb79
cb70 30 07 50 BMI  REL   A:80 X:00 Y:00 P:46 S:fb pc: cb72, reg_addr: cb79
cb72 50 05 b0 BVC  REL   A:80 X:00 Y:00 P:46 S:fb pc: cb74, reg_addr: cb79
cb74 b0 03 4c BCS  REL   A:80 X:00 Y:00 P:46 S:fb pc: cb76, reg_addr: cb79
cb76 4c 7d cb JMP  ABS   A:80 X:00 Y:00 P:46 S:fb pc: cb7d, reg_addr: cb7d
cb7d ea a9 55 NOP  IMPL  A:80 X:00 Y:00 P:46 S:fb pc: cb7e, reg_addr: 0000
cb7e a9 55 a2 LDA  IMM   A:80 X:00 Y:00 P:46 S:fb pc: cb80, reg_addr: 0055
cb80 a2 aa a0 LDX  IMM   A:55 X:00 Y:00 P:44 S:fb pc: cb82, reg_addr: 00aa
cb82 a0 33 c9 LDY  IMM   A:55 X:aa Y:00 P:c4 S:fb pc: cb84, reg_addr: 0033
cb84 c9 55 d0 CMP  IMM   A:55 X:aa Y:33 P:44 S:fb pc: cb86, reg_addr: 0055
cb86 d0 23 e0 BNE  REL   A:55 X:aa Y:33 P:47 S:fb pc: cb88, reg_addr: cbab
cb88 e0 aa d0 CPX  IMM   A:55 X:aa Y:33 P:47 S:fb pc: cb8a, reg_addr: 00aa
cb8a d0 1f c0 BNE  REL   A:55 X:aa Y:33 P:47 S:fb pc: cb8c, reg_addr: cbab
cb8c c0 33 d0 CPY  IMM   A:55 X:aa Y:33 P:47 S:fb pc: cb8e, reg_addr: 0033
cb8e d0 1b c9 BNE  REL   A:55 X:aa Y:33 P:47 S:fb pc: cb90, reg_addr: cbab
cb90 c9 55 d0 CMP  IMM   A:55 X:aa Y:33 P:47 S:fb pc: cb92, reg_addr: 0055
cb92 d0 17 e0 BNE  REL   A:55 X:aa Y:33 P:47 S:fb pc: cb94, reg_addr: cbab
cb94 e0 aa d0 CPX  IMM   A:55 X:aa Y:33 P:47 S:fb pc: cb96, reg_addr: 00aa
cb96 d0 13 c0 BNE  REL   A:55 X:aa Y:33 P:47 S:fb pc: cb98, reg_addr: cbab
cb98 c0 33 d0 CPY  IMM   A:55 X:aa Y:33 P:47 S:fb pc: cb9a, reg_addr: 0033
cb9a d0 0f c9 BNE  REL   A:55 X:aa Y:33 P:47 S:fb pc: cb9c, reg_addr: cbab
cb9c c9 56 f0 CMP  IMM   A:55 X:aa Y:33 P:47 S:fb pc: cb9e, reg_addr: 0056
cb9e f0 0b e0 BEQ  REL   A:55 X:aa Y:33 P:c4 S:fb pc: cba0, reg_addr: cbab
cba0 e0 ab f0 CPX  IMM   A:55 X:aa Y:33 P:c4 S:fb pc: cba2, reg_addr: 00ab
cba2 f0 07 c0 BEQ  REL   A:55 X:aa Y:33 P:c4 S:fb pc: cba4, reg_addr: cbab
cba4 c0 34 f0 CPY  IMM   A:55 X:aa Y:33 P:c4 S:fb pc: cba6, reg_addr: 0034
cba6 f0 03 4c BEQ  REL   A:55 X:aa Y:33 P:c4 S:fb pc: cba8, reg_addr: cbab
cba8 4c af cb JMP  ABS   A:55 X:aa Y:33 P:c4 S:fb pc: cbaf, reg_addr: cbaf
cbaf a0 71 20 LDY  IMM   A:55 X:aa Y:33 P:c4 S:fb pc: cbb1, reg_addr: 0071
cbb1 20 31 f9 JSR  ABS   A:55 X:aa Y:71 P:44 S:fb pc: f931, reg_addr: f931
f931 24 01 a9 BIT  ZP    A:55 X:aa Y:71 P:44 S:f9 pc: f933, reg_addr: 0001
f933 a9 40 38 LDA  IMM   A:55 X:aa Y:71 P:c4 S:f9 pc: f935, reg_addr: 0040
f935 38 60 30 SEC  IMPL  A:40 X:aa Y:71 P:44 S:f9 pc: f936, reg_addr: 0000
f936 60 30 0b RTS  IMPL  A:40 X:aa Y:71 P:45 S:f9 pc: cbb4, reg_addr: 0000
cbb4 e9 40 20 SBC  IMM   A:40 X:aa Y:71 P:45 S:fb pc: cbb6, reg_addr: 0040
cbb6 20 37 f9 JSR  ABS   A:00 X:aa Y:71 P:07 S:fb pc: f937, reg_addr: f937
f937 30 0b 90 BMI  REL   A:00 X:aa Y:71 P:07 S:f9 pc: f939, reg_addr: f944
f939 90 09 d0 BCC  REL   A:00 X:aa Y:71 P:07 S:f9 pc: f93b, reg_addr: f944
f93b d0 07 70 BNE  REL   A:00 X:aa Y:71 P:07 S:f9 pc: f93d, reg_addr: f944
f93d 70 05 c9 BVS  REL   A:00 X:aa Y:71 P:07 S:f9 pc: f93f, reg_addr: f944
f93f c9 00 d0 CMP  IMM   A:00 X:aa Y:71 P:07 S:f9 pc: f941, reg_addr: 0000
f941 d0 01 60 BNE  REL   A:00 X:aa Y:71 P:07 S:f9 pc: f943, reg_addr: f944
f943 60 84 00 RTS  IMPL  A:00 X:aa Y:71 P:07 S:f9 pc: cbb9, reg_addr: 0000
cbb9 c8 20 47 INY  IMPL  A:00 X:aa Y:71 P:07 S:fb pc: cbba, reg_addr: 0000
cbba 20 47 f9 JSR  ABS   A:00 X:aa Y:72 P:05 S:fb pc: f947, reg_addr: f947
f947 b8 38 a9 CLV  IMPL  A:00 X:aa Y:72 P:05 S:f9 pc: f948, reg_addr: 0000
f948 38 a9 40 SEC  IMPL  A:00 X:aa Y:72 P:05 S:f9 pc: f949, reg_addr: 0000
f949 a9 40 60 LDA  IMM   A:00 X:aa Y:72 P:05 S:f9 pc: f94b, reg_addr: 0040
f94b 60 f0 0b RTS  IMPL  A:40 X:aa Y:72 P:05 S:f9 pc: cbbd, reg_addr: 0000
cbbd e9 3f 20 SBC  IMM   A:40 X:aa Y:72 P:05 S:fb pc: cbbf, reg_addr: 003f
cbbf 20 4c f9 JSR  ABS   A:01 X:aa Y:72 P:05 S:fb pc: f94c, reg_addr: f94c
f94c f0 0b 30 BEQ  REL   A:01 X:aa Y:72 P:05 S:f9 pc: f94e, reg_addr: f959
f94e 30 09 90 BMI  REL   A:01 X:aa Y:72 P:05 S:f9 pc: f950, reg_addr: f959
f950 90 07 70 BCC  REL   A:01 X:aa Y:72 P:05 S:f9 pc: f952, reg_addr: f959
f952 70 05 c9 BVS  REL   A:01 X:aa Y:72 P:05 S:f9 pc: f954, reg_addr: f959
f954 c9 01 d0 CMP  IMM   A:01 X:aa Y:72 P:05 S:f9 pc: f956, reg_addr: 0001
f956 d0 01 60 BNE  REL   A:01 X:aa Y:72 P:07 S:f9 pc: f958, reg_addr: f959
f958 60 84 00 RTS  IMPL  A:01 X:aa Y:72 P:07 S:f9 pc: cbc2, reg_addr: 0000
cbc2 c8 20 5c INY  IMPL  A:01 X:aa Y:72 P:07 S:fb pc: cbc3, reg_addr: 0000
cbc3 20 5c f9 JSR  ABS   A:01 X:aa Y:73 P:05 S:fb pc: f95c, reg_addr: f95c
f95c a9 40 38 LDA  IMM   A:01 X:aa Y:73 P:05 S:f9 pc: f95e, reg_addr: 0040
f95e 38 24 01 SEC  IMPL  A:40 X:aa Y:73 P:05 S:f9 pc: f95f, reg_addr: 0000
f95f 24 01 60 BIT  ZP    A:40 X:aa Y:73 P:05 S:f9 pc: f961, reg_addr: 0001
f961 60 b0 0b RTS  IMPL  A:40 X:aa Y:73 P:c5 S:f9 pc: cbc6, reg_addr: 0000
cbc6 e9 41 20 SBC  IMM   A:40 X:aa Y:73 P:c5 S:fb pc: cbc8, reg_addr: 0041
cbc8 20 62 f9 JSR  ABS   A:ff X:aa Y:73 P:84 S:fb pc: f962, reg_addr: f962
f962 b0 0b f0 BCS  REL   A:ff X:aa Y:73 P:84 S:f9 pc: f964, reg_addr: f96f
f964 f0 09 10 BEQ  REL   A:ff X:aa Y:73 P:84 S:f9 pc: f966, reg_addr: f96f
f966 10 07 70 BPL  REL   A:ff X:aa Y:73 P:84 S:f9 pc: f968, reg_addr: f96f
f968 70 05 c9 BVS  REL   A:ff X:aa Y:73 P:84 S:f9 pc: f96a, reg_addr: f96f
f96a c9 ff d0 CMP  IMM   A:ff X:aa Y:73 P:84 S:f9 pc: f96c, reg_addr: 00ff
f96c d0 01 60 BNE  REL   A:ff X:aa Y:73 P:07 S:f9 pc: f96e, reg_addr: f96f
f96e 60 84 00 RTS  IMPL  A:ff X:aa Y:73 P:07 S:f9 pc: cbcb, reg_addr: 0000
cbcb c8 20 72 INY  IMPL  A:ff X:aa Y:73 P:07 S:fb pc: cbcc, reg_addr: 0000
cbcc 20 72 f9 JSR  ABS   A:ff X:aa Y:74 P:05 S:fb pc: f972, reg_addr: f972
f972 18 a9 80 CLC  IMPL  A:ff X:aa Y:74 P:05 S:f9 pc: f973, reg_addr: 0000
f973 a9 80 60 LDA  IMM   A:ff X:aa Y:74 P:04 S:f9 pc: f975, reg_addr: 0080
f975 60 90 05 RTS  IMPL  A:80 X:aa Y:74 P:84 S:f9 pc: cbcf, reg_addr: 0000
cbcf e9 00 20 SBC  IMM   A:80 X:aa Y:74 P:84 S:fb pc: cbd1, reg_addr: 0000
cbd1 20 76 f9 JSR  ABS   A:7f X:aa Y:74 P:45 S:fb pc: f976, reg_addr: f976
f976 90 05 c9 BCC  REL   A:7f X:aa Y:74 P:45 S:f9 pc: f978, reg_addr: f97d
f978 c9 7f d0 CMP  IMM   A:7f X:aa Y:74 P:45 S:f9 pc: f97a, reg_addr: 007f
f97a d0 01 60 BNE  REL   A:7f X:aa Y:74 P:47 S:f9 pc: f97c, reg_addr: f97d
f97c 60 84 00 RTS  IMPL  A:7f X:aa Y:74 P:47 S:f9 pc: cbd4, reg_addr: 0000
cbd4 c8 20 80 INY  IMPL  A:7f X:aa Y:74 P:47 S:fb pc: cbd5, reg_addr: 0000
cbd5 20 80 f9 JSR  ABS   A:7f X:aa Y:75 P:45 S:fb pc: f980, reg_addr: f980
f980 38 a9 81 SEC  IMPL  A:7f X:aa Y:75 P:45 S:f9 pc: f981, reg_addr: 0000
f981 a9 81 60 LDA  IMM   A:7f X:aa Y:75 P:45 S:f9 pc: f983, reg_addr: 0081
f983 60 50 07 RTS  IMPL  A:81 X:aa Y:75 P:c5 S:f9 pc: cbd8, reg_addr: 0000
cbd8 e9 7f 20 SBC  IMM   A:81 X:aa Y:75 P:c5 S:fb pc: cbda, reg_addr: 007f
cbda 20 84 f9 JSR  ABS   A:02 X:aa Y:75 P:45 S:fb pc: f984, reg_addr: f984
f984 50 07 90 BVC  REL   A:02 X:aa Y:75 P:45 S:f9 pc: f986, reg_addr: f98d
f986 90 05 c9 BCC  REL   A:02 X:aa Y:75 P:45 S:f9 pc: f988, reg_addr: f98d
f988 c9 02 d0 CMP  IMM   A:02 X:aa Y:75 P:45 S:f9 pc: f98a, reg_addr: 0002
f98a d0 01 60 BNE  REL   A:02 X:aa Y:75 P:47 S:f9 pc: f98c, reg_addr: f98d
f98c 60 84 00 RTS  IMPL  A:02 X:aa Y:75 P:47 S:f9 pc: cbdd, reg_addr: 0000
cbdd 60 ea a9 RTS  IMPL  A:02 X:aa Y:75 P:47 S:fb pc: c606, reg_addr: 0000
c606 20 de cb JSR  ABS   A:02 X:aa Y:75 P:47 S:fd pc: cbde, reg_addr: cbde
cbde ea a9 ff NOP  IMPL  A:02 X:aa Y:75 P:47 S:fb pc: cbdf, reg_addr: 0000
cbdf a9 ff 85 LDA  IMM   A:02 X:aa Y:75 P:47 S:fb pc: cbe1, reg_addr: 00ff
cbe1 85 01 a9 STA  ZP    A:ff X:aa Y:75 P:c5 S:fb pc: cbe3, reg_addr: 0001
cbe3 a9 44 a2 LDA  IMM   A:ff X:aa Y:75 P:c5 S:fb pc: cbe5, reg_addr: 0044
cbe5 a2 55 a0 LDX  IMM   A:44 X:aa Y:75 P:45 S:fb pc: cbe7, reg_addr: 0055
cbe7 a0 66 e8 LDY  IMM   A:44 X:55 Y:75 P:45 S:fb pc: cbe9, reg_addr: 0066
cbe9 e8 88 e0 INX  IMPL  A:44 X:55 Y:66 P:45 S:fb pc: cbea, reg_addr: 0000
cbea 88 e0 56 DEY  IMPL  A:44 X:56 Y:66 P:45 S:fb pc: cbeb, reg_addr: 0000
cbeb e0 56 d0 CPX  IMM   A:44 X:56 Y:65 P:45 S:fb pc: cbed, reg_addr: 0056
cbed d0 21 c0 BNE  REL   A:44 X:56 Y:65 P:47 S:fb pc: cbef, reg_addr: cc10
cbef c0 65 d0 CPY  IMM   A:44 X:56 Y:65 P:47 S:fb pc: cbf1, reg_addr: 0065
cbf1 d0 1d e8 BNE  REL   A:44 X:56 Y:65 P:47 S:fb pc: cbf3, reg_addr: cc10
cbf3 e8 e8 88 INX  IMPL  A:44 X:56 Y:65 P:47 S:fb pc: cbf4, reg_addr: 0000
cbf4 e8 88 88 INX  IMPL  A:44 X:57 Y:65 P:45 S:fb pc: cbf5, reg_addr: 0000
cbf5 88 88 e0 DEY  IMPL  A:44 X:58 Y:65 P:45 S:fb pc: cbf6, reg_addr: 0000
cbf6 88 e0 58 DEY  IMPL  A:44 X:58 Y:64 P:45 S:fb pc: cbf7, reg_addr: 0000
cbf7 e0 58 d0 CPX  IMM   A:44 X:58 Y:63 P:45 S:fb pc: cbf9, reg_addr: 0058
cbf9 d0 15 c0 BNE  REL   A:44 X:58 Y:63 P:47 S:fb pc: cbfb, reg_addr: cc10
cbfb c0 63 d0 CPY  IMM   A:44 X:58 Y:63 P:47 S:fb pc: cbfd, reg_addr: 0063
cbfd d0 11 ca BNE  REL   A:44 X:58 Y:63 P:47 S:fb pc: cbff, reg_addr: cc10
cbff ca c8 e0 DEX  IMPL  A:44 X:58 Y:63 P:47 S:fb pc: cc00, reg_addr: 0000
cc00 c8 e0 57 INY  IMPL  A:44 X:57 Y:63 P:45 S:fb pc: cc01, reg_addr: 0000
cc01 e0 57 d0 CPX  IMM   A:44 X:57 Y:64 P:45 S:fb pc: cc03, reg_addr: 0057
cc03 d0 0b c0 BNE  REL   A:44 X:57 Y:64 P:47 S:fb pc: cc05, reg_addr: cc10
cc05 c0 64 d0 CPY  IMM   A:44 X:57 Y:64 P:47 S:fb pc: cc07, reg_addr: 0064
cc07 d0 07 c9 BNE  REL   A:44 X:57 Y:64 P:47 S:fb pc: cc09, reg_addr: cc10
cc09 c9 44 d0 CMP  IMM   A:44 X:57 Y:64 P:47 S:fb pc: cc0b, reg_addr: 0044
cc0b d0 03 4c BNE  REL   A:44 X:57 Y:64 P:47 S:fb pc: cc0d, reg_addr: cc10
cc0d 4c 14 cc JMP  ABS   A:44 X:57 Y:64 P:47 S:fb pc: cc14, reg_addr: cc14
cc14 ea 38 a2 NOP  IMPL  A:44 X:57 Y:64 P:47 S:fb pc: cc15, reg_addr: 0000
cc15 38 a2 69 SEC  IMPL  A:44 X:57 Y:64 P:47 S:fb pc: cc16, reg_addr: 0000
cc16 a2 69 a9 LDX  IMM   A:44 X:57 Y:64 P:47 S:fb pc: cc18, reg_addr: 0069
cc18 a9 96 24 LDA  IMM   A:44 X:69 Y:64 P:45 S:fb pc: cc1a, reg_addr: 0096
cc1a 24 01 a0 BIT  ZP    A:96 X:69 Y:64 P:c5 S:fb pc: cc1c, reg_addr: 0001
cc1c a0 ff c8 LDY  IMM   A:96 X:69 Y:64 P:c5 S:fb pc: cc1e, reg_addr: 00ff
cc1e c8 d0 3d INY  IMPL  A:96 X:69 Y:ff P:c5 S:fb pc: cc1f, reg_addr: 0000
cc1f d0 3d 30 BNE  REL   A:96 X:69 Y:00 P:47 S:fb pc: cc21, reg_addr: cc5e
cc21 30 3b 90 BMI  REL   A:96 X:69 Y:00 P:47 S:fb pc: cc23, reg_addr: cc5e
cc23 90 39 50 BCC  REL   A:96 X:69 Y:00 P:47 S:fb pc: cc25, reg_addr: cc5e
cc25 50 37 c0 BVC  REL   A:96 X:69 Y:00 P:47 S:fb pc: cc27, reg_addr: cc5e
cc27 c0 00 d0 CPY  IMM   A:96 X:69 Y:00 P:47 S:fb pc: cc29, reg_addr: 0000
cc29 d0 33 c8 BNE  REL   A:96 X:69 Y:00 P:47 S:fb pc: cc2b, reg_addr: cc5e
cc2b c8 f0 30 INY  IMPL  A:96 X:69 Y:00 P:47 S:fb pc: cc2c, reg_addr: 0000
cc2c f0 30 30 BEQ  REL   A:96 X:69 Y:01 P:45 S:fb pc: cc2e, reg_addr: cc5e
cc2e 30 2e 90 BMI  REL   A:96 X:69 Y:01 P:45 S:fb pc: cc30, reg_addr: cc5e
cc30 90 2c 50 BCC  REL   A:96 X:69 Y:01 P:45 S:fb pc: cc32, reg_addr: cc5e
cc32 50 2a 18 BVC  REL   A:96 X:69 Y:01 P:45 S:fb pc: cc34, reg_addr: cc5e
cc34 18 b8 a0 CLC  IMPL  A:96 X:69 Y:01 P:45 S:fb pc: cc35, reg_addr: 0000
cc35 b8 a0 00 CLV  IMPL  A:96 X:69 Y:01 P:44 S:fb pc: cc36, reg_addr: 0000
cc36 a0 00 88 LDY  IMM   A:96 X:69 Y:01 P:04 S:fb pc: cc38, reg_addr: 0000
cc38 88 f0 23 DEY  IMPL  A:96 X:69 Y:00 P:06 S:fb pc: cc39, reg_addr: 0000
cc39 f0 23 10 BEQ  REL   A:96 X:69 Y:ff P:84 S:fb pc: cc3b, reg_addr: cc5e
cc3b 10 21 b0 BPL  REL   A:96 X:69 Y:ff P:84 S:fb pc: cc3d, reg_addr: cc5e
cc3d b0 1f 70 BCS  REL   A:96 X:69 Y:ff P:84 S:fb pc: cc3f, reg_addr: cc5e
cc3f 70 1d c0 BVS  REL   A:96 X:69 Y:ff P:84 S:fb pc: cc41, reg_addr: cc5e
cc41 c0 ff d0 CPY  IMM   A:96 X:69 Y:ff P:84 S:fb pc: cc43, reg_addr: 00ff
cc43 d0 19 18 BNE  REL   A:96 X:69 Y:ff P:07 S:fb pc: cc45, reg_addr: cc5e
cc45 18 88 f0 CLC  IMPL  A:96 X:69 Y:ff P:07 S:fb pc: cc46, reg_addr: 0000
cc46 88 f0 15 DEY  IMPL  A:96 X:69 Y:ff P:06 S:fb pc: cc47, reg_addr: 0000
cc47 f0 15 10 BEQ  REL   A:96 X:69 Y:fe P:84 S:fb pc: cc49, reg_addr: cc5e
cc49 10 13 b0 BPL  REL   A:96 X:69 Y:fe P:84 S:fb pc: cc4b, reg_addr: cc5e
cc4b b0 11 70 BCS  REL   A:96 X:69 Y:fe P:84 S:fb pc: cc4d, reg_addr: cc5e
cc4d 70 0f c0 BVS  REL   A:96 X:69 Y:fe P:84 S:fb pc: cc4f, reg_addr: cc5e
cc4f c0 fe d0 CPY  IMM   A:96 X:69 Y:fe P:84 S:fb pc: cc51, reg_addr: 00fe
cc51 d0 0b c9 BNE  REL   A:96 X:69 Y:fe P:07 S:fb pc: cc53, reg_addr: cc5e
cc53 c9 96 d0 CMP  IMM   A:96 X:69 Y:fe P:07 S:fb pc: cc55, reg_addr: 0096
cc55 d0 07 e0 BNE  REL   A:96 X:69 Y:fe P:07 S:fb pc: cc57, reg_addr: cc5e
cc57 e0 69 d0 CPX  IMM   A:96 X:69 Y:fe P:07 S:fb pc: cc59, reg_addr: 0069
cc59 d0 03 4c BNE  REL   A:96 X:69 Y:fe P:07 S:fb pc: cc5b, reg_addr: cc5e
cc5b 4c 62 cc JMP  ABS   A:96 X:69 Y:fe P:07 S:fb pc: cc62, reg_addr: cc62
cc62 ea 38 a0 NOP  IMPL  A:96 X:69 Y:fe P:07 S:fb pc: cc63, reg_addr: 0000
cc63 38 a0 69 SEC  IMPL  A:96 X:69 Y:fe P:07 S:fb pc: cc64, reg_addr: 0000
cc64 a0 69 a9 LDY  IMM   A:96 X:69 Y:fe P:07 S:fb pc: cc66, reg_addr: 0069
cc66 a9 96 24 LDA  IMM   A:96 X:69 Y:69 P:05 S:fb pc: cc68, reg_addr: 0096
cc68 24 01 a2 BIT  ZP    A:96 X:69 Y:69 P:85 S:fb pc: cc6a, reg_addr: 0001
cc6a a2 ff e8 LDX  IMM   A:96 X:69 Y:69 P:c5 S:fb pc: cc6c, reg_addr: 00ff
cc6c e8 d0 3d INX  IMPL  A:96 X:ff Y:69 P:c5 S:fb pc: cc6d, reg_addr: 0000
cc6d d0 3d 30 BNE  REL   A:96 X:00 Y:69 P:47 S:fb pc: cc6f, reg_addr: ccac
cc6f 30 3b 90 BMI  REL   A:96 X:00 Y:69 P:47 S:fb pc: cc71, reg_addr: ccac
cc71 90 39 50 BCC  REL   A:96 X:00 Y:69 P:47 S:fb pc: cc73, reg_addr: ccac
cc73 50 37 e0 BVC  REL   A:96 X:00 Y:69 P:47 S:fb pc: cc75, reg_addr: ccac
cc75 e0 00 d0 CPX  IMM   A:96 X:00 Y:69 P:47 S:fb pc: cc77, reg_addr: 0000
cc77 d0 33 e8 BNE  REL   A:96 X:00 Y:69 P:47 S:fb pc: cc79, reg_addr: ccac
cc79 e8 f0 30 INX  IMPL  A:96 X:00 Y:69 P:47 S:fb pc: cc7a, reg_addr: 0000
cc7a f0 30 30 BEQ  REL   A:96 X:01 Y:69 P:45 S:fb pc: cc7c, reg_addr: ccac
cc7c 30 2e 90 BMI  REL   A:96 X:01 Y:69 P:45 S:fb pc: cc7e, reg_addr: ccac
cc7e 90 2c 50 BCC  REL   A:96 X:01 Y:69 P:45 S:fb pc: cc80, reg_addr: ccac
cc80 50 2a 18 BVC  REL   A:96 X:01 Y:69 P:45 S:fb pc: cc82, reg_addr: ccac
cc82 18 b8 a2 CLC  IMPL  A:96 X:01 Y:69 P:45 S:fb pc: cc83, reg_addr: 0000
cc83 b8 a2 00 CLV  IMPL  A:96 X:01 Y:69 P:44 S:fb pc: cc84, reg_addr: 0000
cc84 a2 00 ca LDX  IMM   A:96 X:01 Y:69 P:04 S:fb pc: cc86, reg_addr: 0000
cc86 ca f0 23 DEX  IMPL  A:96 X:00 Y:69 P:06 S:fb pc: cc87, reg_addr: 0000
cc87 f0 23 10 BEQ  REL   A:96 X:ff Y:69 P:84 S:fb pc: cc89, reg_addr: ccac
cc89 10 21 b0 BPL  REL   A:96 X:ff Y:69 P:84 S:fb pc: cc8b, reg_addr: ccac
cc8b b0 1f 70 BCS  REL   A:96 X:ff Y:69 P:84 S:fb pc: cc8d, reg_addr: ccac
cc8d 70 1d e0 BVS  REL   A:96 X:ff Y:69 P:84 S:fb pc: cc8f, reg_addr: ccac
cc8f e0 ff d0 CPX  IMM   A:96 X:ff Y:69 P:84 S:fb pc: cc91, reg_addr: 00ff
cc91 d0 19 18 BNE  REL   A:96 X:ff Y:69 P:07 S:fb pc: cc93, reg_addr: ccac
cc93 18 ca f0 CLC  IMPL  A:96 X:ff Y:69 P:07 S:fb pc: cc94, reg_addr: 0000
cc94 ca f0 15 DEX  IMPL  A:96 X:ff Y:69 P:06 S:fb pc: cc95, reg_addr: 0000
cc95 f0 15 10 BEQ  REL   A:96 X:fe Y:69 P:84 S:fb pc: cc97, reg_addr: ccac
cc97 10 13 b0 BPL  REL   A:96 X:fe Y:69 P:84 S:fb pc: cc99, reg_addr: ccac
cc99 b0 11 70 BCS  REL   A:96 X:fe Y:69 P:84 S:fb pc: cc9b, reg_addr: ccac
cc9b 70 0f e0 BVS  REL   A:96 X:fe Y:69 P:84 S:fb pc: cc9d, reg_addr: ccac
cc9d e0 fe d0 CPX  IMM   A:96 X:fe Y:69 P:84 S:fb pc: cc9f, reg_addr: 00fe
cc9f d0 0b c9 BNE  REL   A:96 X:fe Y:69 P:07 S:fb pc: cca1, reg_addr: ccac
cca1 c9 96 d0 CMP  IMM   A:96 X:fe Y:69 P:07 S:fb pc: cca3, reg_addr: 0096
cca3 d0 07 c0 BNE  REL   A:96 X:fe Y:69 P:07 S:fb pc: cca5, reg_addr: ccac
cca5 c0 69 d0 CPY  IMM   A:96 X:fe Y:69 P:07 S:fb pc: cca7, reg_addr: 0069
cca7 d0 03 4c BNE  REL   A:96 X:fe Y:69 P:07 S:fb pc: cca9, reg_addr: ccac
cca9 4c b0 cc JMP  ABS   A:96 X:fe Y:69 P:07 S:fb pc: ccb0, reg_addr: ccb0
ccb0 ea a9 85 NOP  IMPL  A:96 X:fe Y:69 P:07 S:fb pc: ccb1, reg_addr: 0000
ccb1 a9 85 a2 LDA  IMM   A:96 X:fe Y:69 P:07 S:fb pc: ccb3, reg_addr: 0085
ccb3 a2 34 a0 LDX  IMM   A:85 X:fe Y:69 P:85 S:fb pc: ccb5, reg_addr: 0034
ccb5 a0 99 18 LDY  IMM   A:85 X:34 Y:69 P:05 S:fb pc: ccb7, reg_addr: 0099
ccb7 18 24 01 CLC  IMPL  A:85 X:34 Y:99 P:85 S:fb pc: ccb8, reg_addr: 0000
ccb8 24 01 a8 BIT  ZP    A:85 X:34 Y:99 P:84 S:fb pc: ccba, reg_addr: 0001
ccba a8 f0 2e TAY  IMPL  A:85 X:34 Y:99 P:c4 S:fb pc: ccbb, reg_addr: 0000
ccbb f0 2e b0 BEQ  REL   A:85 X:34 Y:85 P:c4 S:fb pc: ccbd, reg_addr: cceb
ccbd b0 2c 50 BCS  REL   A:85 X:34 Y:85 P:c4 S:fb pc: ccbf, reg_addr: cceb
ccbf 50 2a 10 BVC  REL   A:85 X:34 Y:85 P:c4 S:fb pc: ccc1, reg_addr: cceb
ccc1 10 28 c9 BPL  REL   A:85 X:34 Y:85 P:c4 S:fb pc: ccc3, reg_addr: cceb
ccc3 c9 85 d0 CMP  IMM   A:85 X:34 Y:85 P:c4 S:fb pc: ccc5, reg_addr: 0085
ccc5 d0 24 e0 BNE  REL   A:85 X:34 Y:85 P:47 S:fb pc: ccc7, reg_addr: cceb
ccc7 e0 34 d0 CPX  IMM   A:85 X:34 Y:85 P:47 S:fb pc: ccc9, reg_addr: 0034
ccc9 d0 20 c0 BNE  REL   A:85 X:34 Y:85 P:47 S:fb pc: cccb, reg_addr: cceb
cccb c0 85 d0 CPY  IMM   A:85 X:34 Y:85 P:47 S:fb pc: cccd, reg_addr: 0085
cccd d0 1c a9 BNE  REL   A:85 X:34 Y:85 P:47 S:fb pc: cccf, reg_addr: cceb
cccf a9 00 38 LDA  IMM   A:85 X:34 Y:85 P:47 S:fb pc: ccd1, reg_addr: 0000
ccd1 38 b8 a8 SEC  IMPL  A:00 X:34 Y:85 P:47 S:fb pc: ccd2, reg_addr: 0000
ccd2 b8 a8 d0 CLV  IMPL  A:00 X:34 Y:85 P:47 S:fb pc: ccd3, reg_addr: 0000
ccd3 a8 d0 15 TAY  IMPL  A:00 X:34 Y:85 P:07 S:fb pc: ccd4, reg_addr: 0000
ccd4 d0 15 90 BNE  REL   A:00 X:34 Y:00 P:07 S:fb pc: ccd6, reg_addr: cceb
ccd6 90 13 70 BCC  REL   A:00 X:34 Y:00 P:07 S:fb pc: ccd8, reg_addr: cceb
ccd8 70 11 30 BVS  REL   A:00 X:34 Y:00 P:07 S:fb pc: ccda, reg_addr: cceb
ccda 30 0f c9 BMI  REL   A:00 X:34 Y:00 P:07 S:fb pc: ccdc, reg_addr: cceb
ccdc c9 00 d0 CMP  IMM   A:00 X:34 Y:00 P:07 S:fb pc: ccde, reg_addr: 0000
ccde d0 0b e0 BNE  REL   A:00 X:34 Y:00 P:07 S:fb pc: cce0, reg_addr: cceb
cce0 e0 34 d0 CPX  IMM   A:00 X:34 Y:00 P:07 S:fb pc: cce2, reg_addr: 0034
cce2 d0 07 c0 BNE  REL   A:00 X:34 Y:00 P:07 S:fb pc: cce4, reg_addr: cceb
cce4 c0 00 d0 CPY  IMM   A:00 X:34 Y:00 P:07 S:fb pc: cce6, reg_addr: 0000
cce6 d0 03 4c BNE  REL   A:00 X:34 Y:00 P:07 S:fb pc: cce8, reg_addr: cceb
cce8 4c ef cc JMP  ABS   A:00 X:34 Y:00 P:07 S:fb pc: ccef, reg_addr: ccef
ccef ea a9 85 NOP  IMPL  A:00 X:34 Y:00 P:07 S:fb pc: ccf0, reg_addr: 0000
ccf0 a9 85 a2 LDA  IMM   A:00 X:34 Y:00 P:07 S:fb pc: ccf2, reg_addr: 0085
ccf2 a2 34 a0 LDX  IMM   A:85 X:34 Y:00 P:85 S:fb pc: ccf4, reg_addr: 0034
ccf4 a0 99 18 LDY  IMM   A:85 X:34 Y:00 P:05 S:fb pc: ccf6, reg_addr: 0099
ccf6 18 24 01 CLC  IMPL  A:85 X:34 Y:99 P:85 S:fb pc: ccf7, reg_addr: 0000
ccf7 24 01 aa BIT  ZP    A:85 X:34 Y:99 P:84 S:fb pc: ccf9, reg_addr: 0001
ccf9 aa f0 2e TAX  IMPL  A:85 X:34 Y:99 P:c4 S:fb pc: ccfa, reg_addr: 0000
ccfa f0 2e b0 BEQ  REL   A:85 X:85 Y:99 P:c4 S:fb pc: ccfc, reg_addr: cd2a
ccfc b0 2c 50 BCS  REL   A:85 X:85 Y:99 P:c4 S:fb pc: ccfe, reg_addr: cd2a
ccfe 50 2a 10 BVC  REL   A:85 X:85 Y:99 P:c4 S:fb pc: cd00, reg_addr: cd2a
cd00 10 28 c9 BPL  REL   A:85 X:85 Y:99 P:c4 S:fb pc: cd02, reg_addr: cd2a
cd02 c9 85 d0 CMP  IMM   A:85 X:85 Y:99 P:c4 S:fb pc: cd04, reg_addr: 0085
cd04 d0 24 e0 BNE  REL   A:85 X:85 Y:99 P:47 S:fb pc: cd06, reg_addr: cd2a
cd06 e0 85 d0 CPX  IMM   A:85 X:85 Y:99 P:47 S:fb pc: cd08, reg_addr: 0085
cd08 d0 20 c0 BNE  REL   A:85 X:85 Y:99 P:47 S:fb pc: cd0a, reg_addr: cd2a
cd0a c0 99 d0 CPY  IMM   A:85 X:85 Y:99 P:47 S:fb pc: cd0c, reg_addr: 0099
cd0c d0 1c a9 BNE  REL   A:85 X:85 Y:99 P:47 S:fb pc: cd0e, reg_addr: cd2a
cd0e a9 00 38 LDA  IMM   A:85 X:85 Y:99 P:47 S:fb pc: cd10, reg_addr: 0000
cd10 38 b8 aa SEC  IMPL  A:00 X:85 Y:99 P:47 S:fb pc: cd11, reg_addr: 0000
cd11 b8 aa d0 CLV  IMPL  A:00 X:85 Y:99 P:47 S:fb pc: cd12, reg_addr: 0000
cd12 aa d0 15 TAX  IMPL  A:00 X:85 Y:99 P:07 S:fb pc: cd13, reg_addr: 0000
cd13 d0 15 90 BNE  REL   A:00 X:00 Y:99 P:07 S:fb pc: cd15, reg_addr: cd2a
cd15 90 13 70 BCC  REL   A:00 X:00 Y:99 P:07 S:fb pc: cd17, reg_addr: cd2a
cd17 70 11 30 BVS  REL   A:00 X:00 Y:99 P:07 S:fb pc: cd19, reg_addr: cd2a
cd19 30 0f c9 BMI  REL   A:00 X:00 Y:99 P:07 S:fb pc: cd1b, reg_addr: cd2a
cd1b c9 00 d0 CMP  IMM   A:00 X:00 Y:99 P:07 S:fb pc: cd1d, reg_addr: 0000
cd1d d0 0b e0 BNE  REL   A:00 X:00 Y:99 P:07 S:fb pc: cd1f, reg_addr: cd2a
cd1f e0 00 d0 CPX  IMM   A:00 X:00 Y:99 P:07 S:fb pc: cd21, reg_addr: 0000
cd21 d0 07 c0 BNE  REL   A:00 X:00 Y:99 P:07 S:fb pc: cd23, reg_addr: cd2a
cd23 c0 99 d0 CPY  IMM   A:00 X:00 Y:99 P:07 S:fb pc: cd25, reg_addr: 0099
cd25 d0 03 4c BNE  REL   A:00 X:00 Y:99 P:07 S:fb pc: cd27, reg_addr: cd2a
cd27 4c 2e cd JMP  ABS   A:00 X:00 Y:99 P:07 S:fb pc: cd2e, reg_addr: cd2e
cd2e ea a9 85 NOP  IMPL  A:00 X:00 Y:99 P:07 S:fb pc: cd2f, reg_addr: 0000
cd2f a9 85 a2 LDA  IMM   A:00 X:00 Y:99 P:07 S:fb pc: cd31, reg_addr: 0085
cd31 a2 34 a0 LDX  IMM   A:85 X:00 Y:99 P:85 S:fb pc: cd33, reg_addr: 0034
cd33 a0 99 18 LDY  IMM   A:85 X:34 Y:99 P:05 S:fb pc: cd35, reg_addr: 0099
cd35 18 24 01 CLC  IMPL  A:85 X:34 Y:99 P:85 S:fb pc: cd36, reg_addr: 0000
cd36 24 01 98 BIT  ZP    A:85 X:34 Y:99 P:84 S:fb pc: cd38, reg_addr: 0001
cd38 98 f0 2e TYA  IMPL  A:85 X:34 Y:99 P:c4 S:fb pc: cd39, reg_addr: 0000
cd39 f0 2e b0 BEQ  REL   A:99 X:34 Y:99 P:c4 S:fb pc: cd3b, reg_addr: cd69
cd3b b0 2c 50 BCS  REL   A:99 X:34 Y:99 P:c4 S:fb pc: cd3d, reg_addr: cd69
cd3d 50 2a 10 BVC  REL   A:99 X:34 Y:99 P:c4 S:fb pc: cd3f, reg_addr: cd69
cd3f 10 28 c9 BPL  REL   A:99 X:34 Y:99 P:c4 S:fb pc: cd41, reg_addr: cd69
cd41 c9 99 d0 CMP  IMM   A:99 X:34 Y:99 P:c4 S:fb pc: cd43, reg_addr: 0099
cd43 d0 24 e0 BNE  REL   A:99 X:34 Y:99 P:47 S:fb pc: cd45, reg_addr: cd69
cd45 e0 34 d0 CPX  IMM   A:99 X:34 Y:99 P:47 S:fb pc: cd47, reg_addr: 0034
cd47 d0 20 c0 BNE  REL   A:99 X:34 Y:99 P:47 S:fb pc: cd49, reg_addr: cd69
cd49 c0 99 d0 CPY  IMM   A:99 X:34 Y:99 P:47 S:fb pc: cd4b, reg_addr: 0099
cd4b d0 1c a0 BNE  REL   A:99 X:34 Y:99 P:47 S:fb pc: cd4d, reg_addr: cd69
cd4d a0 00 38 LDY  IMM   A:99 X:34 Y:99 P:47 S:fb pc: cd4f, reg_addr: 0000
cd4f 38 b8 98 SEC  IMPL  A:99 X:34 Y:00 P:47 S:fb pc: cd50, reg_addr: 0000
cd50 b8 98 d0 CLV  IMPL  A:99 X:34 Y:00 P:47 S:fb pc: cd51, reg_addr: 0000
cd51 98 d0 15 TYA  IMPL  A:99 X:34 Y:00 P:07 S:fb pc: cd52, reg_addr: 0000
cd52 d0 15 90 BNE  REL   A:00 X:34 Y:00 P:07 S:fb pc: cd54, reg_addr: cd69
cd54 90 13 70 BCC  REL   A:00 X:34 Y:00 P:07 S:fb pc: cd56, reg_addr: cd69
cd56 70 11 30 BVS  REL   A:00 X:34 Y:00 P:07 S:fb pc: cd58, reg_addr: cd69
cd58 30 0f c9 BMI  REL   A:00 X:34 Y:00 P:07 S:fb pc: cd5a, reg_addr: cd69
cd5a c9 00 d0 CMP  IMM   A:00 X:34 Y:00 P:07 S:fb pc: cd5c, reg_addr: 0000
cd5c d0 0b e0 BNE  REL   A:00 X:34 Y:00 P:07 S:fb pc: cd5e, reg_addr: cd69
cd5e e0 34 d0 CPX  IMM   A:00 X:34 Y:00 P:07 S:fb pc: cd60, reg_addr: 0034
cd60 d0 07 c0 BNE  REL   A:00 X:34 Y:00 P:07 S:fb pc: cd62, reg_addr: cd69
cd62 c0 00 d0 CPY  IMM   A:00 X:34 Y:00 P:07 S:fb pc: cd64, reg_addr: 0000
cd64 d0 03 4c BNE  REL   A:00 X:34 Y:00 P:07 S:fb pc: cd66, reg_addr: cd69
cd66 4c 6d cd JMP  ABS   A:00 X:34 Y:00 P:07 S:fb pc: cd6d, reg_addr: cd6d
cd6d ea a9 85 NOP  IMPL  A:00 X:34 Y:00 P:07 S:fb pc: cd6e, reg_addr: 0000
cd6e a9 85 a2 LDA  IMM   A:00 X:34 Y:00 P:07 S:fb pc: cd70, reg_addr: 0085
cd70 a2 34 a0 LDX  IMM   A:85 X:34 Y:00 P:85 S:fb pc: cd72, reg_addr: 0034
cd72 a0 99 18 LDY  IMM   A:85 X:34 Y:00 P:05 S:fb pc: cd74, reg_addr: 0099
cd74 18 24 01 CLC  IMPL  A:85 X:34 Y:99 P:85 S:fb pc: cd75, reg_addr: 0000
cd75 24 01 8a BIT  ZP    A:85 X:34 Y:99 P:84 S:fb pc: cd77, reg_addr: 0001
cd77 8a f0 2e TXA  IMPL  A:85 X:34 Y:99 P:c4 S:fb pc: cd78, reg_addr: 0000
cd78 f0 2e b0 BEQ  REL   A:34 X:34 Y:99 P:44 S:fb pc: cd7a, reg_addr: cda8
cd7a b0 2c 50 BCS  REL   A:34 X:34 Y:99 P:44 S:fb pc: cd7c, reg_addr: cda8
cd7c 50 2a 30 BVC  REL   A:34 X:34 Y:99 P:44 S:fb pc: cd7e, reg_addr: cda8
cd7e 30 28 c9 BMI  REL   A:34 X:34 Y:99 P:44 S:fb pc: cd80, reg_addr: cda8
cd80 c9 34 d0 CMP  IMM   A:34 X:34 Y:99 P:44 S:fb pc: cd82, reg_addr: 0034
cd82 d0 24 e0 BNE  REL   A:34 X:34 Y:99 P:47 S:fb pc: cd84, reg_addr: cda8
cd84 e0 34 d0 CPX  IMM   A:34 X:34 Y:99 P:47 S:fb pc: cd86, reg_addr: 0034
cd86 d0 20 c0 BNE  REL   A:34 X:34 Y:99 P:47 S:fb pc: cd88, reg_addr: cda8
cd88 c0 99 d0 CPY  IMM   A:34 X:34 Y:99 P:47 S:fb pc: cd8a, reg_addr: 0099
cd8a d0 1c a2 BNE  REL   A:34 X:34 Y:99 P:47 S:fb pc: cd8c, reg_addr: cda8
cd8c a2 00 38 LDX  IMM   A:34 X:34 Y:99 P:47 S:fb pc: cd8e, reg_addr: 0000
cd8e 38 b8 8a SEC  IMPL  A:34 X:00 Y:99 P:47 S:fb pc: cd8f, reg_addr: 0000
cd8f b8 8a d0 CLV  IMPL  A:34 X:00 Y:99 P:47 S:fb pc: cd90, reg_addr: 0000
cd90 8a d0 15 TXA  IMPL  A:34 X:00 Y:99 P:07 S:fb pc: cd91, reg_addr: 0000
cd91 d0 15 90 BNE  REL   A:00 X:00 Y:99 P:07 S:fb pc: cd93, reg_addr: cda8
cd93 90 13 70 BCC  REL   A:00 X:00 Y:99 P:07 S:fb pc: cd95, reg_addr: cda8
cd95 70 11 30 BVS  REL   A:00 X:00 Y:99 P:07 S:fb pc: cd97, reg_addr: cda8
cd97 30 0f c9 BMI  REL   A:00 X:00 Y:99 P:07 S:fb pc: cd99, reg_addr: cda8
cd99 c9 00 d0 CMP  IMM   A:00 X:00 Y:99 P:07 S:fb pc: cd9b, reg_addr: 0000
cd9b d0 0b e0 BNE  REL   A:00 X:00 Y:99 P:07 S:fb pc: cd9d, reg_addr: cda8
cd9d e0 00 d0 CPX  IMM   A:00 X:00 Y:99 P:07 S:fb pc: cd9f, reg_addr: 0000
cd9f d0 07 c0 BNE  REL   A:00 X:00 Y:99 P:07 S:fb pc: cda1, reg_addr: cda8
cda1 c0 99 d0 CPY  IMM   A:00 X:00 Y:99 P:07 S:fb pc: cda3, reg_addr: 0099
cda3 d0 03 4c BNE  REL   A:00 X:00 Y:99 P:07 S:fb pc: cda5, reg_addr: cda8
cda5 4c ac cd JMP  ABS   A:00 X:00 Y:99 P:07 S:fb pc: cdac, reg_addr: cdac
cdac ea ba 8e NOP  IMPL  A:00 X:00 Y:99 P:07 S:fb pc: cdad, reg_addr: 0000
cdad ba 8e ff TSX  IMPL  A:00 X:00 Y:99 P:07 S:fb pc: cdae, reg_addr: 0000
cdae 8e ff 07 STX  ABS   A:00 X:fb Y:99 P:85 S:fb pc: cdb1, reg_addr: 07ff
cdb1 a0 33 a2 LDY  IMM   A:00 X:fb Y:99 P:85 S:fb pc: cdb3, reg_addr: 0033
cdb3 a2 69 a9 LDX  IMM   A:00 X:fb Y:33 P:05 S:fb pc: cdb5, reg_addr: 0069
cdb5 a9 84 18 LDA  IMM   A:00 X:69 Y:33 P:05 S:fb pc: cdb7, reg_addr: 0084
cdb7 18 24 01 CLC  IMPL  A:84 X:69 Y:33 P:85 S:fb pc: cdb8, reg_addr: 0000
cdb8 24 01 9a BIT  ZP    A:84 X:69 Y:33 P:84 S:fb pc: cdba, reg_addr: 0001
cdba 9a f0 32 TXS  IMPL  A:84 X:69 Y:33 P:c4 S:fb pc: cdbb, reg_addr: 0000
cdbb f0 32 10 BEQ  REL   A:84 X:69 Y:33 P:c4 S:69 pc: cdbd, reg_addr: cdef
cdbd 10 30 b0 BPL  REL   A:84 X:69 Y:33 P:c4 S:69 pc: cdbf, reg_addr: cdef
cdbf b0 2e 50 BCS  REL   A:84 X:69 Y:33 P:c4 S:69 pc: cdc1, reg_addr: cdef
cdc1 50 2c c9 BVC  REL   A:84 X:69 Y:33 P:c4 S:69 pc: cdc3, reg_addr: cdef
cdc3 c9 84 d0 CMP  IMM   A:84 X:69 Y:33 P:c4 S:69 pc: cdc5, reg_addr: 0084
cdc5 d0 28 e0 BNE  REL   A:84 X:69 Y:33 P:47 S:69 pc: cdc7, reg_addr: cdef
cdc7 e0 69 d0 CPX  IMM   A:84 X:69 Y:33 P:47 S:69 pc: cdc9, reg_addr: 0069
cdc9 d0 24 c0 BNE  REL   A:84 X:69 Y:33 P:47 S:69 pc: cdcb, reg_addr: cdef
cdcb c0 33 d0 CPY  IMM   A:84 X:69 Y:33 P:47 S:69 pc: cdcd, reg_addr: 0033
cdcd d0 20 a0 BNE  REL   A:84 X:69 Y:33 P:47 S:69 pc: cdcf, reg_addr: cdef
cdcf a0 01 a9 LDY  IMM   A:84 X:69 Y:33 P:47 S:69 pc: cdd1, reg_addr: 0001
cdd1 a9 04 38 LDA  IMM   A:84 X:69 Y:01 P:45 S:69 pc: cdd3, reg_addr: 0004
cdd3 38 b8 a2 SEC  IMPL  A:04 X:69 Y:01 P:45 S:69 pc: cdd4, reg_addr: 0000
cdd4 b8 a2 00 CLV  IMPL  A:04 X:69 Y:01 P:45 S:69 pc: cdd5, reg_addr: 0000
cdd5 a2 00 ba LDX  IMM   A:04 X:69 Y:01 P:05 S:69 pc: cdd7, reg_addr: 0000
cdd7 ba f0 15 TSX  IMPL  A:04 X:00 Y:01 P:07 S:69 pc: cdd8, reg_addr: 0000
cdd8 f0 15 30 BEQ  REL   A:04 X:69 Y:01 P:05 S:69 pc: cdda, reg_addr: cdef
cdda 30 13 90 BMI  REL   A:04 X:69 Y:01 P:05 S:69 pc: cddc, reg_addr: cdef
cddc 90 11 70 BCC  REL   A:04 X:69 Y:01 P:05 S:69 pc: cdde, reg_addr: cdef
cdde 70 0f e0 BVS  REL   A:04 X:69 Y:01 P:05 S:69 pc: cde0, reg_addr: cdef
cde0 e0 69 d0 CPX  IMM   A:04 X:69 Y:01 P:05 S:69 pc: cde2, reg_addr: 0069
cde2 d0 0b c9 BNE  REL   A:04 X:69 Y:01 P:07 S:69 pc: cde4, reg_addr: cdef
cde4 c9 04 d0 CMP  IMM   A:04 X:69 Y:01 P:07 S:69 pc: cde6, reg_addr: 0004
cde6 d0 07 c0 BNE  REL   A:04 X:69 Y:01 P:07 S:69 pc: cde8, reg_addr: cdef
cde8 c0 01 d0 CPY  IMM   A:04 X:69 Y:01 P:07 S:69 pc: cdea, reg_addr: 0001
cdea d0 03 4c BNE  REL   A:04 X:69 Y:01 P:07 S:69 pc: cdec, reg_addr: cdef
cdec 4c f3 cd JMP  ABS   A:04 X:69 Y:01 P:07 S:69 pc: cdf3, reg_addr: cdf3
cdf3 ae ff 07 LDX  ABS   A:04 X:69 Y:01 P:07 S:69 pc: cdf6, reg_addr: 07ff
cdf6 9a 60 a9 TXS  IMPL  A:04 X:fb Y:01 P:85 S:69 pc: cdf7, reg_addr: 0000
cdf7 60 a9 ff RTS  IMPL  A:04 X:fb Y:01 P:85 S:fb pc: c609, reg_addr: 0000
c609 20 f8 cd JSR  ABS   A:04 X:fb Y:01 P:85 S:fd pc: cdf8, reg_addr: cdf8
cdf8 a9 ff 85 LDA  IMM   A:04 X:fb Y:01 P:85 S:fb pc: cdfa, reg_addr: 00ff
cdfa 85 01 ba STA  ZP    A:ff X:fb Y:01 P:85 S:fb pc: cdfc, reg_addr: 0001
cdfc ba 8e ff TSX  IMPL  A:ff X:fb Y:01 P:85 S:fb pc: cdfd, reg_addr: 0000
cdfd 8e ff 07 STX  ABS   A:ff X:fb Y:01 P:85 S:fb pc: ce00, reg_addr: 07ff
ce00 ea a2 80 NOP  IMPL  A:ff X:fb Y:01 P:85 S:fb pc: ce01, reg_addr: 0000
ce01 a2 80 9a LDX  IMM   A:ff X:fb Y:01 P:85 S:fb pc: ce03, reg_addr: 0080
ce03 9a a9 33 TXS  IMPL  A:ff X:80 Y:01 P:85 S:fb pc: ce04, reg_addr: 0000
ce04 a9 33 48 LDA  IMM   A:ff X:80 Y:01 P:85 S:80 pc: ce06, reg_addr: 0033
ce06 48 a9 69 PHA  IMPL  A:33 X:80 Y:01 P:05 S:80 pc: ce07, reg_addr: 0000
ce07 a9 69 48 LDA  IMM   A:33 X:80 Y:01 P:05 S:7f pc: ce09, reg_addr: 0069
ce09 48 ba e0 PHA  IMPL  A:69 X:80 Y:01 P:05 S:7f pc: ce0a, reg_addr: 0000
ce0a ba e0 7e TSX  IMPL  A:69 X:80 Y:01 P:05 S:7e pc: ce0b, reg_addr: 0000
ce0b e0 7e d0 CPX  IMM   A:69 X:7e Y:01 P:05 S:7e pc: ce0d, reg_addr: 007e
ce0d d0 20 68 BNE  REL   A:69 X:7e Y:01 P:07 S:7e pc: ce0f, reg_addr: ce2f
ce0f 68 c9 69 PLA  IMPL  A:69 X:7e Y:01 P:07 S:7e pc: ce10, reg_addr: 0000
ce10 c9 69 d0 CMP  IMM   A:69 X:7e Y:01 P:05 S:7f pc: ce12, reg_addr: 0069
ce12 d0 1b 68 BNE  REL   A:69 X:7e Y:01 P:07 S:7f pc: ce14, reg_addr: ce2f
ce14 68 c9 33 PLA  IMPL  A:69 X:7e Y:01 P:07 S:7f pc: ce15, reg_addr: 0000
ce15 c9 33 d0 CMP  IMM   A:33 X:7e Y:01 P:05 S:80 pc: ce17, reg_addr: 0033
ce17 d0 16 ba BNE  REL   A:33 X:7e Y:01 P:07 S:80 pc: ce19, reg_addr: ce2f
ce19 ba e0 80 TSX  IMPL  A:33 X:7e Y:01 P:07 S:80 pc: ce1a, reg_addr: 0000
ce1a e0 80 d0 CPX  IMM   A:33 X:80 Y:01 P:85 S:80 pc: ce1c, reg_addr: 0080
ce1c d0 11 ad BNE  REL   A:33 X:80 Y:01 P:07 S:80 pc: ce1e, reg_addr: ce2f
ce1e ad 80 01 LDA  ABS   A:33 X:80 Y:01 P:07 S:80 pc: ce21, reg_addr: 0180
ce21 c9 33 d0 CMP  IMM   A:33 X:80 Y:01 P:05 S:80 pc: ce23, reg_addr: 0033
ce23 d0 0a ad BNE  REL   A:33 X:80 Y:01 P:07 S:80 pc: ce25, reg_addr: ce2f
ce25 ad 7f 01 LDA  ABS   A:33 X:80 Y:01 P:07 S:80 pc: ce28, reg_addr: 017f
ce28 c9 69 d0 CMP  IMM   A:69 X:80 Y:01 P:05 S:80 pc: ce2a, reg_addr: 0069
ce2a d0 03 4c BNE  REL   A:69 X:80 Y:01 P:07 S:80 pc: ce2c, reg_addr: ce2f
ce2c 4c 33 ce JMP  ABS   A:69 X:80 Y:01 P:07 S:80 pc: ce33, reg_addr: ce33
ce33 ea a2 80 NOP  IMPL  A:69 X:80 Y:01 P:07 S:80 pc: ce34, reg_addr: 0000
ce34 a2 80 9a LDX  IMM   A:69 X:80 Y:01 P:07 S:80 pc: ce36, reg_addr: 0080
ce36 9a 20 3d TXS  IMPL  A:69 X:80 Y:01 P:85 S:80 pc: ce37, reg_addr: 0000
ce37 20 3d ce JSR  ABS   A:69 X:80 Y:01 P:85 S:80 pc: ce3d, reg_addr: ce3d
ce3d ba e0 7e TSX  IMPL  A:69 X:80 Y:01 P:85 S:7e pc: ce3e, reg_addr: 0000
ce3e e0 7e d0 CPX  IMM   A:69 X:7e Y:01 P:05 S:7e pc: ce40, reg_addr: 007e
ce40 d0 19 68 BNE  REL   A:69 X:7e Y:01 P:07 S:7e pc: ce42, reg_addr: ce5b
ce42 68 68 ba PLA  IMPL  A:69 X:7e Y:01 P:07 S:7e pc: ce43, reg_addr: 0000
ce43 68 ba e0 PLA  IMPL  A:39 X:7e Y:01 P:05 S:7f pc: ce44, reg_addr: 0000
ce44 ba e0 80 TSX  IMPL  A:ce X:7e Y:01 P:85 S:80 pc: ce45, reg_addr: 0000
ce45 e0 80 d0 CPX  IMM   A:ce X:80 Y:01 P:85 S:80 pc: ce47, reg_addr: 0080
ce47 d0 12 a9 BNE  REL   A:ce X:80 Y:01 P:07 S:80 pc: ce49, reg_addr: ce5b
ce49 a9 00 20 LDA  IMM   A:ce X:80 Y:01 P:07 S:80 pc: ce4b, reg_addr: 0000
ce4b 20 4e ce JSR  ABS   A:00 X:80 Y:01 P:07 S:80 pc: ce4e, reg_addr: ce4e
ce4e 68 c9 4d PLA  IMPL  A:00 X:80 Y:01 P:07 S:7e pc: ce4f, reg_addr: 0000
ce4f c9 4d d0 CMP  IMM   A:4d X:80 Y:01 P:05 S:7f pc: ce51, reg_addr: 004d
ce51 d0 08 68 BNE  REL   A:4d X:80 Y:01 P:07 S:7f pc: ce53, reg_addr: ce5b
ce53 68 c9 ce PLA  IMPL  A:4d X:80 Y:01 P:07 S:7f pc: ce54, reg_addr: 0000
ce54 c9 ce d0 CMP  IMM   A:ce X:80 Y:01 P:85 S:80 pc: ce56, reg_addr: 00ce
ce56 d0 03 4c BNE  REL   A:ce X:80 Y:01 P:07 S:80 pc: ce58, reg_addr: ce5b
ce58 4c 5f ce JMP  ABS   A:ce X:80 Y:01 P:07 S:80 pc: ce5f, reg_addr: ce5f
ce5f ea a9 ce NOP  IMPL  A:ce X:80 Y:01 P:07 S:80 pc: ce60, reg_addr: 0000
ce60 a9 ce 48 LDA  IMM   A:ce X:80 Y:01 P:07 S:80 pc: ce62, reg_addr: 00ce
ce62 48 a9 66 PHA  IMPL  A:ce X:80 Y:01 P:85 S:80 pc: ce63, reg_addr: 0000
ce63 a9 66 48 LDA  IMM   A:ce X:80 Y:01 P:85 S:7f pc: ce65, reg_addr: 0066
ce65 48 60 a2 PHA  IMPL  A:66 X:80 Y:01 P:05 S:7f pc: ce66, reg_addr: 0000
ce66 60 a2 77 RTS  IMPL  A:66 X:80 Y:01 P:05 S:7e pc: ce67, reg_addr: 0000
ce67 a2 77 a0 LDX  IMM   A:66 X:80 Y:01 P:05 S:80 pc: ce69, reg_addr: 0077
ce69 a0 69 18 LDY  IMM   A:66 X:77 Y:01 P:05 S:80 pc: ce6b, reg_addr: 0069
ce6b 18 24 01 CLC  IMPL  A:66 X:77 Y:69 P:05 S:80 pc: ce6c, reg_addr: 0000
ce6c 24 01 a9 BIT  ZP    A:66 X:77 Y:69 P:04 S:80 pc: ce6e, reg_addr: 0001
ce6e a9 83 20 LDA  IMM   A:66 X:77 Y:69 P:c4 S:80 pc: ce70, reg_addr: 0083
ce70 20 66 ce JSR  ABS   A:83 X:77 Y:69 P:c4 S:80 pc: ce66, reg_addr: ce66
ce66 60 a2 77 RTS  IMPL  A:83 X:77 Y:69 P:c4 S:7e pc: ce73, reg_addr: 0000
ce73 f0 24 10 BEQ  REL   A:83 X:77 Y:69 P:c4 S:80 pc: ce75, reg_addr: ce99
ce75 10 22 b0 BPL  REL   A:83 X:77 Y:69 P:c4 S:80 pc: ce77, reg_addr: ce99
ce77 b0 20 50 BCS  REL   A:83 X:77 Y:69 P:c4 S:80 pc: ce79, reg_addr: ce99
ce79 50 1e c9 BVC  REL   A:83 X:77 Y:69 P:c4 S:80 pc: ce7b, reg_addr: ce99
ce7b c9 83 d0 CMP  IMM   A:83 X:77 Y:69 P:c4 S:80 pc: ce7d, reg_addr: 0083
ce7d d0 1a c0 BNE  REL   A:83 X:77 Y:69 P:47 S:80 pc: ce7f, reg_addr: ce99
ce7f c0 69 d0 CPY  IMM   A:83 X:77 Y:69 P:47 S:80 pc: ce81, reg_addr: 0069
ce81 d0 16 e0 BNE  REL   A:83 X:77 Y:69 P:47 S:80 pc: ce83, reg_addr: ce99
ce83 e0 77 d0 CPX  IMM   A:83 X:77 Y:69 P:47 S:80 pc: ce85, reg_addr: 0077
ce85 d0 12 38 BNE  REL   A:83 X:77 Y:69 P:47 S:80 pc: ce87, reg_addr: ce99
ce87 38 b8 a9 SEC  IMPL  A:83 X:77 Y:69 P:47 S:80 pc: ce88, reg_addr: 0000
ce88 b8 a9 00 CLV  IMPL  A:83 X:77 Y:69 P:47 S:80 pc: ce89, reg_addr: 0000
ce89 a9 00 20 LDA  IMM   A:83 X:77 Y:69 P:07 S:80 pc: ce8b, reg_addr: 0000
ce8b 20 66 ce JSR  ABS   A:00 X:77 Y:69 P:07 S:80 pc: ce66, reg_addr: ce66
ce66 60 a2 77 RTS  IMPL  A:00 X:77 Y:69 P:07 S:7e pc: ce8e, reg_addr: 0000
ce8e d0 09 30 BNE  REL   A:00 X:77 Y:69 P:07 S:80 pc: ce90, reg_addr: ce99
ce90 30 07 90 BMI  REL   A:00 X:77 Y:69 P:07 S:80 pc: ce92, reg_addr: ce99
ce92 90 05 70 BCC  REL   A:00 X:77 Y:69 P:07 S:80 pc: ce94, reg_addr: ce99
ce94 70 03 4c BVS  REL   A:00 X:77 Y:69 P:07 S:80 pc: ce96, reg_addr: ce99
ce96 4c 9d ce JMP  ABS   A:00 X:77 Y:69 P:07 S:80 pc: ce9d, reg_addr: ce9d
ce9d ea a9 ce NOP  IMPL  A:00 X:77 Y:69 P:07 S:80 pc: ce9e, reg_addr: 0000
ce9e a9 ce 48 LDA  IMM   A:00 X:77 Y:69 P:07 S:80 pc: cea0, reg_addr: 00ce
cea0 48 a9 ae PHA  IMPL  A:ce X:77 Y:69 P:85 S:80 pc: cea1, reg_addr: 0000
cea1 a9 ae 48 LDA  IMM   A:ce X:77 Y:69 P:85 S:7f pc: cea3, reg_addr: 00ae
cea3 48 a9 65 PHA  IMPL  A:ae X:77 Y:69 P:85 S:7f pc: cea4, reg_addr: 0000
cea4 a9 65 48 LDA  IMM   A:ae X:77 Y:69 P:85 S:7e pc: cea6, reg_addr: 0065
cea6 48 a9 55 PHA  IMPL  A:65 X:77 Y:69 P:05 S:7e pc: cea7, reg_addr: 0000
cea7 a9 55 a0 LDA  IMM   A:65 X:77 Y:69 P:05 S:7d pc: cea9, reg_addr: 0055
cea9 a0 88 a2 LDY  IMM   A:55 X:77 Y:69 P:05 S:7d pc: ceab, reg_addr: 0088
ceab a2 99 40 LDX  IMM   A:55 X:77 Y:88 P:85 S:7d pc: cead, reg_addr: 0099
cead 40 30 35 RTI  IMPL  A:55 X:99 Y:88 P:85 S:7d pc: ceae, reg_addr: 0000
ceae 30 35 50 BMI  REL   A:55 X:99 Y:88 P:45 S:80 pc: ceb0, reg_addr: cee5
ceb0 50 33 f0 BVC  REL   A:55 X:99 Y:88 P:45 S:80 pc: ceb2, reg_addr: cee5
ceb2 f0 31 90 BEQ  REL   A:55 X:99 Y:88 P:45 S:80 pc: ceb4, reg_addr: cee5
ceb4 90 2f c9 BCC  REL   A:55 X:99 Y:88 P:45 S:80 pc: ceb6, reg_addr: cee5
ceb6 c9 55 d0 CMP  IMM   A:55 X:99 Y:88 P:45 S:80 pc: ceb8, reg_addr: 0055
ceb8 d0 2b c0 BNE  REL   A:55 X:99 Y:88 P:47 S:80 pc: ceba, reg_addr: cee5
ceba c0 88 d0 CPY  IMM   A:55 X:99 Y:88 P:47 S:80 pc: cebc, reg_addr: 0088
cebc d0 27 e0 BNE  REL   A:55 X:99 Y:88 P:47 S:80 pc: cebe, reg_addr: cee5
cebe e0 99 d0 CPX  IMM   A:55 X:99 Y:88 P:47 S:80 pc: cec0, reg_addr: 0099
cec0 d0 23 a9 BNE  REL   A:55 X:99 Y:88 P:47 S:80 pc: cec2, reg_addr: cee5
cec2 a9 ce 48 LDA  IMM   A:55 X:99 Y:88 P:47 S:80 pc: cec4, reg_addr: 00ce
cec4 48 a9 ce PHA  IMPL  A:ce X:99 Y:88 P:c5 S:80 pc: cec5, reg_addr: 0000
cec5 a9 ce 48 LDA  IMM   A:ce X:99 Y:88 P:c5 S:7f pc: cec7, reg_addr: 00ce
cec7 48 a9 87 PHA  IMPL  A:ce X:99 Y:88 P:c5 S:7f pc: cec8, reg_addr: 0000
cec8 a9 87 48 LDA  IMM   A:ce X:99 Y:88 P:c5 S:7e pc: ceca, reg_addr: 0087
ceca 48 a9 55 PHA  IMPL  A:87 X:99 Y:88 P:c5 S:7e pc: cecb, reg_addr: 0000
cecb a9 55 40 LDA  IMM   A:87 X:99 Y:88 P:c5 S:7d pc: cecd, reg_addr: 0055
cecd 40 10 15 RTI  IMPL  A:55 X:99 Y:88 P:45 S:7d pc: cece, reg_addr: 0000
cece 10 15 70 BPL  REL   A:55 X:99 Y:88 P:87 S:80 pc: ced0, reg_addr: cee5
ced0 70 13 d0 BVS  REL   A:55 X:99 Y:88 P:87 S:80 pc: ced2, reg_addr: cee5
ced2 d0 11 90 BNE  REL   A:55 X:99 Y:88 P:87 S:80 pc: ced4, reg_addr: cee5
ced4 90 0f c9 BCC  REL   A:55 X:99 Y:88 P:87 S:80 pc: ced6, reg_addr: cee5
ced6 c9 55 d0 CMP  IMM   A:55 X:99 Y:88 P:87 S:80 pc: ced8, reg_addr: 0055
ced8 d0 0b c0 BNE  REL   A:55 X:99 Y:88 P:07 S:80 pc: ceda, reg_addr: cee5
ceda c0 88 d0 CPY  IMM   A:55 X:99 Y:88 P:07 S:80 pc: cedc, reg_addr: 0088
cedc d0 07 e0 BNE  REL   A:55 X:99 Y:88 P:07 S:80 pc: cede, reg_addr: cee5
cede e0 99 d0 CPX  IMM   A:55 X:99 Y:88 P:07 S:80 pc: cee0, reg_addr: 0099
cee0 d0 03 4c BNE  REL   A:55 X:99 Y:88 P:07 S:80 pc: cee2, reg_addr: cee5
cee2 4c e9 ce JMP  ABS   A:55 X:99 Y:88 P:07 S:80 pc: cee9, reg_addr: cee9
cee9 ae ff 07 LDX  ABS   A:55 X:99 Y:88 P:07 S:80 pc: ceec, reg_addr: 07ff
ceec 9a 60 a2 TXS  IMPL  A:55 X:fb Y:88 P:85 S:80 pc: ceed, reg_addr: 0000
ceed 60 a2 55 RTS  IMPL  A:55 X:fb Y:88 P:85 S:fb pc: c60c, reg_addr: 0000
c60c 20 ee ce JSR  ABS   A:55 X:fb Y:88 P:85 S:fd pc: ceee, reg_addr: ceee
ceee a2 55 a0 LDX  IMM   A:55 X:fb Y:88 P:85 S:fb pc: cef0, reg_addr: 0055
cef0 a0 69 a9 LDY  IMM   A:55 X:55 Y:88 P:05 S:fb pc: cef2, reg_addr: 0069
cef2 a9 ff 85 LDA  IMM   A:55 X:55 Y:69 P:05 S:fb pc: cef4, reg_addr: 00ff
cef4 85 01 ea STA  ZP    A:ff X:55 Y:69 P:85 S:fb pc: cef6, reg_addr: 0001
cef6 ea 24 01 NOP  IMPL  A:ff X:55 Y:69 P:85 S:fb pc: cef7, reg_addr: 0000
cef7 24 01 38 BIT  ZP    A:ff X:55 Y:69 P:85 S:fb pc: cef9, reg_addr: 0001
cef9 38 a9 01 SEC  IMPL  A:ff X:55 Y:69 P:c5 S:fb pc: cefa, reg_addr: 0000
cefa a9 01 4a LDA  IMM   A:ff X:55 Y:69 P:c5 S:fb pc: cefc, reg_addr: 0001
cefc 4a 90 1d LSR  ACC   A:01 X:55 Y:69 P:45 S:fb pc: cefd, reg_addr: 0001
cefd 90 1d d0 BCC  REL   A:00 X:55 Y:69 P:47 S:fb pc: ceff, reg_addr: cf1c
ceff d0 1b 30 BNE  REL   A:00 X:55 Y:69 P:47 S:fb pc: cf01, reg_addr: cf1c
cf01 30 19 50 BMI  REL   A:00 X:55 Y:69 P:47 S:fb pc: cf03, reg_addr: cf1c
cf03 50 17 c9 BVC  REL   A:00 X:55 Y:69 P:47 S:fb pc: cf05, reg_addr: cf1c
cf05 c9 00 d0 CMP  IMM   A:00 X:55 Y:69 P:47 S:fb pc: cf07, reg_addr: 0000
cf07 d0 13 b8 BNE  REL   A:00 X:55 Y:69 P:47 S:fb pc: cf09, reg_addr: cf1c
cf09 b8 a9 aa CLV  IMPL  A:00 X:55 Y:69 P:47 S:fb pc: cf0a, reg_addr: 0000
cf0a a9 aa 4a LDA  IMM   A:00 X:55 Y:69 P:07 S:fb pc: cf0c, reg_addr: 00aa
cf0c 4a b0 0d LSR  ACC   A:aa X:55 Y:69 P:85 S:fb pc: cf0d, reg_addr: 00aa
cf0d b0 0d f0 BCS  REL   A:55 X:55 Y:69 P:04 S:fb pc: cf0f, reg_addr: cf1c
cf0f f0 0b 30 BEQ  REL   A:55 X:55 Y:69 P:04 S:fb pc: cf11, reg_addr: cf1c
cf11 30 09 70 BMI  REL   A:55 X:55 Y:69 P:04 S:fb pc: cf13, reg_addr: cf1c
cf13 70 07 c9 BVS  REL   A:55 X:55 Y:69 P:04 S:fb pc: cf15, reg_addr: cf1c
cf15 c9 55 d0 CMP  IMM   A:55 X:55 Y:69 P:04 S:fb pc: cf17, reg_addr: 0055
cf17 d0 03 4c BNE  REL   A:55 X:55 Y:69 P:07 S:fb pc: cf19, reg_addr: cf1c
cf19 4c 20 cf JMP  ABS   A:55 X:55 Y:69 P:07 S:fb pc: cf20, reg_addr: cf20
cf20 ea 24 01 NOP  IMPL  A:55 X:55 Y:69 P:07 S:fb pc: cf21, reg_addr: 0000
cf21 24 01 38 BIT  ZP    A:55 X:55 Y:69 P:07 S:fb pc: cf23, reg_addr: 0001
cf23 38 a9 80 SEC  IMPL  A:55 X:55 Y:69 P:c5 S:fb pc: cf24, reg_addr: 0000
cf24 a9 80 0a LDA  IMM   A:55 X:55 Y:69 P:c5 S:fb pc: cf26, reg_addr: 0080
cf26 0a 90 1e ASL  ACC   A:80 X:55 Y:69 P:c5 S:fb pc: cf27, reg_addr: 0080
cf27 90 1e d0 BCC  REL   A:00 X:55 Y:69 P:47 S:fb pc: cf29, reg_addr: cf47
cf29 d0 1c 30 BNE  REL   A:00 X:55 Y:69 P:47 S:fb pc: cf2b, reg_addr: cf47
cf2b 30 1a 50 BMI  REL   A:00 X:55 Y:69 P:47 S:fb pc: cf2d, reg_addr: cf47
cf2d 50 18 c9 BVC  REL   A:00 X:55 Y:69 P:47 S:fb pc: cf2f, reg_addr: cf47
cf2f c9 00 d0 CMP  IMM   A:00 X:55 Y:69 P:47 S:fb pc: cf31, reg_addr: 0000
cf31 d0 14 b8 BNE  REL   A:00 X:55 Y:69 P:47 S:fb pc: cf33, reg_addr: cf47
cf33 b8 38 a9 CLV  IMPL  A:00 X:55 Y:69 P:47 S:fb pc: cf34, reg_addr: 0000
cf34 38 a9 55 SEC  IMPL  A:00 X:55 Y:69 P:07 S:fb pc: cf35, reg_addr: 0000
cf35 a9 55 0a LDA  IMM   A:00 X:55 Y:69 P:07 S:fb pc: cf37, reg_addr: 0055
cf37 0a b0 0d ASL  ACC   A:55 X:55 Y:69 P:05 S:fb pc: cf38, reg_addr: 0055
cf38 b0 0d f0 BCS  REL   A:aa X:55 Y:69 P:84 S:fb pc: cf3a, reg_addr: cf47
cf3a f0 0b 10 BEQ  REL   A:aa X:55 Y:69 P:84 S:fb pc: cf3c, reg_addr: cf47
cf3c 10 09 70 BPL  REL   A:aa X:55 Y:69 P:84 S:fb pc: cf3e, reg_addr: cf47
cf3e 70 07 c9 BVS  REL   A:aa X:55 Y:69 P:84 S:fb pc: cf40, reg_addr: cf47
cf40 c9 aa d0 CMP  IMM   A:aa X:55 Y:69 P:84 S:fb pc: cf42, reg_addr: 00aa
cf42 d0 03 4c BNE  REL   A:aa X:55 Y:69 P:07 S:fb pc: cf44, reg_addr: cf47
cf44 4c 4b cf JMP  ABS   A:aa X:55 Y:69 P:07 S:fb pc: cf4b, reg_addr: cf4b
cf4b ea 24 01 NOP  IMPL  A:aa X:55 Y:69 P:07 S:fb pc: cf4c, reg_addr: 0000
cf4c 24 01 38 BIT  ZP    A:aa X:55 Y:69 P:07 S:fb pc: cf4e, reg_addr: 0001
cf4e 38 a9 01 SEC  IMPL  A:aa X:55 Y:69 P:c5 S:fb pc: cf4f, reg_addr: 0000
cf4f a9 01 6a LDA  IMM   A:aa X:55 Y:69 P:c5 S:fb pc: cf51, reg_addr: 0001
cf51 6a 90 1e ROR  ACC   A:01 X:55 Y:69 P:45 S:fb pc: cf52, reg_addr: 0001
cf52 90 1e f0 BCC  REL   A:80 X:55 Y:69 P:c5 S:fb pc: cf54, reg_addr: cf72
cf54 f0 1c 10 BEQ  REL   A:80 X:55 Y:69 P:c5 S:fb pc: cf56, reg_addr: cf72
cf56 10 1a 50 BPL  REL   A:80 X:55 Y:69 P:c5 S:fb pc: cf58, reg_addr: cf72
cf58 50 18 c9 BVC  REL   A:80 X:55 Y:69 P:c5 S:fb pc: cf5a, reg_addr: cf72
cf5a c9 80 d0 CMP  IMM   A:80 X:55 Y:69 P:c5 S:fb pc: cf5c, reg_addr: 0080
cf5c d0 14 b8 BNE  REL   A:80 X:55 Y:69 P:47 S:fb pc: cf5e, reg_addr: cf72
cf5e b8 18 a9 CLV  IMPL  A:80 X:55 Y:69 P:47 S:fb pc: cf5f, reg_addr: 0000
cf5f 18 a9 55 CLC  IMPL  A:80 X:55 Y:69 P:07 S:fb pc: cf60, reg_addr: 0000
cf60 a9 55 6a LDA  IMM   A:80 X:55 Y:69 P:06 S:fb pc: cf62, reg_addr: 0055
cf62 6a 90 0d ROR  ACC   A:55 X:55 Y:69 P:04 S:fb pc: cf63, reg_addr: 0055
cf63 90 0d f0 BCC  REL   A:2a X:55 Y:69 P:05 S:fb pc: cf65, reg_addr: cf72
cf65 f0 0b 30 BEQ  REL   A:2a X:55 Y:69 P:05 S:fb pc: cf67, reg_addr: cf72
cf67 30 09 70 BMI  REL   A:2a X:55 Y:69 P:05 S:fb pc: cf69, reg_addr: cf72
cf69 70 07 c9 BVS  REL   A:2a X:55 Y:69 P:05 S:fb pc: cf6b, reg_addr: cf72
cf6b c9 2a d0 CMP  IMM   A:2a X:55 Y:69 P:05 S:fb pc: cf6d, reg_addr: 002a
cf6d d0 03 4c BNE  REL   A:2a X:55 Y:69 P:07 S:fb pc: cf6f, reg_addr: cf72
cf6f 4c 76 cf JMP  ABS   A:2a X:55 Y:69 P:07 S:fb pc: cf76, reg_addr: cf76
cf76 ea 24 01 NOP  IMPL  A:2a X:55 Y:69 P:07 S:fb pc: cf77, reg_addr: 0000
cf77 24 01 38 BIT  ZP    A:2a X:55 Y:69 P:07 S:fb pc: cf79, reg_addr: 0001
cf79 38 a9 80 SEC  IMPL  A:2a X:55 Y:69 P:c5 S:fb pc: cf7a, reg_addr: 0000
cf7a a9 80 2a LDA  IMM   A:2a X:55 Y:69 P:c5 S:fb pc: cf7c, reg_addr: 0080
cf7c 2a 90 1e ROL  ACC   A:80 X:55 Y:69 P:c5 S:fb pc: cf7d, reg_addr: 0080
cf7d 90 1e f0 BCC  REL   A:01 X:55 Y:69 P:45 S:fb pc: cf7f, reg_addr: cf9d
cf7f f0 1c 30 BEQ  REL   A:01 X:55 Y:69 P:45 S:fb pc: cf81, reg_addr: cf9d
cf81 30 1a 50 BMI  REL   A:01 X:55 Y:69 P:45 S:fb pc: cf83, reg_addr: cf9d
cf83 50 18 c9 BVC  REL   A:01 X:55 Y:69 P:45 S:fb pc: cf85, reg_addr: cf9d
cf85 c9 01 d0 CMP  IMM   A:01 X:55 Y:69 P:45 S:fb pc: cf87, reg_addr: 0001
cf87 d0 14 b8 BNE  REL   A:01 X:55 Y:69 P:47 S:fb pc: cf89, reg_addr: cf9d
cf89 b8 18 a9 CLV  IMPL  A:01 X:55 Y:69 P:47 S:fb pc: cf8a, reg_addr: 0000
cf8a 18 a9 55 CLC  IMPL  A:01 X:55 Y:69 P:07 S:fb pc: cf8b, reg_addr: 0000
cf8b a9 55 2a LDA  IMM   A:01 X:55 Y:69 P:06 S:fb pc: cf8d, reg_addr: 0055
cf8d 2a b0 0d ROL  ACC   A:55 X:55 Y:69 P:04 S:fb pc: cf8e, reg_addr: 0055
cf8e b0 0d f0 BCS  REL   A:aa X:55 Y:69 P:84 S:fb pc: cf90, reg_addr: cf9d
cf90 f0 0b 10 BEQ  REL   A:aa X:55 Y:69 P:84 S:fb pc: cf92, reg_addr: cf9d
cf92 10 09 70 BPL  REL   A:aa X:55 Y:69 P:84 S:fb pc: cf94, reg_addr: cf9d
cf94 70 07 c9 BVS  REL   A:aa X:55 Y:69 P:84 S:fb pc: cf96, reg_addr: cf9d
cf96 c9 aa d0 CMP  IMM   A:aa X:55 Y:69 P:84 S:fb pc: cf98, reg_addr: 00aa
cf98 d0 03 4c BNE  REL   A:aa X:55 Y:69 P:07 S:fb pc: cf9a, reg_addr: cf9d
cf9a 4c a1 cf JMP  ABS   A:aa X:55 Y:69 P:07 S:fb pc: cfa1, reg_addr: cfa1
cfa1 60 a5 00 RTS  IMPL  A:aa X:55 Y:69 P:07 S:fb pc: c60f, reg_addr: 0000
c60f 20 a2 cf JSR  ABS   A:aa X:55 Y:69 P:07 S:fd pc: cfa2, reg_addr: cfa2
cfa2 a5 00 8d LDA  ZP    A:aa X:55 Y:69 P:07 S:fb pc: cfa4, reg_addr: 0000
cfa4 8d ff 07 STA  ABS   A:00 X:55 Y:69 P:07 S:fb pc: cfa7, reg_addr: 07ff
cfa7 a9 00 85 LDA  IMM   A:00 X:55 Y:69 P:07 S:fb pc: cfa9, reg_addr: 0000
cfa9 85 80 a9 STA  ZP    A:00 X:55 Y:69 P:07 S:fb pc: cfab, reg_addr: 0080
cfab a9 02 85 LDA  IMM   A:00 X:55 Y:69 P:07 S:fb pc: cfad, reg_addr: 0002
cfad 85 81 a9 STA  ZP    A:02 X:55 Y:69 P:05 S:fb pc: cfaf, reg_addr: 0081
cfaf a9 ff 85 LDA  IMM   A:02 X:55 Y:69 P:05 S:fb pc: cfb1, reg_addr: 00ff
cfb1 85 01 a9 STA  ZP    A:ff X:55 Y:69 P:85 S:fb pc: cfb3, reg_addr: 0001
cfb3 a9 00 85 LDA  IMM   A:ff X:55 Y:69 P:85 S:fb pc: cfb5, reg_addr: 0000
cfb5 85 82 a9 STA  ZP    A:00 X:55 Y:69 P:07 S:fb pc: cfb7, reg_addr: 0082
cfb7 a9 03 85 LDA  IMM   A:00 X:55 Y:69 P:07 S:fb pc: cfb9, reg_addr: 0003
cfb9 85 83 85 STA  ZP    A:03 X:55 Y:69 P:05 S:fb pc: cfbb, reg_addr: 0083
cfbb 85 84 a9 STA  ZP    A:03 X:55 Y:69 P:05 S:fb pc: cfbd, reg_addr: 0084
cfbd a9 00 85 LDA  IMM   A:03 X:55 Y:69 P:05 S:fb pc: cfbf, reg_addr: 0000
cfbf 85 ff a9 STA  ZP    A:00 X:55 Y:69 P:07 S:fb pc: cfc1, reg_addr: 00ff
cfc1 a9 04 85 LDA  IMM   A:00 X:55 Y:69 P:07 S:fb pc: cfc3, reg_addr: 0004
cfc3 85 00 a9 STA  ZP    A:04 X:55 Y:69 P:05 S:fb pc: cfc5, reg_addr: 0000
cfc5 a9 5a 8d LDA  IMM   A:04 X:55 Y:69 P:05 S:fb pc: cfc7, reg_addr: 005a
cfc7 8d 00 02 STA  ABS   A:5a X:55 Y:69 P:05 S:fb pc: cfca, reg_addr: 0200
cfca a9 5b 8d LDA  IMM   A:5a X:55 Y:69 P:05 S:fb pc: cfcc, reg_addr: 005b
cfcc 8d 00 03 STA  ABS   A:5b X:55 Y:69 P:05 S:fb pc: cfcf, reg_addr: 0300
cfcf a9 5c 8d LDA  IMM   A:5b X:55 Y:69 P:05 S:fb pc: cfd1, reg_addr: 005c
cfd1 8d 03 03 STA  ABS   A:5c X:55 Y:69 P:05 S:fb pc: cfd4, reg_addr: 0303
cfd4 a9 5d 8d LDA  IMM   A:5c X:55 Y:69 P:05 S:fb pc: cfd6, reg_addr: 005d
cfd6 8d 00 04 STA  ABS   A:5d X:55 Y:69 P:05 S:fb pc: cfd9, reg_addr: 0400
cfd9 a2 00 a1 LDX  IMM   A:5d X:55 Y:69 P:05 S:fb pc: cfdb, reg_addr: 0000
cfdb a1 80 c9 LDA  INDX  A:5d X:00 Y:69 P:07 S:fb pc: cfdd, reg_addr: 0200
cfdd c9 5a d0 CMP  IMM   A:5a X:00 Y:69 P:05 S:fb pc: cfdf, reg_addr: 005a
cfdf d0 1f e8 BNE  REL   A:5a X:00 Y:69 P:07 S:fb pc: cfe1, reg_addr: d000
cfe1 e8 e8 a1 INX  IMPL  A:5a X:00 Y:69 P:07 S:fb pc: cfe2, reg_addr: 0000
cfe2 e8 a1 80 INX  IMPL  A:5a X:01 Y:69 P:05 S:fb pc: cfe3, reg_addr: 0000
cfe3 a1 80 c9 LDA  INDX  A:5a X:02 Y:69 P:05 S:fb pc: cfe5, reg_addr: 0300
cfe5 c9 5b d0 CMP  IMM   A:5b X:02 Y:69 P:05 S:fb pc: cfe7, reg_addr: 005b
cfe7 d0 17 e8 BNE  REL   A:5b X:02 Y:69 P:07 S:fb pc: cfe9, reg_addr: d000
cfe9 e8 a1 80 INX  IMPL  A:5b X:02 Y:69 P:07 S:fb pc: cfea, reg_addr: 0000
cfea a1 80 c9 LDA  INDX  A:5b X:03 Y:69 P:05 S:fb pc: cfec, reg_addr: 0303
cfec c9 5c d0 CMP  IMM   A:5c X:03 Y:69 P:05 S:fb pc: cfee, reg_addr: 005c
cfee d0 10 a2 BNE  REL   A:5c X:03 Y:69 P:07 S:fb pc: cff0, reg_addr: d000
cff0 a2 00 a1 LDX  IMM   A:5c X:03 Y:69 P:07 S:fb pc: cff2, reg_addr: 0000
cff2 a1 ff c9 LDA  INDX  A:5c X:00 Y:69 P:07 S:fb pc: cff4, reg_addr: 0400
cff4 c9 5d d0 CMP  IMM   A:5d X:00 Y:69 P:05 S:fb pc: cff6, reg_addr: 005d
cff6 d0 08 a2 BNE  REL   A:5d X:00 Y:69 P:07 S:fb pc: cff8, reg_addr: d000
cff8 a2 81 a1 LDX  IMM   A:5d X:00 Y:69 P:07 S:fb pc: cffa, reg_addr: 0081
cffa a1 ff c9 LDA  INDX  A:5d X:81 Y:69 P:85 S:fb pc: cffc, reg_addr: 0200
cffc c9 5a f0 CMP  IMM   A:5a X:81 Y:69 P:05 S:fb pc: cffe, reg_addr: 005a
cffe f0 05 a9 BEQ  REL   A:5a X:81 Y:69 P:07 S:fb pc: d005, reg_addr: d005
d005 a9 aa a2 LDA  IMM   A:5a X:81 Y:69 P:07 S:fb pc: d007, reg_addr: 00aa
d007 a2 00 81 LDX  IMM   A:aa X:81 Y:69 P:85 S:fb pc: d009, reg_addr: 0000
d009 81 80 e8 STA  INDX  A:aa X:00 Y:69 P:07 S:fb pc: d00b, reg_addr: 0200
d00b e8 e8 a9 INX  IMPL  A:aa X:00 Y:69 P:07 S:fb pc: d00c, reg_addr: 0000
d00c e8 a9 ab INX  IMPL  A:aa X:01 Y:69 P:05 S:fb pc: d00d, reg_addr: 0000
d00d a9 ab 81 LDA  IMM   A:aa X:02 Y:69 P:05 S:fb pc: d00f, reg_addr: 00ab
d00f 81 80 e8 STA  INDX  A:ab X:02 Y:69 P:85 S:fb pc: d011, reg_addr: 0300
d011 e8 a9 ac INX  IMPL  A:ab X:02 Y:69 P:85 S:fb pc: d012, reg_addr: 0000
d012 a9 ac 81 LDA  IMM   A:ab X:03 Y:69 P:05 S:fb pc: d014, reg_addr: 00ac
d014 81 80 a2 STA  INDX  A:ac X:03 Y:69 P:85 S:fb pc: d016, reg_addr: 0303
d016 a2 00 a9 LDX  IMM   A:ac X:03 Y:69 P:85 S:fb pc: d018, reg_addr: 0000
d018 a9 ad 81 LDA  IMM   A:ac X:00 Y:69 P:07 S:fb pc: d01a, reg_addr: 00ad
d01a 81 ff ad STA  INDX  A:ad X:00 Y:69 P:85 S:fb pc: d01c, reg_addr: 0400
d01c ad 00 02 LDA  ABS   A:ad X:00 Y:69 P:85 S:fb pc: d01f, reg_addr: 0200
d01f c9 aa d0 CMP  IMM   A:aa X:00 Y:69 P:85 S:fb pc: d021, reg_addr: 00aa
d021 d0 15 ad BNE  REL   A:aa X:00 Y:69 P:07 S:fb pc: d023, reg_addr: d038
d023 ad 00 03 LDA  ABS   A:aa X:00 Y:69 P:07 S:fb pc: d026, reg_addr: 0300
d026 c9 ab d0 CMP  IMM   A:ab X:00 Y:69 P:85 S:fb pc: d028, reg_addr: 00ab
d028 d0 0e ad BNE  REL   A:ab X:00 Y:69 P:07 S:fb pc: d02a, reg_addr: d038
d02a ad 03 03 LDA  ABS   A:ab X:00 Y:69 P:07 S:fb pc: d02d, reg_addr: 0303
d02d c9 ac d0 CMP  IMM   A:ac X:00 Y:69 P:85 S:fb pc: d02f, reg_addr: 00ac
d02f d0 07 ad BNE  REL   A:ac X:00 Y:69 P:07 S:fb pc: d031, reg_addr: d038
d031 ad 00 04 LDA  ABS   A:ac X:00 Y:69 P:07 S:fb pc: d034, reg_addr: 0400
d034 c9 ad f0 CMP  IMM   A:ad X:00 Y:69 P:85 S:fb pc: d036, reg_addr: 00ad
d036 f0 05 a9 BEQ  REL   A:ad X:00 Y:69 P:07 S:fb pc: d03d, reg_addr: d03d
d03d ad ff 07 LDA  ABS   A:ad X:00 Y:69 P:07 S:fb pc: d040, reg_addr: 07ff
d040 85 00 a9 STA  ZP    A:00 X:00 Y:69 P:07 S:fb pc: d042, reg_addr: 0000
d042 a9 00 8d LDA  IMM   A:00 X:00 Y:69 P:07 S:fb pc: d044, reg_addr: 0000
d044 8d 00 03 STA  ABS   A:00 X:00 Y:69 P:07 S:fb pc: d047, reg_addr: 0300
d047 a9 aa 8d LDA  IMM   A:00 X:00 Y:69 P:07 S:fb pc: d049, reg_addr: 00aa
d049 8d 00 02 STA  ABS   A:aa X:00 Y:69 P:85 S:fb pc: d04c, reg_addr: 0200
d04c a2 00 a0 LDX  IMM   A:aa X:00 Y:69 P:85 S:fb pc: d04e, reg_addr: 0000
d04e a0 5a 20 LDY  IMM   A:aa X:00 Y:69 P:07 S:fb pc: d050, reg_addr: 005a
d050 20 b6 f7 JSR  ABS   A:aa X:00 Y:5a P:05 S:fb pc: f7b6, reg_addr: f7b6
f7b6 18 a9 ff CLC  IMPL  A:aa X:00 Y:5a P:05 S:f9 pc: f7b7, reg_addr: 0000
f7b7 a9 ff 85 LDA  IMM   A:aa X:00 Y:5a P:04 S:f9 pc: f7b9, reg_addr: 00ff
f7b9 85 01 24 STA  ZP    A:ff X:00 Y:5a P:84 S:f9 pc: f7bb, reg_addr: 0001
f7bb 24 01 a9 BIT  ZP    A:ff X:00 Y:5a P:84 S:f9 pc: f7bd, reg_addr: 0001
f7bd a9 55 60 LDA  IMM   A:ff X:00 Y:5a P:c4 S:f9 pc: f7bf, reg_addr: 0055
f7bf 60 b0 09 RTS  IMPL  A:55 X:00 Y:5a P:44 S:f9 pc: d053, reg_addr: 0000
d053 01 80 20 ORA  INDX  A:55 X:00 Y:5a P:44 S:fb pc: d055, reg_addr: 0200
d055 20 c0 f7 JSR  ABS   A:ff X:00 Y:5a P:c4 S:fb pc: f7c0, reg_addr: f7c0
f7c0 b0 09 10 BCS  REL   A:ff X:00 Y:5a P:c4 S:f9 pc: f7c2, reg_addr: f7cb
f7c2 10 07 c9 BPL  REL   A:ff X:00 Y:5a P:c4 S:f9 pc: f7c4, reg_addr: f7cb
f7c4 c9 ff d0 CMP  IMM   A:ff X:00 Y:5a P:c4 S:f9 pc: f7c6, reg_addr: 00ff
f7c6 d0 03 50 BNE  REL   A:ff X:00 Y:5a P:47 S:f9 pc: f7c8, reg_addr: f7cb
f7c8 50 01 60 BVC  REL   A:ff X:00 Y:5a P:47 S:f9 pc: f7ca, reg_addr: f7cb
f7ca 60 84 00 RTS  IMPL  A:ff X:00 Y:5a P:47 S:f9 pc: d058, reg_addr: 0000
d058 c8 20 ce INY  IMPL  A:ff X:00 Y:5a P:47 S:fb pc: d059, reg_addr: 0000
d059 20 ce f7 JSR  ABS   A:ff X:00 Y:5b P:45 S:fb pc: f7ce, reg_addr: f7ce
f7ce 38 b8 a9 SEC  IMPL  A:ff X:00 Y:5b P:45 S:f9 pc: f7cf, reg_addr: 0000
f7cf b8 a9 00 CLV  IMPL  A:ff X:00 Y:5b P:45 S:f9 pc: f7d0, reg_addr: 0000
f7d0 a9 00 60 LDA  IMM   A:ff X:00 Y:5b P:05 S:f9 pc: f7d2, reg_addr: 0000
f7d2 60 d0 07 RTS  IMPL  A:00 X:00 Y:5b P:07 S:f9 pc: d05c, reg_addr: 0000
d05c 01 82 20 ORA  INDX  A:00 X:00 Y:5b P:07 S:fb pc: d05e, reg_addr: 0300
d05e 20 d3 f7 JSR  ABS   A:00 X:00 Y:5b P:07 S:fb pc: f7d3, reg_addr: f7d3
f7d3 d0 07 70 BNE  REL   A:00 X:00 Y:5b P:07 S:f9 pc: f7d5, reg_addr: f7dc
f7d5 70 05 90 BVS  REL   A:00 X:00 Y:5b P:07 S:f9 pc: f7d7, reg_addr: f7dc
f7d7 90 03 30 BCC  REL   A:00 X:00 Y:5b P:07 S:f9 pc: f7d9, reg_addr: f7dc
f7d9 30 01 60 BMI  REL   A:00 X:00 Y:5b P:07 S:f9 pc: f7db, reg_addr: f7dc
f7db 60 84 00 RTS  IMPL  A:00 X:00 Y:5b P:07 S:f9 pc: d061, reg_addr: 0000
d061 c8 20 df INY  IMPL  A:00 X:00 Y:5b P:07 S:fb pc: d062, reg_addr: 0000
d062 20 df f7 JSR  ABS   A:00 X:00 Y:5c P:05 S:fb pc: f7df, reg_addr: f7df
f7df 18 24 01 CLC  IMPL  A:00 X:00 Y:5c P:05 S:f9 pc: f7e0, reg_addr: 0000
f7e0 24 01 a9 BIT  ZP    A:00 X:00 Y:5c P:04 S:f9 pc: f7e2, reg_addr: 0001
f7e2 a9 55 60 LDA  IMM   A:00 X:00 Y:5c P:c6 S:f9 pc: f7e4, reg_addr: 0055
f7e4 60 d0 07 RTS  IMPL  A:55 X:00 Y:5c P:44 S:f9 pc: d065, reg_addr: 0000
d065 21 80 20 AND  INDX  A:55 X:00 Y:5c P:44 S:fb pc: d067, reg_addr: 0200
d067 20 e5 f7 JSR  ABS   A:00 X:00 Y:5c P:46 S:fb pc: f7e5, reg_addr: f7e5
f7e5 d0 07 50 BNE  REL   A:00 X:00 Y:5c P:46 S:f9 pc: f7e7, reg_addr: f7ee
f7e7 50 05 b0 BVC  REL   A:00 X:00 Y:5c P:46 S:f9 pc: f7e9, reg_addr: f7ee
f7e9 b0 03 30 BCS  REL   A:00 X:00 Y:5c P:46 S:f9 pc: f7eb, reg_addr: f7ee
f7eb 30 01 60 BMI  REL   A:00 X:00 Y:5c P:46 S:f9 pc: f7ed, reg_addr: f7ee
f7ed 60 84 00 RTS  IMPL  A:00 X:00 Y:5c P:46 S:f9 pc: d06a, reg_addr: 0000
d06a c8 a9 ef INY  IMPL  A:00 X:00 Y:5c P:46 S:fb pc: d06b, reg_addr: 0000
d06b a9 ef 8d LDA  IMM   A:00 X:00 Y:5d P:44 S:fb pc: d06d, reg_addr: 00ef
d06d 8d 00 03 STA  ABS   A:ef X:00 Y:5d P:c4 S:fb pc: d070, reg_addr: 0300
d070 20 f1 f7 JSR  ABS   A:ef X:00 Y:5d P:c4 S:fb pc: f7f1, reg_addr: f7f1
f7f1 38 b8 a9 SEC  IMPL  A:ef X:00 Y:5d P:c4 S:f9 pc: f7f2, reg_addr: 0000
f7f2 b8 a9 f8 CLV  IMPL  A:ef X:00 Y:5d P:c5 S:f9 pc: f7f3, reg_addr: 0000
f7f3 a9 f8 60 LDA  IMM   A:ef X:00 Y:5d P:85 S:f9 pc: f7f5, reg_addr: 00f8
f7f5 60 90 09 RTS  IMPL  A:f8 X:00 Y:5d P:85 S:f9 pc: d073, reg_addr: 0000
d073 21 82 20 AND  INDX  A:f8 X:00 Y:5d P:85 S:fb pc: d075, reg_addr: 0300
d075 20 f6 f7 JSR  ABS   A:e8 X:00 Y:5d P:85 S:fb pc: f7f6, reg_addr: f7f6
f7f6 90 09 10 BCC  REL   A:e8 X:00 Y:5d P:85 S:f9 pc: f7f8, reg_addr: f801
f7f8 10 07 c9 BPL  REL   A:e8 X:00 Y:5d P:85 S:f9 pc: f7fa, reg_addr: f801
f7fa c9 e8 d0 CMP  IMM   A:e8 X:00 Y:5d P:85 S:f9 pc: f7fc, reg_addr: 00e8
f7fc d0 03 70 BNE  REL   A:e8 X:00 Y:5d P:07 S:f9 pc: f7fe, reg_addr: f801
f7fe 70 01 60 BVS  REL   A:e8 X:00 Y:5d P:07 S:f9 pc: f800, reg_addr: f801
f800 60 84 00 RTS  IMPL  A:e8 X:00 Y:5d P:07 S:f9 pc: d078, reg_addr: 0000
d078 c8 20 04 INY  IMPL  A:e8 X:00 Y:5d P:07 S:fb pc: d079, reg_addr: 0000
d079 20 04 f8 JSR  ABS   A:e8 X:00 Y:5e P:05 S:fb pc: f804, reg_addr: f804
f804 18 24 01 CLC  IMPL  A:e8 X:00 Y:5e P:05 S:f9 pc: f805, reg_addr: 0000
f805 24 01 a9 BIT  ZP    A:e8 X:00 Y:5e P:04 S:f9 pc: f807, reg_addr: 0001
f807 a9 5f 60 LDA  IMM   A:e8 X:00 Y:5e P:c4 S:f9 pc: f809, reg_addr: 005f
f809 60 b0 09 RTS  IMPL  A:5f X:00 Y:5e P:44 S:f9 pc: d07c, reg_addr: 0000
d07c 41 80 20 EOR  INDX  A:5f X:00 Y:5e P:44 S:fb pc: d07e, reg_addr: 0200
d07e 20 0a f8 JSR  ABS   A:f5 X:00 Y:5e P:c4 S:fb pc: f80a, reg_addr: f80a
f80a b0 09 10 BCS  REL   A:f5 X:00 Y:5e P:c4 S:f9 pc: f80c, reg_addr: f815
f80c 10 07 c9 BPL  REL   A:f5 X:00 Y:5e P:c4 S:f9 pc: f80e, reg_addr: f815
f80e c9 f5 d0 CMP  IMM   A:f5 X:00 Y:5e P:c4 S:f9 pc: f810, reg_addr: 00f5
f810 d0 03 50 BNE  REL   A:f5 X:00 Y:5e P:47 S:f9 pc: f812, reg_addr: f815
f812 50 01 60 BVC  REL   A:f5 X:00 Y:5e P:47 S:f9 pc: f814, reg_addr: f815
f814 60 84 00 RTS  IMPL  A:f5 X:00 Y:5e P:47 S:f9 pc: d081, reg_addr: 0000
d081 c8 a9 70 INY  IMPL  A:f5 X:00 Y:5e P:47 S:fb pc: d082, reg_addr: 0000
d082 a9 70 8d LDA  IMM   A:f5 X:00 Y:5f P:45 S:fb pc: d084, reg_addr: 0070
d084 8d 00 03 STA  ABS   A:70 X:00 Y:5f P:45 S:fb pc: d087, reg_addr: 0300
d087 20 18 f8 JSR  ABS   A:70 X:00 Y:5f P:45 S:fb pc: f818, reg_addr: f818
f818 38 b8 a9 SEC  IMPL  A:70 X:00 Y:5f P:45 S:f9 pc: f819, reg_addr: 0000
f819 b8 a9 70 CLV  IMPL  A:70 X:00 Y:5f P:45 S:f9 pc: f81a, reg_addr: 0000
f81a a9 70 60 LDA  IMM   A:70 X:00 Y:5f P:05 S:f9 pc: f81c, reg_addr: 0070
f81c 60 d0 07 RTS  IMPL  A:70 X:00 Y:5f P:05 S:f9 pc: d08a, reg_addr: 0000
d08a 41 82 20 EOR  INDX  A:70 X:00 Y:5f P:05 S:fb pc: d08c, reg_addr: 0300
d08c 20 1d f8 JSR  ABS   A:00 X:00 Y:5f P:07 S:fb pc: f81d, reg_addr: f81d
f81d d0 07 70 BNE  REL   A:00 X:00 Y:5f P:07 S:f9 pc: f81f, reg_addr: f826
f81f 70 05 90 BVS  REL   A:00 X:00 Y:5f P:07 S:f9 pc: f821, reg_addr: f826
f821 90 03 30 BCC  REL   A:00 X:00 Y:5f P:07 S:f9 pc: f823, reg_addr: f826
f823 30 01 60 BMI  REL   A:00 X:00 Y:5f P:07 S:f9 pc: f825, reg_addr: f826
f825 60 84 00 RTS  IMPL  A:00 X:00 Y:5f P:07 S:f9 pc: d08f, reg_addr: 0000
d08f c8 a9 69 INY  IMPL  A:00 X:00 Y:5f P:07 S:fb pc: d090, reg_addr: 0000
d090 a9 69 8d LDA  IMM   A:00 X:00 Y:60 P:05 S:fb pc: d092, reg_addr: 0069
d092 8d 00 02 STA  ABS   A:69 X:00 Y:60 P:05 S:fb pc: d095, reg_addr: 0200
d095 20 29 f8 JSR  ABS   A:69 X:00 Y:60 P:05 S:fb pc: f829, reg_addr: f829
f829 18 24 01 CLC  IMPL  A:69 X:00 Y:60 P:05 S:f9 pc: f82a, reg_addr: 0000
f82a 24 01 a9 BIT  ZP    A:69 X:00 Y:60 P:04 S:f9 pc: f82c, reg_addr: 0001
f82c a9 00 60 LDA  IMM   A:69 X:00 Y:60 P:c4 S:f9 pc: f82e, reg_addr: 0000
f82e 60 30 09 RTS  IMPL  A:00 X:00 Y:60 P:46 S:f9 pc: d098, reg_addr: 0000
d098 61 80 20 ADC  INDX  A:00 X:00 Y:60 P:46 S:fb pc: d09a, reg_addr: 0200
d09a 20 2f f8 JSR  ABS   A:69 X:00 Y:60 P:04 S:fb pc: f82f, reg_addr: f82f
f82f 30 09 b0 BMI  REL   A:69 X:00 Y:60 P:04 S:f9 pc: f831, reg_addr: f83a
f831 b0 07 c9 BCS  REL   A:69 X:00 Y:60 P:04 S:f9 pc: f833, reg_addr: f83a
f833 c9 69 d0 CMP  IMM   A:69 X:00 Y:60 P:04 S:f9 pc: f835, reg_addr: 0069
f835 d0 03 70 BNE  REL   A:69 X:00 Y:60 P:07 S:f9 pc: f837, reg_addr: f83a
f837 70 01 60 BVS  REL   A:69 X:00 Y:60 P:07 S:f9 pc: f839, reg_addr: f83a
f839 60 84 00 RTS  IMPL  A:69 X:00 Y:60 P:07 S:f9 pc: d09d, reg_addr: 0000
d09d c8 20 3d INY  IMPL  A:69 X:00 Y:60 P:07 S:fb pc: d09e, reg_addr: 0000
d09e 20 3d f8 JSR  ABS   A:69 X:00 Y:61 P:05 S:fb pc: f83d, reg_addr: f83d
f83d 38 24 01 SEC  IMPL  A:69 X:00 Y:61 P:05 S:f9 pc: f83e, reg_addr: 0000
f83e 24 01 a9 BIT  ZP    A:69 X:00 Y:61 P:05 S:f9 pc: f840, reg_addr: 0001
f840 a9 00 60 LDA  IMM   A:69 X:00 Y:61 P:c5 S:f9 pc: f842, reg_addr: 0000
f842 60 30 09 RTS  IMPL  A:00 X:00 Y:61 P:47 S:f9 pc: d0a1, reg_addr: 0000
d0a1 61 80 20 ADC  INDX  A:00 X:00 Y:61 P:47 S:fb pc: d0a3, reg_addr: 0200
d0a3 20 43 f8 JSR  ABS   A:6a X:00 Y:61 P:04 S:fb pc: f843, reg_addr: f843
f843 30 09 b0 BMI  REL   A:6a X:00 Y:61 P:04 S:f9 pc: f845, reg_addr: f84e
f845 b0 07 c9 BCS  REL   A:6a X:00 Y:61 P:04 S:f9 pc: f847, reg_addr: f84e
f847 c9 6a d0 CMP  IMM   A:6a X:00 Y:61 P:04 S:f9 pc: f849, reg_addr: 006a
f849 d0 03 70 BNE  REL   A:6a X:00 Y:61 P:07 S:f9 pc: f84b, reg_addr: f84e
f84b 70 01 60 BVS  REL   A:6a X:00 Y:61 P:07 S:f9 pc: f84d, reg_addr: f84e
f84d 60 84 00 RTS  IMPL  A:6a X:00 Y:61 P:07 S:f9 pc: d0a6, reg_addr: 0000
d0a6 c8 a9 7f INY  IMPL  A:6a X:00 Y:61 P:07 S:fb pc: d0a7, reg_addr: 0000
d0a7 a9 7f 8d LDA  IMM   A:6a X:00 Y:62 P:05 S:fb pc: d0a9, reg_addr: 007f
d0a9 8d 00 02 STA  ABS   A:7f X:00 Y:62 P:05 S:fb pc: d0ac, reg_addr: 0200
d0ac 20 51 f8 JSR  ABS   A:7f X:00 Y:62 P:05 S:fb pc: f851, reg_addr: f851
f851 38 b8 a9 SEC  IMPL  A:7f X:00 Y:62 P:05 S:f9 pc: f852, reg_addr: 0000
f852 b8 a9 7f CLV  IMPL  A:7f X:00 Y:62 P:05 S:f9 pc: f853, reg_addr: 0000
f853 a9 7f 60 LDA  IMM   A:7f X:00 Y:62 P:05 S:f9 pc: f855, reg_addr: 007f
f855 60 10 09 RTS  IMPL  A:7f X:00 Y:62 P:05 S:f9 pc: d0af, reg_addr: 0000
d0af 61 80 20 ADC  INDX  A:7f X:00 Y:62 P:05 S:fb pc: d0b1, reg_addr: 0200
d0b1 20 56 f8 JSR  ABS   A:ff X:00 Y:62 P:c4 S:fb pc: f856, reg_addr: f856
f856 10 09 b0 BPL  REL   A:ff X:00 Y:62 P:c4 S:f9 pc: f858, reg_addr: f861
f858 b0 07 c9 BCS  REL   A:ff X:00 Y:62 P:c4 S:f9 pc: f85a, reg_addr: f861
f85a c9 ff d0 CMP  IMM   A:ff X:00 Y:62 P:c4 S:f9 pc: f85c, reg_addr: 00ff
f85c d0 03 50 BNE  REL   A:ff X:00 Y:62 P:47 S:f9 pc: f85e, reg_addr: f861
f85e 50 01 60 BVC  REL   A:ff X:00 Y:62 P:47 S:f9 pc: f860, reg_addr: f861
f860 60 84 00 RTS  IMPL  A:ff X:00 Y:62 P:47 S:f9 pc: d0b4, reg_addr: 0000
d0b4 c8 a9 80 INY  IMPL  A:ff X:00 Y:62 P:47 S:fb pc: d0b5, reg_addr: 0000
d0b5 a9 80 8d LDA  IMM   A:ff X:00 Y:63 P:45 S:fb pc: d0b7, reg_addr: 0080
d0b7 8d 00 02 STA  ABS   A:80 X:00 Y:63 P:c5 S:fb pc: d0ba, reg_addr: 0200
d0ba 20 64 f8 JSR  ABS   A:80 X:00 Y:63 P:c5 S:fb pc: f864, reg_addr: f864
f864 18 24 01 CLC  IMPL  A:80 X:00 Y:63 P:c5 S:f9 pc: f865, reg_addr: 0000
f865 24 01 a9 BIT  ZP    A:80 X:00 Y:63 P:c4 S:f9 pc: f867, reg_addr: 0001
f867 a9 7f 60 LDA  IMM   A:80 X:00 Y:63 P:c4 S:f9 pc: f869, reg_addr: 007f
f869 60 10 09 RTS  IMPL  A:7f X:00 Y:63 P:44 S:f9 pc: d0bd, reg_addr: 0000
d0bd 61 80 20 ADC  INDX  A:7f X:00 Y:63 P:44 S:fb pc: d0bf, reg_addr: 0200
d0bf 20 6a f8 JSR  ABS   A:ff X:00 Y:63 P:84 S:fb pc: f86a, reg_addr: f86a
f86a 10 09 b0 BPL  REL   A:ff X:00 Y:63 P:84 S:f9 pc: f86c, reg_addr: f875
f86c b0 07 c9 BCS  REL   A:ff X:00 Y:63 P:84 S:f9 pc: f86e, reg_addr: f875
f86e c9 ff d0 CMP  IMM   A:ff X:00 Y:63 P:84 S:f9 pc: f870, reg_addr: 00ff
f870 d0 03 70 BNE  REL   A:ff X:00 Y:63 P:07 S:f9 pc: f872, reg_addr: f875
f872 70 01 60 BVS  REL   A:ff X:00 Y:63 P:07 S:f9 pc: f874, reg_addr: f875
f874 60 84 00 RTS  IMPL  A:ff X:00 Y:63 P:07 S:f9 pc: d0c2, reg_addr: 0000
d0c2 c8 20 78 INY  IMPL  A:ff X:00 Y:63 P:07 S:fb pc: d0c3, reg_addr: 0000
d0c3 20 78 f8 JSR  ABS   A:ff X:00 Y:64 P:05 S:fb pc: f878, reg_addr: f878
f878 38 b8 a9 SEC  IMPL  A:ff X:00 Y:64 P:05 S:f9 pc: f879, reg_addr: 0000
f879 b8 a9 7f CLV  IMPL  A:ff X:00 Y:64 P:05 S:f9 pc: f87a, reg_addr: 0000
f87a a9 7f 60 LDA  IMM   A:ff X:00 Y:64 P:05 S:f9 pc: f87c, reg_addr: 007f
f87c 60 d0 07 RTS  IMPL  A:7f X:00 Y:64 P:05 S:f9 pc: d0c6, reg_addr: 0000
d0c6 61 80 20 ADC  INDX  A:7f X:00 Y:64 P:05 S:fb pc: d0c8, reg_addr: 0200
d0c8 20 7d f8 JSR  ABS   A:00 X:00 Y:64 P:07 S:fb pc: f87d, reg_addr: f87d
f87d d0 07 30 BNE  REL   A:00 X:00 Y:64 P:07 S:f9 pc: f87f, reg_addr: f886
f87f 30 05 70 BMI  REL   A:00 X:00 Y:64 P:07 S:f9 pc: f881, reg_addr: f886
f881 70 03 90 BVS  REL   A:00 X:00 Y:64 P:07 S:f9 pc: f883, reg_addr: f886
f883 90 01 60 BCC  REL   A:00 X:00 Y:64 P:07 S:f9 pc: f885, reg_addr: f886
f885 60 84 00 RTS  IMPL  A:00 X:00 Y:64 P:07 S:f9 pc: d0cb, reg_addr: 0000
d0cb c8 a9 40 INY  IMPL  A:00 X:00 Y:64 P:07 S:fb pc: d0cc, reg_addr: 0000
d0cc a9 40 8d LDA  IMM   A:00 X:00 Y:65 P:05 S:fb pc: d0ce, reg_addr: 0040
d0ce 8d 00 02 STA  ABS   A:40 X:00 Y:65 P:05 S:fb pc: d0d1, reg_addr: 0200
d0d1 20 89 f8 JSR  ABS   A:40 X:00 Y:65 P:05 S:fb pc: f889, reg_addr: f889
f889 24 01 a9 BIT  ZP    A:40 X:00 Y:65 P:05 S:f9 pc: f88b, reg_addr: 0001
f88b a9 40 60 LDA  IMM   A:40 X:00 Y:65 P:c5 S:f9 pc: f88d, reg_addr: 0040
f88d 60 30 07 RTS  IMPL  A:40 X:00 Y:65 P:45 S:f9 pc: d0d4, reg_addr: 0000
d0d4 c1 80 20 CMP  INDX  A:40 X:00 Y:65 P:45 S:fb pc: d0d6, reg_addr: 0200
d0d6 20 8e f8 JSR  ABS   A:40 X:00 Y:65 P:47 S:fb pc: f88e, reg_addr: f88e
f88e 30 07 90 BMI  REL   A:40 X:00 Y:65 P:47 S:f9 pc: f890, reg_addr: f897
f890 90 05 d0 BCC  REL   A:40 X:00 Y:65 P:47 S:f9 pc: f892, reg_addr: f897
f892 d0 03 50 BNE  REL   A:40 X:00 Y:65 P:47 S:f9 pc: f894, reg_addr: f897
f894 50 01 60 BVC  REL   A:40 X:00 Y:65 P:47 S:f9 pc: f896, reg_addr: f897
f896 60 84 00 RTS  IMPL  A:40 X:00 Y:65 P:47 S:f9 pc: d0d9, reg_addr: 0000
d0d9 c8 48 a9 INY  IMPL  A:40 X:00 Y:65 P:47 S:fb pc: d0da, reg_addr: 0000
d0da 48 a9 3f PHA  IMPL  A:40 X:00 Y:66 P:45 S:fb pc: d0db, reg_addr: 0000
d0db a9 3f 8d LDA  IMM   A:40 X:00 Y:66 P:45 S:fa pc: d0dd, reg_addr: 003f
d0dd 8d 00 02 STA  ABS   A:3f X:00 Y:66 P:45 S:fa pc: d0e0, reg_addr: 0200
d0e0 68 20 9a PLA  IMPL  A:3f X:00 Y:66 P:45 S:fa pc: d0e1, reg_addr: 0000
d0e1 20 9a f8 JSR  ABS   A:40 X:00 Y:66 P:45 S:fb pc: f89a, reg_addr: f89a
f89a b8 60 f0 CLV  IMPL  A:40 X:00 Y:66 P:45 S:f9 pc: f89b, reg_addr: 0000
f89b 60 f0 07 RTS  IMPL  A:40 X:00 Y:66 P:05 S:f9 pc: d0e4, reg_addr: 0000
d0e4 c1 80 20 CMP  INDX  A:40 X:00 Y:66 P:05 S:fb pc: d0e6, reg_addr: 0200
d0e6 20 9c f8 JSR  ABS   A:40 X:00 Y:66 P:05 S:fb pc: f89c, reg_addr: f89c
f89c f0 07 30 BEQ  REL   A:40 X:00 Y:66 P:05 S:f9 pc: f89e, reg_addr: f8a5
f89e 30 05 90 BMI  REL   A:40 X:00 Y:66 P:05 S:f9 pc: f8a0, reg_addr: f8a5
f8a0 90 03 70 BCC  REL   A:40 X:00 Y:66 P:05 S:f9 pc: f8a2, reg_addr: f8a5
f8a2 70 01 60 BVS  REL   A:40 X:00 Y:66 P:05 S:f9 pc: f8a4, reg_addr: f8a5
f8a4 60 84 00 RTS  IMPL  A:40 X:00 Y:66 P:05 S:f9 pc: d0e9, reg_addr: 0000
d0e9 c8 48 a9 INY  IMPL  A:40 X:00 Y:66 P:05 S:fb pc: d0ea, reg_addr: 0000
d0ea 48 a9 41 PHA  IMPL  A:40 X:00 Y:67 P:05 S:fb pc: d0eb, reg_addr: 0000
d0eb a9 41 8d LDA  IMM   A:40 X:00 Y:67 P:05 S:fa pc: d0ed, reg_addr: 0041
d0ed 8d 00 02 STA  ABS   A:41 X:00 Y:67 P:05 S:fa pc: d0f0, reg_addr: 0200
d0f0 68 c1 80 PLA  IMPL  A:41 X:00 Y:67 P:05 S:fa pc: d0f1, reg_addr: 0000
d0f1 c1 80 20 CMP  INDX  A:40 X:00 Y:67 P:05 S:fb pc: d0f3, reg_addr: 0200
d0f3 20 a8 f8 JSR  ABS   A:40 X:00 Y:67 P:84 S:fb pc: f8a8, reg_addr: f8a8
f8a8 f0 05 10 BEQ  REL   A:40 X:00 Y:67 P:84 S:f9 pc: f8aa, reg_addr: f8af
f8aa 10 03 10 BPL  REL   A:40 X:00 Y:67 P:84 S:f9 pc: f8ac, reg_addr: f8af
f8ac 10 01 60 BPL  REL   A:40 X:00 Y:67 P:84 S:f9 pc: f8ae, reg_addr: f8af
f8ae 60 84 00 RTS  IMPL  A:40 X:00 Y:67 P:84 S:f9 pc: d0f6, reg_addr: 0000
d0f6 c8 48 a9 INY  IMPL  A:40 X:00 Y:67 P:84 S:fb pc: d0f7, reg_addr: 0000
d0f7 48 a9 00 PHA  IMPL  A:40 X:00 Y:68 P:04 S:fb pc: d0f8, reg_addr: 0000
d0f8 a9 00 8d LDA  IMM   A:40 X:00 Y:68 P:04 S:fa pc: d0fa, reg_addr: 0000
d0fa 8d 00 02 STA  ABS   A:00 X:00 Y:68 P:06 S:fa pc: d0fd, reg_addr: 0200
d0fd 68 20 b2 PLA  IMPL  A:00 X:00 Y:68 P:06 S:fa pc: d0fe, reg_addr: 0000
d0fe 20 b2 f8 JSR  ABS   A:40 X:00 Y:68 P:04 S:fb pc: f8b2, reg_addr: f8b2
f8b2 a9 80 60 LDA  IMM   A:40 X:00 Y:68 P:04 S:f9 pc: f8b4, reg_addr: 0080
f8b4 60 f0 05 RTS  IMPL  A:80 X:00 Y:68 P:84 S:f9 pc: d101, reg_addr: 0000
d101 c1 80 20 CMP  INDX  A:80 X:00 Y:68 P:84 S:fb pc: d103, reg_addr: 0200
d103 20 b5 f8 JSR  ABS   A:80 X:00 Y:68 P:85 S:fb pc: f8b5, reg_addr: f8b5
f8b5 f0 05 10 BEQ  REL   A:80 X:00 Y:68 P:85 S:f9 pc: f8b7, reg_addr: f8bc
f8b7 10 03 90 BPL  REL   A:80 X:00 Y:68 P:85 S:f9 pc: f8b9, reg_addr: f8bc
f8b9 90 01 60 BCC  REL   A:80 X:00 Y:68 P:85 S:f9 pc: f8bb, reg_addr: f8bc
f8bb 60 84 00 RTS  IMPL  A:80 X:00 Y:68 P:85 S:f9 pc: d106, reg_addr: 0000
d106 c8 48 a9 INY  IMPL  A:80 X:00 Y:68 P:85 S:fb pc: d107, reg_addr: 0000
d107 48 a9 80 PHA  IMPL  A:80 X:00 Y:69 P:05 S:fb pc: d108, reg_addr: 0000
d108 a9 80 8d LDA  IMM   A:80 X:00 Y:69 P:05 S:fa pc: d10a, reg_addr: 0080
d10a 8d 00 02 STA  ABS   A:80 X:00 Y:69 P:85 S:fa pc: d10d, reg_addr: 0200
d10d 68 c1 80 PLA  IMPL  A:80 X:00 Y:69 P:85 S:fa pc: d10e, reg_addr: 0000
d10e c1 80 20 CMP  INDX  A:80 X:00 Y:69 P:85 S:fb pc: d110, reg_addr: 0200
d110 20 bf f8 JSR  ABS   A:80 X:00 Y:69 P:07 S:fb pc: f8bf, reg_addr: f8bf
f8bf d0 05 30 BNE  REL   A:80 X:00 Y:69 P:07 S:f9 pc: f8c1, reg_addr: f8c6
f8c1 30 03 90 BMI  REL   A:80 X:00 Y:69 P:07 S:f9 pc: f8c3, reg_addr: f8c6
f8c3 90 01 60 BCC  REL   A:80 X:00 Y:69 P:07 S:f9 pc: f8c5, reg_addr: f8c6
f8c5 60 84 00 RTS  IMPL  A:80 X:00 Y:69 P:07 S:f9 pc: d113, reg_addr: 0000
d113 c8 48 a9 INY  IMPL  A:80 X:00 Y:69 P:07 S:fb pc: d114, reg_addr: 0000
d114 48 a9 81 PHA  IMPL  A:80 X:00 Y:6a P:05 S:fb pc: d115, reg_addr: 0000
d115 a9 81 8d LDA  IMM   A:80 X:00 Y:6a P:05 S:fa pc: d117, reg_addr: 0081
d117 8d 00 02 STA  ABS   A:81 X:00 Y:6a P:85 S:fa pc: d11a, reg_addr: 0200
d11a 68 c1 80 PLA  IMPL  A:81 X:00 Y:6a P:85 S:fa pc: d11b, reg_addr: 0000
d11b c1 80 20 CMP  INDX  A:80 X:00 Y:6a P:85 S:fb pc: d11d, reg_addr: 0200
d11d 20 c9 f8 JSR  ABS   A:80 X:00 Y:6a P:84 S:fb pc: f8c9, reg_addr: f8c9
f8c9 b0 05 f0 BCS  REL   A:80 X:00 Y:6a P:84 S:f9 pc: f8cb, reg_addr: f8d0
f8cb f0 03 10 BEQ  REL   A:80 X:00 Y:6a P:84 S:f9 pc: f8cd, reg_addr: f8d0
f8cd 10 01 60 BPL  REL   A:80 X:00 Y:6a P:84 S:f9 pc: f8cf, reg_addr: f8d0
f8cf 60 84 00 RTS  IMPL  A:80 X:00 Y:6a P:84 S:f9 pc: d120, reg_addr: 0000
d120 c8 48 a9 INY  IMPL  A:80 X:00 Y:6a P:84 S:fb pc: d121, reg_addr: 0000
d121 48 a9 7f PHA  IMPL  A:80 X:00 Y:6b P:04 S:fb pc: d122, reg_addr: 0000
d122 a9 7f 8d LDA  IMM   A:80 X:00 Y:6b P:04 S:fa pc: d124, reg_addr: 007f
d124 8d 00 02 STA  ABS   A:7f X:00 Y:6b P:04 S:fa pc: d127, reg_addr: 0200
d127 68 c1 80 PLA  IMPL  A:7f X:00 Y:6b P:04 S:fa pc: d128, reg_addr: 0000
d128 c1 80 20 CMP  INDX  A:80 X:00 Y:6b P:84 S:fb pc: d12a, reg_addr: 0200
d12a 20 d3 f8 JSR  ABS   A:80 X:00 Y:6b P:05 S:fb pc: f8d3, reg_addr: f8d3
f8d3 90 05 f0 BCC  REL   A:80 X:00 Y:6b P:05 S:f9 pc: f8d5, reg_addr: f8da
f8d5 f0 03 30 BEQ  REL   A:80 X:00 Y:6b P:05 S:f9 pc: f8d7, reg_addr: f8da
f8d7 30 01 60 BMI  REL   A:80 X:00 Y:6b P:05 S:f9 pc: f8d9, reg_addr: f8da
f8d9 60 84 00 RTS  IMPL  A:80 X:00 Y:6b P:05 S:f9 pc: d12d, reg_addr: 0000
d12d c8 a9 40 INY  IMPL  A:80 X:00 Y:6b P:05 S:fb pc: d12e, reg_addr: 0000
d12e a9 40 8d LDA  IMM   A:80 X:00 Y:6c P:05 S:fb pc: d130, reg_addr: 0040
d130 8d 00 02 STA  ABS   A:40 X:00 Y:6c P:05 S:fb pc: d133, reg_addr: 0200
d133 20 31 f9 JSR  ABS   A:40 X:00 Y:6c P:05 S:fb pc: f931, reg_addr: f931
f931 24 01 a9 BIT  ZP    A:40 X:00 Y:6c P:05 S:f9 pc: f933, reg_addr: 0001
f933 a9 40 38 LDA  IMM   A:40 X:00 Y:6c P:c5 S:f9 pc: f935, reg_addr: 0040
f935 38 60 30 SEC  IMPL  A:40 X:00 Y:6c P:45 S:f9 pc: f936, reg_addr: 0000
f936 60 30 0b RTS  IMPL  A:40 X:00 Y:6c P:45 S:f9 pc: d136, reg_addr: 0000
d136 e1 80 20 SBC  INDX  A:40 X:00 Y:6c P:45 S:fb pc: d138, reg_addr: 0200
d138 20 37 f9 JSR  ABS   A:00 X:00 Y:6c P:07 S:fb pc: f937, reg_addr: f937
f937 30 0b 90 BMI  REL   A:00 X:00 Y:6c P:07 S:f9 pc: f939, reg_addr: f944
f939 90 09 d0 BCC  REL   A:00 X:00 Y:6c P:07 S:f9 pc: f93b, reg_addr: f944
f93b d0 07 70 BNE  REL   A:00 X:00 Y:6c P:07 S:f9 pc: f93d, reg_addr: f944
f93d 70 05 c9 BVS  REL   A:00 X:00 Y:6c P:07 S:f9 pc: f93f, reg_addr: f944
f93f c9 00 d0 CMP  IMM   A:00 X:00 Y:6c P:07 S:f9 pc: f941, reg_addr: 0000
f941 d0 01 60 BNE  REL   A:00 X:00 Y:6c P:07 S:f9 pc: f943, reg_addr: f944
f943 60 84 00 RTS  IMPL  A:00 X:00 Y:6c P:07 S:f9 pc: d13b, reg_addr: 0000
d13b c8 a9 3f INY  IMPL  A:00 X:00 Y:6c P:07 S:fb pc: d13c, reg_addr: 0000
d13c a9 3f 8d LDA  IMM   A:00 X:00 Y:6d P:05 S:fb pc: d13e, reg_addr: 003f
d13e 8d 00 02 STA  ABS   A:3f X:00 Y:6d P:05 S:fb pc: d141, reg_addr: 0200
d141 20 47 f9 JSR  ABS   A:3f X:00 Y:6d P:05 S:fb pc: f947, reg_addr: f947
f947 b8 38 a9 CLV  IMPL  A:3f X:00 Y:6d P:05 S:f9 pc: f948, reg_addr: 0000
f948 38 a9 40 SEC  IMPL  A:3f X:00 Y:6d P:05 S:f9 pc: f949, reg_addr: 0000
f949 a9 40 60 LDA  IMM   A:3f X:00 Y:6d P:05 S:f9 pc: f94b, reg_addr: 0040
f94b 60 f0 0b RTS  IMPL  A:40 X:00 Y:6d P:05 S:f9 pc: d144, reg_addr: 0000
d144 e1 80 20 SBC  INDX  A:40 X:00 Y:6d P:05 S:fb pc: d146, reg_addr: 0200
d146 20 4c f9 JSR  ABS   A:01 X:00 Y:6d P:05 S:fb pc: f94c, reg_addr: f94c
f94c f0 0b 30 BEQ  REL   A:01 X:00 Y:6d P:05 S:f9 pc: f94e, reg_addr: f959
f94e 30 09 90 BMI  REL   A:01 X:00 Y:6d P:05 S:f9 pc: f950, reg_addr: f959
f950 90 07 70 BCC  REL   A:01 X:00 Y:6d P:05 S:f9 pc: f952, reg_addr: f959
f952 70 05 c9 BVS  REL   A:01 X:00 Y:6d P:05 S:f9 pc: f954, reg_addr: f959
f954 c9 01 d0 CMP  IMM   A:01 X:00 Y:6d P:05 S:f9 pc: f956, reg_addr: 0001
f956 d0 01 60 BNE  REL   A:01 X:00 Y:6d P:07 S:f9 pc: f958, reg_addr: f959
f958 60 84 00 RTS  IMPL  A:01 X:00 Y:6d P:07 S:f9 pc: d149, reg_addr: 0000
d149 c8 a9 41 INY  IMPL  A:01 X:00 Y:6d P:07 S:fb pc: d14a, reg_addr: 0000
d14a a9 41 8d LDA  IMM   A:01 X:00 Y:6e P:05 S:fb pc: d14c, reg_addr: 0041
d14c 8d 00 02 STA  ABS   A:41 X:00 Y:6e P:05 S:fb pc: d14f, reg_addr: 0200
d14f 20 5c f9 JSR  ABS   A:41 X:00 Y:6e P:05 S:fb pc: f95c, reg_addr: f95c
f95c a9 40 38 LDA  IMM   A:41 X:00 Y:6e P:05 S:f9 pc: f95e, reg_addr: 0040
f95e 38 24 01 SEC  IMPL  A:40 X:00 Y:6e P:05 S:f9 pc: f95f, reg_addr: 0000
f95f 24 01 60 BIT  ZP    A:40 X:00 Y:6e P:05 S:f9 pc: f961, reg_addr: 0001
f961 60 b0 0b RTS  IMPL  A:40 X:00 Y:6e P:c5 S:f9 pc: d152, reg_addr: 0000
d152 e1 80 20 SBC  INDX  A:40 X:00 Y:6e P:c5 S:fb pc: d154, reg_addr: 0200
d154 20 62 f9 JSR  ABS   A:ff X:00 Y:6e P:84 S:fb pc: f962, reg_addr: f962
f962 b0 0b f0 BCS  REL   A:ff X:00 Y:6e P:84 S:f9 pc: f964, reg_addr: f96f
f964 f0 09 10 BEQ  REL   A:ff X:00 Y:6e P:84 S:f9 pc: f966, reg_addr: f96f
f966 10 07 70 BPL  REL   A:ff X:00 Y:6e P:84 S:f9 pc: f968, reg_addr: f96f
f968 70 05 c9 BVS  REL   A:ff X:00 Y:6e P:84 S:f9 pc: f96a, reg_addr: f96f
f96a c9 ff d0 CMP  IMM   A:ff X:00 Y:6e P:84 S:f9 pc: f96c, reg_addr: 00ff
f96c d0 01 60 BNE  REL   A:ff X:00 Y:6e P:07 S:f9 pc: f96e, reg_addr: f96f
f96e 60 84 00 RTS  IMPL  A:ff X:00 Y:6e P:07 S:f9 pc: d157, reg_addr: 0000
d157 c8 a9 00 INY  IMPL  A:ff X:00 Y:6e P:07 S:fb pc: d158, reg_addr: 0000
d158 a9 00 8d LDA  IMM   A:ff X:00 Y:6f P:05 S:fb pc: d15a, reg_addr: 0000
d15a 8d 00 02 STA  ABS   A:00 X:00 Y:6f P:07 S:fb pc: d15d, reg_addr: 0200
d15d 20 72 f9 JSR  ABS   A:00 X:00 Y:6f P:07 S:fb pc: f972, reg_addr: f972
f972 18 a9 80 CLC  IMPL  A:00 X:00 Y:6f P:07 S:f9 pc: f973, reg_addr: 0000
f973 a9 80 60 LDA  IMM   A:00 X:00 Y:6f P:06 S:f9 pc: f975, reg_addr: 0080
f975 60 90 05 RTS  IMPL  A:80 X:00 Y:6f P:84 S:f9 pc: d160, reg_addr: 0000
d160 e1 80 20 SBC  INDX  A:80 X:00 Y:6f P:84 S:fb pc: d162, reg_addr: 0200
d162 20 76 f9 JSR  ABS   A:7f X:00 Y:6f P:45 S:fb pc: f976, reg_addr: f976
f976 90 05 c9 BCC  REL   A:7f X:00 Y:6f P:45 S:f9 pc: f978, reg_addr: f97d
f978 c9 7f d0 CMP  IMM   A:7f X:00 Y:6f P:45 S:f9 pc: f97a, reg_addr: 007f
f97a d0 01 60 BNE  REL   A:7f X:00 Y:6f P:47 S:f9 pc: f97c, reg_addr: f97d
f97c 60 84 00 RTS  IMPL  A:7f X:00 Y:6f P:47 S:f9 pc: d165, reg_addr: 0000
d165 c8 a9 7f INY  IMPL  A:7f X:00 Y:6f P:47 S:fb pc: d166, reg_addr: 0000
d166 a9 7f 8d LDA  IMM   A:7f X:00 Y:70 P:45 S:fb pc: d168, reg_addr: 007f
d168 8d 00 02 STA  ABS   A:7f X:00 Y:70 P:45 S:fb pc: d16b, reg_addr: 0200
d16b 20 80 f9 JSR  ABS   A:7f X:00 Y:70 P:45 S:fb pc: f980, reg_addr: f980
f980 38 a9 81 SEC  IMPL  A:7f X:00 Y:70 P:45 S:f9 pc: f981, reg_addr: 0000
f981 a9 81 60 LDA  IMM   A:7f X:00 Y:70 P:45 S:f9 pc: f983, reg_addr: 0081
f983 60 50 07 RTS  IMPL  A:81 X:00 Y:70 P:c5 S:f9 pc: d16e, reg_addr: 0000
d16e e1 80 20 SBC  INDX  A:81 X:00 Y:70 P:c5 S:fb pc: d170, reg_addr: 0200
d170 20 84 f9 JSR  ABS   A:02 X:00 Y:70 P:45 S:fb pc: f984, reg_addr: f984
f984 50 07 90 BVC  REL   A:02 X:00 Y:70 P:45 S:f9 pc: f986, reg_addr: f98d
f986 90 05 c9 BCC  REL   A:02 X:00 Y:70 P:45 S:f9 pc: f988, reg_addr: f98d
f988 c9 02 d0 CMP  IMM   A:02 X:00 Y:70 P:45 S:f9 pc: f98a, reg_addr: 0002
f98a d0 01 60 BNE  REL   A:02 X:00 Y:70 P:47 S:f9 pc: f98c, reg_addr: f98d
f98c 60 84 00 RTS  IMPL  A:02 X:00 Y:70 P:47 S:f9 pc: d173, reg_addr: 0000
d173 60 a9 55 RTS  IMPL  A:02 X:00 Y:70 P:47 S:fb pc: c612, reg_addr: 0000
c612 20 74 d1 JSR  ABS   A:02 X:00 Y:70 P:47 S:fd pc: d174, reg_addr: d174
d174 a9 55 85 LDA  IMM   A:02 X:00 Y:70 P:47 S:fb pc: d176, reg_addr: 0055
d176 85 78 a9 STA  ZP    A:55 X:00 Y:70 P:45 S:fb pc: d178, reg_addr: 0078
d178 a9 ff 85 LDA  IMM   A:55 X:00 Y:70 P:45 S:fb pc: d17a, reg_addr: 00ff
d17a 85 01 24 STA  ZP    A:ff X:00 Y:70 P:c5 S:fb pc: d17c, reg_addr: 0001
d17c 24 01 a0 BIT  ZP    A:ff X:00 Y:70 P:c5 S:fb pc: d17e, reg_addr: 0001
d17e a0 11 a2 LDY  IMM   A:ff X:00 Y:70 P:c5 S:fb pc: d180, reg_addr: 0011
d180 a2 23 a9 LDX  IMM   A:ff X:00 Y:11 P:45 S:fb pc: d182, reg_addr: 0023
d182 a9 00 a5 LDA  IMM   A:ff X:23 Y:11 P:45 S:fb pc: d184, reg_addr: 0000
d184 a5 78 f0 LDA  ZP    A:00 X:23 Y:11 P:47 S:fb pc: d186, reg_addr: 0078
d186 f0 10 30 BEQ  REL   A:55 X:23 Y:11 P:45 S:fb pc: d188, reg_addr: d198
d188 30 0e c9 BMI  REL   A:55 X:23 Y:11 P:45 S:fb pc: d18a, reg_addr: d198
d18a c9 55 d0 CMP  IMM   A:55 X:23 Y:11 P:45 S:fb pc: d18c, reg_addr: 0055
d18c d0 0a c0 BNE  REL   A:55 X:23 Y:11 P:47 S:fb pc: d18e, reg_addr: d198
d18e c0 11 d0 CPY  IMM   A:55 X:23 Y:11 P:47 S:fb pc: d190, reg_addr: 0011
d190 d0 06 e0 BNE  REL   A:55 X:23 Y:11 P:47 S:fb pc: d192, reg_addr: d198
d192 e0 23 50 CPX  IMM   A:55 X:23 Y:11 P:47 S:fb pc: d194, reg_addr: 0023
d194 50 02 f0 BVC  REL   A:55 X:23 Y:11 P:47 S:fb pc: d196, reg_addr: d198
d196 f0 04 a9 BEQ  REL   A:55 X:23 Y:11 P:47 S:fb pc: d19c, reg_addr: d19c
d19c a9 46 24 LDA  IMM   A:55 X:23 Y:11 P:47 S:fb pc: d19e, reg_addr: 0046
d19e 24 01 85 BIT  ZP    A:46 X:23 Y:11 P:45 S:fb pc: d1a0, reg_addr: 0001
d1a0 85 78 f0 STA  ZP    A:46 X:23 Y:11 P:c5 S:fb pc: d1a2, reg_addr: 0078
d1a2 f0 0a 10 BEQ  REL   A:46 X:23 Y:11 P:c5 S:fb pc: d1a4, reg_addr: d1ae
d1a4 10 08 50 BPL  REL   A:46 X:23 Y:11 P:c5 S:fb pc: d1a6, reg_addr: d1ae
d1a6 50 06 a5 BVC  REL   A:46 X:23 Y:11 P:c5 S:fb pc: d1a8, reg_addr: d1ae
d1a8 a5 78 c9 LDA  ZP    A:46 X:23 Y:11 P:c5 S:fb pc: d1aa, reg_addr: 0078
d1aa c9 46 f0 CMP  IMM   A:46 X:23 Y:11 P:45 S:fb pc: d1ac, reg_addr: 0046
d1ac f0 04 a9 BEQ  REL   A:46 X:23 Y:11 P:47 S:fb pc: d1b2, reg_addr: d1b2
d1b2 a9 55 85 LDA  IMM   A:46 X:23 Y:11 P:47 S:fb pc: d1b4, reg_addr: 0055
d1b4 85 78 24 STA  ZP    A:55 X:23 Y:11 P:45 S:fb pc: d1b6, reg_addr: 0078
d1b6 24 01 a9 BIT  ZP    A:55 X:23 Y:11 P:45 S:fb pc: d1b8, reg_addr: 0001
d1b8 a9 11 a2 LDA  IMM   A:55 X:23 Y:11 P:c5 S:fb pc: d1ba, reg_addr: 0011
d1ba a2 23 a0 LDX  IMM   A:11 X:23 Y:11 P:45 S:fb pc: d1bc, reg_addr: 0023
d1bc a0 00 a4 LDY  IMM   A:11 X:23 Y:11 P:45 S:fb pc: d1be, reg_addr: 0000
d1be a4 78 f0 LDY  ZP    A:11 X:23 Y:00 P:47 S:fb pc: d1c0, reg_addr: 0078
d1c0 f0 10 30 BEQ  REL   A:11 X:23 Y:55 P:45 S:fb pc: d1c2, reg_addr: d1d2
d1c2 30 0e c0 BMI  REL   A:11 X:23 Y:55 P:45 S:fb pc: d1c4, reg_addr: d1d2
d1c4 c0 55 d0 CPY  IMM   A:11 X:23 Y:55 P:45 S:fb pc: d1c6, reg_addr: 0055
d1c6 d0 0a c9 BNE  REL   A:11 X:23 Y:55 P:47 S:fb pc: d1c8, reg_addr: d1d2
d1c8 c9 11 d0 CMP  IMM   A:11 X:23 Y:55 P:47 S:fb pc: d1ca, reg_addr: 0011
d1ca d0 06 e0 BNE  REL   A:11 X:23 Y:55 P:47 S:fb pc: d1cc, reg_addr: d1d2
d1cc e0 23 50 CPX  IMM   A:11 X:23 Y:55 P:47 S:fb pc: d1ce, reg_addr: 0023
d1ce 50 02 f0 BVC  REL   A:11 X:23 Y:55 P:47 S:fb pc: d1d0, reg_addr: d1d2
d1d0 f0 04 a9 BEQ  REL   A:11 X:23 Y:55 P:47 S:fb pc: d1d6, reg_addr: d1d6
d1d6 a0 46 24 LDY  IMM   A:11 X:23 Y:55 P:47 S:fb pc: d1d8, reg_addr: 0046
d1d8 24 01 84 BIT  ZP    A:11 X:23 Y:46 P:45 S:fb pc: d1da, reg_addr: 0001
d1da 84 78 f0 STY  ZP    A:11 X:23 Y:46 P:c5 S:fb pc: d1dc, reg_addr: 0078
d1dc f0 0a 10 BEQ  REL   A:11 X:23 Y:46 P:c5 S:fb pc: d1de, reg_addr: d1e8
d1de 10 08 50 BPL  REL   A:11 X:23 Y:46 P:c5 S:fb pc: d1e0, reg_addr: d1e8
d1e0 50 06 a4 BVC  REL   A:11 X:23 Y:46 P:c5 S:fb pc: d1e2, reg_addr: d1e8
d1e2 a4 78 c0 LDY  ZP    A:11 X:23 Y:46 P:c5 S:fb pc: d1e4, reg_addr: 0078
d1e4 c0 46 f0 CPY  IMM   A:11 X:23 Y:46 P:45 S:fb pc: d1e6, reg_addr: 0046
d1e6 f0 04 a9 BEQ  REL   A:11 X:23 Y:46 P:47 S:fb pc: d1ec, reg_addr: d1ec
d1ec 24 01 a9 BIT  ZP    A:11 X:23 Y:46 P:47 S:fb pc: d1ee, reg_addr: 0001
d1ee a9 55 85 LDA  IMM   A:11 X:23 Y:46 P:c5 S:fb pc: d1f0, reg_addr: 0055
d1f0 85 78 a0 STA  ZP    A:55 X:23 Y:46 P:45 S:fb pc: d1f2, reg_addr: 0078
d1f2 a0 11 a9 LDY  IMM   A:55 X:23 Y:46 P:45 S:fb pc: d1f4, reg_addr: 0011
d1f4 a9 23 a2 LDA  IMM   A:55 X:23 Y:11 P:45 S:fb pc: d1f6, reg_addr: 0023
d1f6 a2 00 a6 LDX  IMM   A:23 X:23 Y:11 P:45 S:fb pc: d1f8, reg_addr: 0000
d1f8 a6 78 f0 LDX  ZP    A:23 X:00 Y:11 P:47 S:fb pc: d1fa, reg_addr: 0078
d1fa f0 10 30 BEQ  REL   A:23 X:55 Y:11 P:45 S:fb pc: d1fc, reg_addr: d20c
d1fc 30 0e e0 BMI  REL   A:23 X:55 Y:11 P:45 S:fb pc: d1fe, reg_addr: d20c
d1fe e0 55 d0 CPX  IMM   A:23 X:55 Y:11 P:45 S:fb pc: d200, reg_addr: 0055
d200 d0 0a c0 BNE  REL   A:23 X:55 Y:11 P:47 S:fb pc: d202, reg_addr: d20c
d202 c0 11 d0 CPY  IMM   A:23 X:55 Y:11 P:47 S:fb pc: d204, reg_addr: 0011
d204 d0 06 c9 BNE  REL   A:23 X:55 Y:11 P:47 S:fb pc: d206, reg_addr: d20c
d206 c9 23 50 CMP  IMM   A:23 X:55 Y:11 P:47 S:fb pc: d208, reg_addr: 0023
d208 50 02 f0 BVC  REL   A:23 X:55 Y:11 P:47 S:fb pc: d20a, reg_addr: d20c
d20a f0 04 a9 BEQ  REL   A:23 X:55 Y:11 P:47 S:fb pc: d210, reg_addr: d210
d210 a2 46 24 LDX  IMM   A:23 X:55 Y:11 P:47 S:fb pc: d212, reg_addr: 0046
d212 24 01 86 BIT  ZP    A:23 X:46 Y:11 P:45 S:fb pc: d214, reg_addr: 0001
d214 86 78 f0 STX  ZP    A:23 X:46 Y:11 P:c5 S:fb pc: d216, reg_addr: 0078
d216 f0 0a 10 BEQ  REL   A:23 X:46 Y:11 P:c5 S:fb pc: d218, reg_addr: d222
d218 10 08 50 BPL  REL   A:23 X:46 Y:11 P:c5 S:fb pc: d21a, reg_addr: d222
d21a 50 06 a6 BVC  REL   A:23 X:46 Y:11 P:c5 S:fb pc: d21c, reg_addr: d222
d21c a6 78 e0 LDX  ZP    A:23 X:46 Y:11 P:c5 S:fb pc: d21e, reg_addr: 0078
d21e e0 46 f0 CPX  IMM   A:23 X:46 Y:11 P:45 S:fb pc: d220, reg_addr: 0046
d220 f0 04 a9 BEQ  REL   A:23 X:46 Y:11 P:47 S:fb pc: d226, reg_addr: d226
d226 a9 c0 85 LDA  IMM   A:23 X:46 Y:11 P:47 S:fb pc: d228, reg_addr: 00c0
d228 85 78 a2 STA  ZP    A:c0 X:46 Y:11 P:c5 S:fb pc: d22a, reg_addr: 0078
d22a a2 33 a0 LDX  IMM   A:c0 X:46 Y:11 P:c5 S:fb pc: d22c, reg_addr: 0033
d22c a0 88 a9 LDY  IMM   A:c0 X:33 Y:11 P:45 S:fb pc: d22e, reg_addr: 0088
d22e a9 05 24 LDA  IMM   A:c0 X:33 Y:88 P:c5 S:fb pc: d230, reg_addr: 0005
d230 24 78 10 BIT  ZP    A:05 X:33 Y:88 P:45 S:fb pc: d232, reg_addr: 0078
d232 10 10 50 BPL  REL   A:05 X:33 Y:88 P:c7 S:fb pc: d234, reg_addr: d244
d234 50 0e d0 BVC  REL   A:05 X:33 Y:88 P:c7 S:fb pc: d236, reg_addr: d244
d236 d0 0c c9 BNE  REL   A:05 X:33 Y:88 P:c7 S:fb pc: d238, reg_addr: d244
d238 c9 05 d0 CMP  IMM   A:05 X:33 Y:88 P:c7 S:fb pc: d23a, reg_addr: 0005
d23a d0 08 e0 BNE  REL   A:05 X:33 Y:88 P:47 S:fb pc: d23c, reg_addr: d244
d23c e0 33 d0 CPX  IMM   A:05 X:33 Y:88 P:47 S:fb pc: d23e, reg_addr: 0033
d23e d0 04 c0 BNE  REL   A:05 X:33 Y:88 P:47 S:fb pc: d240, reg_addr: d244
d240 c0 88 f0 CPY  IMM   A:05 X:33 Y:88 P:47 S:fb pc: d242, reg_addr: 0088
d242 f0 04 a9 BEQ  REL   A:05 X:33 Y:88 P:47 S:fb pc: d248, reg_addr: d248
d248 a9 03 85 LDA  IMM   A:05 X:33 Y:88 P:47 S:fb pc: d24a, reg_addr: 0003
d24a 85 78 a9 STA  ZP    A:03 X:33 Y:88 P:45 S:fb pc: d24c, reg_addr: 0078
d24c a9 01 24 LDA  IMM   A:03 X:33 Y:88 P:45 S:fb pc: d24e, reg_addr: 0001
d24e 24 78 30 BIT  ZP    A:01 X:33 Y:88 P:45 S:fb pc: d250, reg_addr: 0078
d250 30 08 70 BMI  REL   A:01 X:33 Y:88 P:05 S:fb pc: d252, reg_addr: d25a
d252 70 06 f0 BVS  REL   A:01 X:33 Y:88 P:05 S:fb pc: d254, reg_addr: d25a
d254 f0 04 c9 BEQ  REL   A:01 X:33 Y:88 P:05 S:fb pc: d256, reg_addr: d25a
d256 c9 01 f0 CMP  IMM   A:01 X:33 Y:88 P:05 S:fb pc: d258, reg_addr: 0001
d258 f0 04 a9 BEQ  REL   A:01 X:33 Y:88 P:07 S:fb pc: d25e, reg_addr: d25e
d25e a0 7e a9 LDY  IMM   A:01 X:33 Y:88 P:07 S:fb pc: d260, reg_addr: 007e
d260 a9 aa 85 LDA  IMM   A:01 X:33 Y:7e P:05 S:fb pc: d262, reg_addr: 00aa
d262 85 78 20 STA  ZP    A:aa X:33 Y:7e P:85 S:fb pc: d264, reg_addr: 0078
d264 20 b6 f7 JSR  ABS   A:aa X:33 Y:7e P:85 S:fb pc: f7b6, reg_addr: f7b6
f7b6 18 a9 ff CLC  IMPL  A:aa X:33 Y:7e P:85 S:f9 pc: f7b7, reg_addr: 0000
f7b7 a9 ff 85 LDA  IMM   A:aa X:33 Y:7e P:84 S:f9 pc: f7b9, reg_addr: 00ff
f7b9 85 01 24 STA  ZP    A:ff X:33 Y:7e P:84 S:f9 pc: f7bb, reg_addr: 0001
f7bb 24 01 a9 BIT  ZP    A:ff X:33 Y:7e P:84 S:f9 pc: f7bd, reg_addr: 0001
f7bd a9 55 60 LDA  IMM   A:ff X:33 Y:7e P:c4 S:f9 pc: f7bf, reg_addr: 0055
f7bf 60 b0 09 RTS  IMPL  A:55 X:33 Y:7e P:44 S:f9 pc: d267, reg_addr: 0000
d267 05 78 20 ORA  ZP    A:55 X:33 Y:7e P:44 S:fb pc: d269, reg_addr: 0078
d269 20 c0 f7 JSR  ABS   A:ff X:33 Y:7e P:c4 S:fb pc: f7c0, reg_addr: f7c0
f7c0 b0 09 10 BCS  REL   A:ff X:33 Y:7e P:c4 S:f9 pc: f7c2, reg_addr: f7cb
f7c2 10 07 c9 BPL  REL   A:ff X:33 Y:7e P:c4 S:f9 pc: f7c4, reg_addr: f7cb
f7c4 c9 ff d0 CMP  IMM   A:ff X:33 Y:7e P:c4 S:f9 pc: f7c6, reg_addr: 00ff
f7c6 d0 03 50 BNE  REL   A:ff X:33 Y:7e P:47 S:f9 pc: f7c8, reg_addr: f7cb
f7c8 50 01 60 BVC  REL   A:ff X:33 Y:7e P:47 S:f9 pc: f7ca, reg_addr: f7cb
f7ca 60 84 00 RTS  IMPL  A:ff X:33 Y:7e P:47 S:f9 pc: d26c, reg_addr: 0000
d26c c8 a9 00 INY  IMPL  A:ff X:33 Y:7e P:47 S:fb pc: d26d, reg_addr: 0000
d26d a9 00 85 LDA  IMM   A:ff X:33 Y:7f P:45 S:fb pc: d26f, reg_addr: 0000
d26f 85 78 20 STA  ZP    A:00 X:33 Y:7f P:47 S:fb pc: d271, reg_addr: 0078
d271 20 ce f7 JSR  ABS   A:00 X:33 Y:7f P:47 S:fb pc: f7ce, reg_addr: f7ce
f7ce 38 b8 a9 SEC  IMPL  A:00 X:33 Y:7f P:47 S:f9 pc: f7cf, reg_addr: 0000
f7cf b8 a9 00 CLV  IMPL  A:00 X:33 Y:7f P:47 S:f9 pc: f7d0, reg_addr: 0000
f7d0 a9 00 60 LDA  IMM   A:00 X:33 Y:7f P:07 S:f9 pc: f7d2, reg_addr: 0000
f7d2 60 d0 07 RTS  IMPL  A:00 X:33 Y:7f P:07 S:f9 pc: d274, reg_addr: 0000
d274 05 78 20 ORA  ZP    A:00 X:33 Y:7f P:07 S:fb pc: d276, reg_addr: 0078
d276 20 d3 f7 JSR  ABS   A:00 X:33 Y:7f P:07 S:fb pc: f7d3, reg_addr: f7d3
f7d3 d0 07 70 BNE  REL   A:00 X:33 Y:7f P:07 S:f9 pc: f7d5, reg_addr: f7dc
f7d5 70 05 90 BVS  REL   A:00 X:33 Y:7f P:07 S:f9 pc: f7d7, reg_addr: f7dc
f7d7 90 03 30 BCC  REL   A:00 X:33 Y:7f P:07 S:f9 pc: f7d9, reg_addr: f7dc
f7d9 30 01 60 BMI  REL   A:00 X:33 Y:7f P:07 S:f9 pc: f7db, reg_addr: f7dc
f7db 60 84 00 RTS  IMPL  A:00 X:33 Y:7f P:07 S:f9 pc: d279, reg_addr: 0000
d279 c8 a9 aa INY  IMPL  A:00 X:33 Y:7f P:07 S:fb pc: d27a, reg_addr: 0000
d27a a9 aa 85 LDA  IMM   A:00 X:33 Y:80 P:85 S:fb pc: d27c, reg_addr: 00aa
d27c 85 78 20 STA  ZP    A:aa X:33 Y:80 P:85 S:fb pc: d27e, reg_addr: 0078
d27e 20 df f7 JSR  ABS   A:aa X:33 Y:80 P:85 S:fb pc: f7df, reg_addr: f7df
f7df 18 24 01 CLC  IMPL  A:aa X:33 Y:80 P:85 S:f9 pc: f7e0, reg_addr: 0000
f7e0 24 01 a9 BIT  ZP    A:aa X:33 Y:80 P:84 S:f9 pc: f7e2, reg_addr: 0001
f7e2 a9 55 60 LDA  IMM   A:aa X:33 Y:80 P:c4 S:f9 pc: f7e4, reg_addr: 0055
f7e4 60 d0 07 RTS  IMPL  A:55 X:33 Y:80 P:44 S:f9 pc: d281, reg_addr: 0000
d281 25 78 20 AND  ZP    A:55 X:33 Y:80 P:44 S:fb pc: d283, reg_addr: 0078
d283 20 e5 f7 JSR  ABS   A:00 X:33 Y:80 P:46 S:fb pc: f7e5, reg_addr: f7e5
f7e5 d0 07 50 BNE  REL   A:00 X:33 Y:80 P:46 S:f9 pc: f7e7, reg_addr: f7ee
f7e7 50 05 b0 BVC  REL   A:00 X:33 Y:80 P:46 S:f9 pc: f7e9, reg_addr: f7ee
f7e9 b0 03 30 BCS  REL   A:00 X:33 Y:80 P:46 S:f9 pc: f7eb, reg_addr: f7ee
f7eb 30 01 60 BMI  REL   A:00 X:33 Y:80 P:46 S:f9 pc: f7ed, reg_addr: f7ee
f7ed 60 84 00 RTS  IMPL  A:00 X:33 Y:80 P:46 S:f9 pc: d286, reg_addr: 0000
d286 c8 a9 ef INY  IMPL  A:00 X:33 Y:80 P:46 S:fb pc: d287, reg_addr: 0000
d287 a9 ef 85 LDA  IMM   A:00 X:33 Y:81 P:c4 S:fb pc: d289, reg_addr: 00ef
d289 85 78 20 STA  ZP    A:ef X:33 Y:81 P:c4 S:fb pc: d28b, reg_addr: 0078
d28b 20 f1 f7 JSR  ABS   A:ef X:33 Y:81 P:c4 S:fb pc: f7f1, reg_addr: f7f1
f7f1 38 b8 a9 SEC  IMPL  A:ef X:33 Y:81 P:c4 S:f9 pc: f7f2, reg_addr: 0000
f7f2 b8 a9 f8 CLV  IMPL  A:ef X:33 Y:81 P:c5 S:f9 pc: f7f3, reg_addr: 0000
f7f3 a9 f8 60 LDA  IMM   A:ef X:33 Y:81 P:85 S:f9 pc: f7f5, reg_addr: 00f8
f7f5 60 90 09 RTS  IMPL  A:f8 X:33 Y:81 P:85 S:f9 pc: d28e, reg_addr: 0000
d28e 25 78 20 AND  ZP    A:f8 X:33 Y:81 P:85 S:fb pc: d290, reg_addr: 0078
d290 20 f6 f7 JSR  ABS   A:e8 X:33 Y:81 P:85 S:fb pc: f7f6, reg_addr: f7f6
f7f6 90 09 10 BCC  REL   A:e8 X:33 Y:81 P:85 S:f9 pc: f7f8, reg_addr: f801
f7f8 10 07 c9 BPL  REL   A:e8 X:33 Y:81 P:85 S:f9 pc: f7fa, reg_addr: f801
f7fa c9 e8 d0 CMP  IMM   A:e8 X:33 Y:81 P:85 S:f9 pc: f7fc, reg_addr: 00e8
f7fc d0 03 70 BNE  REL   A:e8 X:33 Y:81 P:07 S:f9 pc: f7fe, reg_addr: f801
f7fe 70 01 60 BVS  REL   A:e8 X:33 Y:81 P:07 S:f9 pc: f800, reg_addr: f801
f800 60 84 00 RTS  IMPL  A:e8 X:33 Y:81 P:07 S:f9 pc: d293, reg_addr: 0000
d293 c8 a9 aa INY  IMPL  A:e8 X:33 Y:81 P:07 S:fb pc: d294, reg_addr: 0000
d294 a9 aa 85 LDA  IMM   A:e8 X:33 Y:82 P:85 S:fb pc: d296, reg_addr: 00aa
d296 85 78 20 STA  ZP    A:aa X:33 Y:82 P:85 S:fb pc: d298, reg_addr: 0078
d298 20 04 f8 JSR  ABS   A:aa X:33 Y:82 P:85 S:fb pc: f804, reg_addr: f804
f804 18 24 01 CLC  IMPL  A:aa X:33 Y:82 P:85 S:f9 pc: f805, reg_addr: 0000
f805 24 01 a9 BIT  ZP    A:aa X:33 Y:82 P:84 S:f9 pc: f807, reg_addr: 0001
f807 a9 5f 60 LDA  IMM   A:aa X:33 Y:82 P:c4 S:f9 pc: f809, reg_addr: 005f
f809 60 b0 09 RTS  IMPL  A:5f X:33 Y:82 P:44 S:f9 pc: d29b, reg_addr: 0000
d29b 45 78 20 EOR  ZP    A:5f X:33 Y:82 P:44 S:fb pc: d29d, reg_addr: 0078
d29d 20 0a f8 JSR  ABS   A:f5 X:33 Y:82 P:c4 S:fb pc: f80a, reg_addr: f80a
f80a b0 09 10 BCS  REL   A:f5 X:33 Y:82 P:c4 S:f9 pc: f80c, reg_addr: f815
f80c 10 07 c9 BPL  REL   A:f5 X:33 Y:82 P:c4 S:f9 pc: f80e, reg_addr: f815
f80e c9 f5 d0 CMP  IMM   A:f5 X:33 Y:82 P:c4 S:f9 pc: f810, reg_addr: 00f5
f810 d0 03 50 BNE  REL   A:f5 X:33 Y:82 P:47 S:f9 pc: f812, reg_addr: f815
f812 50 01 60 BVC  REL   A:f5 X:33 Y:82 P:47 S:f9 pc: f814, reg_addr: f815
f814 60 84 00 RTS  IMPL  A:f5 X:33 Y:82 P:47 S:f9 pc: d2a0, reg_addr: 0000
d2a0 c8 a9 70 INY  IMPL  A:f5 X:33 Y:82 P:47 S:fb pc: d2a1, reg_addr: 0000
d2a1 a9 70 85 LDA  IMM   A:f5 X:33 Y:83 P:c5 S:fb pc: d2a3, reg_addr: 0070
d2a3 85 78 20 STA  ZP    A:70 X:33 Y:83 P:45 S:fb pc: d2a5, reg_addr: 0078
d2a5 20 18 f8 JSR  ABS   A:70 X:33 Y:83 P:45 S:fb pc: f818, reg_addr: f818
f818 38 b8 a9 SEC  IMPL  A:70 X:33 Y:83 P:45 S:f9 pc: f819, reg_addr: 0000
f819 b8 a9 70 CLV  IMPL  A:70 X:33 Y:83 P:45 S:f9 pc: f81a, reg_addr: 0000
f81a a9 70 60 LDA  IMM   A:70 X:33 Y:83 P:05 S:f9 pc: f81c, reg_addr: 0070
f81c 60 d0 07 RTS  IMPL  A:70 X:33 Y:83 P:05 S:f9 pc: d2a8, reg_addr: 0000
d2a8 45 78 20 EOR  ZP    A:70 X:33 Y:83 P:05 S:fb pc: d2aa, reg_addr: 0078
d2aa 20 1d f8 JSR  ABS   A:00 X:33 Y:83 P:07 S:fb pc: f81d, reg_addr: f81d
f81d d0 07 70 BNE  REL   A:00 X:33 Y:83 P:07 S:f9 pc: f81f, reg_addr: f826
f81f 70 05 90 BVS  REL   A:00 X:33 Y:83 P:07 S:f9 pc: f821, reg_addr: f826
f821 90 03 30 BCC  REL   A:00 X:33 Y:83 P:07 S:f9 pc: f823, reg_addr: f826
f823 30 01 60 BMI  REL   A:00 X:33 Y:83 P:07 S:f9 pc: f825, reg_addr: f826
f825 60 84 00 RTS  IMPL  A:00 X:33 Y:83 P:07 S:f9 pc: d2ad, reg_addr: 0000
d2ad c8 a9 69 INY  IMPL  A:00 X:33 Y:83 P:07 S:fb pc: d2ae, reg_addr: 0000
d2ae a9 69 85 LDA  IMM   A:00 X:33 Y:84 P:85 S:fb pc: d2b0, reg_addr: 0069
d2b0 85 78 20 STA  ZP    A:69 X:33 Y:84 P:05 S:fb pc: d2b2, reg_addr: 0078
d2b2 20 29 f8 JSR  ABS   A:69 X:33 Y:84 P:05 S:fb pc: f829, reg_addr: f829
f829 18 24 01 CLC  IMPL  A:69 X:33 Y:84 P:05 S:f9 pc: f82a, reg_addr: 0000
f82a 24 01 a9 BIT  ZP    A:69 X:33 Y:84 P:04 S:f9 pc: f82c, reg_addr: 0001
f82c a9 00 60 LDA  IMM   A:69 X:33 Y:84 P:c4 S:f9 pc: f82e, reg_addr: 0000
f82e 60 30 09 RTS  IMPL  A:00 X:33 Y:84 P:46 S:f9 pc: d2b5, reg_addr: 0000
d2b5 65 78 20 ADC  ZP    A:00 X:33 Y:84 P:46 S:fb pc: d2b7, reg_addr: 0078
d2b7 20 2f f8 JSR  ABS   A:69 X:33 Y:84 P:04 S:fb pc: f82f, reg_addr: f82f
f82f 30 09 b0 BMI  REL   A:69 X:33 Y:84 P:04 S:f9 pc: f831, reg_addr: f83a
f831 b0 07 c9 BCS  REL   A:69 X:33 Y:84 P:04 S:f9 pc: f833, reg_addr: f83a
f833 c9 69 d0 CMP  IMM   A:69 X:33 Y:84 P:04 S:f9 pc: f835, reg_addr: 0069
f835 d0 03 70 BNE  REL   A:69 X:33 Y:84 P:07 S:f9 pc: f837, reg_addr: f83a
f837 70 01 60 BVS  REL   A:69 X:33 Y:84 P:07 S:f9 pc: f839, reg_addr: f83a
f839 60 84 00 RTS  IMPL  A:69 X:33 Y:84 P:07 S:f9 pc: d2ba, reg_addr: 0000
d2ba c8 20 3d INY  IMPL  A:69 X:33 Y:84 P:07 S:fb pc: d2bb, reg_addr: 0000
d2bb 20 3d f8 JSR  ABS   A:69 X:33 Y:85 P:85 S:fb pc: f83d, reg_addr: f83d
f83d 38 24 01 SEC  IMPL  A:69 X:33 Y:85 P:85 S:f9 pc: f83e, reg_addr: 0000
f83e 24 01 a9 BIT  ZP    A:69 X:33 Y:85 P:85 S:f9 pc: f840, reg_addr: 0001
f840 a9 00 60 LDA  IMM   A:69 X:33 Y:85 P:c5 S:f9 pc: f842, reg_addr: 0000
f842 60 30 09 RTS  IMPL  A:00 X:33 Y:85 P:47 S:f9 pc: d2be, reg_addr: 0000
d2be 65 78 20 ADC  ZP    A:00 X:33 Y:85 P:47 S:fb pc: d2c0, reg_addr: 0078
d2c0 20 43 f8 JSR  ABS   A:6a X:33 Y:85 P:04 S:fb pc: f843, reg_addr: f843
f843 30 09 b0 BMI  REL   A:6a X:33 Y:85 P:04 S:f9 pc: f845, reg_addr: f84e
f845 b0 07 c9 BCS  REL   A:6a X:33 Y:85 P:04 S:f9 pc: f847, reg_addr: f84e
f847 c9 6a d0 CMP  IMM   A:6a X:33 Y:85 P:04 S:f9 pc: f849, reg_addr: 006a
f849 d0 03 70 BNE  REL   A:6a X:33 Y:85 P:07 S:f9 pc: f84b, reg_addr: f84e
f84b 70 01 60 BVS  REL   A:6a X:33 Y:85 P:07 S:f9 pc: f84d, reg_addr: f84e
f84d 60 84 00 RTS  IMPL  A:6a X:33 Y:85 P:07 S:f9 pc: d2c3, reg_addr: 0000
d2c3 c8 a9 7f INY  IMPL  A:6a X:33 Y:85 P:07 S:fb pc: d2c4, reg_addr: 0000
d2c4 a9 7f 85 LDA  IMM   A:6a X:33 Y:86 P:85 S:fb pc: d2c6, reg_addr: 007f
d2c6 85 78 20 STA  ZP    A:7f X:33 Y:86 P:05 S:fb pc: d2c8, reg_addr: 0078
d2c8 20 51 f8 JSR  ABS   A:7f X:33 Y:86 P:05 S:fb pc: f851, reg_addr: f851
f851 38 b8 a9 SEC  IMPL  A:7f X:33 Y:86 P:05 S:f9 pc: f852, reg_addr: 0000
f852 b8 a9 7f CLV  IMPL  A:7f X:33 Y:86 P:05 S:f9 pc: f853, reg_addr: 0000
f853 a9 7f 60 LDA  IMM   A:7f X:33 Y:86 P:05 S:f9 pc: f855, reg_addr: 007f
f855 60 10 09 RTS  IMPL  A:7f X:33 Y:86 P:05 S:f9 pc: d2cb, reg_addr: 0000
d2cb 65 78 20 ADC  ZP    A:7f X:33 Y:86 P:05 S:fb pc: d2cd, reg_addr: 0078
d2cd 20 56 f8 JSR  ABS   A:ff X:33 Y:86 P:c4 S:fb pc: f856, reg_addr: f856
f856 10 09 b0 BPL  REL   A:ff X:33 Y:86 P:c4 S:f9 pc: f858, reg_addr: f861
f858 b0 07 c9 BCS  REL   A:ff X:33 Y:86 P:c4 S:f9 pc: f85a, reg_addr: f861
f85a c9 ff d0 CMP  IMM   A:ff X:33 Y:86 P:c4 S:f9 pc: f85c, reg_addr: 00ff
f85c d0 03 50 BNE  REL   A:ff X:33 Y:86 P:47 S:f9 pc: f85e, reg_addr: f861
f85e 50 01 60 BVC  REL   A:ff X:33 Y:86 P:47 S:f9 pc: f860, reg_addr: f861
f860 60 84 00 RTS  IMPL  A:ff X:33 Y:86 P:47 S:f9 pc: d2d0, reg_addr: 0000
d2d0 c8 a9 80 INY  IMPL  A:ff X:33 Y:86 P:47 S:fb pc: d2d1, reg_addr: 0000
d2d1 a9 80 85 LDA  IMM   A:ff X:33 Y:87 P:c5 S:fb pc: d2d3, reg_addr: 0080
d2d3 85 78 20 STA  ZP    A:80 X:33 Y:87 P:c5 S:fb pc: d2d5, reg_addr: 0078
d2d5 20 64 f8 JSR  ABS   A:80 X:33 Y:87 P:c5 S:fb pc: f864, reg_addr: f864
f864 18 24 01 CLC  IMPL  A:80 X:33 Y:87 P:c5 S:f9 pc: f865, reg_addr: 0000
f865 24 01 a9 BIT  ZP    A:80 X:33 Y:87 P:c4 S:f9 pc: f867, reg_addr: 0001
f867 a9 7f 60 LDA  IMM   A:80 X:33 Y:87 P:c4 S:f9 pc: f869, reg_addr: 007f
f869 60 10 09 RTS  IMPL  A:7f X:33 Y:87 P:44 S:f9 pc: d2d8, reg_addr: 0000
d2d8 65 78 20 ADC  ZP    A:7f X:33 Y:87 P:44 S:fb pc: d2da, reg_addr: 0078
d2da 20 6a f8 JSR  ABS   A:ff X:33 Y:87 P:84 S:fb pc: f86a, reg_addr: f86a
f86a 10 09 b0 BPL  REL   A:ff X:33 Y:87 P:84 S:f9 pc: f86c, reg_addr: f875
f86c b0 07 c9 BCS  REL   A:ff X:33 Y:87 P:84 S:f9 pc: f86e, reg_addr: f875
f86e c9 ff d0 CMP  IMM   A:ff X:33 Y:87 P:84 S:f9 pc: f870, reg_addr: 00ff
f870 d0 03 70 BNE  REL   A:ff X:33 Y:87 P:07 S:f9 pc: f872, reg_addr: f875
f872 70 01 60 BVS  REL   A:ff X:33 Y:87 P:07 S:f9 pc: f874, reg_addr: f875
f874 60 84 00 RTS  IMPL  A:ff X:33 Y:87 P:07 S:f9 pc: d2dd, reg_addr: 0000
d2dd c8 20 78 INY  IMPL  A:ff X:33 Y:87 P:07 S:fb pc: d2de, reg_addr: 0000
d2de 20 78 f8 JSR  ABS   A:ff X:33 Y:88 P:85 S:fb pc: f878, reg_addr: f878
f878 38 b8 a9 SEC  IMPL  A:ff X:33 Y:88 P:85 S:f9 pc: f879, reg_addr: 0000
f879 b8 a9 7f CLV  IMPL  A:ff X:33 Y:88 P:85 S:f9 pc: f87a, reg_addr: 0000
f87a a9 7f 60 LDA  IMM   A:ff X:33 Y:88 P:85 S:f9 pc: f87c, reg_addr: 007f
f87c 60 d0 07 RTS  IMPL  A:7f X:33 Y:88 P:05 S:f9 pc: d2e1, reg_addr: 0000
d2e1 65 78 20 ADC  ZP    A:7f X:33 Y:88 P:05 S:fb pc: d2e3, reg_addr: 0078
d2e3 20 7d f8 JSR  ABS   A:00 X:33 Y:88 P:07 S:fb pc: f87d, reg_addr: f87d
f87d d0 07 30 BNE  REL   A:00 X:33 Y:88 P:07 S:f9 pc: f87f, reg_addr: f886
f87f 30 05 70 BMI  REL   A:00 X:33 Y:88 P:07 S:f9 pc: f881, reg_addr: f886
f881 70 03 90 BVS  REL   A:00 X:33 Y:88 P:07 S:f9 pc: f883, reg_addr: f886
f883 90 01 60 BCC  REL   A:00 X:33 Y:88 P:07 S:f9 pc: f885, reg_addr: f886
f885 60 84 00 RTS  IMPL  A:00 X:33 Y:88 P:07 S:f9 pc: d2e6, reg_addr: 0000
d2e6 c8 a9 40 INY  IMPL  A:00 X:33 Y:88 P:07 S:fb pc: d2e7, reg_addr: 0000
d2e7 a9 40 85 LDA  IMM   A:00 X:33 Y:89 P:85 S:fb pc: d2e9, reg_addr: 0040
d2e9 85 78 20 STA  ZP    A:40 X:33 Y:89 P:05 S:fb pc: d2eb, reg_addr: 0078
d2eb 20 89 f8 JSR  ABS   A:40 X:33 Y:89 P:05 S:fb pc: f889, reg_addr: f889
f889 24 01 a9 BIT  ZP    A:40 X:33 Y:89 P:05 S:f9 pc: f88b, reg_addr: 0001
f88b a9 40 60 LDA  IMM   A:40 X:33 Y:89 P:c5 S:f9 pc: f88d, reg_addr: 0040
f88d 60 30 07 RTS  IMPL  A:40 X:33 Y:89 P:45 S:f9 pc: d2ee, reg_addr: 0000
d2ee c5 78 20 CMP  ZP    A:40 X:33 Y:89 P:45 S:fb pc: d2f0, reg_addr: 0078
d2f0 20 8e f8 JSR  ABS   A:40 X:33 Y:89 P:47 S:fb pc: f88e, reg_addr: f88e
f88e 30 07 90 BMI  REL   A:40 X:33 Y:89 P:47 S:f9 pc: f890, reg_addr: f897
f890 90 05 d0 BCC  REL   A:40 X:33 Y:89 P:47 S:f9 pc: f892, reg_addr: f897
f892 d0 03 50 BNE  REL   A:40 X:33 Y:89 P:47 S:f9 pc: f894, reg_addr: f897
f894 50 01 60 BVC  REL   A:40 X:33 Y:89 P:47 S:f9 pc: f896, reg_addr: f897
f896 60 84 00 RTS  IMPL  A:40 X:33 Y:89 P:47 S:f9 pc: d2f3, reg_addr: 0000
d2f3 c8 48 a9 INY  IMPL  A:40 X:33 Y:89 P:47 S:fb pc: d2f4, reg_addr: 0000
d2f4 48 a9 3f PHA  IMPL  A:40 X:33 Y:8a P:c5 S:fb pc: d2f5, reg_addr: 0000
d2f5 a9 3f 85 LDA  IMM   A:40 X:33 Y:8a P:c5 S:fa pc: d2f7, reg_addr: 003f
d2f7 85 78 68 STA  ZP    A:3f X:33 Y:8a P:45 S:fa pc: d2f9, reg_addr: 0078
d2f9 68 20 9a PLA  IMPL  A:3f X:33 Y:8a P:45 S:fa pc: d2fa, reg_addr: 0000
d2fa 20 9a f8 JSR  ABS   A:40 X:33 Y:8a P:45 S:fb pc: f89a, reg_addr: f89a
f89a b8 60 f0 CLV  IMPL  A:40 X:33 Y:8a P:45 S:f9 pc: f89b, reg_addr: 0000
f89b 60 f0 07 RTS  IMPL  A:40 X:33 Y:8a P:05 S:f9 pc: d2fd, reg_addr: 0000
d2fd c5 78 20 CMP  ZP    A:40 X:33 Y:8a P:05 S:fb pc: d2ff, reg_addr: 0078
d2ff 20 9c f8 JSR  ABS   A:40 X:33 Y:8a P:05 S:fb pc: f89c, reg_addr: f89c
f89c f0 07 30 BEQ  REL   A:40 X:33 Y:8a P:05 S:f9 pc: f89e, reg_addr: f8a5
f89e 30 05 90 BMI  REL   A:40 X:33 Y:8a P:05 S:f9 pc: f8a0, reg_addr: f8a5
f8a0 90 03 70 BCC  REL   A:40 X:33 Y:8a P:05 S:f9 pc: f8a2, reg_addr: f8a5
f8a2 70 01 60 BVS  REL   A:40 X:33 Y:8a P:05 S:f9 pc: f8a4, reg_addr: f8a5
f8a4 60 84 00 RTS  IMPL  A:40 X:33 Y:8a P:05 S:f9 pc: d302, reg_addr: 0000
d302 c8 48 a9 INY  IMPL  A:40 X:33 Y:8a P:05 S:fb pc: d303, reg_addr: 0000
d303 48 a9 41 PHA  IMPL  A:40 X:33 Y:8b P:85 S:fb pc: d304, reg_addr: 0000
d304 a9 41 85 LDA  IMM   A:40 X:33 Y:8b P:85 S:fa pc: d306, reg_addr: 0041
d306 85 78 68 STA  ZP    A:41 X:33 Y:8b P:05 S:fa pc: d308, reg_addr: 0078
d308 68 c5 78 PLA  IMPL  A:41 X:33 Y:8b P:05 S:fa pc: d309, reg_addr: 0000
d309 c5 78 20 CMP  ZP    A:40 X:33 Y:8b P:05 S:fb pc: d30b, reg_addr: 0078
d30b 20 a8 f8 JSR  ABS   A:40 X:33 Y:8b P:84 S:fb pc: f8a8, reg_addr: f8a8
f8a8 f0 05 10 BEQ  REL   A:40 X:33 Y:8b P:84 S:f9 pc: f8aa, reg_addr: f8af
f8aa 10 03 10 BPL  REL   A:40 X:33 Y:8b P:84 S:f9 pc: f8ac, reg_addr: f8af
f8ac 10 01 60 BPL  REL   A:40 X:33 Y:8b P:84 S:f9 pc: f8ae, reg_addr: f8af
f8ae 60 84 00 RTS  IMPL  A:40 X:33 Y:8b P:84 S:f9 pc: d30e, reg_addr: 0000
d30e c8 48 a9 INY  IMPL  A:40 X:33 Y:8b P:84 S:fb pc: d30f, reg_addr: 0000
d30f 48 a9 00 PHA  IMPL  A:40 X:33 Y:8c P:84 S:fb pc: d310, reg_addr: 0000
d310 a9 00 85 LDA  IMM   A:40 X:33 Y:8c P:84 S:fa pc: d312, reg_addr: 0000
d312 85 78 68 STA  ZP    A:00 X:33 Y:8c P:06 S:fa pc: d314, reg_addr: 0078
d314 68 20 b2 PLA  IMPL  A:00 X:33 Y:8c P:06 S:fa pc: d315, reg_addr: 0000
d315 20 b2 f8 JSR  ABS   A:40 X:33 Y:8c P:04 S:fb pc: f8b2, reg_addr: f8b2
f8b2 a9 80 60 LDA  IMM   A:40 X:33 Y:8c P:04 S:f9 pc: f8b4, reg_addr: 0080
f8b4 60 f0 05 RTS  IMPL  A:80 X:33 Y:8c P:84 S:f9 pc: d318, reg_addr: 0000
d318 c5 78 20 CMP  ZP    A:80 X:33 Y:8c P:84 S:fb pc: d31a, reg_addr: 0078
d31a 20 b5 f8 JSR  ABS   A:80 X:33 Y:8c P:85 S:fb pc: f8b5, reg_addr: f8b5
f8b5 f0 05 10 BEQ  REL   A:80 X:33 Y:8c P:85 S:f9 pc: f8b7, reg_addr: f8bc
f8b7 10 03 90 BPL  REL   A:80 X:33 Y:8c P:85 S:f9 pc: f8b9, reg_addr: f8bc
f8b9 90 01 60 BCC  REL   A:80 X:33 Y:8c P:85 S:f9 pc: f8bb, reg_addr: f8bc
f8bb 60 84 00 RTS  IMPL  A:80 X:33 Y:8c P:85 S:f9 pc: d31d, reg_addr: 0000
d31d c8 48 a9 INY  IMPL  A:80 X:33 Y:8c P:85 S:fb pc: d31e, reg_addr: 0000
d31e 48 a9 80 PHA  IMPL  A:80 X:33 Y:8d P:85 S:fb pc: d31f, reg_addr: 0000
d31f a9 80 85 LDA  IMM   A:80 X:33 Y:8d P:85 S:fa pc: d321, reg_addr: 0080
d321 85 78 68 STA  ZP    A:80 X:33 Y:8d P:85 S:fa pc: d323, reg_addr: 0078
d323 68 c5 78 PLA  IMPL  A:80 X:33 Y:8d P:85 S:fa pc: d324, reg_addr: 0000
d324 c5 78 20 CMP  ZP    A:80 X:33 Y:8d P:85 S:fb pc: d326, reg_addr: 0078
d326 20 bf f8 JSR  ABS   A:80 X:33 Y:8d P:07 S:fb pc: f8bf, reg_addr: f8bf
f8bf d0 05 30 BNE  REL   A:80 X:33 Y:8d P:07 S:f9 pc: f8c1, reg_addr: f8c6
f8c1 30 03 90 BMI  REL   A:80 X:33 Y:8d P:07 S:f9 pc: f8c3, reg_addr: f8c6
f8c3 90 01 60 BCC  REL   A:80 X:33 Y:8d P:07 S:f9 pc: f8c5, reg_addr: f8c6
f8c5 60 84 00 RTS  IMPL  A:80 X:33 Y:8d P:07 S:f9 pc: d329, reg_addr: 0000
d329 c8 48 a9 INY  IMPL  A:80 X:33 Y:8d P:07 S:fb pc: d32a, reg_addr: 0000
d32a 48 a9 81 PHA  IMPL  A:80 X:33 Y:8e P:85 S:fb pc: d32b, reg_addr: 0000
d32b a9 81 85 LDA  IMM   A:80 X:33 Y:8e P:85 S:fa pc: d32d, reg_addr: 0081
d32d 85 78 68 STA  ZP    A:81 X:33 Y:8e P:85 S:fa pc: d32f, reg_addr: 0078
d32f 68 c5 78 PLA  IMPL  A:81 X:33 Y:8e P:85 S:fa pc: d330, reg_addr: 0000
d330 c5 78 20 CMP  ZP    A:80 X:33 Y:8e P:85 S:fb pc: d332, reg_addr: 0078
d332 20 c9 f8 JSR  ABS   A:80 X:33 Y:8e P:84 S:fb pc: f8c9, reg_addr: f8c9
f8c9 b0 05 f0 BCS  REL   A:80 X:33 Y:8e P:84 S:f9 pc: f8cb, reg_addr: f8d0
f8cb f0 03 10 BEQ  REL   A:80 X:33 Y:8e P:84 S:f9 pc: f8cd, reg_addr: f8d0
f8cd 10 01 60 BPL  REL   A:80 X:33 Y:8e P:84 S:f9 pc: f8cf, reg_addr: f8d0
f8cf 60 84 00 RTS  IMPL  A:80 X:33 Y:8e P:84 S:f9 pc: d335, reg_addr: 0000
d335 c8 48 a9 INY  IMPL  A:80 X:33 Y:8e P:84 S:fb pc: d336, reg_addr: 0000
d336 48 a9 7f PHA  IMPL  A:80 X:33 Y:8f P:84 S:fb pc: d337, reg_addr: 0000
d337 a9 7f 85 LDA  IMM   A:80 X:33 Y:8f P:84 S:fa pc: d339, reg_addr: 007f
d339 85 78 68 STA  ZP    A:7f X:33 Y:8f P:04 S:fa pc: d33b, reg_addr: 0078
d33b 68 c5 78 PLA  IMPL  A:7f X:33 Y:8f P:04 S:fa pc: d33c, reg_addr: 0000
d33c c5 78 20 CMP  ZP    A:80 X:33 Y:8f P:84 S:fb pc: d33e, reg_addr: 0078
d33e 20 d3 f8 JSR  ABS   A:80 X:33 Y:8f P:05 S:fb pc: f8d3, reg_addr: f8d3
f8d3 90 05 f0 BCC  REL   A:80 X:33 Y:8f P:05 S:f9 pc: f8d5, reg_addr: f8da
f8d5 f0 03 30 BEQ  REL   A:80 X:33 Y:8f P:05 S:f9 pc: f8d7, reg_addr: f8da
f8d7 30 01 60 BMI  REL   A:80 X:33 Y:8f P:05 S:f9 pc: f8d9, reg_addr: f8da
f8d9 60 84 00 RTS  IMPL  A:80 X:33 Y:8f P:05 S:f9 pc: d341, reg_addr: 0000
d341 c8 a9 40 INY  IMPL  A:80 X:33 Y:8f P:05 S:fb pc: d342, reg_addr: 0000
d342 a9 40 85 LDA  IMM   A:80 X:33 Y:90 P:85 S:fb pc: d344, reg_addr: 0040
d344 85 78 20 STA  ZP    A:40 X:33 Y:90 P:05 S:fb pc: d346, reg_addr: 0078
d346 20 31 f9 JSR  ABS   A:40 X:33 Y:90 P:05 S:fb pc: f931, reg_addr: f931
f931 24 01 a9 BIT  ZP    A:40 X:33 Y:90 P:05 S:f9 pc: f933, reg_addr: 0001
f933 a9 40 38 LDA  IMM   A:40 X:33 Y:90 P:c5 S:f9 pc: f935, reg_addr: 0040
f935 38 60 30 SEC  IMPL  A:40 X:33 Y:90 P:45 S:f9 pc: f936, reg_addr: 0000
f936 60 30 0b RTS  IMPL  A:40 X:33 Y:90 P:45 S:f9 pc: d349, reg_addr: 0000
d349 e5 78 20 SBC  ZP    A:40 X:33 Y:90 P:45 S:fb pc: d34b, reg_addr: 0078
d34b 20 37 f9 JSR  ABS   A:00 X:33 Y:90 P:07 S:fb pc: f937, reg_addr: f937
f937 30 0b 90 BMI  REL   A:00 X:33 Y:90 P:07 S:f9 pc: f939, reg_addr: f944
f939 90 09 d0 BCC  REL   A:00 X:33 Y:90 P:07 S:f9 pc: f93b, reg_addr: f944
f93b d0 07 70 BNE  REL   A:00 X:33 Y:90 P:07 S:f9 pc: f93d, reg_addr: f944
f93d 70 05 c9 BVS  REL   A:00 X:33 Y:90 P:07 S:f9 pc: f93f, reg_addr: f944
f93f c9 00 d0 CMP  IMM   A:00 X:33 Y:90 P:07 S:f9 pc: f941, reg_addr: 0000
f941 d0 01 60 BNE  REL   A:00 X:33 Y:90 P:07 S:f9 pc: f943, reg_addr: f944
f943 60 84 00 RTS  IMPL  A:00 X:33 Y:90 P:07 S:f9 pc: d34e, reg_addr: 0000
d34e c8 a9 3f INY  IMPL  A:00 X:33 Y:90 P:07 S:fb pc: d34f, reg_addr: 0000
d34f a9 3f 85 LDA  IMM   A:00 X:33 Y:91 P:85 S:fb pc: d351, reg_addr: 003f
d351 85 78 20 STA  ZP    A:3f X:33 Y:91 P:05 S:fb pc: d353, reg_addr: 0078
d353 20 47 f9 JSR  ABS   A:3f X:33 Y:91 P:05 S:fb pc: f947, reg_addr: f947
f947 b8 38 a9 CLV  IMPL  A:3f X:33 Y:91 P:05 S:f9 pc: f948, reg_addr: 0000
f948 38 a9 40 SEC  IMPL  A:3f X:33 Y:91 P:05 S:f9 pc: f949, reg_addr: 0000
f949 a9 40 60 LDA  IMM   A:3f X:33 Y:91 P:05 S:f9 pc: f94b, reg_addr: 0040
f94b 60 f0 0b RTS  IMPL  A:40 X:33 Y:91 P:05 S:f9 pc: d356, reg_addr: 0000
d356 e5 78 20 SBC  ZP    A:40 X:33 Y:91 P:05 S:fb pc: d358, reg_addr: 0078
d358 20 4c f9 JSR  ABS   A:01 X:33 Y:91 P:05 S:fb pc: f94c, reg_addr: f94c
f94c f0 0b 30 BEQ  REL   A:01 X:33 Y:91 P:05 S:f9 pc: f94e, reg_addr: f959
f94e 30 09 90 BMI  REL   A:01 X:33 Y:91 P:05 S:f9 pc: f950, reg_addr: f959
f950 90 07 70 BCC  REL   A:01 X:33 Y:91 P:05 S:f9 pc: f952, reg_addr: f959
f952 70 05 c9 BVS  REL   A:01 X:33 Y:91 P:05 S:f9 pc: f954, reg_addr: f959
f954 c9 01 d0 CMP  IMM   A:01 X:33 Y:91 P:05 S:f9 pc: f956, reg_addr: 0001
f956 d0 01 60 BNE  REL   A:01 X:33 Y:91 P:07 S:f9 pc: f958, reg_addr: f959
f958 60 84 00 RTS  IMPL  A:01 X:33 Y:91 P:07 S:f9 pc: d35b, reg_addr: 0000
d35b c8 a9 41 INY  IMPL  A:01 X:33 Y:91 P:07 S:fb pc: d35c, reg_addr: 0000
d35c a9 41 85 LDA  IMM   A:01 X:33 Y:92 P:85 S:fb pc: d35e, reg_addr: 0041
d35e 85 78 20 STA  ZP    A:41 X:33 Y:92 P:05 S:fb pc: d360, reg_addr: 0078
d360 20 5c f9 JSR  ABS   A:41 X:33 Y:92 P:05 S:fb pc: f95c, reg_addr: f95c
f95c a9 40 38 LDA  IMM   A:41 X:33 Y:92 P:05 S:f9 pc: f95e, reg_addr: 0040
f95e 38 24 01 SEC  IMPL  A:40 X:33 Y:92 P:05 S:f9 pc: f95f, reg_addr: 0000
f95f 24 01 60 BIT  ZP    A:40 X:33 Y:92 P:05 S:f9 pc: f961, reg_addr: 0001
f961 60 b0 0b RTS  IMPL  A:40 X:33 Y:92 P:c5 S:f9 pc: d363, reg_addr: 0000
d363 e5 78 20 SBC  ZP    A:40 X:33 Y:92 P:c5 S:fb pc: d365, reg_addr: 0078
d365 20 62 f9 JSR  ABS   A:ff X:33 Y:92 P:84 S:fb pc: f962, reg_addr: f962
f962 b0 0b f0 BCS  REL   A:ff X:33 Y:92 P:84 S:f9 pc: f964, reg_addr: f96f
f964 f0 09 10 BEQ  REL   A:ff X:33 Y:92 P:84 S:f9 pc: f966, reg_addr: f96f
f966 10 07 70 BPL  REL   A:ff X:33 Y:92 P:84 S:f9 pc: f968, reg_addr: f96f
f968 70 05 c9 BVS  REL   A:ff X:33 Y:92 P:84 S:f9 pc: f96a, reg_addr: f96f
f96a c9 ff d0 CMP  IMM   A:ff X:33 Y:92 P:84 S:f9 pc: f96c, reg_addr: 00ff
f96c d0 01 60 BNE  REL   A:ff X:33 Y:92 P:07 S:f9 pc: f96e, reg_addr: f96f
f96e 60 84 00 RTS  IMPL  A:ff X:33 Y:92 P:07 S:f9 pc: d368, reg_addr: 0000
d368 c8 a9 00 INY  IMPL  A:ff X:33 Y:92 P:07 S:fb pc: d369, reg_addr: 0000
d369 a9 00 85 LDA  IMM   A:ff X:33 Y:93 P:85 S:fb pc: d36b, reg_addr: 0000
d36b 85 78 20 STA  ZP    A:00 X:33 Y:93 P:07 S:fb pc: d36d, reg_addr: 0078
d36d 20 72 f9 JSR  ABS   A:00 X:33 Y:93 P:07 S:fb pc: f972, reg_addr: f972
f972 18 a9 80 CLC  IMPL  A:00 X:33 Y:93 P:07 S:f9 pc: f973, reg_addr: 0000
f973 a9 80 60 LDA  IMM   A:00 X:33 Y:93 P:06 S:f9 pc: f975, reg_addr: 0080
f975 60 90 05 RTS  IMPL  A:80 X:33 Y:93 P:84 S:f9 pc: d370, reg_addr: 0000
d370 e5 78 20 SBC  ZP    A:80 X:33 Y:93 P:84 S:fb pc: d372, reg_addr: 0078
d372 20 76 f9 JSR  ABS   A:7f X:33 Y:93 P:45 S:fb pc: f976, reg_addr: f976
f976 90 05 c9 BCC  REL   A:7f X:33 Y:93 P:45 S:f9 pc: f978, reg_addr: f97d
f978 c9 7f d0 CMP  IMM   A:7f X:33 Y:93 P:45 S:f9 pc: f97a, reg_addr: 007f
f97a d0 01 60 BNE  REL   A:7f X:33 Y:93 P:47 S:f9 pc: f97c, reg_addr: f97d
f97c 60 84 00 RTS  IMPL  A:7f X:33 Y:93 P:47 S:f9 pc: d375, reg_addr: 0000
d375 c8 a9 7f INY  IMPL  A:7f X:33 Y:93 P:47 S:fb pc: d376, reg_addr: 0000
d376 a9 7f 85 LDA  IMM   A:7f X:33 Y:94 P:c5 S:fb pc: d378, reg_addr: 007f
d378 85 78 20 STA  ZP    A:7f X:33 Y:94 P:45 S:fb pc: d37a, reg_addr: 0078
d37a 20 80 f9 JSR  ABS   A:7f X:33 Y:94 P:45 S:fb pc: f980, reg_addr: f980
f980 38 a9 81 SEC  IMPL  A:7f X:33 Y:94 P:45 S:f9 pc: f981, reg_addr: 0000
f981 a9 81 60 LDA  IMM   A:7f X:33 Y:94 P:45 S:f9 pc: f983, reg_addr: 0081
f983 60 50 07 RTS  IMPL  A:81 X:33 Y:94 P:c5 S:f9 pc: d37d, reg_addr: 0000
d37d e5 78 20 SBC  ZP    A:81 X:33 Y:94 P:c5 S:fb pc: d37f, reg_addr: 0078
d37f 20 84 f9 JSR  ABS   A:02 X:33 Y:94 P:45 S:fb pc: f984, reg_addr: f984
f984 50 07 90 BVC  REL   A:02 X:33 Y:94 P:45 S:f9 pc: f986, reg_addr: f98d
f986 90 05 c9 BCC  REL   A:02 X:33 Y:94 P:45 S:f9 pc: f988, reg_addr: f98d
f988 c9 02 d0 CMP  IMM   A:02 X:33 Y:94 P:45 S:f9 pc: f98a, reg_addr: 0002
f98a d0 01 60 BNE  REL   A:02 X:33 Y:94 P:47 S:f9 pc: f98c, reg_addr: f98d
f98c 60 84 00 RTS  IMPL  A:02 X:33 Y:94 P:47 S:f9 pc: d382, reg_addr: 0000
d382 c8 a9 40 INY  IMPL  A:02 X:33 Y:94 P:47 S:fb pc: d383, reg_addr: 0000
d383 a9 40 85 LDA  IMM   A:02 X:33 Y:95 P:c5 S:fb pc: d385, reg_addr: 0040
d385 85 78 20 STA  ZP    A:40 X:33 Y:95 P:45 S:fb pc: d387, reg_addr: 0078
d387 20 89 f8 JSR  ABS   A:40 X:33 Y:95 P:45 S:fb pc: f889, reg_addr: f889
f889 24 01 a9 BIT  ZP    A:40 X:33 Y:95 P:45 S:f9 pc: f88b, reg_addr: 0001
f88b a9 40 60 LDA  IMM   A:40 X:33 Y:95 P:c5 S:f9 pc: f88d, reg_addr: 0040
f88d 60 30 07 RTS  IMPL  A:40 X:33 Y:95 P:45 S:f9 pc: d38a, reg_addr: 0000
d38a aa e4 78 TAX  IMPL  A:40 X:33 Y:95 P:45 S:fb pc: d38b, reg_addr: 0000
d38b e4 78 20 CPX  ZP    A:40 X:40 Y:95 P:45 S:fb pc: d38d, reg_addr: 0078
d38d 20 8e f8 JSR  ABS   A:40 X:40 Y:95 P:47 S:fb pc: f88e, reg_addr: f88e
f88e 30 07 90 BMI  REL   A:40 X:40 Y:95 P:47 S:f9 pc: f890, reg_addr: f897
f890 90 05 d0 BCC  REL   A:40 X:40 Y:95 P:47 S:f9 pc: f892, reg_addr: f897
f892 d0 03 50 BNE  REL   A:40 X:40 Y:95 P:47 S:f9 pc: f894, reg_addr: f897
f894 50 01 60 BVC  REL   A:40 X:40 Y:95 P:47 S:f9 pc: f896, reg_addr: f897
f896 60 84 00 RTS  IMPL  A:40 X:40 Y:95 P:47 S:f9 pc: d390, reg_addr: 0000
d390 c8 a9 3f INY  IMPL  A:40 X:40 Y:95 P:47 S:fb pc: d391, reg_addr: 0000
d391 a9 3f 85 LDA  IMM   A:40 X:40 Y:96 P:c5 S:fb pc: d393, reg_addr: 003f
d393 85 78 20 STA  ZP    A:3f X:40 Y:96 P:45 S:fb pc: d395, reg_addr: 0078
d395 20 9a f8 JSR  ABS   A:3f X:40 Y:96 P:45 S:fb pc: f89a, reg_addr: f89a
f89a b8 60 f0 CLV  IMPL  A:3f X:40 Y:96 P:45 S:f9 pc: f89b, reg_addr: 0000
f89b 60 f0 07 RTS  IMPL  A:3f X:40 Y:96 P:05 S:f9 pc: d398, reg_addr: 0000
d398 e4 78 20 CPX  ZP    A:3f X:40 Y:96 P:05 S:fb pc: d39a, reg_addr: 0078
d39a 20 9c f8 JSR  ABS   A:3f X:40 Y:96 P:05 S:fb pc: f89c, reg_addr: f89c
f89c f0 07 30 BEQ  REL   A:3f X:40 Y:96 P:05 S:f9 pc: f89e, reg_addr: f8a5
f89e 30 05 90 BMI  REL   A:3f X:40 Y:96 P:05 S:f9 pc: f8a0, reg_addr: f8a5
f8a0 90 03 70 BCC  REL   A:3f X:40 Y:96 P:05 S:f9 pc: f8a2, reg_addr: f8a5
f8a2 70 01 60 BVS  REL   A:3f X:40 Y:96 P:05 S:f9 pc: f8a4, reg_addr: f8a5
f8a4 60 84 00 RTS  IMPL  A:3f X:40 Y:96 P:05 S:f9 pc: d39d, reg_addr: 0000
d39d c8 a9 41 INY  IMPL  A:3f X:40 Y:96 P:05 S:fb pc: d39e, reg_addr: 0000
d39e a9 41 85 LDA  IMM   A:3f X:40 Y:97 P:85 S:fb pc: d3a0, reg_addr: 0041
d3a0 85 78 e4 STA  ZP    A:41 X:40 Y:97 P:05 S:fb pc: d3a2, reg_addr: 0078
d3a2 e4 78 20 CPX  ZP    A:41 X:40 Y:97 P:05 S:fb pc: d3a4, reg_addr: 0078
d3a4 20 a8 f8 JSR  ABS   A:41 X:40 Y:97 P:84 S:fb pc: f8a8, reg_addr: f8a8
f8a8 f0 05 10 BEQ  REL   A:41 X:40 Y:97 P:84 S:f9 pc: f8aa, reg_addr: f8af
f8aa 10 03 10 BPL  REL   A:41 X:40 Y:97 P:84 S:f9 pc: f8ac, reg_addr: f8af
f8ac 10 01 60 BPL  REL   A:41 X:40 Y:97 P:84 S:f9 pc: f8ae, reg_addr: f8af
f8ae 60 84 00 RTS  IMPL  A:41 X:40 Y:97 P:84 S:f9 pc: d3a7, reg_addr: 0000
d3a7 c8 a9 00 INY  IMPL  A:41 X:40 Y:97 P:84 S:fb pc: d3a8, reg_addr: 0000
d3a8 a9 00 85 LDA  IMM   A:41 X:40 Y:98 P:84 S:fb pc: d3aa, reg_addr: 0000
d3aa 85 78 20 STA  ZP    A:00 X:40 Y:98 P:06 S:fb pc: d3ac, reg_addr: 0078
d3ac 20 b2 f8 JSR  ABS   A:00 X:40 Y:98 P:06 S:fb pc: f8b2, reg_addr: f8b2
f8b2 a9 80 60 LDA  IMM   A:00 X:40 Y:98 P:06 S:f9 pc: f8b4, reg_addr: 0080
f8b4 60 f0 05 RTS  IMPL  A:80 X:40 Y:98 P:84 S:f9 pc: d3af, reg_addr: 0000
d3af aa e4 78 TAX  IMPL  A:80 X:40 Y:98 P:84 S:fb pc: d3b0, reg_addr: 0000
d3b0 e4 78 20 CPX  ZP    A:80 X:80 Y:98 P:84 S:fb pc: d3b2, reg_addr: 0078
d3b2 20 b5 f8 JSR  ABS   A:80 X:80 Y:98 P:85 S:fb pc: f8b5, reg_addr: f8b5
f8b5 f0 05 10 BEQ  REL   A:80 X:80 Y:98 P:85 S:f9 pc: f8b7, reg_addr: f8bc
f8b7 10 03 90 BPL  REL   A:80 X:80 Y:98 P:85 S:f9 pc: f8b9, reg_addr: f8bc
f8b9 90 01 60 BCC  REL   A:80 X:80 Y:98 P:85 S:f9 pc: f8bb, reg_addr: f8bc
f8bb 60 84 00 RTS  IMPL  A:80 X:80 Y:98 P:85 S:f9 pc: d3b5, reg_addr: 0000
d3b5 c8 a9 80 INY  IMPL  A:80 X:80 Y:98 P:85 S:fb pc: d3b6, reg_addr: 0000
d3b6 a9 80 85 LDA  IMM   A:80 X:80 Y:99 P:85 S:fb pc: d3b8, reg_addr: 0080
d3b8 85 78 e4 STA  ZP    A:80 X:80 Y:99 P:85 S:fb pc: d3ba, reg_addr: 0078
d3ba e4 78 20 CPX  ZP    A:80 X:80 Y:99 P:85 S:fb pc: d3bc, reg_addr: 0078
d3bc 20 bf f8 JSR  ABS   A:80 X:80 Y:99 P:07 S:fb pc: f8bf, reg_addr: f8bf
f8bf d0 05 30 BNE  REL   A:80 X:80 Y:99 P:07 S:f9 pc: f8c1, reg_addr: f8c6
f8c1 30 03 90 BMI  REL   A:80 X:80 Y:99 P:07 S:f9 pc: f8c3, reg_addr: f8c6
f8c3 90 01 60 BCC  REL   A:80 X:80 Y:99 P:07 S:f9 pc: f8c5, reg_addr: f8c6
f8c5 60 84 00 RTS  IMPL  A:80 X:80 Y:99 P:07 S:f9 pc: d3bf, reg_addr: 0000
d3bf c8 a9 81 INY  IMPL  A:80 X:80 Y:99 P:07 S:fb pc: d3c0, reg_addr: 0000
d3c0 a9 81 85 LDA  IMM   A:80 X:80 Y:9a P:85 S:fb pc: d3c2, reg_addr: 0081
d3c2 85 78 e4 STA  ZP    A:81 X:80 Y:9a P:85 S:fb pc: d3c4, reg_addr: 0078
d3c4 e4 78 20 CPX  ZP    A:81 X:80 Y:9a P:85 S:fb pc: d3c6, reg_addr: 0078
d3c6 20 c9 f8 JSR  ABS   A:81 X:80 Y:9a P:84 S:fb pc: f8c9, reg_addr: f8c9
f8c9 b0 05 f0 BCS  REL   A:81 X:80 Y:9a P:84 S:f9 pc: f8cb, reg_addr: f8d0
f8cb f0 03 10 BEQ  REL   A:81 X:80 Y:9a P:84 S:f9 pc: f8cd, reg_addr: f8d0
f8cd 10 01 60 BPL  REL   A:81 X:80 Y:9a P:84 S:f9 pc: f8cf, reg_addr: f8d0
f8cf 60 84 00 RTS  IMPL  A:81 X:80 Y:9a P:84 S:f9 pc: d3c9, reg_addr: 0000
d3c9 c8 a9 7f INY  IMPL  A:81 X:80 Y:9a P:84 S:fb pc: d3ca, reg_addr: 0000
d3ca a9 7f 85 LDA  IMM   A:81 X:80 Y:9b P:84 S:fb pc: d3cc, reg_addr: 007f
d3cc 85 78 e4 STA  ZP    A:7f X:80 Y:9b P:04 S:fb pc: d3ce, reg_addr: 0078
d3ce e4 78 20 CPX  ZP    A:7f X:80 Y:9b P:04 S:fb pc: d3d0, reg_addr: 0078
d3d0 20 d3 f8 JSR  ABS   A:7f X:80 Y:9b P:05 S:fb pc: f8d3, reg_addr: f8d3
f8d3 90 05 f0 BCC  REL   A:7f X:80 Y:9b P:05 S:f9 pc: f8d5, reg_addr: f8da
f8d5 f0 03 30 BEQ  REL   A:7f X:80 Y:9b P:05 S:f9 pc: f8d7, reg_addr: f8da
f8d7 30 01 60 BMI  REL   A:7f X:80 Y:9b P:05 S:f9 pc: f8d9, reg_addr: f8da
f8d9 60 84 00 RTS  IMPL  A:7f X:80 Y:9b P:05 S:f9 pc: d3d3, reg_addr: 0000
d3d3 c8 98 aa INY  IMPL  A:7f X:80 Y:9b P:05 S:fb pc: d3d4, reg_addr: 0000
d3d4 98 aa a9 TYA  IMPL  A:7f X:80 Y:9c P:85 S:fb pc: d3d5, reg_addr: 0000
d3d5 aa a9 40 TAX  IMPL  A:9c X:80 Y:9c P:85 S:fb pc: d3d6, reg_addr: 0000
d3d6 a9 40 85 LDA  IMM   A:9c X:9c Y:9c P:85 S:fb pc: d3d8, reg_addr: 0040
d3d8 85 78 20 STA  ZP    A:40 X:9c Y:9c P:05 S:fb pc: d3da, reg_addr: 0078
d3da 20 dd f8 JSR  ABS   A:40 X:9c Y:9c P:05 S:fb pc: f8dd, reg_addr: f8dd
f8dd 24 01 a0 BIT  ZP    A:40 X:9c Y:9c P:05 S:f9 pc: f8df, reg_addr: 0001
f8df a0 40 60 LDY  IMM   A:40 X:9c Y:9c P:c5 S:f9 pc: f8e1, reg_addr: 0040
f8e1 60 30 07 RTS  IMPL  A:40 X:9c Y:40 P:45 S:f9 pc: d3dd, reg_addr: 0000
d3dd c4 78 20 CPY  ZP    A:40 X:9c Y:40 P:45 S:fb pc: d3df, reg_addr: 0078
d3df 20 e2 f8 JSR  ABS   A:40 X:9c Y:40 P:47 S:fb pc: f8e2, reg_addr: f8e2
f8e2 30 07 90 BMI  REL   A:40 X:9c Y:40 P:47 S:f9 pc: f8e4, reg_addr: f8eb
f8e4 90 05 d0 BCC  REL   A:40 X:9c Y:40 P:47 S:f9 pc: f8e6, reg_addr: f8eb
f8e6 d0 03 50 BNE  REL   A:40 X:9c Y:40 P:47 S:f9 pc: f8e8, reg_addr: f8eb
f8e8 50 01 60 BVC  REL   A:40 X:9c Y:40 P:47 S:f9 pc: f8ea, reg_addr: f8eb
f8ea 60 86 00 RTS  IMPL  A:40 X:9c Y:40 P:47 S:f9 pc: d3e2, reg_addr: 0000
d3e2 e8 a9 3f INX  IMPL  A:40 X:9c Y:40 P:47 S:fb pc: d3e3, reg_addr: 0000
d3e3 a9 3f 85 LDA  IMM   A:40 X:9d Y:40 P:c5 S:fb pc: d3e5, reg_addr: 003f
d3e5 85 78 20 STA  ZP    A:3f X:9d Y:40 P:45 S:fb pc: d3e7, reg_addr: 0078
d3e7 20 ee f8 JSR  ABS   A:3f X:9d Y:40 P:45 S:fb pc: f8ee, reg_addr: f8ee
f8ee b8 60 f0 CLV  IMPL  A:3f X:9d Y:40 P:45 S:f9 pc: f8ef, reg_addr: 0000
f8ef 60 f0 07 RTS  IMPL  A:3f X:9d Y:40 P:05 S:f9 pc: d3ea, reg_addr: 0000
d3ea c4 78 20 CPY  ZP    A:3f X:9d Y:40 P:05 S:fb pc: d3ec, reg_addr: 0078
d3ec 20 f0 f8 JSR  ABS   A:3f X:9d Y:40 P:05 S:fb pc: f8f0, reg_addr: f8f0
f8f0 f0 07 30 BEQ  REL   A:3f X:9d Y:40 P:05 S:f9 pc: f8f2, reg_addr: f8f9
f8f2 30 05 90 BMI  REL   A:3f X:9d Y:40 P:05 S:f9 pc: f8f4, reg_addr: f8f9
f8f4 90 03 70 BCC  REL   A:3f X:9d Y:40 P:05 S:f9 pc: f8f6, reg_addr: f8f9
f8f6 70 01 60 BVS  REL   A:3f X:9d Y:40 P:05 S:f9 pc: f8f8, reg_addr: f8f9
f8f8 60 86 00 RTS  IMPL  A:3f X:9d Y:40 P:05 S:f9 pc: d3ef, reg_addr: 0000
d3ef e8 a9 41 INX  IMPL  A:3f X:9d Y:40 P:05 S:fb pc: d3f0, reg_addr: 0000
d3f0 a9 41 85 LDA  IMM   A:3f X:9e Y:40 P:85 S:fb pc: d3f2, reg_addr: 0041
d3f2 85 78 c4 STA  ZP    A:41 X:9e Y:40 P:05 S:fb pc: d3f4, reg_addr: 0078
d3f4 c4 78 20 CPY  ZP    A:41 X:9e Y:40 P:05 S:fb pc: d3f6, reg_addr: 0078
d3f6 20 fc f8 JSR  ABS   A:41 X:9e Y:40 P:84 S:fb pc: f8fc, reg_addr: f8fc
f8fc f0 05 10 BEQ  REL   A:41 X:9e Y:40 P:84 S:f9 pc: f8fe, reg_addr: f903
f8fe 10 03 10 BPL  REL   A:41 X:9e Y:40 P:84 S:f9 pc: f900, reg_addr: f903
f900 10 01 60 BPL  REL   A:41 X:9e Y:40 P:84 S:f9 pc: f902, reg_addr: f903
f902 60 86 00 RTS  IMPL  A:41 X:9e Y:40 P:84 S:f9 pc: d3f9, reg_addr: 0000
d3f9 e8 a9 00 INX  IMPL  A:41 X:9e Y:40 P:84 S:fb pc: d3fa, reg_addr: 0000
d3fa a9 00 85 LDA  IMM   A:41 X:9f Y:40 P:84 S:fb pc: d3fc, reg_addr: 0000
d3fc 85 78 20 STA  ZP    A:00 X:9f Y:40 P:06 S:fb pc: d3fe, reg_addr: 0078
d3fe 20 06 f9 JSR  ABS   A:00 X:9f Y:40 P:06 S:fb pc: f906, reg_addr: f906
f906 a0 80 60 LDY  IMM   A:00 X:9f Y:40 P:06 S:f9 pc: f908, reg_addr: 0080
f908 60 f0 05 RTS  IMPL  A:00 X:9f Y:80 P:84 S:f9 pc: d401, reg_addr: 0000
d401 c4 78 20 CPY  ZP    A:00 X:9f Y:80 P:84 S:fb pc: d403, reg_addr: 0078
d403 20 09 f9 JSR  ABS   A:00 X:9f Y:80 P:85 S:fb pc: f909, reg_addr: f909
f909 f0 05 10 BEQ  REL   A:00 X:9f Y:80 P:85 S:f9 pc: f90b, reg_addr: f910
f90b 10 03 90 BPL  REL   A:00 X:9f Y:80 P:85 S:f9 pc: f90d, reg_addr: f910
f90d 90 01 60 BCC  REL   A:00 X:9f Y:80 P:85 S:f9 pc: f90f, reg_addr: f910
f90f 60 86 00 RTS  IMPL  A:00 X:9f Y:80 P:85 S:f9 pc: d406, reg_addr: 0000
d406 e8 a9 80 INX  IMPL  A:00 X:9f Y:80 P:85 S:fb pc: d407, reg_addr: 0000
d407 a9 80 85 LDA  IMM   A:00 X:a0 Y:80 P:85 S:fb pc: d409, reg_addr: 0080
d409 85 78 c4 STA  ZP    A:80 X:a0 Y:80 P:85 S:fb pc: d40b, reg_addr: 0078
d40b c4 78 20 CPY  ZP    A:80 X:a0 Y:80 P:85 S:fb pc: d40d, reg_addr: 0078
d40d 20 13 f9 JSR  ABS   A:80 X:a0 Y:80 P:07 S:fb pc: f913, reg_addr: f913
f913 d0 05 30 BNE  REL   A:80 X:a0 Y:80 P:07 S:f9 pc: f915, reg_addr: f91a
f915 30 03 90 BMI  REL   A:80 X:a0 Y:80 P:07 S:f9 pc: f917, reg_addr: f91a
f917 90 01 60 BCC  REL   A:80 X:a0 Y:80 P:07 S:f9 pc: f919, reg_addr: f91a
f919 60 86 00 RTS  IMPL  A:80 X:a0 Y:80 P:07 S:f9 pc: d410, reg_addr: 0000
d410 e8 a9 81 INX  IMPL  A:80 X:a0 Y:80 P:07 S:fb pc: d411, reg_addr: 0000
d411 a9 81 85 LDA  IMM   A:80 X:a1 Y:80 P:85 S:fb pc: d413, reg_addr: 0081
d413 85 78 c4 STA  ZP    A:81 X:a1 Y:80 P:85 S:fb pc: d415, reg_addr: 0078
d415 c4 78 20 CPY  ZP    A:81 X:a1 Y:80 P:85 S:fb pc: d417, reg_addr: 0078
d417 20 1d f9 JSR  ABS   A:81 X:a1 Y:80 P:84 S:fb pc: f91d, reg_addr: f91d
f91d b0 05 f0 BCS  REL   A:81 X:a1 Y:80 P:84 S:f9 pc: f91f, reg_addr: f924
f91f f0 03 10 BEQ  REL   A:81 X:a1 Y:80 P:84 S:f9 pc: f921, reg_addr: f924
f921 10 01 60 BPL  REL   A:81 X:a1 Y:80 P:84 S:f9 pc: f923, reg_addr: f924
f923 60 86 00 RTS  IMPL  A:81 X:a1 Y:80 P:84 S:f9 pc: d41a, reg_addr: 0000
d41a e8 a9 7f INX  IMPL  A:81 X:a1 Y:80 P:84 S:fb pc: d41b, reg_addr: 0000
d41b a9 7f 85 LDA  IMM   A:81 X:a2 Y:80 P:84 S:fb pc: d41d, reg_addr: 007f
d41d 85 78 c4 STA  ZP    A:7f X:a2 Y:80 P:04 S:fb pc: d41f, reg_addr: 0078
d41f c4 78 20 CPY  ZP    A:7f X:a2 Y:80 P:04 S:fb pc: d421, reg_addr: 0078
d421 20 27 f9 JSR  ABS   A:7f X:a2 Y:80 P:05 S:fb pc: f927, reg_addr: f927
f927 90 05 f0 BCC  REL   A:7f X:a2 Y:80 P:05 S:f9 pc: f929, reg_addr: f92e
f929 f0 03 30 BEQ  REL   A:7f X:a2 Y:80 P:05 S:f9 pc: f92b, reg_addr: f92e
f92b 30 01 60 BMI  REL   A:7f X:a2 Y:80 P:05 S:f9 pc: f92d, reg_addr: f92e
f92d 60 86 00 RTS  IMPL  A:7f X:a2 Y:80 P:05 S:f9 pc: d424, reg_addr: 0000
d424 e8 8a a8 INX  IMPL  A:7f X:a2 Y:80 P:05 S:fb pc: d425, reg_addr: 0000
d425 8a a8 20 TXA  IMPL  A:7f X:a3 Y:80 P:85 S:fb pc: d426, reg_addr: 0000
d426 a8 20 90 TAY  IMPL  A:a3 X:a3 Y:80 P:85 S:fb pc: d427, reg_addr: 0000
d427 20 90 f9 JSR  ABS   A:a3 X:a3 Y:a3 P:85 S:fb pc: f990, reg_addr: f990
f990 a2 55 a9 LDX  IMM   A:a3 X:a3 Y:a3 P:85 S:f9 pc: f992, reg_addr: 0055
f992 a9 ff 85 LDA  IMM   A:a3 X:55 Y:a3 P:05 S:f9 pc: f994, reg_addr: 00ff
f994 85 01 ea STA  ZP    A:ff X:55 Y:a3 P:85 S:f9 pc: f996, reg_addr: 0001
f996 ea 24 01 NOP  IMPL  A:ff X:55 Y:a3 P:85 S:f9 pc: f997, reg_addr: 0000
f997 24 01 38 BIT  ZP    A:ff X:55 Y:a3 P:85 S:f9 pc: f999, reg_addr: 0001
f999 38 a9 01 SEC  IMPL  A:ff X:55 Y:a3 P:c5 S:f9 pc: f99a, reg_addr: 0000
f99a a9 01 60 LDA  IMM   A:ff X:55 Y:a3 P:c5 S:f9 pc: f99c, reg_addr: 0001
f99c 60 90 1b RTS  IMPL  A:01 X:55 Y:a3 P:45 S:f9 pc: d42a, reg_addr: 0000
d42a 85 78 46 STA  ZP    A:01 X:55 Y:a3 P:45 S:fb pc: d42c, reg_addr: 0078
d42c 46 78 a5 LSR  ZP    A:01 X:55 Y:a3 P:45 S:fb pc: d42e, reg_addr: 0078
d42e a5 78 20 LDA  ZP    A:01 X:55 Y:a3 P:47 S:fb pc: d430, reg_addr: 0078
d430 20 9d f9 JSR  ABS   A:00 X:55 Y:a3 P:47 S:fb pc: f99d, reg_addr: f99d
f99d 90 1b d0 BCC  REL   A:00 X:55 Y:a3 P:47 S:f9 pc: f99f, reg_addr: f9ba
f99f d0 19 30 BNE  REL   A:00 X:55 Y:a3 P:47 S:f9 pc: f9a1, reg_addr: f9ba
f9a1 30 17 50 BMI  REL   A:00 X:55 Y:a3 P:47 S:f9 pc: f9a3, reg_addr: f9ba
f9a3 50 15 c9 BVC  REL   A:00 X:55 Y:a3 P:47 S:f9 pc: f9a5, reg_addr: f9ba
f9a5 c9 00 d0 CMP  IMM   A:00 X:55 Y:a3 P:47 S:f9 pc: f9a7, reg_addr: 0000
f9a7 d0 11 b8 BNE  REL   A:00 X:55 Y:a3 P:47 S:f9 pc: f9a9, reg_addr: f9ba
f9a9 b8 a9 aa CLV  IMPL  A:00 X:55 Y:a3 P:47 S:f9 pc: f9aa, reg_addr: 0000
f9aa a9 aa 60 LDA  IMM   A:00 X:55 Y:a3 P:07 S:f9 pc: f9ac, reg_addr: 00aa
f9ac 60 b0 0b RTS  IMPL  A:aa X:55 Y:a3 P:85 S:f9 pc: d433, reg_addr: 0000
d433 c8 85 78 INY  IMPL  A:aa X:55 Y:a3 P:85 S:fb pc: d434, reg_addr: 0000
d434 85 78 46 STA  ZP    A:aa X:55 Y:a4 P:85 S:fb pc: d436, reg_addr: 0078
d436 46 78 a5 LSR  ZP    A:aa X:55 Y:a4 P:85 S:fb pc: d438, reg_addr: 0078
d438 a5 78 20 LDA  ZP    A:aa X:55 Y:a4 P:04 S:fb pc: d43a, reg_addr: 0078
d43a 20 ad f9 JSR  ABS   A:55 X:55 Y:a4 P:04 S:fb pc: f9ad, reg_addr: f9ad
f9ad b0 0b f0 BCS  REL   A:55 X:55 Y:a4 P:04 S:f9 pc: f9af, reg_addr: f9ba
f9af f0 09 30 BEQ  REL   A:55 X:55 Y:a4 P:04 S:f9 pc: f9b1, reg_addr: f9ba
f9b1 30 07 70 BMI  REL   A:55 X:55 Y:a4 P:04 S:f9 pc: f9b3, reg_addr: f9ba
f9b3 70 05 c9 BVS  REL   A:55 X:55 Y:a4 P:04 S:f9 pc: f9b5, reg_addr: f9ba
f9b5 c9 55 d0 CMP  IMM   A:55 X:55 Y:a4 P:04 S:f9 pc: f9b7, reg_addr: 0055
f9b7 d0 01 60 BNE  REL   A:55 X:55 Y:a4 P:07 S:f9 pc: f9b9, reg_addr: f9ba
f9b9 60 84 00 RTS  IMPL  A:55 X:55 Y:a4 P:07 S:f9 pc: d43d, reg_addr: 0000
d43d c8 20 bd INY  IMPL  A:55 X:55 Y:a4 P:07 S:fb pc: d43e, reg_addr: 0000
d43e 20 bd f9 JSR  ABS   A:55 X:55 Y:a5 P:85 S:fb pc: f9bd, reg_addr: f9bd
f9bd 24 01 38 BIT  ZP    A:55 X:55 Y:a5 P:85 S:f9 pc: f9bf, reg_addr: 0001
f9bf 38 a9 80 SEC  IMPL  A:55 X:55 Y:a5 P:c5 S:f9 pc: f9c0, reg_addr: 0000
f9c0 a9 80 60 LDA  IMM   A:55 X:55 Y:a5 P:c5 S:f9 pc: f9c2, reg_addr: 0080
f9c2 60 90 1c RTS  IMPL  A:80 X:55 Y:a5 P:c5 S:f9 pc: d441, reg_addr: 0000
d441 85 78 06 STA  ZP    A:80 X:55 Y:a5 P:c5 S:fb pc: d443, reg_addr: 0078
d443 06 78 a5 ASL  ZP    A:80 X:55 Y:a5 P:c5 S:fb pc: d445, reg_addr: 0078
d445 a5 78 20 LDA  ZP    A:80 X:55 Y:a5 P:47 S:fb pc: d447, reg_addr: 0078
d447 20 c3 f9 JSR  ABS   A:00 X:55 Y:a5 P:47 S:fb pc: f9c3, reg_addr: f9c3
f9c3 90 1c d0 BCC  REL   A:00 X:55 Y:a5 P:47 S:f9 pc: f9c5, reg_addr: f9e1
f9c5 d0 1a 30 BNE  REL   A:00 X:55 Y:a5 P:47 S:f9 pc: f9c7, reg_addr: f9e1
f9c7 30 18 50 BMI  REL   A:00 X:55 Y:a5 P:47 S:f9 pc: f9c9, reg_addr: f9e1
f9c9 50 16 c9 BVC  REL   A:00 X:55 Y:a5 P:47 S:f9 pc: f9cb, reg_addr: f9e1
f9cb c9 00 d0 CMP  IMM   A:00 X:55 Y:a5 P:47 S:f9 pc: f9cd, reg_addr: 0000
f9cd d0 12 b8 BNE  REL   A:00 X:55 Y:a5 P:47 S:f9 pc: f9cf, reg_addr: f9e1
f9cf b8 a9 55 CLV  IMPL  A:00 X:55 Y:a5 P:47 S:f9 pc: f9d0, reg_addr: 0000
f9d0 a9 55 38 LDA  IMM   A:00 X:55 Y:a5 P:07 S:f9 pc: f9d2, reg_addr: 0055
f9d2 38 60 b0 SEC  IMPL  A:55 X:55 Y:a5 P:05 S:f9 pc: f9d3, reg_addr: 0000
f9d3 60 b0 0b RTS  IMPL  A:55 X:55 Y:a5 P:05 S:f9 pc: d44a, reg_addr: 0000
d44a c8 85 78 INY  IMPL  A:55 X:55 Y:a5 P:05 S:fb pc: d44b, reg_addr: 0000
d44b 85 78 06 STA  ZP    A:55 X:55 Y:a6 P:85 S:fb pc: d44d, reg_addr: 0078
d44d 06 78 a5 ASL  ZP    A:55 X:55 Y:a6 P:85 S:fb pc: d44f, reg_addr: 0078
d44f a5 78 20 LDA  ZP    A:55 X:55 Y:a6 P:84 S:fb pc: d451, reg_addr: 0078
d451 20 d4 f9 JSR  ABS   A:aa X:55 Y:a6 P:84 S:fb pc: f9d4, reg_addr: f9d4
f9d4 b0 0b f0 BCS  REL   A:aa X:55 Y:a6 P:84 S:f9 pc: f9d6, reg_addr: f9e1
f9d6 f0 09 10 BEQ  REL   A:aa X:55 Y:a6 P:84 S:f9 pc: f9d8, reg_addr: f9e1
f9d8 10 07 70 BPL  REL   A:aa X:55 Y:a6 P:84 S:f9 pc: f9da, reg_addr: f9e1
f9da 70 05 c9 BVS  REL   A:aa X:55 Y:a6 P:84 S:f9 pc: f9dc, reg_addr: f9e1
f9dc c9 aa d0 CMP  IMM   A:aa X:55 Y:a6 P:84 S:f9 pc: f9de, reg_addr: 00aa
f9de d0 01 60 BNE  REL   A:aa X:55 Y:a6 P:07 S:f9 pc: f9e0, reg_addr: f9e1
f9e0 60 84 00 RTS  IMPL  A:aa X:55 Y:a6 P:07 S:f9 pc: d454, reg_addr: 0000
d454 c8 20 e4 INY  IMPL  A:aa X:55 Y:a6 P:07 S:fb pc: d455, reg_addr: 0000
d455 20 e4 f9 JSR  ABS   A:aa X:55 Y:a7 P:85 S:fb pc: f9e4, reg_addr: f9e4
f9e4 24 01 38 BIT  ZP    A:aa X:55 Y:a7 P:85 S:f9 pc: f9e6, reg_addr: 0001
f9e6 38 a9 01 SEC  IMPL  A:aa X:55 Y:a7 P:c5 S:f9 pc: f9e7, reg_addr: 0000
f9e7 a9 01 60 LDA  IMM   A:aa X:55 Y:a7 P:c5 S:f9 pc: f9e9, reg_addr: 0001
f9e9 60 90 1c RTS  IMPL  A:01 X:55 Y:a7 P:45 S:f9 pc: d458, reg_addr: 0000
d458 85 78 66 STA  ZP    A:01 X:55 Y:a7 P:45 S:fb pc: d45a, reg_addr: 0078
d45a 66 78 a5 ROR  ZP    A:01 X:55 Y:a7 P:45 S:fb pc: d45c, reg_addr: 0078
d45c a5 78 20 LDA  ZP    A:01 X:55 Y:a7 P:c5 S:fb pc: d45e, reg_addr: 0078
d45e 20 ea f9 JSR  ABS   A:80 X:55 Y:a7 P:c5 S:fb pc: f9ea, reg_addr: f9ea
f9ea 90 1c f0 BCC  REL   A:80 X:55 Y:a7 P:c5 S:f9 pc: f9ec, reg_addr: fa08
f9ec f0 1a 10 BEQ  REL   A:80 X:55 Y:a7 P:c5 S:f9 pc: f9ee, reg_addr: fa08
f9ee 10 18 50 BPL  REL   A:80 X:55 Y:a7 P:c5 S:f9 pc: f9f0, reg_addr: fa08
f9f0 50 16 c9 BVC  REL   A:80 X:55 Y:a7 P:c5 S:f9 pc: f9f2, reg_addr: fa08
f9f2 c9 80 d0 CMP  IMM   A:80 X:55 Y:a7 P:c5 S:f9 pc: f9f4, reg_addr: 0080
f9f4 d0 12 b8 BNE  REL   A:80 X:55 Y:a7 P:47 S:f9 pc: f9f6, reg_addr: fa08
f9f6 b8 18 a9 CLV  IMPL  A:80 X:55 Y:a7 P:47 S:f9 pc: f9f7, reg_addr: 0000
f9f7 18 a9 55 CLC  IMPL  A:80 X:55 Y:a7 P:07 S:f9 pc: f9f8, reg_addr: 0000
f9f8 a9 55 60 LDA  IMM   A:80 X:55 Y:a7 P:06 S:f9 pc: f9fa, reg_addr: 0055
f9fa 60 90 0b RTS  IMPL  A:55 X:55 Y:a7 P:04 S:f9 pc: d461, reg_addr: 0000
d461 c8 85 78 INY  IMPL  A:55 X:55 Y:a7 P:04 S:fb pc: d462, reg_addr: 0000
d462 85 78 66 STA  ZP    A:55 X:55 Y:a8 P:84 S:fb pc: d464, reg_addr: 0078
d464 66 78 a5 ROR  ZP    A:55 X:55 Y:a8 P:84 S:fb pc: d466, reg_addr: 0078
d466 a5 78 20 LDA  ZP    A:55 X:55 Y:a8 P:05 S:fb pc: d468, reg_addr: 0078
d468 20 fb f9 JSR  ABS   A:2a X:55 Y:a8 P:05 S:fb pc: f9fb, reg_addr: f9fb
f9fb 90 0b f0 BCC  REL   A:2a X:55 Y:a8 P:05 S:f9 pc: f9fd, reg_addr: fa08
f9fd f0 09 30 BEQ  REL   A:2a X:55 Y:a8 P:05 S:f9 pc: f9ff, reg_addr: fa08
f9ff 30 07 70 BMI  REL   A:2a X:55 Y:a8 P:05 S:f9 pc: fa01, reg_addr: fa08
fa01 70 05 c9 BVS  REL   A:2a X:55 Y:a8 P:05 S:f9 pc: fa03, reg_addr: fa08
fa03 c9 2a d0 CMP  IMM   A:2a X:55 Y:a8 P:05 S:f9 pc: fa05, reg_addr: 002a
fa05 d0 01 60 BNE  REL   A:2a X:55 Y:a8 P:07 S:f9 pc: fa07, reg_addr: fa08
fa07 60 84 00 RTS  IMPL  A:2a X:55 Y:a8 P:07 S:f9 pc: d46b, reg_addr: 0000
d46b c8 20 0a INY  IMPL  A:2a X:55 Y:a8 P:07 S:fb pc: d46c, reg_addr: 0000
d46c 20 0a fa JSR  ABS   A:2a X:55 Y:a9 P:85 S:fb pc: fa0a, reg_addr: fa0a
fa0a 24 01 38 BIT  ZP    A:2a X:55 Y:a9 P:85 S:f9 pc: fa0c, reg_addr: 0001
fa0c 38 a9 80 SEC  IMPL  A:2a X:55 Y:a9 P:c5 S:f9 pc: fa0d, reg_addr: 0000
fa0d a9 80 60 LDA  IMM   A:2a X:55 Y:a9 P:c5 S:f9 pc: fa0f, reg_addr: 0080
fa0f 60 90 1c RTS  IMPL  A:80 X:55 Y:a9 P:c5 S:f9 pc: d46f, reg_addr: 0000
d46f 85 78 26 STA  ZP    A:80 X:55 Y:a9 P:c5 S:fb pc: d471, reg_addr: 0078
d471 26 78 a5 ROL  ZP    A:80 X:55 Y:a9 P:c5 S:fb pc: d473, reg_addr: 0078
d473 a5 78 20 LDA  ZP    A:80 X:55 Y:a9 P:45 S:fb pc: d475, reg_addr: 0078
d475 20 10 fa JSR  ABS   A:01 X:55 Y:a9 P:45 S:fb pc: fa10, reg_addr: fa10
fa10 90 1c f0 BCC  REL   A:01 X:55 Y:a9 P:45 S:f9 pc: fa12, reg_addr: fa2e
fa12 f0 1a 30 BEQ  REL   A:01 X:55 Y:a9 P:45 S:f9 pc: fa14, reg_addr: fa2e
fa14 30 18 50 BMI  REL   A:01 X:55 Y:a9 P:45 S:f9 pc: fa16, reg_addr: fa2e
fa16 50 16 c9 BVC  REL   A:01 X:55 Y:a9 P:45 S:f9 pc: fa18, reg_addr: fa2e
fa18 c9 01 d0 CMP  IMM   A:01 X:55 Y:a9 P:45 S:f9 pc: fa1a, reg_addr: 0001
fa1a d0 12 b8 BNE  REL   A:01 X:55 Y:a9 P:47 S:f9 pc: fa1c, reg_addr: fa2e
fa1c b8 18 a9 CLV  IMPL  A:01 X:55 Y:a9 P:47 S:f9 pc: fa1d, reg_addr: 0000
fa1d 18 a9 55 CLC  IMPL  A:01 X:55 Y:a9 P:07 S:f9 pc: fa1e, reg_addr: 0000
fa1e a9 55 60 LDA  IMM   A:01 X:55 Y:a9 P:06 S:f9 pc: fa20, reg_addr: 0055
fa20 60 b0 0b RTS  IMPL  A:55 X:55 Y:a9 P:04 S:f9 pc: d478, reg_addr: 0000
d478 c8 85 78 INY  IMPL  A:55 X:55 Y:a9 P:04 S:fb pc: d479, reg_addr: 0000
d479 85 78 26 STA  ZP    A:55 X:55 Y:aa P:84 S:fb pc: d47b, reg_addr: 0078
d47b 26 78 a5 ROL  ZP    A:55 X:55 Y:aa P:84 S:fb pc: d47d, reg_addr: 0078
d47d a5 78 20 LDA  ZP    A:55 X:55 Y:aa P:84 S:fb pc: d47f, reg_addr: 0078
d47f 20 21 fa JSR  ABS   A:aa X:55 Y:aa P:84 S:fb pc: fa21, reg_addr: fa21
fa21 b0 0b f0 BCS  REL   A:aa X:55 Y:aa P:84 S:f9 pc: fa23, reg_addr: fa2e
fa23 f0 09 10 BEQ  REL   A:aa X:55 Y:aa P:84 S:f9 pc: fa25, reg_addr: fa2e
fa25 10 07 70 BPL  REL   A:aa X:55 Y:aa P:84 S:f9 pc: fa27, reg_addr: fa2e
fa27 70 05 c9 BVS  REL   A:aa X:55 Y:aa P:84 S:f9 pc: fa29, reg_addr: fa2e
fa29 c9 aa d0 CMP  IMM   A:aa X:55 Y:aa P:84 S:f9 pc: fa2b, reg_addr: 00aa
fa2b d0 01 60 BNE  REL   A:aa X:55 Y:aa P:07 S:f9 pc: fa2d, reg_addr: fa2e
fa2d 60 84 00 RTS  IMPL  A:aa X:55 Y:aa P:07 S:f9 pc: d482, reg_addr: 0000
d482 a9 ff 85 LDA  IMM   A:aa X:55 Y:aa P:07 S:fb pc: d484, reg_addr: 00ff
d484 85 78 85 STA  ZP    A:ff X:55 Y:aa P:85 S:fb pc: d486, reg_addr: 0078
d486 85 01 24 STA  ZP    A:ff X:55 Y:aa P:85 S:fb pc: d488, reg_addr: 0001
d488 24 01 38 BIT  ZP    A:ff X:55 Y:aa P:85 S:fb pc: d48a, reg_addr: 0001
d48a 38 e6 78 SEC  IMPL  A:ff X:55 Y:aa P:c5 S:fb pc: d48b, reg_addr: 0000
d48b e6 78 d0 INC  ZP    A:ff X:55 Y:aa P:c5 S:fb pc: d48d, reg_addr: 0078
d48d d0 0c 30 BNE  REL   A:ff X:55 Y:aa P:47 S:fb pc: d48f, reg_addr: d49b
d48f 30 0a 50 BMI  REL   A:ff X:55 Y:aa P:47 S:fb pc: d491, reg_addr: d49b
d491 50 08 90 BVC  REL   A:ff X:55 Y:aa P:47 S:fb pc: d493, reg_addr: d49b
d493 90 06 a5 BCC  REL   A:ff X:55 Y:aa P:47 S:fb pc: d495, reg_addr: d49b
d495 a5 78 c9 LDA  ZP    A:ff X:55 Y:aa P:47 S:fb pc: d497, reg_addr: 0078
d497 c9 00 f0 CMP  IMM   A:00 X:55 Y:aa P:47 S:fb pc: d499, reg_addr: 0000
d499 f0 04 a9 BEQ  REL   A:00 X:55 Y:aa P:47 S:fb pc: d49f, reg_addr: d49f
d49f a9 7f 85 LDA  IMM   A:00 X:55 Y:aa P:47 S:fb pc: d4a1, reg_addr: 007f
d4a1 85 78 b8 STA  ZP    A:7f X:55 Y:aa P:45 S:fb pc: d4a3, reg_addr: 0078
d4a3 b8 18 e6 CLV  IMPL  A:7f X:55 Y:aa P:45 S:fb pc: d4a4, reg_addr: 0000
d4a4 18 e6 78 CLC  IMPL  A:7f X:55 Y:aa P:05 S:fb pc: d4a5, reg_addr: 0000
d4a5 e6 78 f0 INC  ZP    A:7f X:55 Y:aa P:04 S:fb pc: d4a7, reg_addr: 0078
d4a7 f0 0c 10 BEQ  REL   A:7f X:55 Y:aa P:84 S:fb pc: d4a9, reg_addr: d4b5
d4a9 10 0a 70 BPL  REL   A:7f X:55 Y:aa P:84 S:fb pc: d4ab, reg_addr: d4b5
d4ab 70 08 b0 BVS  REL   A:7f X:55 Y:aa P:84 S:fb pc: d4ad, reg_addr: d4b5
d4ad b0 06 a5 BCS  REL   A:7f X:55 Y:aa P:84 S:fb pc: d4af, reg_addr: d4b5
d4af a5 78 c9 LDA  ZP    A:7f X:55 Y:aa P:84 S:fb pc: d4b1, reg_addr: 0078
d4b1 c9 80 f0 CMP  IMM   A:80 X:55 Y:aa P:84 S:fb pc: d4b3, reg_addr: 0080
d4b3 f0 04 a9 BEQ  REL   A:80 X:55 Y:aa P:07 S:fb pc: d4b9, reg_addr: d4b9
d4b9 a9 00 85 LDA  IMM   A:80 X:55 Y:aa P:07 S:fb pc: d4bb, reg_addr: 0000
d4bb 85 78 24 STA  ZP    A:00 X:55 Y:aa P:07 S:fb pc: d4bd, reg_addr: 0078
d4bd 24 01 38 BIT  ZP    A:00 X:55 Y:aa P:07 S:fb pc: d4bf, reg_addr: 0001
d4bf 38 c6 78 SEC  IMPL  A:00 X:55 Y:aa P:c7 S:fb pc: d4c0, reg_addr: 0000
d4c0 c6 78 f0 DEC  ZP    A:00 X:55 Y:aa P:c7 S:fb pc: d4c2, reg_addr: 0078
d4c2 f0 0c 10 BEQ  REL   A:00 X:55 Y:aa P:c5 S:fb pc: d4c4, reg_addr: d4d0
d4c4 10 0a 50 BPL  REL   A:00 X:55 Y:aa P:c5 S:fb pc: d4c6, reg_addr: d4d0
d4c6 50 08 90 BVC  REL   A:00 X:55 Y:aa P:c5 S:fb pc: d4c8, reg_addr: d4d0
d4c8 90 06 a5 BCC  REL   A:00 X:55 Y:aa P:c5 S:fb pc: d4ca, reg_addr: d4d0
d4ca a5 78 c9 LDA  ZP    A:00 X:55 Y:aa P:c5 S:fb pc: d4cc, reg_addr: 0078
d4cc c9 ff f0 CMP  IMM   A:ff X:55 Y:aa P:c5 S:fb pc: d4ce, reg_addr: 00ff
d4ce f0 04 a9 BEQ  REL   A:ff X:55 Y:aa P:47 S:fb pc: d4d4, reg_addr: d4d4
d4d4 a9 80 85 LDA  IMM   A:ff X:55 Y:aa P:47 S:fb pc: d4d6, reg_addr: 0080
d4d6 85 78 b8 STA  ZP    A:80 X:55 Y:aa P:c5 S:fb pc: d4d8, reg_addr: 0078
d4d8 b8 18 c6 CLV  IMPL  A:80 X:55 Y:aa P:c5 S:fb pc: d4d9, reg_addr: 0000
d4d9 18 c6 78 CLC  IMPL  A:80 X:55 Y:aa P:85 S:fb pc: d4da, reg_addr: 0000
d4da c6 78 f0 DEC  ZP    A:80 X:55 Y:aa P:84 S:fb pc: d4dc, reg_addr: 0078
d4dc f0 0c 30 BEQ  REL   A:80 X:55 Y:aa P:04 S:fb pc: d4de, reg_addr: d4ea
d4de 30 0a 70 BMI  REL   A:80 X:55 Y:aa P:04 S:fb pc: d4e0, reg_addr: d4ea
d4e0 70 08 b0 BVS  REL   A:80 X:55 Y:aa P:04 S:fb pc: d4e2, reg_addr: d4ea
d4e2 b0 06 a5 BCS  REL   A:80 X:55 Y:aa P:04 S:fb pc: d4e4, reg_addr: d4ea
d4e4 a5 78 c9 LDA  ZP    A:80 X:55 Y:aa P:04 S:fb pc: d4e6, reg_addr: 0078
d4e6 c9 7f f0 CMP  IMM   A:7f X:55 Y:aa P:04 S:fb pc: d4e8, reg_addr: 007f
d4e8 f0 04 a9 BEQ  REL   A:7f X:55 Y:aa P:07 S:fb pc: d4ee, reg_addr: d4ee
d4ee a9 01 85 LDA  IMM   A:7f X:55 Y:aa P:07 S:fb pc: d4f0, reg_addr: 0001
d4f0 85 78 c6 STA  ZP    A:01 X:55 Y:aa P:05 S:fb pc: d4f2, reg_addr: 0078
d4f2 c6 78 f0 DEC  ZP    A:01 X:55 Y:aa P:05 S:fb pc: d4f4, reg_addr: 0078
d4f4 f0 04 a9 BEQ  REL   A:01 X:55 Y:aa P:07 S:fb pc: d4fa, reg_addr: d4fa
d4fa 60 a9 55 RTS  IMPL  A:01 X:55 Y:aa P:07 S:fb pc: c615, reg_addr: 0000
c615 20 fb d4 JSR  ABS   A:01 X:55 Y:aa P:07 S:fd pc: d4fb, reg_addr: d4fb
d4fb a9 55 8d LDA  IMM   A:01 X:55 Y:aa P:07 S:fb pc: d4fd, reg_addr: 0055
d4fd 8d 78 06 STA  ABS   A:55 X:55 Y:aa P:05 S:fb pc: d500, reg_addr: 0678
d500 a9 ff 85 LDA  IMM   A:55 X:55 Y:aa P:05 S:fb pc: d502, reg_addr: 00ff
d502 85 01 24 STA  ZP    A:ff X:55 Y:aa P:85 S:fb pc: d504, reg_addr: 0001
d504 24 01 a0 BIT  ZP    A:ff X:55 Y:aa P:85 S:fb pc: d506, reg_addr: 0001
d506 a0 11 a2 LDY  IMM   A:ff X:55 Y:aa P:c5 S:fb pc: d508, reg_addr: 0011
d508 a2 23 a9 LDX  IMM   A:ff X:55 Y:11 P:45 S:fb pc: d50a, reg_addr: 0023
d50a a9 00 ad LDA  IMM   A:ff X:23 Y:11 P:45 S:fb pc: d50c, reg_addr: 0000
d50c ad 78 06 LDA  ABS   A:00 X:23 Y:11 P:47 S:fb pc: d50f, reg_addr: 0678
d50f f0 10 30 BEQ  REL   A:55 X:23 Y:11 P:45 S:fb pc: d511, reg_addr: d521
d511 30 0e c9 BMI  REL   A:55 X:23 Y:11 P:45 S:fb pc: d513, reg_addr: d521
d513 c9 55 d0 CMP  IMM   A:55 X:23 Y:11 P:45 S:fb pc: d515, reg_addr: 0055
d515 d0 0a c0 BNE  REL   A:55 X:23 Y:11 P:47 S:fb pc: d517, reg_addr: d521
d517 c0 11 d0 CPY  IMM   A:55 X:23 Y:11 P:47 S:fb pc: d519, reg_addr: 0011
d519 d0 06 e0 BNE  REL   A:55 X:23 Y:11 P:47 S:fb pc: d51b, reg_addr: d521
d51b e0 23 50 CPX  IMM   A:55 X:23 Y:11 P:47 S:fb pc: d51d, reg_addr: 0023
d51d 50 02 f0 BVC  REL   A:55 X:23 Y:11 P:47 S:fb pc: d51f, reg_addr: d521
d51f f0 04 a9 BEQ  REL   A:55 X:23 Y:11 P:47 S:fb pc: d525, reg_addr: d525
d525 a9 46 24 LDA  IMM   A:55 X:23 Y:11 P:47 S:fb pc: d527, reg_addr: 0046
d527 24 01 8d BIT  ZP    A:46 X:23 Y:11 P:45 S:fb pc: d529, reg_addr: 0001
d529 8d 78 06 STA  ABS   A:46 X:23 Y:11 P:c5 S:fb pc: d52c, reg_addr: 0678
d52c f0 0b 10 BEQ  REL   A:46 X:23 Y:11 P:c5 S:fb pc: d52e, reg_addr: d539
d52e 10 09 50 BPL  REL   A:46 X:23 Y:11 P:c5 S:fb pc: d530, reg_addr: d539
d530 50 07 ad BVC  REL   A:46 X:23 Y:11 P:c5 S:fb pc: d532, reg_addr: d539
d532 ad 78 06 LDA  ABS   A:46 X:23 Y:11 P:c5 S:fb pc: d535, reg_addr: 0678
d535 c9 46 f0 CMP  IMM   A:46 X:23 Y:11 P:45 S:fb pc: d537, reg_addr: 0046
d537 f0 04 a9 BEQ  REL   A:46 X:23 Y:11 P:47 S:fb pc: d53d, reg_addr: d53d
d53d a9 55 8d LDA  IMM   A:46 X:23 Y:11 P:47 S:fb pc: d53f, reg_addr: 0055
d53f 8d 78 06 STA  ABS   A:55 X:23 Y:11 P:45 S:fb pc: d542, reg_addr: 0678
d542 24 01 a9 BIT  ZP    A:55 X:23 Y:11 P:45 S:fb pc: d544, reg_addr: 0001
d544 a9 11 a2 LDA  IMM   A:55 X:23 Y:11 P:c5 S:fb pc: d546, reg_addr: 0011
d546 a2 23 a0 LDX  IMM   A:11 X:23 Y:11 P:45 S:fb pc: d548, reg_addr: 0023
d548 a0 00 ac LDY  IMM   A:11 X:23 Y:11 P:45 S:fb pc: d54a, reg_addr: 0000
d54a ac 78 06 LDY  ABS   A:11 X:23 Y:00 P:47 S:fb pc: d54d, reg_addr: 0678
d54d f0 10 30 BEQ  REL   A:11 X:23 Y:55 P:45 S:fb pc: d54f, reg_addr: d55f
d54f 30 0e c0 BMI  REL   A:11 X:23 Y:55 P:45 S:fb pc: d551, reg_addr: d55f
d551 c0 55 d0 CPY  IMM   A:11 X:23 Y:55 P:45 S:fb pc: d553, reg_addr: 0055
d553 d0 0a c9 BNE  REL   A:11 X:23 Y:55 P:47 S:fb pc: d555, reg_addr: d55f
d555 c9 11 d0 CMP  IMM   A:11 X:23 Y:55 P:47 S:fb pc: d557, reg_addr: 0011
d557 d0 06 e0 BNE  REL   A:11 X:23 Y:55 P:47 S:fb pc: d559, reg_addr: d55f
d559 e0 23 50 CPX  IMM   A:11 X:23 Y:55 P:47 S:fb pc: d55b, reg_addr: 0023
d55b 50 02 f0 BVC  REL   A:11 X:23 Y:55 P:47 S:fb pc: d55d, reg_addr: d55f
d55d f0 04 a9 BEQ  REL   A:11 X:23 Y:55 P:47 S:fb pc: d563, reg_addr: d563
d563 a0 46 24 LDY  IMM   A:11 X:23 Y:55 P:47 S:fb pc: d565, reg_addr: 0046
d565 24 01 8c BIT  ZP    A:11 X:23 Y:46 P:45 S:fb pc: d567, reg_addr: 0001
d567 8c 78 06 STY  ABS   A:11 X:23 Y:46 P:c5 S:fb pc: d56a, reg_addr: 0678
d56a f0 0b 10 BEQ  REL   A:11 X:23 Y:46 P:c5 S:fb pc: d56c, reg_addr: d577
d56c 10 09 50 BPL  REL   A:11 X:23 Y:46 P:c5 S:fb pc: d56e, reg_addr: d577
d56e 50 07 ac BVC  REL   A:11 X:23 Y:46 P:c5 S:fb pc: d570, reg_addr: d577
d570 ac 78 06 LDY  ABS   A:11 X:23 Y:46 P:c5 S:fb pc: d573, reg_addr: 0678
d573 c0 46 f0 CPY  IMM   A:11 X:23 Y:46 P:45 S:fb pc: d575, reg_addr: 0046
d575 f0 04 a9 BEQ  REL   A:11 X:23 Y:46 P:47 S:fb pc: d57b, reg_addr: d57b
d57b 24 01 a9 BIT  ZP    A:11 X:23 Y:46 P:47 S:fb pc: d57d, reg_addr: 0001
d57d a9 55 8d LDA  IMM   A:11 X:23 Y:46 P:c5 S:fb pc: d57f, reg_addr: 0055
d57f 8d 78 06 STA  ABS   A:55 X:23 Y:46 P:45 S:fb pc: d582, reg_addr: 0678
d582 a0 11 a9 LDY  IMM   A:55 X:23 Y:46 P:45 S:fb pc: d584, reg_addr: 0011
d584 a9 23 a2 LDA  IMM   A:55 X:23 Y:11 P:45 S:fb pc: d586, reg_addr: 0023
d586 a2 00 ae LDX  IMM   A:23 X:23 Y:11 P:45 S:fb pc: d588, reg_addr: 0000
d588 ae 78 06 LDX  ABS   A:23 X:00 Y:11 P:47 S:fb pc: d58b, reg_addr: 0678
d58b f0 10 30 BEQ  REL   A:23 X:55 Y:11 P:45 S:fb pc: d58d, reg_addr: d59d
d58d 30 0e e0 BMI  REL   A:23 X:55 Y:11 P:45 S:fb pc: d58f, reg_addr: d59d
d58f e0 55 d0 CPX  IMM   A:23 X:55 Y:11 P:45 S:fb pc: d591, reg_addr: 0055
d591 d0 0a c0 BNE  REL   A:23 X:55 Y:11 P:47 S:fb pc: d593, reg_addr: d59d
d593 c0 11 d0 CPY  IMM   A:23 X:55 Y:11 P:47 S:fb pc: d595, reg_addr: 0011
d595 d0 06 c9 BNE  REL   A:23 X:55 Y:11 P:47 S:fb pc: d597, reg_addr: d59d
d597 c9 23 50 CMP  IMM   A:23 X:55 Y:11 P:47 S:fb pc: d599, reg_addr: 0023
d599 50 02 f0 BVC  REL   A:23 X:55 Y:11 P:47 S:fb pc: d59b, reg_addr: d59d
d59b f0 04 a9 BEQ  REL   A:23 X:55 Y:11 P:47 S:fb pc: d5a1, reg_addr: d5a1
d5a1 a2 46 24 LDX  IMM   A:23 X:55 Y:11 P:47 S:fb pc: d5a3, reg_addr: 0046
d5a3 24 01 8e BIT  ZP    A:23 X:46 Y:11 P:45 S:fb pc: d5a5, reg_addr: 0001
d5a5 8e 78 06 STX  ABS   A:23 X:46 Y:11 P:c5 S:fb pc: d5a8, reg_addr: 0678
d5a8 f0 0b 10 BEQ  REL   A:23 X:46 Y:11 P:c5 S:fb pc: d5aa, reg_addr: d5b5
d5aa 10 09 50 BPL  REL   A:23 X:46 Y:11 P:c5 S:fb pc: d5ac, reg_addr: d5b5
d5ac 50 07 ae BVC  REL   A:23 X:46 Y:11 P:c5 S:fb pc: d5ae, reg_addr: d5b5
d5ae ae 78 06 LDX  ABS   A:23 X:46 Y:11 P:c5 S:fb pc: d5b1, reg_addr: 0678
d5b1 e0 46 f0 CPX  IMM   A:23 X:46 Y:11 P:45 S:fb pc: d5b3, reg_addr: 0046
d5b3 f0 04 a9 BEQ  REL   A:23 X:46 Y:11 P:47 S:fb pc: d5b9, reg_addr: d5b9
d5b9 a9 c0 8d LDA  IMM   A:23 X:46 Y:11 P:47 S:fb pc: d5bb, reg_addr: 00c0
d5bb 8d 78 06 STA  ABS   A:c0 X:46 Y:11 P:c5 S:fb pc: d5be, reg_addr: 0678
d5be a2 33 a0 LDX  IMM   A:c0 X:46 Y:11 P:c5 S:fb pc: d5c0, reg_addr: 0033
d5c0 a0 88 a9 LDY  IMM   A:c0 X:33 Y:11 P:45 S:fb pc: d5c2, reg_addr: 0088
d5c2 a9 05 2c LDA  IMM   A:c0 X:33 Y:88 P:c5 S:fb pc: d5c4, reg_addr: 0005
d5c4 2c 78 06 BIT  ABS   A:05 X:33 Y:88 P:45 S:fb pc: d5c7, reg_addr: 0678
d5c7 10 10 50 BPL  REL   A:05 X:33 Y:88 P:c7 S:fb pc: d5c9, reg_addr: d5d9
d5c9 50 0e d0 BVC  REL   A:05 X:33 Y:88 P:c7 S:fb pc: d5cb, reg_addr: d5d9
d5cb d0 0c c9 BNE  REL   A:05 X:33 Y:88 P:c7 S:fb pc: d5cd, reg_addr: d5d9
d5cd c9 05 d0 CMP  IMM   A:05 X:33 Y:88 P:c7 S:fb pc: d5cf, reg_addr: 0005
d5cf d0 08 e0 BNE  REL   A:05 X:33 Y:88 P:47 S:fb pc: d5d1, reg_addr: d5d9
d5d1 e0 33 d0 CPX  IMM   A:05 X:33 Y:88 P:47 S:fb pc: d5d3, reg_addr: 0033
d5d3 d0 04 c0 BNE  REL   A:05 X:33 Y:88 P:47 S:fb pc: d5d5, reg_addr: d5d9
d5d5 c0 88 f0 CPY  IMM   A:05 X:33 Y:88 P:47 S:fb pc: d5d7, reg_addr: 0088
d5d7 f0 04 a9 BEQ  REL   A:05 X:33 Y:88 P:47 S:fb pc: d5dd, reg_addr: d5dd
d5dd a9 03 8d LDA  IMM   A:05 X:33 Y:88 P:47 S:fb pc: d5df, reg_addr: 0003
d5df 8d 78 06 STA  ABS   A:03 X:33 Y:88 P:45 S:fb pc: d5e2, reg_addr: 0678
d5e2 a9 01 2c LDA  IMM   A:03 X:33 Y:88 P:45 S:fb pc: d5e4, reg_addr: 0001
d5e4 2c 78 06 BIT  ABS   A:01 X:33 Y:88 P:45 S:fb pc: d5e7, reg_addr: 0678
d5e7 30 08 70 BMI  REL   A:01 X:33 Y:88 P:05 S:fb pc: d5e9, reg_addr: d5f1
d5e9 70 06 f0 BVS  REL   A:01 X:33 Y:88 P:05 S:fb pc: d5eb, reg_addr: d5f1
d5eb f0 04 c9 BEQ  REL   A:01 X:33 Y:88 P:05 S:fb pc: d5ed, reg_addr: d5f1
d5ed c9 01 f0 CMP  IMM   A:01 X:33 Y:88 P:05 S:fb pc: d5ef, reg_addr: 0001
d5ef f0 04 a9 BEQ  REL   A:01 X:33 Y:88 P:07 S:fb pc: d5f5, reg_addr: d5f5
d5f5 a0 b8 a9 LDY  IMM   A:01 X:33 Y:88 P:07 S:fb pc: d5f7, reg_addr: 00b8
d5f7 a9 aa 8d LDA  IMM   A:01 X:33 Y:b8 P:85 S:fb pc: d5f9, reg_addr: 00aa
d5f9 8d 78 06 STA  ABS   A:aa X:33 Y:b8 P:85 S:fb pc: d5fc, reg_addr: 0678
d5fc 20 b6 f7 JSR  ABS   A:aa X:33 Y:b8 P:85 S:fb pc: f7b6, reg_addr: f7b6
f7b6 18 a9 ff CLC  IMPL  A:aa X:33 Y:b8 P:85 S:f9 pc: f7b7, reg_addr: 0000
f7b7 a9 ff 85 LDA  IMM   A:aa X:33 Y:b8 P:84 S:f9 pc: f7b9, reg_addr: 00ff
f7b9 85 01 24 STA  ZP    A:ff X:33 Y:b8 P:84 S:f9 pc: f7bb, reg_addr: 0001
f7bb 24 01 a9 BIT  ZP    A:ff X:33 Y:b8 P:84 S:f9 pc: f7bd, reg_addr: 0001
f7bd a9 55 60 LDA  IMM   A:ff X:33 Y:b8 P:c4 S:f9 pc: f7bf, reg_addr: 0055
f7bf 60 b0 09 RTS  IMPL  A:55 X:33 Y:b8 P:44 S:f9 pc: d5ff, reg_addr: 0000
d5ff 0d 78 06 ORA  ABS   A:55 X:33 Y:b8 P:44 S:fb pc: d602, reg_addr: 0678
d602 20 c0 f7 JSR  ABS   A:ff X:33 Y:b8 P:c4 S:fb pc: f7c0, reg_addr: f7c0
f7c0 b0 09 10 BCS  REL   A:ff X:33 Y:b8 P:c4 S:f9 pc: f7c2, reg_addr: f7cb
f7c2 10 07 c9 BPL  REL   A:ff X:33 Y:b8 P:c4 S:f9 pc: f7c4, reg_addr: f7cb
f7c4 c9 ff d0 CMP  IMM   A:ff X:33 Y:b8 P:c4 S:f9 pc: f7c6, reg_addr: 00ff
f7c6 d0 03 50 BNE  REL   A:ff X:33 Y:b8 P:47 S:f9 pc: f7c8, reg_addr: f7cb
f7c8 50 01 60 BVC  REL   A:ff X:33 Y:b8 P:47 S:f9 pc: f7ca, reg_addr: f7cb
f7ca 60 84 00 RTS  IMPL  A:ff X:33 Y:b8 P:47 S:f9 pc: d605, reg_addr: 0000
d605 c8 a9 00 INY  IMPL  A:ff X:33 Y:b8 P:47 S:fb pc: d606, reg_addr: 0000
d606 a9 00 8d LDA  IMM   A:ff X:33 Y:b9 P:c5 S:fb pc: d608, reg_addr: 0000
d608 8d 78 06 STA  ABS   A:00 X:33 Y:b9 P:47 S:fb pc: d60b, reg_addr: 0678
d60b 20 ce f7 JSR  ABS   A:00 X:33 Y:b9 P:47 S:fb pc: f7ce, reg_addr: f7ce
f7ce 38 b8 a9 SEC  IMPL  A:00 X:33 Y:b9 P:47 S:f9 pc: f7cf, reg_addr: 0000
f7cf b8 a9 00 CLV  IMPL  A:00 X:33 Y:b9 P:47 S:f9 pc: f7d0, reg_addr: 0000
f7d0 a9 00 60 LDA  IMM   A:00 X:33 Y:b9 P:07 S:f9 pc: f7d2, reg_addr: 0000
f7d2 60 d0 07 RTS  IMPL  A:00 X:33 Y:b9 P:07 S:f9 pc: d60e, reg_addr: 0000
d60e 0d 78 06 ORA  ABS   A:00 X:33 Y:b9 P:07 S:fb pc: d611, reg_addr: 0678
d611 20 d3 f7 JSR  ABS   A:00 X:33 Y:b9 P:07 S:fb pc: f7d3, reg_addr: f7d3
f7d3 d0 07 70 BNE  REL   A:00 X:33 Y:b9 P:07 S:f9 pc: f7d5, reg_addr: f7dc
f7d5 70 05 90 BVS  REL   A:00 X:33 Y:b9 P:07 S:f9 pc: f7d7, reg_addr: f7dc
f7d7 90 03 30 BCC  REL   A:00 X:33 Y:b9 P:07 S:f9 pc: f7d9, reg_addr: f7dc
f7d9 30 01 60 BMI  REL   A:00 X:33 Y:b9 P:07 S:f9 pc: f7db, reg_addr: f7dc
f7db 60 84 00 RTS  IMPL  A:00 X:33 Y:b9 P:07 S:f9 pc: d614, reg_addr: 0000
d614 c8 a9 aa INY  IMPL  A:00 X:33 Y:b9 P:07 S:fb pc: d615, reg_addr: 0000
d615 a9 aa 8d LDA  IMM   A:00 X:33 Y:ba P:85 S:fb pc: d617, reg_addr: 00aa
d617 8d 78 06 STA  ABS   A:aa X:33 Y:ba P:85 S:fb pc: d61a, reg_addr: 0678
d61a 20 df f7 JSR  ABS   A:aa X:33 Y:ba P:85 S:fb pc: f7df, reg_addr: f7df
f7df 18 24 01 CLC  IMPL  A:aa X:33 Y:ba P:85 S:f9 pc: f7e0, reg_addr: 0000
f7e0 24 01 a9 BIT  ZP    A:aa X:33 Y:ba P:84 S:f9 pc: f7e2, reg_addr: 0001
f7e2 a9 55 60 LDA  IMM   A:aa X:33 Y:ba P:c4 S:f9 pc: f7e4, reg_addr: 0055
f7e4 60 d0 07 RTS  IMPL  A:55 X:33 Y:ba P:44 S:f9 pc: d61d, reg_addr: 0000
d61d 2d 78 06 AND  ABS   A:55 X:33 Y:ba P:44 S:fb pc: d620, reg_addr: 0678
d620 20 e5 f7 JSR  ABS   A:00 X:33 Y:ba P:46 S:fb pc: f7e5, reg_addr: f7e5
f7e5 d0 07 50 BNE  REL   A:00 X:33 Y:ba P:46 S:f9 pc: f7e7, reg_addr: f7ee
f7e7 50 05 b0 BVC  REL   A:00 X:33 Y:ba P:46 S:f9 pc: f7e9, reg_addr: f7ee
f7e9 b0 03 30 BCS  REL   A:00 X:33 Y:ba P:46 S:f9 pc: f7eb, reg_addr: f7ee
f7eb 30 01 60 BMI  REL   A:00 X:33 Y:ba P:46 S:f9 pc: f7ed, reg_addr: f7ee
f7ed 60 84 00 RTS  IMPL  A:00 X:33 Y:ba P:46 S:f9 pc: d623, reg_addr: 0000
d623 c8 a9 ef INY  IMPL  A:00 X:33 Y:ba P:46 S:fb pc: d624, reg_addr: 0000
d624 a9 ef 8d LDA  IMM   A:00 X:33 Y:bb P:c4 S:fb pc: d626, reg_addr: 00ef
d626 8d 78 06 STA  ABS   A:ef X:33 Y:bb P:c4 S:fb pc: d629, reg_addr: 0678
d629 20 f1 f7 JSR  ABS   A:ef X:33 Y:bb P:c4 S:fb pc: f7f1, reg_addr: f7f1
f7f1 38 b8 a9 SEC  IMPL  A:ef X:33 Y:bb P:c4 S:f9 pc: f7f2, reg_addr: 0000
f7f2 b8 a9 f8 CLV  IMPL  A:ef X:33 Y:bb P:c5 S:f9 pc: f7f3, reg_addr: 0000
f7f3 a9 f8 60 LDA  IMM   A:ef X:33 Y:bb P:85 S:f9 pc: f7f5, reg_addr: 00f8
f7f5 60 90 09 RTS  IMPL  A:f8 X:33 Y:bb P:85 S:f9 pc: d62c, reg_addr: 0000
d62c 2d 78 06 AND  ABS   A:f8 X:33 Y:bb P:85 S:fb pc: d62f, reg_addr: 0678
d62f 20 f6 f7 JSR  ABS   A:e8 X:33 Y:bb P:85 S:fb pc: f7f6, reg_addr: f7f6
f7f6 90 09 10 BCC  REL   A:e8 X:33 Y:bb P:85 S:f9 pc: f7f8, reg_addr: f801
f7f8 10 07 c9 BPL  REL   A:e8 X:33 Y:bb P:85 S:f9 pc: f7fa, reg_addr: f801
f7fa c9 e8 d0 CMP  IMM   A:e8 X:33 Y:bb P:85 S:f9 pc: f7fc, reg_addr: 00e8
f7fc d0 03 70 BNE  REL   A:e8 X:33 Y:bb P:07 S:f9 pc: f7fe, reg_addr: f801
f7fe 70 01 60 BVS  REL   A:e8 X:33 Y:bb P:07 S:f9 pc: f800, reg_addr: f801
f800 60 84 00 RTS  IMPL  A:e8 X:33 Y:bb P:07 S:f9 pc: d632, reg_addr: 0000
d632 c8 a9 aa INY  IMPL  A:e8 X:33 Y:bb P:07 S:fb pc: d633, reg_addr: 0000
d633 a9 aa 8d LDA  IMM   A:e8 X:33 Y:bc P:85 S:fb pc: d635, reg_addr: 00aa
d635 8d 78 06 STA  ABS   A:aa X:33 Y:bc P:85 S:fb pc: d638, reg_addr: 0678
d638 20 04 f8 JSR  ABS   A:aa X:33 Y:bc P:85 S:fb pc: f804, reg_addr: f804
f804 18 24 01 CLC  IMPL  A:aa X:33 Y:bc P:85 S:f9 pc: f805, reg_addr: 0000
f805 24 01 a9 BIT  ZP    A:aa X:33 Y:bc P:84 S:f9 pc: f807, reg_addr: 0001
f807 a9 5f 60 LDA  IMM   A:aa X:33 Y:bc P:c4 S:f9 pc: f809, reg_addr: 005f
f809 60 b0 09 RTS  IMPL  A:5f X:33 Y:bc P:44 S:f9 pc: d63b, reg_addr: 0000
d63b 4d 78 06 EOR  ABS   A:5f X:33 Y:bc P:44 S:fb pc: d63e, reg_addr: 0678
d63e 20 0a f8 JSR  ABS   A:f5 X:33 Y:bc P:c4 S:fb pc: f80a, reg_addr: f80a
f80a b0 09 10 BCS  REL   A:f5 X:33 Y:bc P:c4 S:f9 pc: f80c, reg_addr: f815
f80c 10 07 c9 BPL  REL   A:f5 X:33 Y:bc P:c4 S:f9 pc: f80e, reg_addr: f815
f80e c9 f5 d0 CMP  IMM   A:f5 X:33 Y:bc P:c4 S:f9 pc: f810, reg_addr: 00f5
f810 d0 03 50 BNE  REL   A:f5 X:33 Y:bc P:47 S:f9 pc: f812, reg_addr: f815
f812 50 01 60 BVC  REL   A:f5 X:33 Y:bc P:47 S:f9 pc: f814, reg_addr: f815
f814 60 84 00 RTS  IMPL  A:f5 X:33 Y:bc P:47 S:f9 pc: d641, reg_addr: 0000
d641 c8 a9 70 INY  IMPL  A:f5 X:33 Y:bc P:47 S:fb pc: d642, reg_addr: 0000
d642 a9 70 8d LDA  IMM   A:f5 X:33 Y:bd P:c5 S:fb pc: d644, reg_addr: 0070
d644 8d 78 06 STA  ABS   A:70 X:33 Y:bd P:45 S:fb pc: d647, reg_addr: 0678
d647 20 18 f8 JSR  ABS   A:70 X:33 Y:bd P:45 S:fb pc: f818, reg_addr: f818
f818 38 b8 a9 SEC  IMPL  A:70 X:33 Y:bd P:45 S:f9 pc: f819, reg_addr: 0000
f819 b8 a9 70 CLV  IMPL  A:70 X:33 Y:bd P:45 S:f9 pc: f81a, reg_addr: 0000
f81a a9 70 60 LDA  IMM   A:70 X:33 Y:bd P:05 S:f9 pc: f81c, reg_addr: 0070
f81c 60 d0 07 RTS  IMPL  A:70 X:33 Y:bd P:05 S:f9 pc: d64a, reg_addr: 0000
d64a 4d 78 06 EOR  ABS   A:70 X:33 Y:bd P:05 S:fb pc: d64d, reg_addr: 0678
d64d 20 1d f8 JSR  ABS   A:00 X:33 Y:bd P:07 S:fb pc: f81d, reg_addr: f81d
f81d d0 07 70 BNE  REL   A:00 X:33 Y:bd P:07 S:f9 pc: f81f, reg_addr: f826
f81f 70 05 90 BVS  REL   A:00 X:33 Y:bd P:07 S:f9 pc: f821, reg_addr: f826
f821 90 03 30 BCC  REL   A:00 X:33 Y:bd P:07 S:f9 pc: f823, reg_addr: f826
f823 30 01 60 BMI  REL   A:00 X:33 Y:bd P:07 S:f9 pc: f825, reg_addr: f826
f825 60 84 00 RTS  IMPL  A:00 X:33 Y:bd P:07 S:f9 pc: d650, reg_addr: 0000
d650 c8 a9 69 INY  IMPL  A:00 X:33 Y:bd P:07 S:fb pc: d651, reg_addr: 0000
d651 a9 69 8d LDA  IMM   A:00 X:33 Y:be P:85 S:fb pc: d653, reg_addr: 0069
d653 8d 78 06 STA  ABS   A:69 X:33 Y:be P:05 S:fb pc: d656, reg_addr: 0678
d656 20 29 f8 JSR  ABS   A:69 X:33 Y:be P:05 S:fb pc: f829, reg_addr: f829
f829 18 24 01 CLC  IMPL  A:69 X:33 Y:be P:05 S:f9 pc: f82a, reg_addr: 0000
f82a 24 01 a9 BIT  ZP    A:69 X:33 Y:be P:04 S:f9 pc: f82c, reg_addr: 0001
f82c a9 00 60 LDA  IMM   A:69 X:33 Y:be P:c4 S:f9 pc: f82e, reg_addr: 0000
f82e 60 30 09 RTS  IMPL  A:00 X:33 Y:be P:46 S:f9 pc: d659, reg_addr: 0000
d659 6d 78 06 ADC  ABS   A:00 X:33 Y:be P:46 S:fb pc: d65c, reg_addr: 0678
d65c 20 2f f8 JSR  ABS   A:69 X:33 Y:be P:04 S:fb pc: f82f, reg_addr: f82f
f82f 30 09 b0 BMI  REL   A:69 X:33 Y:be P:04 S:f9 pc: f831, reg_addr: f83a
f831 b0 07 c9 BCS  REL   A:69 X:33 Y:be P:04 S:f9 pc: f833, reg_addr: f83a
f833 c9 69 d0 CMP  IMM   A:69 X:33 Y:be P:04 S:f9 pc: f835, reg_addr: 0069
f835 d0 03 70 BNE  REL   A:69 X:33 Y:be P:07 S:f9 pc: f837, reg_addr: f83a
f837 70 01 60 BVS  REL   A:69 X:33 Y:be P:07 S:f9 pc: f839, reg_addr: f83a
f839 60 84 00 RTS  IMPL  A:69 X:33 Y:be P:07 S:f9 pc: d65f, reg_addr: 0000
d65f c8 20 3d INY  IMPL  A:69 X:33 Y:be P:07 S:fb pc: d660, reg_addr: 0000
d660 20 3d f8 JSR  ABS   A:69 X:33 Y:bf P:85 S:fb pc: f83d, reg_addr: f83d
f83d 38 24 01 SEC  IMPL  A:69 X:33 Y:bf P:85 S:f9 pc: f83e, reg_addr: 0000
f83e 24 01 a9 BIT  ZP    A:69 X:33 Y:bf P:85 S:f9 pc: f840, reg_addr: 0001
f840 a9 00 60 LDA  IMM   A:69 X:33 Y:bf P:c5 S:f9 pc: f842, reg_addr: 0000
f842 60 30 09 RTS  IMPL  A:00 X:33 Y:bf P:47 S:f9 pc: d663, reg_addr: 0000
d663 6d 78 06 ADC  ABS   A:00 X:33 Y:bf P:47 S:fb pc: d666, reg_addr: 0678
d666 20 43 f8 JSR  ABS   A:6a X:33 Y:bf P:04 S:fb pc: f843, reg_addr: f843
f843 30 09 b0 BMI  REL   A:6a X:33 Y:bf P:04 S:f9 pc: f845, reg_addr: f84e
f845 b0 07 c9 BCS  REL   A:6a X:33 Y:bf P:04 S:f9 pc: f847, reg_addr: f84e
f847 c9 6a d0 CMP  IMM   A:6a X:33 Y:bf P:04 S:f9 pc: f849, reg_addr: 006a
f849 d0 03 70 BNE  REL   A:6a X:33 Y:bf P:07 S:f9 pc: f84b, reg_addr: f84e
f84b 70 01 60 BVS  REL   A:6a X:33 Y:bf P:07 S:f9 pc: f84d, reg_addr: f84e
f84d 60 84 00 RTS  IMPL  A:6a X:33 Y:bf P:07 S:f9 pc: d669, reg_addr: 0000
d669 c8 a9 7f INY  IMPL  A:6a X:33 Y:bf P:07 S:fb pc: d66a, reg_addr: 0000
d66a a9 7f 8d LDA  IMM   A:6a X:33 Y:c0 P:85 S:fb pc: d66c, reg_addr: 007f
d66c 8d 78 06 STA  ABS   A:7f X:33 Y:c0 P:05 S:fb pc: d66f, reg_addr: 0678
d66f 20 51 f8 JSR  ABS   A:7f X:33 Y:c0 P:05 S:fb pc: f851, reg_addr: f851
f851 38 b8 a9 SEC  IMPL  A:7f X:33 Y:c0 P:05 S:f9 pc: f852, reg_addr: 0000
f852 b8 a9 7f CLV  IMPL  A:7f X:33 Y:c0 P:05 S:f9 pc: f853, reg_addr: 0000
f853 a9 7f 60 LDA  IMM   A:7f X:33 Y:c0 P:05 S:f9 pc: f855, reg_addr: 007f
f855 60 10 09 RTS  IMPL  A:7f X:33 Y:c0 P:05 S:f9 pc: d672, reg_addr: 0000
d672 6d 78 06 ADC  ABS   A:7f X:33 Y:c0 P:05 S:fb pc: d675, reg_addr: 0678
d675 20 56 f8 JSR  ABS   A:ff X:33 Y:c0 P:c4 S:fb pc: f856, reg_addr: f856
f856 10 09 b0 BPL  REL   A:ff X:33 Y:c0 P:c4 S:f9 pc: f858, reg_addr: f861
f858 b0 07 c9 BCS  REL   A:ff X:33 Y:c0 P:c4 S:f9 pc: f85a, reg_addr: f861
f85a c9 ff d0 CMP  IMM   A:ff X:33 Y:c0 P:c4 S:f9 pc: f85c, reg_addr: 00ff
f85c d0 03 50 BNE  REL   A:ff X:33 Y:c0 P:47 S:f9 pc: f85e, reg_addr: f861
f85e 50 01 60 BVC  REL   A:ff X:33 Y:c0 P:47 S:f9 pc: f860, reg_addr: f861
f860 60 84 00 RTS  IMPL  A:ff X:33 Y:c0 P:47 S:f9 pc: d678, reg_addr: 0000
d678 c8 a9 80 INY  IMPL  A:ff X:33 Y:c0 P:47 S:fb pc: d679, reg_addr: 0000
d679 a9 80 8d LDA  IMM   A:ff X:33 Y:c1 P:c5 S:fb pc: d67b, reg_addr: 0080
d67b 8d 78 06 STA  ABS   A:80 X:33 Y:c1 P:c5 S:fb pc: d67e, reg_addr: 0678
d67e 20 64 f8 JSR  ABS   A:80 X:33 Y:c1 P:c5 S:fb pc: f864, reg_addr: f864
f864 18 24 01 CLC  IMPL  A:80 X:33 Y:c1 P:c5 S:f9 pc: f865, reg_addr: 0000
f865 24 01 a9 BIT  ZP    A:80 X:33 Y:c1 P:c4 S:f9 pc: f867, reg_addr: 0001
f867 a9 7f 60 LDA  IMM   A:80 X:33 Y:c1 P:c4 S:f9 pc: f869, reg_addr: 007f
f869 60 10 09 RTS  IMPL  A:7f X:33 Y:c1 P:44 S:f9 pc: d681, reg_addr: 0000
d681 6d 78 06 ADC  ABS   A:7f X:33 Y:c1 P:44 S:fb pc: d684, reg_addr: 0678
d684 20 6a f8 JSR  ABS   A:ff X:33 Y:c1 P:84 S:fb pc: f86a, reg_addr: f86a
f86a 10 09 b0 BPL  REL   A:ff X:33 Y:c1 P:84 S:f9 pc: f86c, reg_addr: f875
f86c b0 07 c9 BCS  REL   A:ff X:33 Y:c1 P:84 S:f9 pc: f86e, reg_addr: f875
f86e c9 ff d0 CMP  IMM   A:ff X:33 Y:c1 P:84 S:f9 pc: f870, reg_addr: 00ff
f870 d0 03 70 BNE  REL   A:ff X:33 Y:c1 P:07 S:f9 pc: f872, reg_addr: f875
f872 70 01 60 BVS  REL   A:ff X:33 Y:c1 P:07 S:f9 pc: f874, reg_addr: f875
f874 60 84 00 RTS  IMPL  A:ff X:33 Y:c1 P:07 S:f9 pc: d687, reg_addr: 0000
d687 c8 20 78 INY  IMPL  A:ff X:33 Y:c1 P:07 S:fb pc: d688, reg_addr: 0000
d688 20 78 f8 JSR  ABS   A:ff X:33 Y:c2 P:85 S:fb pc: f878, reg_addr: f878
f878 38 b8 a9 SEC  IMPL  A:ff X:33 Y:c2 P:85 S:f9 pc: f879, reg_addr: 0000
f879 b8 a9 7f CLV  IMPL  A:ff X:33 Y:c2 P:85 S:f9 pc: f87a, reg_addr: 0000
f87a a9 7f 60 LDA  IMM   A:ff X:33 Y:c2 P:85 S:f9 pc: f87c, reg_addr: 007f
f87c 60 d0 07 RTS  IMPL  A:7f X:33 Y:c2 P:05 S:f9 pc: d68b, reg_addr: 0000
d68b 6d 78 06 ADC  ABS   A:7f X:33 Y:c2 P:05 S:fb pc: d68e, reg_addr: 0678
d68e 20 7d f8 JSR  ABS   A:00 X:33 Y:c2 P:07 S:fb pc: f87d, reg_addr: f87d
f87d d0 07 30 BNE  REL   A:00 X:33 Y:c2 P:07 S:f9 pc: f87f, reg_addr: f886
f87f 30 05 70 BMI  REL   A:00 X:33 Y:c2 P:07 S:f9 pc: f881, reg_addr: f886
f881 70 03 90 BVS  REL   A:00 X:33 Y:c2 P:07 S:f9 pc: f883, reg_addr: f886
f883 90 01 60 BCC  REL   A:00 X:33 Y:c2 P:07 S:f9 pc: f885, reg_addr: f886
f885 60 84 00 RTS  IMPL  A:00 X:33 Y:c2 P:07 S:f9 pc: d691, reg_addr: 0000
d691 c8 a9 40 INY  IMPL  A:00 X:33 Y:c2 P:07 S:fb pc: d692, reg_addr: 0000
d692 a9 40 8d LDA  IMM   A:00 X:33 Y:c3 P:85 S:fb pc: d694, reg_addr: 0040
d694 8d 78 06 STA  ABS   A:40 X:33 Y:c3 P:05 S:fb pc: d697, reg_addr: 0678
d697 20 89 f8 JSR  ABS   A:40 X:33 Y:c3 P:05 S:fb pc: f889, reg_addr: f889
f889 24 01 a9 BIT  ZP    A:40 X:33 Y:c3 P:05 S:f9 pc: f88b, reg_addr: 0001
f88b a9 40 60 LDA  IMM   A:40 X:33 Y:c3 P:c5 S:f9 pc: f88d, reg_addr: 0040
f88d 60 30 07 RTS  IMPL  A:40 X:33 Y:c3 P:45 S:f9 pc: d69a, reg_addr: 0000
d69a cd 78 06 CMP  ABS   A:40 X:33 Y:c3 P:45 S:fb pc: d69d, reg_addr: 0678
d69d 20 8e f8 JSR  ABS   A:40 X:33 Y:c3 P:47 S:fb pc: f88e, reg_addr: f88e
f88e 30 07 90 BMI  REL   A:40 X:33 Y:c3 P:47 S:f9 pc: f890, reg_addr: f897
f890 90 05 d0 BCC  REL   A:40 X:33 Y:c3 P:47 S:f9 pc: f892, reg_addr: f897
f892 d0 03 50 BNE  REL   A:40 X:33 Y:c3 P:47 S:f9 pc: f894, reg_addr: f897
f894 50 01 60 BVC  REL   A:40 X:33 Y:c3 P:47 S:f9 pc: f896, reg_addr: f897
f896 60 84 00 RTS  IMPL  A:40 X:33 Y:c3 P:47 S:f9 pc: d6a0, reg_addr: 0000
d6a0 c8 48 a9 INY  IMPL  A:40 X:33 Y:c3 P:47 S:fb pc: d6a1, reg_addr: 0000
d6a1 48 a9 3f PHA  IMPL  A:40 X:33 Y:c4 P:c5 S:fb pc: d6a2, reg_addr: 0000
d6a2 a9 3f 8d LDA  IMM   A:40 X:33 Y:c4 P:c5 S:fa pc: d6a4, reg_addr: 003f
d6a4 8d 78 06 STA  ABS   A:3f X:33 Y:c4 P:45 S:fa pc: d6a7, reg_addr: 0678
d6a7 68 20 9a PLA  IMPL  A:3f X:33 Y:c4 P:45 S:fa pc: d6a8, reg_addr: 0000
d6a8 20 9a f8 JSR  ABS   A:40 X:33 Y:c4 P:45 S:fb pc: f89a, reg_addr: f89a
f89a b8 60 f0 CLV  IMPL  A:40 X:33 Y:c4 P:45 S:f9 pc: f89b, reg_addr: 0000
f89b 60 f0 07 RTS  IMPL  A:40 X:33 Y:c4 P:05 S:f9 pc: d6ab, reg_addr: 0000
d6ab cd 78 06 CMP  ABS   A:40 X:33 Y:c4 P:05 S:fb pc: d6ae, reg_addr: 0678
d6ae 20 9c f8 JSR  ABS   A:40 X:33 Y:c4 P:05 S:fb pc: f89c, reg_addr: f89c
f89c f0 07 30 BEQ  REL   A:40 X:33 Y:c4 P:05 S:f9 pc: f89e, reg_addr: f8a5
f89e 30 05 90 BMI  REL   A:40 X:33 Y:c4 P:05 S:f9 pc: f8a0, reg_addr: f8a5
f8a0 90 03 70 BCC  REL   A:40 X:33 Y:c4 P:05 S:f9 pc: f8a2, reg_addr: f8a5
f8a2 70 01 60 BVS  REL   A:40 X:33 Y:c4 P:05 S:f9 pc: f8a4, reg_addr: f8a5
f8a4 60 84 00 RTS  IMPL  A:40 X:33 Y:c4 P:05 S:f9 pc: d6b1, reg_addr: 0000
d6b1 c8 48 a9 INY  IMPL  A:40 X:33 Y:c4 P:05 S:fb pc: d6b2, reg_addr: 0000
d6b2 48 a9 41 PHA  IMPL  A:40 X:33 Y:c5 P:85 S:fb pc: d6b3, reg_addr: 0000
d6b3 a9 41 8d LDA  IMM   A:40 X:33 Y:c5 P:85 S:fa pc: d6b5, reg_addr: 0041
d6b5 8d 78 06 STA  ABS   A:41 X:33 Y:c5 P:05 S:fa pc: d6b8, reg_addr: 0678
d6b8 68 cd 78 PLA  IMPL  A:41 X:33 Y:c5 P:05 S:fa pc: d6b9, reg_addr: 0000
d6b9 cd 78 06 CMP  ABS   A:40 X:33 Y:c5 P:05 S:fb pc: d6bc, reg_addr: 0678
d6bc 20 a8 f8 JSR  ABS   A:40 X:33 Y:c5 P:84 S:fb pc: f8a8, reg_addr: f8a8
f8a8 f0 05 10 BEQ  REL   A:40 X:33 Y:c5 P:84 S:f9 pc: f8aa, reg_addr: f8af
f8aa 10 03 10 BPL  REL   A:40 X:33 Y:c5 P:84 S:f9 pc: f8ac, reg_addr: f8af
f8ac 10 01 60 BPL  REL   A:40 X:33 Y:c5 P:84 S:f9 pc: f8ae, reg_addr: f8af
f8ae 60 84 00 RTS  IMPL  A:40 X:33 Y:c5 P:84 S:f9 pc: d6bf, reg_addr: 0000
d6bf c8 48 a9 INY  IMPL  A:40 X:33 Y:c5 P:84 S:fb pc: d6c0, reg_addr: 0000
d6c0 48 a9 00 PHA  IMPL  A:40 X:33 Y:c6 P:84 S:fb pc: d6c1, reg_addr: 0000
d6c1 a9 00 8d LDA  IMM   A:40 X:33 Y:c6 P:84 S:fa pc: d6c3, reg_addr: 0000
d6c3 8d 78 06 STA  ABS   A:00 X:33 Y:c6 P:06 S:fa pc: d6c6, reg_addr: 0678
d6c6 68 20 b2 PLA  IMPL  A:00 X:33 Y:c6 P:06 S:fa pc: d6c7, reg_addr: 0000
d6c7 20 b2 f8 JSR  ABS   A:40 X:33 Y:c6 P:04 S:fb pc: f8b2, reg_addr: f8b2
f8b2 a9 80 60 LDA  IMM   A:40 X:33 Y:c6 P:04 S:f9 pc: f8b4, reg_addr: 0080
f8b4 60 f0 05 RTS  IMPL  A:80 X:33 Y:c6 P:84 S:f9 pc: d6ca, reg_addr: 0000
d6ca cd 78 06 CMP  ABS   A:80 X:33 Y:c6 P:84 S:fb pc: d6cd, reg_addr: 0678
d6cd 20 b5 f8 JSR  ABS   A:80 X:33 Y:c6 P:85 S:fb pc: f8b5, reg_addr: f8b5
f8b5 f0 05 10 BEQ  REL   A:80 X:33 Y:c6 P:85 S:f9 pc: f8b7, reg_addr: f8bc
f8b7 10 03 90 BPL  REL   A:80 X:33 Y:c6 P:85 S:f9 pc: f8b9, reg_addr: f8bc
f8b9 90 01 60 BCC  REL   A:80 X:33 Y:c6 P:85 S:f9 pc: f8bb, reg_addr: f8bc
f8bb 60 84 00 RTS  IMPL  A:80 X:33 Y:c6 P:85 S:f9 pc: d6d0, reg_addr: 0000
d6d0 c8 48 a9 INY  IMPL  A:80 X:33 Y:c6 P:85 S:fb pc: d6d1, reg_addr: 0000
d6d1 48 a9 80 PHA  IMPL  A:80 X:33 Y:c7 P:85 S:fb pc: d6d2, reg_addr: 0000
d6d2 a9 80 8d LDA  IMM   A:80 X:33 Y:c7 P:85 S:fa pc: d6d4, reg_addr: 0080
d6d4 8d 78 06 STA  ABS   A:80 X:33 Y:c7 P:85 S:fa pc: d6d7, reg_addr: 0678
d6d7 68 cd 78 PLA  IMPL  A:80 X:33 Y:c7 P:85 S:fa pc: d6d8, reg_addr: 0000
d6d8 cd 78 06 CMP  ABS   A:80 X:33 Y:c7 P:85 S:fb pc: d6db, reg_addr: 0678
d6db 20 bf f8 JSR  ABS   A:80 X:33 Y:c7 P:07 S:fb pc: f8bf, reg_addr: f8bf
f8bf d0 05 30 BNE  REL   A:80 X:33 Y:c7 P:07 S:f9 pc: f8c1, reg_addr: f8c6
f8c1 30 03 90 BMI  REL   A:80 X:33 Y:c7 P:07 S:f9 pc: f8c3, reg_addr: f8c6
f8c3 90 01 60 BCC  REL   A:80 X:33 Y:c7 P:07 S:f9 pc: f8c5, reg_addr: f8c6
f8c5 60 84 00 RTS  IMPL  A:80 X:33 Y:c7 P:07 S:f9 pc: d6de, reg_addr: 0000
d6de c8 48 a9 INY  IMPL  A:80 X:33 Y:c7 P:07 S:fb pc: d6df, reg_addr: 0000
d6df 48 a9 81 PHA  IMPL  A:80 X:33 Y:c8 P:85 S:fb pc: d6e0, reg_addr: 0000
d6e0 a9 81 8d LDA  IMM   A:80 X:33 Y:c8 P:85 S:fa pc: d6e2, reg_addr: 0081
d6e2 8d 78 06 STA  ABS   A:81 X:33 Y:c8 P:85 S:fa pc: d6e5, reg_addr: 0678
d6e5 68 cd 78 PLA  IMPL  A:81 X:33 Y:c8 P:85 S:fa pc: d6e6, reg_addr: 0000
d6e6 cd 78 06 CMP  ABS   A:80 X:33 Y:c8 P:85 S:fb pc: d6e9, reg_addr: 0678
d6e9 20 c9 f8 JSR  ABS   A:80 X:33 Y:c8 P:84 S:fb pc: f8c9, reg_addr: f8c9
f8c9 b0 05 f0 BCS  REL   A:80 X:33 Y:c8 P:84 S:f9 pc: f8cb, reg_addr: f8d0
f8cb f0 03 10 BEQ  REL   A:80 X:33 Y:c8 P:84 S:f9 pc: f8cd, reg_addr: f8d0
f8cd 10 01 60 BPL  REL   A:80 X:33 Y:c8 P:84 S:f9 pc: f8cf, reg_addr: f8d0
f8cf 60 84 00 RTS  IMPL  A:80 X:33 Y:c8 P:84 S:f9 pc: d6ec, reg_addr: 0000
d6ec c8 48 a9 INY  IMPL  A:80 X:33 Y:c8 P:84 S:fb pc: d6ed, reg_addr: 0000
d6ed 48 a9 7f PHA  IMPL  A:80 X:33 Y:c9 P:84 S:fb pc: d6ee, reg_addr: 0000
d6ee a9 7f 8d LDA  IMM   A:80 X:33 Y:c9 P:84 S:fa pc: d6f0, reg_addr: 007f
d6f0 8d 78 06 STA  ABS   A:7f X:33 Y:c9 P:04 S:fa pc: d6f3, reg_addr: 0678
d6f3 68 cd 78 PLA  IMPL  A:7f X:33 Y:c9 P:04 S:fa pc: d6f4, reg_addr: 0000
d6f4 cd 78 06 CMP  ABS   A:80 X:33 Y:c9 P:84 S:fb pc: d6f7, reg_addr: 0678
d6f7 20 d3 f8 JSR  ABS   A:80 X:33 Y:c9 P:05 S:fb pc: f8d3, reg_addr: f8d3
f8d3 90 05 f0 BCC  REL   A:80 X:33 Y:c9 P:05 S:f9 pc: f8d5, reg_addr: f8da
f8d5 f0 03 30 BEQ  REL   A:80 X:33 Y:c9 P:05 S:f9 pc: f8d7, reg_addr: f8da
f8d7 30 01 60 BMI  REL   A:80 X:33 Y:c9 P:05 S:f9 pc: f8d9, reg_addr: f8da
f8d9 60 84 00 RTS  IMPL  A:80 X:33 Y:c9 P:05 S:f9 pc: d6fa, reg_addr: 0000
d6fa c8 a9 40 INY  IMPL  A:80 X:33 Y:c9 P:05 S:fb pc: d6fb, reg_addr: 0000
d6fb a9 40 8d LDA  IMM   A:80 X:33 Y:ca P:85 S:fb pc: d6fd, reg_addr: 0040
d6fd 8d 78 06 STA  ABS   A:40 X:33 Y:ca P:05 S:fb pc: d700, reg_addr: 0678
d700 20 31 f9 JSR  ABS   A:40 X:33 Y:ca P:05 S:fb pc: f931, reg_addr: f931
f931 24 01 a9 BIT  ZP    A:40 X:33 Y:ca P:05 S:f9 pc: f933, reg_addr: 0001
f933 a9 40 38 LDA  IMM   A:40 X:33 Y:ca P:c5 S:f9 pc: f935, reg_addr: 0040
f935 38 60 30 SEC  IMPL  A:40 X:33 Y:ca P:45 S:f9 pc: f936, reg_addr: 0000
f936 60 30 0b RTS  IMPL  A:40 X:33 Y:ca P:45 S:f9 pc: d703, reg_addr: 0000
d703 ed 78 06 SBC  ABS   A:40 X:33 Y:ca P:45 S:fb pc: d706, reg_addr: 0678
d706 20 37 f9 JSR  ABS   A:00 X:33 Y:ca P:07 S:fb pc: f937, reg_addr: f937
f937 30 0b 90 BMI  REL   A:00 X:33 Y:ca P:07 S:f9 pc: f939, reg_addr: f944
f939 90 09 d0 BCC  REL   A:00 X:33 Y:ca P:07 S:f9 pc: f93b, reg_addr: f944
f93b d0 07 70 BNE  REL   A:00 X:33 Y:ca P:07 S:f9 pc: f93d, reg_addr: f944
f93d 70 05 c9 BVS  REL   A:00 X:33 Y:ca P:07 S:f9 pc: f93f, reg_addr: f944
f93f c9 00 d0 CMP  IMM   A:00 X:33 Y:ca P:07 S:f9 pc: f941, reg_addr: 0000
f941 d0 01 60 BNE  REL   A:00 X:33 Y:ca P:07 S:f9 pc: f943, reg_addr: f944
f943 60 84 00 RTS  IMPL  A:00 X:33 Y:ca P:07 S:f9 pc: d709, reg_addr: 0000
d709 c8 a9 3f INY  IMPL  A:00 X:33 Y:ca P:07 S:fb pc: d70a, reg_addr: 0000
d70a a9 3f 8d LDA  IMM   A:00 X:33 Y:cb P:85 S:fb pc: d70c, reg_addr: 003f
d70c 8d 78 06 STA  ABS   A:3f X:33 Y:cb P:05 S:fb pc: d70f, reg_addr: 0678
d70f 20 47 f9 JSR  ABS   A:3f X:33 Y:cb P:05 S:fb pc: f947, reg_addr: f947
f947 b8 38 a9 CLV  IMPL  A:3f X:33 Y:cb P:05 S:f9 pc: f948, reg_addr: 0000
f948 38 a9 40 SEC  IMPL  A:3f X:33 Y:cb P:05 S:f9 pc: f949, reg_addr: 0000
f949 a9 40 60 LDA  IMM   A:3f X:33 Y:cb P:05 S:f9 pc: f94b, reg_addr: 0040
f94b 60 f0 0b RTS  IMPL  A:40 X:33 Y:cb P:05 S:f9 pc: d712, reg_addr: 0000
d712 ed 78 06 SBC  ABS   A:40 X:33 Y:cb P:05 S:fb pc: d715, reg_addr: 0678
d715 20 4c f9 JSR  ABS   A:01 X:33 Y:cb P:05 S:fb pc: f94c, reg_addr: f94c
f94c f0 0b 30 BEQ  REL   A:01 X:33 Y:cb P:05 S:f9 pc: f94e, reg_addr: f959
f94e 30 09 90 BMI  REL   A:01 X:33 Y:cb P:05 S:f9 pc: f950, reg_addr: f959
f950 90 07 70 BCC  REL   A:01 X:33 Y:cb P:05 S:f9 pc: f952, reg_addr: f959
f952 70 05 c9 BVS  REL   A:01 X:33 Y:cb P:05 S:f9 pc: f954, reg_addr: f959
f954 c9 01 d0 CMP  IMM   A:01 X:33 Y:cb P:05 S:f9 pc: f956, reg_addr: 0001
f956 d0 01 60 BNE  REL   A:01 X:33 Y:cb P:07 S:f9 pc: f958, reg_addr: f959
f958 60 84 00 RTS  IMPL  A:01 X:33 Y:cb P:07 S:f9 pc: d718, reg_addr: 0000
d718 c8 a9 41 INY  IMPL  A:01 X:33 Y:cb P:07 S:fb pc: d719, reg_addr: 0000
d719 a9 41 8d LDA  IMM   A:01 X:33 Y:cc P:85 S:fb pc: d71b, reg_addr: 0041
d71b 8d 78 06 STA  ABS   A:41 X:33 Y:cc P:05 S:fb pc: d71e, reg_addr: 0678
d71e 20 5c f9 JSR  ABS   A:41 X:33 Y:cc P:05 S:fb pc: f95c, reg_addr: f95c
f95c a9 40 38 LDA  IMM   A:41 X:33 Y:cc P:05 S:f9 pc: f95e, reg_addr: 0040
f95e 38 24 01 SEC  IMPL  A:40 X:33 Y:cc P:05 S:f9 pc: f95f, reg_addr: 0000
f95f 24 01 60 BIT  ZP    A:40 X:33 Y:cc P:05 S:f9 pc: f961, reg_addr: 0001
f961 60 b0 0b RTS  IMPL  A:40 X:33 Y:cc P:c5 S:f9 pc: d721, reg_addr: 0000
d721 ed 78 06 SBC  ABS   A:40 X:33 Y:cc P:c5 S:fb pc: d724, reg_addr: 0678
d724 20 62 f9 JSR  ABS   A:ff X:33 Y:cc P:84 S:fb pc: f962, reg_addr: f962
f962 b0 0b f0 BCS  REL   A:ff X:33 Y:cc P:84 S:f9 pc: f964, reg_addr: f96f
f964 f0 09 10 BEQ  REL   A:ff X:33 Y:cc P:84 S:f9 pc: f966, reg_addr: f96f
f966 10 07 70 BPL  REL   A:ff X:33 Y:cc P:84 S:f9 pc: f968, reg_addr: f96f
f968 70 05 c9 BVS  REL   A:ff X:33 Y:cc P:84 S:f9 pc: f96a, reg_addr: f96f
f96a c9 ff d0 CMP  IMM   A:ff X:33 Y:cc P:84 S:f9 pc: f96c, reg_addr: 00ff
f96c d0 01 60 BNE  REL   A:ff X:33 Y:cc P:07 S:f9 pc: f96e, reg_addr: f96f
f96e 60 84 00 RTS  IMPL  A:ff X:33 Y:cc P:07 S:f9 pc: d727, reg_addr: 0000
d727 c8 a9 00 INY  IMPL  A:ff X:33 Y:cc P:07 S:fb pc: d728, reg_addr: 0000
d728 a9 00 8d LDA  IMM   A:ff X:33 Y:cd P:85 S:fb pc: d72a, reg_addr: 0000
d72a 8d 78 06 STA  ABS   A:00 X:33 Y:cd P:07 S:fb pc: d72d, reg_addr: 0678
d72d 20 72 f9 JSR  ABS   A:00 X:33 Y:cd P:07 S:fb pc: f972, reg_addr: f972
f972 18 a9 80 CLC  IMPL  A:00 X:33 Y:cd P:07 S:f9 pc: f973, reg_addr: 0000
f973 a9 80 60 LDA  IMM   A:00 X:33 Y:cd P:06 S:f9 pc: f975, reg_addr: 0080
f975 60 90 05 RTS  IMPL  A:80 X:33 Y:cd P:84 S:f9 pc: d730, reg_addr: 0000
d730 ed 78 06 SBC  ABS   A:80 X:33 Y:cd P:84 S:fb pc: d733, reg_addr: 0678
d733 20 76 f9 JSR  ABS   A:7f X:33 Y:cd P:45 S:fb pc: f976, reg_addr: f976
f976 90 05 c9 BCC  REL   A:7f X:33 Y:cd P:45 S:f9 pc: f978, reg_addr: f97d
f978 c9 7f d0 CMP  IMM   A:7f X:33 Y:cd P:45 S:f9 pc: f97a, reg_addr: 007f
f97a d0 01 60 BNE  REL   A:7f X:33 Y:cd P:47 S:f9 pc: f97c, reg_addr: f97d
f97c 60 84 00 RTS  IMPL  A:7f X:33 Y:cd P:47 S:f9 pc: d736, reg_addr: 0000
d736 c8 a9 7f INY  IMPL  A:7f X:33 Y:cd P:47 S:fb pc: d737, reg_addr: 0000
d737 a9 7f 8d LDA  IMM   A:7f X:33 Y:ce P:c5 S:fb pc: d739, reg_addr: 007f
d739 8d 78 06 STA  ABS   A:7f X:33 Y:ce P:45 S:fb pc: d73c, reg_addr: 0678
d73c 20 80 f9 JSR  ABS   A:7f X:33 Y:ce P:45 S:fb pc: f980, reg_addr: f980
f980 38 a9 81 SEC  IMPL  A:7f X:33 Y:ce P:45 S:f9 pc: f981, reg_addr: 0000
f981 a9 81 60 LDA  IMM   A:7f X:33 Y:ce P:45 S:f9 pc: f983, reg_addr: 0081
f983 60 50 07 RTS  IMPL  A:81 X:33 Y:ce P:c5 S:f9 pc: d73f, reg_addr: 0000
d73f ed 78 06 SBC  ABS   A:81 X:33 Y:ce P:c5 S:fb pc: d742, reg_addr: 0678
d742 20 84 f9 JSR  ABS   A:02 X:33 Y:ce P:45 S:fb pc: f984, reg_addr: f984
f984 50 07 90 BVC  REL   A:02 X:33 Y:ce P:45 S:f9 pc: f986, reg_addr: f98d
f986 90 05 c9 BCC  REL   A:02 X:33 Y:ce P:45 S:f9 pc: f988, reg_addr: f98d
f988 c9 02 d0 CMP  IMM   A:02 X:33 Y:ce P:45 S:f9 pc: f98a, reg_addr: 0002
f98a d0 01 60 BNE  REL   A:02 X:33 Y:ce P:47 S:f9 pc: f98c, reg_addr: f98d
f98c 60 84 00 RTS  IMPL  A:02 X:33 Y:ce P:47 S:f9 pc: d745, reg_addr: 0000
d745 c8 a9 40 INY  IMPL  A:02 X:33 Y:ce P:47 S:fb pc: d746, reg_addr: 0000
d746 a9 40 8d LDA  IMM   A:02 X:33 Y:cf P:c5 S:fb pc: d748, reg_addr: 0040
d748 8d 78 06 STA  ABS   A:40 X:33 Y:cf P:45 S:fb pc: d74b, reg_addr: 0678
d74b 20 89 f8 JSR  ABS   A:40 X:33 Y:cf P:45 S:fb pc: f889, reg_addr: f889
f889 24 01 a9 BIT  ZP    A:40 X:33 Y:cf P:45 S:f9 pc: f88b, reg_addr: 0001
f88b a9 40 60 LDA  IMM   A:40 X:33 Y:cf P:c5 S:f9 pc: f88d, reg_addr: 0040
f88d 60 30 07 RTS  IMPL  A:40 X:33 Y:cf P:45 S:f9 pc: d74e, reg_addr: 0000
d74e aa ec 78 TAX  IMPL  A:40 X:33 Y:cf P:45 S:fb pc: d74f, reg_addr: 0000
d74f ec 78 06 CPX  ABS   A:40 X:40 Y:cf P:45 S:fb pc: d752, reg_addr: 0678
d752 20 8e f8 JSR  ABS   A:40 X:40 Y:cf P:47 S:fb pc: f88e, reg_addr: f88e
f88e 30 07 90 BMI  REL   A:40 X:40 Y:cf P:47 S:f9 pc: f890, reg_addr: f897
f890 90 05 d0 BCC  REL   A:40 X:40 Y:cf P:47 S:f9 pc: f892, reg_addr: f897
f892 d0 03 50 BNE  REL   A:40 X:40 Y:cf P:47 S:f9 pc: f894, reg_addr: f897
f894 50 01 60 BVC  REL   A:40 X:40 Y:cf P:47 S:f9 pc: f896, reg_addr: f897
f896 60 84 00 RTS  IMPL  A:40 X:40 Y:cf P:47 S:f9 pc: d755, reg_addr: 0000
d755 c8 a9 3f INY  IMPL  A:40 X:40 Y:cf P:47 S:fb pc: d756, reg_addr: 0000
d756 a9 3f 8d LDA  IMM   A:40 X:40 Y:d0 P:c5 S:fb pc: d758, reg_addr: 003f
d758 8d 78 06 STA  ABS   A:3f X:40 Y:d0 P:45 S:fb pc: d75b, reg_addr: 0678
d75b 20 9a f8 JSR  ABS   A:3f X:40 Y:d0 P:45 S:fb pc: f89a, reg_addr: f89a
f89a b8 60 f0 CLV  IMPL  A:3f X:40 Y:d0 P:45 S:f9 pc: f89b, reg_addr: 0000
f89b 60 f0 07 RTS  IMPL  A:3f X:40 Y:d0 P:05 S:f9 pc: d75e, reg_addr: 0000
d75e ec 78 06 CPX  ABS   A:3f X:40 Y:d0 P:05 S:fb pc: d761, reg_addr: 0678
d761 20 9c f8 JSR  ABS   A:3f X:40 Y:d0 P:05 S:fb pc: f89c, reg_addr: f89c
f89c f0 07 30 BEQ  REL   A:3f X:40 Y:d0 P:05 S:f9 pc: f89e, reg_addr: f8a5
f89e 30 05 90 BMI  REL   A:3f X:40 Y:d0 P:05 S:f9 pc: f8a0, reg_addr: f8a5
f8a0 90 03 70 BCC  REL   A:3f X:40 Y:d0 P:05 S:f9 pc: f8a2, reg_addr: f8a5
f8a2 70 01 60 BVS  REL   A:3f X:40 Y:d0 P:05 S:f9 pc: f8a4, reg_addr: f8a5
f8a4 60 84 00 RTS  IMPL  A:3f X:40 Y:d0 P:05 S:f9 pc: d764, reg_addr: 0000
d764 c8 a9 41 INY  IMPL  A:3f X:40 Y:d0 P:05 S:fb pc: d765, reg_addr: 0000
d765 a9 41 8d LDA  IMM   A:3f X:40 Y:d1 P:85 S:fb pc: d767, reg_addr: 0041
d767 8d 78 06 STA  ABS   A:41 X:40 Y:d1 P:05 S:fb pc: d76a, reg_addr: 0678
d76a ec 78 06 CPX  ABS   A:41 X:40 Y:d1 P:05 S:fb pc: d76d, reg_addr: 0678
d76d 20 a8 f8 JSR  ABS   A:41 X:40 Y:d1 P:84 S:fb pc: f8a8, reg_addr: f8a8
f8a8 f0 05 10 BEQ  REL   A:41 X:40 Y:d1 P:84 S:f9 pc: f8aa, reg_addr: f8af
f8aa 10 03 10 BPL  REL   A:41 X:40 Y:d1 P:84 S:f9 pc: f8ac, reg_addr: f8af
f8ac 10 01 60 BPL  REL   A:41 X:40 Y:d1 P:84 S:f9 pc: f8ae, reg_addr: f8af
f8ae 60 84 00 RTS  IMPL  A:41 X:40 Y:d1 P:84 S:f9 pc: d770, reg_addr: 0000
d770 c8 a9 00 INY  IMPL  A:41 X:40 Y:d1 P:84 S:fb pc: d771, reg_addr: 0000
d771 a9 00 8d LDA  IMM   A:41 X:40 Y:d2 P:84 S:fb pc: d773, reg_addr: 0000
d773 8d 78 06 STA  ABS   A:00 X:40 Y:d2 P:06 S:fb pc: d776, reg_addr: 0678
d776 20 b2 f8 JSR  ABS   A:00 X:40 Y:d2 P:06 S:fb pc: f8b2, reg_addr: f8b2
f8b2 a9 80 60 LDA  IMM   A:00 X:40 Y:d2 P:06 S:f9 pc: f8b4, reg_addr: 0080
f8b4 60 f0 05 RTS  IMPL  A:80 X:40 Y:d2 P:84 S:f9 pc: d779, reg_addr: 0000
d779 aa ec 78 TAX  IMPL  A:80 X:40 Y:d2 P:84 S:fb pc: d77a, reg_addr: 0000
d77a ec 78 06 CPX  ABS   A:80 X:80 Y:d2 P:84 S:fb pc: d77d, reg_addr: 0678
d77d 20 b5 f8 JSR  ABS   A:80 X:80 Y:d2 P:85 S:fb pc: f8b5, reg_addr: f8b5
f8b5 f0 05 10 BEQ  REL   A:80 X:80 Y:d2 P:85 S:f9 pc: f8b7, reg_addr: f8bc
f8b7 10 03 90 BPL  REL   A:80 X:80 Y:d2 P:85 S:f9 pc: f8b9, reg_addr: f8bc
f8b9 90 01 60 BCC  REL   A:80 X:80 Y:d2 P:85 S:f9 pc: f8bb, reg_addr: f8bc
f8bb 60 84 00 RTS  IMPL  A:80 X:80 Y:d2 P:85 S:f9 pc: d780, reg_addr: 0000
d780 c8 a9 80 INY  IMPL  A:80 X:80 Y:d2 P:85 S:fb pc: d781, reg_addr: 0000
d781 a9 80 8d LDA  IMM   A:80 X:80 Y:d3 P:85 S:fb pc: d783, reg_addr: 0080
d783 8d 78 06 STA  ABS   A:80 X:80 Y:d3 P:85 S:fb pc: d786, reg_addr: 0678
d786 ec 78 06 CPX  ABS   A:80 X:80 Y:d3 P:85 S:fb pc: d789, reg_addr: 0678
d789 20 bf f8 JSR  ABS   A:80 X:80 Y:d3 P:07 S:fb pc: f8bf, reg_addr: f8bf
f8bf d0 05 30 BNE  REL   A:80 X:80 Y:d3 P:07 S:f9 pc: f8c1, reg_addr: f8c6
f8c1 30 03 90 BMI  REL   A:80 X:80 Y:d3 P:07 S:f9 pc: f8c3, reg_addr: f8c6
f8c3 90 01 60 BCC  REL   A:80 X:80 Y:d3 P:07 S:f9 pc: f8c5, reg_addr: f8c6
f8c5 60 84 00 RTS  IMPL  A:80 X:80 Y:d3 P:07 S:f9 pc: d78c, reg_addr: 0000
d78c c8 a9 81 INY  IMPL  A:80 X:80 Y:d3 P:07 S:fb pc: d78d, reg_addr: 0000
d78d a9 81 8d LDA  IMM   A:80 X:80 Y:d4 P:85 S:fb pc: d78f, reg_addr: 0081
d78f 8d 78 06 STA  ABS   A:81 X:80 Y:d4 P:85 S:fb pc: d792, reg_addr: 0678
d792 ec 78 06 CPX  ABS   A:81 X:80 Y:d4 P:85 S:fb pc: d795, reg_addr: 0678
d795 20 c9 f8 JSR  ABS   A:81 X:80 Y:d4 P:84 S:fb pc: f8c9, reg_addr: f8c9
f8c9 b0 05 f0 BCS  REL   A:81 X:80 Y:d4 P:84 S:f9 pc: f8cb, reg_addr: f8d0
f8cb f0 03 10 BEQ  REL   A:81 X:80 Y:d4 P:84 S:f9 pc: f8cd, reg_addr: f8d0
f8cd 10 01 60 BPL  REL   A:81 X:80 Y:d4 P:84 S:f9 pc: f8cf, reg_addr: f8d0
f8cf 60 84 00 RTS  IMPL  A:81 X:80 Y:d4 P:84 S:f9 pc: d798, reg_addr: 0000
d798 c8 a9 7f INY  IMPL  A:81 X:80 Y:d4 P:84 S:fb pc: d799, reg_addr: 0000
d799 a9 7f 8d LDA  IMM   A:81 X:80 Y:d5 P:84 S:fb pc: d79b, reg_addr: 007f
d79b 8d 78 06 STA  ABS   A:7f X:80 Y:d5 P:04 S:fb pc: d79e, reg_addr: 0678
d79e ec 78 06 CPX  ABS   A:7f X:80 Y:d5 P:04 S:fb pc: d7a1, reg_addr: 0678
d7a1 20 d3 f8 JSR  ABS   A:7f X:80 Y:d5 P:05 S:fb pc: f8d3, reg_addr: f8d3
f8d3 90 05 f0 BCC  REL   A:7f X:80 Y:d5 P:05 S:f9 pc: f8d5, reg_addr: f8da
f8d5 f0 03 30 BEQ  REL   A:7f X:80 Y:d5 P:05 S:f9 pc: f8d7, reg_addr: f8da
f8d7 30 01 60 BMI  REL   A:7f X:80 Y:d5 P:05 S:f9 pc: f8d9, reg_addr: f8da
f8d9 60 84 00 RTS  IMPL  A:7f X:80 Y:d5 P:05 S:f9 pc: d7a4, reg_addr: 0000
d7a4 c8 98 aa INY  IMPL  A:7f X:80 Y:d5 P:05 S:fb pc: d7a5, reg_addr: 0000
d7a5 98 aa a9 TYA  IMPL  A:7f X:80 Y:d6 P:85 S:fb pc: d7a6, reg_addr: 0000
d7a6 aa a9 40 TAX  IMPL  A:d6 X:80 Y:d6 P:85 S:fb pc: d7a7, reg_addr: 0000
d7a7 a9 40 8d LDA  IMM   A:d6 X:d6 Y:d6 P:85 S:fb pc: d7a9, reg_addr: 0040
d7a9 8d 78 06 STA  ABS   A:40 X:d6 Y:d6 P:05 S:fb pc: d7ac, reg_addr: 0678
d7ac 20 dd f8 JSR  ABS   A:40 X:d6 Y:d6 P:05 S:fb pc: f8dd, reg_addr: f8dd
f8dd 24 01 a0 BIT  ZP    A:40 X:d6 Y:d6 P:05 S:f9 pc: f8df, reg_addr: 0001
f8df a0 40 60 LDY  IMM   A:40 X:d6 Y:d6 P:c5 S:f9 pc: f8e1, reg_addr: 0040
f8e1 60 30 07 RTS  IMPL  A:40 X:d6 Y:40 P:45 S:f9 pc: d7af, reg_addr: 0000
d7af cc 78 06 CPY  ABS   A:40 X:d6 Y:40 P:45 S:fb pc: d7b2, reg_addr: 0678
d7b2 20 e2 f8 JSR  ABS   A:40 X:d6 Y:40 P:47 S:fb pc: f8e2, reg_addr: f8e2
f8e2 30 07 90 BMI  REL   A:40 X:d6 Y:40 P:47 S:f9 pc: f8e4, reg_addr: f8eb
f8e4 90 05 d0 BCC  REL   A:40 X:d6 Y:40 P:47 S:f9 pc: f8e6, reg_addr: f8eb
f8e6 d0 03 50 BNE  REL   A:40 X:d6 Y:40 P:47 S:f9 pc: f8e8, reg_addr: f8eb
f8e8 50 01 60 BVC  REL   A:40 X:d6 Y:40 P:47 S:f9 pc: f8ea, reg_addr: f8eb
f8ea 60 86 00 RTS  IMPL  A:40 X:d6 Y:40 P:47 S:f9 pc: d7b5, reg_addr: 0000
d7b5 e8 a9 3f INX  IMPL  A:40 X:d6 Y:40 P:47 S:fb pc: d7b6, reg_addr: 0000
d7b6 a9 3f 8d LDA  IMM   A:40 X:d7 Y:40 P:c5 S:fb pc: d7b8, reg_addr: 003f
d7b8 8d 78 06 STA  ABS   A:3f X:d7 Y:40 P:45 S:fb pc: d7bb, reg_addr: 0678
d7bb 20 ee f8 JSR  ABS   A:3f X:d7 Y:40 P:45 S:fb pc: f8ee, reg_addr: f8ee
f8ee b8 60 f0 CLV  IMPL  A:3f X:d7 Y:40 P:45 S:f9 pc: f8ef, reg_addr: 0000
f8ef 60 f0 07 RTS  IMPL  A:3f X:d7 Y:40 P:05 S:f9 pc: d7be, reg_addr: 0000
d7be cc 78 06 CPY  ABS   A:3f X:d7 Y:40 P:05 S:fb pc: d7c1, reg_addr: 0678
d7c1 20 f0 f8 JSR  ABS   A:3f X:d7 Y:40 P:05 S:fb pc: f8f0, reg_addr: f8f0
f8f0 f0 07 30 BEQ  REL   A:3f X:d7 Y:40 P:05 S:f9 pc: f8f2, reg_addr: f8f9
f8f2 30 05 90 BMI  REL   A:3f X:d7 Y:40 P:05 S:f9 pc: f8f4, reg_addr: f8f9
f8f4 90 03 70 BCC  REL   A:3f X:d7 Y:40 P:05 S:f9 pc: f8f6, reg_addr: f8f9
f8f6 70 01 60 BVS  REL   A:3f X:d7 Y:40 P:05 S:f9 pc: f8f8, reg_addr: f8f9
f8f8 60 86 00 RTS  IMPL  A:3f X:d7 Y:40 P:05 S:f9 pc: d7c4, reg_addr: 0000
d7c4 e8 a9 41 INX  IMPL  A:3f X:d7 Y:40 P:05 S:fb pc: d7c5, reg_addr: 0000
d7c5 a9 41 8d LDA  IMM   A:3f X:d8 Y:40 P:85 S:fb pc: d7c7, reg_addr: 0041
d7c7 8d 78 06 STA  ABS   A:41 X:d8 Y:40 P:05 S:fb pc: d7ca, reg_addr: 0678
d7ca cc 78 06 CPY  ABS   A:41 X:d8 Y:40 P:05 S:fb pc: d7cd, reg_addr: 0678
d7cd 20 fc f8 JSR  ABS   A:41 X:d8 Y:40 P:84 S:fb pc: f8fc, reg_addr: f8fc
f8fc f0 05 10 BEQ  REL   A:41 X:d8 Y:40 P:84 S:f9 pc: f8fe, reg_addr: f903
f8fe 10 03 10 BPL  REL   A:41 X:d8 Y:40 P:84 S:f9 pc: f900, reg_addr: f903
f900 10 01 60 BPL  REL   A:41 X:d8 Y:40 P:84 S:f9 pc: f902, reg_addr: f903
f902 60 86 00 RTS  IMPL  A:41 X:d8 Y:40 P:84 S:f9 pc: d7d0, reg_addr: 0000
d7d0 e8 a9 00 INX  IMPL  A:41 X:d8 Y:40 P:84 S:fb pc: d7d1, reg_addr: 0000
d7d1 a9 00 8d LDA  IMM   A:41 X:d9 Y:40 P:84 S:fb pc: d7d3, reg_addr: 0000
d7d3 8d 78 06 STA  ABS   A:00 X:d9 Y:40 P:06 S:fb pc: d7d6, reg_addr: 0678
d7d6 20 06 f9 JSR  ABS   A:00 X:d9 Y:40 P:06 S:fb pc: f906, reg_addr: f906
f906 a0 80 60 LDY  IMM   A:00 X:d9 Y:40 P:06 S:f9 pc: f908, reg_addr: 0080
f908 60 f0 05 RTS  IMPL  A:00 X:d9 Y:80 P:84 S:f9 pc: d7d9, reg_addr: 0000
d7d9 cc 78 06 CPY  ABS   A:00 X:d9 Y:80 P:84 S:fb pc: d7dc, reg_addr: 0678
d7dc 20 09 f9 JSR  ABS   A:00 X:d9 Y:80 P:85 S:fb pc: f909, reg_addr: f909
f909 f0 05 10 BEQ  REL   A:00 X:d9 Y:80 P:85 S:f9 pc: f90b, reg_addr: f910
f90b 10 03 90 BPL  REL   A:00 X:d9 Y:80 P:85 S:f9 pc: f90d, reg_addr: f910
f90d 90 01 60 BCC  REL   A:00 X:d9 Y:80 P:85 S:f9 pc: f90f, reg_addr: f910
f90f 60 86 00 RTS  IMPL  A:00 X:d9 Y:80 P:85 S:f9 pc: d7df, reg_addr: 0000
d7df e8 a9 80 INX  IMPL  A:00 X:d9 Y:80 P:85 S:fb pc: d7e0, reg_addr: 0000
d7e0 a9 80 8d LDA  IMM   A:00 X:da Y:80 P:85 S:fb pc: d7e2, reg_addr: 0080
d7e2 8d 78 06 STA  ABS   A:80 X:da Y:80 P:85 S:fb pc: d7e5, reg_addr: 0678
d7e5 cc 78 06 CPY  ABS   A:80 X:da Y:80 P:85 S:fb pc: d7e8, reg_addr: 0678
d7e8 20 13 f9 JSR  ABS   A:80 X:da Y:80 P:07 S:fb pc: f913, reg_addr: f913
f913 d0 05 30 BNE  REL   A:80 X:da Y:80 P:07 S:f9 pc: f915, reg_addr: f91a
f915 30 03 90 BMI  REL   A:80 X:da Y:80 P:07 S:f9 pc: f917, reg_addr: f91a
f917 90 01 60 BCC  REL   A:80 X:da Y:80 P:07 S:f9 pc: f919, reg_addr: f91a
f919 60 86 00 RTS  IMPL  A:80 X:da Y:80 P:07 S:f9 pc: d7eb, reg_addr: 0000
d7eb e8 a9 81 INX  IMPL  A:80 X:da Y:80 P:07 S:fb pc: d7ec, reg_addr: 0000
d7ec a9 81 8d LDA  IMM   A:80 X:db Y:80 P:85 S:fb pc: d7ee, reg_addr: 0081
d7ee 8d 78 06 STA  ABS   A:81 X:db Y:80 P:85 S:fb pc: d7f1, reg_addr: 0678
d7f1 cc 78 06 CPY  ABS   A:81 X:db Y:80 P:85 S:fb pc: d7f4, reg_addr: 0678
d7f4 20 1d f9 JSR  ABS   A:81 X:db Y:80 P:84 S:fb pc: f91d, reg_addr: f91d
f91d b0 05 f0 BCS  REL   A:81 X:db Y:80 P:84 S:f9 pc: f91f, reg_addr: f924
f91f f0 03 10 BEQ  REL   A:81 X:db Y:80 P:84 S:f9 pc: f921, reg_addr: f924
f921 10 01 60 BPL  REL   A:81 X:db Y:80 P:84 S:f9 pc: f923, reg_addr: f924
f923 60 86 00 RTS  IMPL  A:81 X:db Y:80 P:84 S:f9 pc: d7f7, reg_addr: 0000
d7f7 e8 a9 7f INX  IMPL  A:81 X:db Y:80 P:84 S:fb pc: d7f8, reg_addr: 0000
d7f8 a9 7f 8d LDA  IMM   A:81 X:dc Y:80 P:84 S:fb pc: d7fa, reg_addr: 007f
d7fa 8d 78 06 STA  ABS   A:7f X:dc Y:80 P:04 S:fb pc: d7fd, reg_addr: 0678
d7fd cc 78 06 CPY  ABS   A:7f X:dc Y:80 P:04 S:fb pc: d800, reg_addr: 0678
d800 20 27 f9 JSR  ABS   A:7f X:dc Y:80 P:05 S:fb pc: f927, reg_addr: f927
f927 90 05 f0 BCC  REL   A:7f X:dc Y:80 P:05 S:f9 pc: f929, reg_addr: f92e
f929 f0 03 30 BEQ  REL   A:7f X:dc Y:80 P:05 S:f9 pc: f92b, reg_addr: f92e
f92b 30 01 60 BMI  REL   A:7f X:dc Y:80 P:05 S:f9 pc: f92d, reg_addr: f92e
f92d 60 86 00 RTS  IMPL  A:7f X:dc Y:80 P:05 S:f9 pc: d803, reg_addr: 0000
d803 e8 8a a8 INX  IMPL  A:7f X:dc Y:80 P:05 S:fb pc: d804, reg_addr: 0000
d804 8a a8 20 TXA  IMPL  A:7f X:dd Y:80 P:85 S:fb pc: d805, reg_addr: 0000
d805 a8 20 90 TAY  IMPL  A:dd X:dd Y:80 P:85 S:fb pc: d806, reg_addr: 0000
d806 20 90 f9 JSR  ABS   A:dd X:dd Y:dd P:85 S:fb pc: f990, reg_addr: f990
f990 a2 55 a9 LDX  IMM   A:dd X:dd Y:dd P:85 S:f9 pc: f992, reg_addr: 0055
f992 a9 ff 85 LDA  IMM   A:dd X:55 Y:dd P:05 S:f9 pc: f994, reg_addr: 00ff
f994 85 01 ea STA  ZP    A:ff X:55 Y:dd P:85 S:f9 pc: f996, reg_addr: 0001
f996 ea 24 01 NOP  IMPL  A:ff X:55 Y:dd P:85 S:f9 pc: f997, reg_addr: 0000
f997 24 01 38 BIT  ZP    A:ff X:55 Y:dd P:85 S:f9 pc: f999, reg_addr: 0001
f999 38 a9 01 SEC  IMPL  A:ff X:55 Y:dd P:c5 S:f9 pc: f99a, reg_addr: 0000
f99a a9 01 60 LDA  IMM   A:ff X:55 Y:dd P:c5 S:f9 pc: f99c, reg_addr: 0001
f99c 60 90 1b RTS  IMPL  A:01 X:55 Y:dd P:45 S:f9 pc: d809, reg_addr: 0000
d809 8d 78 06 STA  ABS   A:01 X:55 Y:dd P:45 S:fb pc: d80c, reg_addr: 0678
d80c 4e 78 06 LSR  ABS   A:01 X:55 Y:dd P:45 S:fb pc: d80f, reg_addr: 0678
d80f ad 78 06 LDA  ABS   A:01 X:55 Y:dd P:47 S:fb pc: d812, reg_addr: 0678
d812 20 9d f9 JSR  ABS   A:00 X:55 Y:dd P:47 S:fb pc: f99d, reg_addr: f99d
f99d 90 1b d0 BCC  REL   A:00 X:55 Y:dd P:47 S:f9 pc: f99f, reg_addr: f9ba
f99f d0 19 30 BNE  REL   A:00 X:55 Y:dd P:47 S:f9 pc: f9a1, reg_addr: f9ba
f9a1 30 17 50 BMI  REL   A:00 X:55 Y:dd P:47 S:f9 pc: f9a3, reg_addr: f9ba
f9a3 50 15 c9 BVC  REL   A:00 X:55 Y:dd P:47 S:f9 pc: f9a5, reg_addr: f9ba
f9a5 c9 00 d0 CMP  IMM   A:00 X:55 Y:dd P:47 S:f9 pc: f9a7, reg_addr: 0000
f9a7 d0 11 b8 BNE  REL   A:00 X:55 Y:dd P:47 S:f9 pc: f9a9, reg_addr: f9ba
f9a9 b8 a9 aa CLV  IMPL  A:00 X:55 Y:dd P:47 S:f9 pc: f9aa, reg_addr: 0000
f9aa a9 aa 60 LDA  IMM   A:00 X:55 Y:dd P:07 S:f9 pc: f9ac, reg_addr: 00aa
f9ac 60 b0 0b RTS  IMPL  A:aa X:55 Y:dd P:85 S:f9 pc: d815, reg_addr: 0000
d815 c8 8d 78 INY  IMPL  A:aa X:55 Y:dd P:85 S:fb pc: d816, reg_addr: 0000
d816 8d 78 06 STA  ABS   A:aa X:55 Y:de P:85 S:fb pc: d819, reg_addr: 0678
d819 4e 78 06 LSR  ABS   A:aa X:55 Y:de P:85 S:fb pc: d81c, reg_addr: 0678
d81c ad 78 06 LDA  ABS   A:aa X:55 Y:de P:04 S:fb pc: d81f, reg_addr: 0678
d81f 20 ad f9 JSR  ABS   A:55 X:55 Y:de P:04 S:fb pc: f9ad, reg_addr: f9ad
f9ad b0 0b f0 BCS  REL   A:55 X:55 Y:de P:04 S:f9 pc: f9af, reg_addr: f9ba
f9af f0 09 30 BEQ  REL   A:55 X:55 Y:de P:04 S:f9 pc: f9b1, reg_addr: f9ba
f9b1 30 07 70 BMI  REL   A:55 X:55 Y:de P:04 S:f9 pc: f9b3, reg_addr: f9ba
f9b3 70 05 c9 BVS  REL   A:55 X:55 Y:de P:04 S:f9 pc: f9b5, reg_addr: f9ba
f9b5 c9 55 d0 CMP  IMM   A:55 X:55 Y:de P:04 S:f9 pc: f9b7, reg_addr: 0055
f9b7 d0 01 60 BNE  REL   A:55 X:55 Y:de P:07 S:f9 pc: f9b9, reg_addr: f9ba
f9b9 60 84 00 RTS  IMPL  A:55 X:55 Y:de P:07 S:f9 pc: d822, reg_addr: 0000
d822 c8 20 bd INY  IMPL  A:55 X:55 Y:de P:07 S:fb pc: d823, reg_addr: 0000
d823 20 bd f9 JSR  ABS   A:55 X:55 Y:df P:85 S:fb pc: f9bd, reg_addr: f9bd
f9bd 24 01 38 BIT  ZP    A:55 X:55 Y:df P:85 S:f9 pc: f9bf, reg_addr: 0001
f9bf 38 a9 80 SEC  IMPL  A:55 X:55 Y:df P:c5 S:f9 pc: f9c0, reg_addr: 0000
f9c0 a9 80 60 LDA  IMM   A:55 X:55 Y:df P:c5 S:f9 pc: f9c2, reg_addr: 0080
f9c2 60 90 1c RTS  IMPL  A:80 X:55 Y:df P:c5 S:f9 pc: d826, reg_addr: 0000
d826 8d 78 06 STA  ABS   A:80 X:55 Y:df P:c5 S:fb pc: d829, reg_addr: 0678
d829 0e 78 06 ASL  ABS   A:80 X:55 Y:df P:c5 S:fb pc: d82c, reg_addr: 0678
d82c ad 78 06 LDA  ABS   A:80 X:55 Y:df P:47 S:fb pc: d82f, reg_addr: 0678
d82f 20 c3 f9 JSR  ABS   A:00 X:55 Y:df P:47 S:fb pc: f9c3, reg_addr: f9c3
f9c3 90 1c d0 BCC  REL   A:00 X:55 Y:df P:47 S:f9 pc: f9c5, reg_addr: f9e1
f9c5 d0 1a 30 BNE  REL   A:00 X:55 Y:df P:47 S:f9 pc: f9c7, reg_addr: f9e1
f9c7 30 18 50 BMI  REL   A:00 X:55 Y:df P:47 S:f9 pc: f9c9, reg_addr: f9e1
f9c9 50 16 c9 BVC  REL   A:00 X:55 Y:df P:47 S:f9 pc: f9cb, reg_addr: f9e1
f9cb c9 00 d0 CMP  IMM   A:00 X:55 Y:df P:47 S:f9 pc: f9cd, reg_addr: 0000
f9cd d0 12 b8 BNE  REL   A:00 X:55 Y:df P:47 S:f9 pc: f9cf, reg_addr: f9e1
f9cf b8 a9 55 CLV  IMPL  A:00 X:55 Y:df P:47 S:f9 pc: f9d0, reg_addr: 0000
f9d0 a9 55 38 LDA  IMM   A:00 X:55 Y:df P:07 S:f9 pc: f9d2, reg_addr: 0055
f9d2 38 60 b0 SEC  IMPL  A:55 X:55 Y:df P:05 S:f9 pc: f9d3, reg_addr: 0000
f9d3 60 b0 0b RTS  IMPL  A:55 X:55 Y:df P:05 S:f9 pc: d832, reg_addr: 0000
d832 c8 8d 78 INY  IMPL  A:55 X:55 Y:df P:05 S:fb pc: d833, reg_addr: 0000
d833 8d 78 06 STA  ABS   A:55 X:55 Y:e0 P:85 S:fb pc: d836, reg_addr: 0678
d836 0e 78 06 ASL  ABS   A:55 X:55 Y:e0 P:85 S:fb pc: d839, reg_addr: 0678
d839 ad 78 06 LDA  ABS   A:55 X:55 Y:e0 P:84 S:fb pc: d83c, reg_addr: 0678
d83c 20 d4 f9 JSR  ABS   A:aa X:55 Y:e0 P:84 S:fb pc: f9d4, reg_addr: f9d4
f9d4 b0 0b f0 BCS  REL   A:aa X:55 Y:e0 P:84 S:f9 pc: f9d6, reg_addr: f9e1
f9d6 f0 09 10 BEQ  REL   A:aa X:55 Y:e0 P:84 S:f9 pc: f9d8, reg_addr: f9e1
f9d8 10 07 70 BPL  REL   A:aa X:55 Y:e0 P:84 S:f9 pc: f9da, reg_addr: f9e1
f9da 70 05 c9 BVS  REL   A:aa X:55 Y:e0 P:84 S:f9 pc: f9dc, reg_addr: f9e1
f9dc c9 aa d0 CMP  IMM   A:aa X:55 Y:e0 P:84 S:f9 pc: f9de, reg_addr: 00aa
f9de d0 01 60 BNE  REL   A:aa X:55 Y:e0 P:07 S:f9 pc: f9e0, reg_addr: f9e1
f9e0 60 84 00 RTS  IMPL  A:aa X:55 Y:e0 P:07 S:f9 pc: d83f, reg_addr: 0000
d83f c8 20 e4 INY  IMPL  A:aa X:55 Y:e0 P:07 S:fb pc: d840, reg_addr: 0000
d840 20 e4 f9 JSR  ABS   A:aa X:55 Y:e1 P:85 S:fb pc: f9e4, reg_addr: f9e4
f9e4 24 01 38 BIT  ZP    A:aa X:55 Y:e1 P:85 S:f9 pc: f9e6, reg_addr: 0001
f9e6 38 a9 01 SEC  IMPL  A:aa X:55 Y:e1 P:c5 S:f9 pc: f9e7, reg_addr: 0000
f9e7 a9 01 60 LDA  IMM   A:aa X:55 Y:e1 P:c5 S:f9 pc: f9e9, reg_addr: 0001
f9e9 60 90 1c RTS  IMPL  A:01 X:55 Y:e1 P:45 S:f9 pc: d843, reg_addr: 0000
d843 8d 78 06 STA  ABS   A:01 X:55 Y:e1 P:45 S:fb pc: d846, reg_addr: 0678
d846 6e 78 06 ROR  ABS   A:01 X:55 Y:e1 P:45 S:fb pc: d849, reg_addr: 0678
d849 ad 78 06 LDA  ABS   A:01 X:55 Y:e1 P:c5 S:fb pc: d84c, reg_addr: 0678
d84c 20 ea f9 JSR  ABS   A:80 X:55 Y:e1 P:c5 S:fb pc: f9ea, reg_addr: f9ea
f9ea 90 1c f0 BCC  REL   A:80 X:55 Y:e1 P:c5 S:f9 pc: f9ec, reg_addr: fa08
f9ec f0 1a 10 BEQ  REL   A:80 X:55 Y:e1 P:c5 S:f9 pc: f9ee, reg_addr: fa08
f9ee 10 18 50 BPL  REL   A:80 X:55 Y:e1 P:c5 S:f9 pc: f9f0, reg_addr: fa08
f9f0 50 16 c9 BVC  REL   A:80 X:55 Y:e1 P:c5 S:f9 pc: f9f2, reg_addr: fa08
f9f2 c9 80 d0 CMP  IMM   A:80 X:55 Y:e1 P:c5 S:f9 pc: f9f4, reg_addr: 0080
f9f4 d0 12 b8 BNE  REL   A:80 X:55 Y:e1 P:47 S:f9 pc: f9f6, reg_addr: fa08
f9f6 b8 18 a9 CLV  IMPL  A:80 X:55 Y:e1 P:47 S:f9 pc: f9f7, reg_addr: 0000
f9f7 18 a9 55 CLC  IMPL  A:80 X:55 Y:e1 P:07 S:f9 pc: f9f8, reg_addr: 0000
f9f8 a9 55 60 LDA  IMM   A:80 X:55 Y:e1 P:06 S:f9 pc: f9fa, reg_addr: 0055
f9fa 60 90 0b RTS  IMPL  A:55 X:55 Y:e1 P:04 S:f9 pc: d84f, reg_addr: 0000
d84f c8 8d 78 INY  IMPL  A:55 X:55 Y:e1 P:04 S:fb pc: d850, reg_addr: 0000
d850 8d 78 06 STA  ABS   A:55 X:55 Y:e2 P:84 S:fb pc: d853, reg_addr: 0678
d853 6e 78 06 ROR  ABS   A:55 X:55 Y:e2 P:84 S:fb pc: d856, reg_addr: 0678
d856 ad 78 06 LDA  ABS   A:55 X:55 Y:e2 P:05 S:fb pc: d859, reg_addr: 0678
d859 20 fb f9 JSR  ABS   A:2a X:55 Y:e2 P:05 S:fb pc: f9fb, reg_addr: f9fb
f9fb 90 0b f0 BCC  REL   A:2a X:55 Y:e2 P:05 S:f9 pc: f9fd, reg_addr: fa08
f9fd f0 09 30 BEQ  REL   A:2a X:55 Y:e2 P:05 S:f9 pc: f9ff, reg_addr: fa08
f9ff 30 07 70 BMI  REL   A:2a X:55 Y:e2 P:05 S:f9 pc: fa01, reg_addr: fa08
fa01 70 05 c9 BVS  REL   A:2a X:55 Y:e2 P:05 S:f9 pc: fa03, reg_addr: fa08
fa03 c9 2a d0 CMP  IMM   A:2a X:55 Y:e2 P:05 S:f9 pc: fa05, reg_addr: 002a
fa05 d0 01 60 BNE  REL   A:2a X:55 Y:e2 P:07 S:f9 pc: fa07, reg_addr: fa08
fa07 60 84 00 RTS  IMPL  A:2a X:55 Y:e2 P:07 S:f9 pc: d85c, reg_addr: 0000
d85c c8 20 0a INY  IMPL  A:2a X:55 Y:e2 P:07 S:fb pc: d85d, reg_addr: 0000
d85d 20 0a fa JSR  ABS   A:2a X:55 Y:e3 P:85 S:fb pc: fa0a, reg_addr: fa0a
fa0a 24 01 38 BIT  ZP    A:2a X:55 Y:e3 P:85 S:f9 pc: fa0c, reg_addr: 0001
fa0c 38 a9 80 SEC  IMPL  A:2a X:55 Y:e3 P:c5 S:f9 pc: fa0d, reg_addr: 0000
fa0d a9 80 60 LDA  IMM   A:2a X:55 Y:e3 P:c5 S:f9 pc: fa0f, reg_addr: 0080
fa0f 60 90 1c RTS  IMPL  A:80 X:55 Y:e3 P:c5 S:f9 pc: d860, reg_addr: 0000
d860 8d 78 06 STA  ABS   A:80 X:55 Y:e3 P:c5 S:fb pc: d863, reg_addr: 0678
d863 2e 78 06 ROL  ABS   A:80 X:55 Y:e3 P:c5 S:fb pc: d866, reg_addr: 0678
d866 ad 78 06 LDA  ABS   A:80 X:55 Y:e3 P:45 S:fb pc: d869, reg_addr: 0678
d869 20 10 fa JSR  ABS   A:01 X:55 Y:e3 P:45 S:fb pc: fa10, reg_addr: fa10
fa10 90 1c f0 BCC  REL   A:01 X:55 Y:e3 P:45 S:f9 pc: fa12, reg_addr: fa2e
fa12 f0 1a 30 BEQ  REL   A:01 X:55 Y:e3 P:45 S:f9 pc: fa14, reg_addr: fa2e
fa14 30 18 50 BMI  REL   A:01 X:55 Y:e3 P:45 S:f9 pc: fa16, reg_addr: fa2e
fa16 50 16 c9 BVC  REL   A:01 X:55 Y:e3 P:45 S:f9 pc: fa18, reg_addr: fa2e
fa18 c9 01 d0 CMP  IMM   A:01 X:55 Y:e3 P:45 S:f9 pc: fa1a, reg_addr: 0001
fa1a d0 12 b8 BNE  REL   A:01 X:55 Y:e3 P:47 S:f9 pc: fa1c, reg_addr: fa2e
fa1c b8 18 a9 CLV  IMPL  A:01 X:55 Y:e3 P:47 S:f9 pc: fa1d, reg_addr: 0000
fa1d 18 a9 55 CLC  IMPL  A:01 X:55 Y:e3 P:07 S:f9 pc: fa1e, reg_addr: 0000
fa1e a9 55 60 LDA  IMM   A:01 X:55 Y:e3 P:06 S:f9 pc: fa20, reg_addr: 0055
fa20 60 b0 0b RTS  IMPL  A:55 X:55 Y:e3 P:04 S:f9 pc: d86c, reg_addr: 0000
d86c c8 8d 78 INY  IMPL  A:55 X:55 Y:e3 P:04 S:fb pc: d86d, reg_addr: 0000
d86d 8d 78 06 STA  ABS   A:55 X:55 Y:e4 P:84 S:fb pc: d870, reg_addr: 0678
d870 2e 78 06 ROL  ABS   A:55 X:55 Y:e4 P:84 S:fb pc: d873, reg_addr: 0678
d873 ad 78 06 LDA  ABS   A:55 X:55 Y:e4 P:84 S:fb pc: d876, reg_addr: 0678
d876 20 21 fa JSR  ABS   A:aa X:55 Y:e4 P:84 S:fb pc: fa21, reg_addr: fa21
fa21 b0 0b f0 BCS  REL   A:aa X:55 Y:e4 P:84 S:f9 pc: fa23, reg_addr: fa2e
fa23 f0 09 10 BEQ  REL   A:aa X:55 Y:e4 P:84 S:f9 pc: fa25, reg_addr: fa2e
fa25 10 07 70 BPL  REL   A:aa X:55 Y:e4 P:84 S:f9 pc: fa27, reg_addr: fa2e
fa27 70 05 c9 BVS  REL   A:aa X:55 Y:e4 P:84 S:f9 pc: fa29, reg_addr: fa2e
fa29 c9 aa d0 CMP  IMM   A:aa X:55 Y:e4 P:84 S:f9 pc: fa2b, reg_addr: 00aa
fa2b d0 01 60 BNE  REL   A:aa X:55 Y:e4 P:07 S:f9 pc: fa2d, reg_addr: fa2e
fa2d 60 84 00 RTS  IMPL  A:aa X:55 Y:e4 P:07 S:f9 pc: d879, reg_addr: 0000
d879 a9 ff 8d LDA  IMM   A:aa X:55 Y:e4 P:07 S:fb pc: d87b, reg_addr: 00ff
d87b 8d 78 06 STA  ABS   A:ff X:55 Y:e4 P:85 S:fb pc: d87e, reg_addr: 0678
d87e 85 01 24 STA  ZP    A:ff X:55 Y:e4 P:85 S:fb pc: d880, reg_addr: 0001
d880 24 01 38 BIT  ZP    A:ff X:55 Y:e4 P:85 S:fb pc: d882, reg_addr: 0001
d882 38 ee 78 SEC  IMPL  A:ff X:55 Y:e4 P:c5 S:fb pc: d883, reg_addr: 0000
d883 ee 78 06 INC  ABS   A:ff X:55 Y:e4 P:c5 S:fb pc: d886, reg_addr: 0678
d886 d0 0d 30 BNE  REL   A:ff X:55 Y:e4 P:47 S:fb pc: d888, reg_addr: d895
d888 30 0b 50 BMI  REL   A:ff X:55 Y:e4 P:47 S:fb pc: d88a, reg_addr: d895
d88a 50 09 90 BVC  REL   A:ff X:55 Y:e4 P:47 S:fb pc: d88c, reg_addr: d895
d88c 90 07 ad BCC  REL   A:ff X:55 Y:e4 P:47 S:fb pc: d88e, reg_addr: d895
d88e ad 78 06 LDA  ABS   A:ff X:55 Y:e4 P:47 S:fb pc: d891, reg_addr: 0678
d891 c9 00 f0 CMP  IMM   A:00 X:55 Y:e4 P:47 S:fb pc: d893, reg_addr: 0000
d893 f0 04 a9 BEQ  REL   A:00 X:55 Y:e4 P:47 S:fb pc: d899, reg_addr: d899
d899 a9 7f 8d LDA  IMM   A:00 X:55 Y:e4 P:47 S:fb pc: d89b, reg_addr: 007f
d89b 8d 78 06 STA  ABS   A:7f X:55 Y:e4 P:45 S:fb pc: d89e, reg_addr: 0678
d89e b8 18 ee CLV  IMPL  A:7f X:55 Y:e4 P:45 S:fb pc: d89f, reg_addr: 0000
d89f 18 ee 78 CLC  IMPL  A:7f X:55 Y:e4 P:05 S:fb pc: d8a0, reg_addr: 0000
d8a0 ee 78 06 INC  ABS   A:7f X:55 Y:e4 P:04 S:fb pc: d8a3, reg_addr: 0678
d8a3 f0 0d 10 BEQ  REL   A:7f X:55 Y:e4 P:84 S:fb pc: d8a5, reg_addr: d8b2
d8a5 10 0b 70 BPL  REL   A:7f X:55 Y:e4 P:84 S:fb pc: d8a7, reg_addr: d8b2
d8a7 70 09 b0 BVS  REL   A:7f X:55 Y:e4 P:84 S:fb pc: d8a9, reg_addr: d8b2
d8a9 b0 07 ad BCS  REL   A:7f X:55 Y:e4 P:84 S:fb pc: d8ab, reg_addr: d8b2
d8ab ad 78 06 LDA  ABS   A:7f X:55 Y:e4 P:84 S:fb pc: d8ae, reg_addr: 0678
d8ae c9 80 f0 CMP  IMM   A:80 X:55 Y:e4 P:84 S:fb pc: d8b0, reg_addr: 0080
d8b0 f0 04 a9 BEQ  REL   A:80 X:55 Y:e4 P:07 S:fb pc: d8b6, reg_addr: d8b6
d8b6 a9 00 8d LDA  IMM   A:80 X:55 Y:e4 P:07 S:fb pc: d8b8, reg_addr: 0000
d8b8 8d 78 06 STA  ABS   A:00 X:55 Y:e4 P:07 S:fb pc: d8bb, reg_addr: 0678
d8bb 24 01 38 BIT  ZP    A:00 X:55 Y:e4 P:07 S:fb pc: d8bd, reg_addr: 0001
d8bd 38 ce 78 SEC  IMPL  A:00 X:55 Y:e4 P:c7 S:fb pc: d8be, reg_addr: 0000
d8be ce 78 06 DEC  ABS   A:00 X:55 Y:e4 P:c7 S:fb pc: d8c1, reg_addr: 0678
d8c1 f0 0d 10 BEQ  REL   A:00 X:55 Y:e4 P:c5 S:fb pc: d8c3, reg_addr: d8d0
d8c3 10 0b 50 BPL  REL   A:00 X:55 Y:e4 P:c5 S:fb pc: d8c5, reg_addr: d8d0
d8c5 50 09 90 BVC  REL   A:00 X:55 Y:e4 P:c5 S:fb pc: d8c7, reg_addr: d8d0
d8c7 90 07 ad BCC  REL   A:00 X:55 Y:e4 P:c5 S:fb pc: d8c9, reg_addr: d8d0
d8c9 ad 78 06 LDA  ABS   A:00 X:55 Y:e4 P:c5 S:fb pc: d8cc, reg_addr: 0678
d8cc c9 ff f0 CMP  IMM   A:ff X:55 Y:e4 P:c5 S:fb pc: d8ce, reg_addr: 00ff
d8ce f0 04 a9 BEQ  REL   A:ff X:55 Y:e4 P:47 S:fb pc: d8d4, reg_addr: d8d4
d8d4 a9 80 8d LDA  IMM   A:ff X:55 Y:e4 P:47 S:fb pc: d8d6, reg_addr: 0080
d8d6 8d 78 06 STA  ABS   A:80 X:55 Y:e4 P:c5 S:fb pc: d8d9, reg_addr: 0678
d8d9 b8 18 ce CLV  IMPL  A:80 X:55 Y:e4 P:c5 S:fb pc: d8da, reg_addr: 0000
d8da 18 ce 78 CLC  IMPL  A:80 X:55 Y:e4 P:85 S:fb pc: d8db, reg_addr: 0000
d8db ce 78 06 DEC  ABS   A:80 X:55 Y:e4 P:84 S:fb pc: d8de, reg_addr: 0678
d8de f0 0d 30 BEQ  REL   A:80 X:55 Y:e4 P:04 S:fb pc: d8e0, reg_addr: d8ed
d8e0 30 0b 70 BMI  REL   A:80 X:55 Y:e4 P:04 S:fb pc: d8e2, reg_addr: d8ed
d8e2 70 09 b0 BVS  REL   A:80 X:55 Y:e4 P:04 S:fb pc: d8e4, reg_addr: d8ed
d8e4 b0 07 ad BCS  REL   A:80 X:55 Y:e4 P:04 S:fb pc: d8e6, reg_addr: d8ed
d8e6 ad 78 06 LDA  ABS   A:80 X:55 Y:e4 P:04 S:fb pc: d8e9, reg_addr: 0678
d8e9 c9 7f f0 CMP  IMM   A:7f X:55 Y:e4 P:04 S:fb pc: d8eb, reg_addr: 007f
d8eb f0 04 a9 BEQ  REL   A:7f X:55 Y:e4 P:07 S:fb pc: d8f1, reg_addr: d8f1
d8f1 a9 01 8d LDA  IMM   A:7f X:55 Y:e4 P:07 S:fb pc: d8f3, reg_addr: 0001
d8f3 8d 78 06 STA  ABS   A:01 X:55 Y:e4 P:05 S:fb pc: d8f6, reg_addr: 0678
d8f6 ce 78 06 DEC  ABS   A:01 X:55 Y:e4 P:05 S:fb pc: d8f9, reg_addr: 0678
d8f9 f0 04 a9 BEQ  REL   A:01 X:55 Y:e4 P:07 S:fb pc: d8ff, reg_addr: d8ff
d8ff 60 a9 a3 RTS  IMPL  A:01 X:55 Y:e4 P:07 S:fb pc: c618, reg_addr: 0000
c618 20 00 d9 JSR  ABS   A:01 X:55 Y:e4 P:07 S:fd pc: d900, reg_addr: d900
d900 a9 a3 85 LDA  IMM   A:01 X:55 Y:e4 P:07 S:fb pc: d902, reg_addr: 00a3
d902 85 33 a9 STA  ZP    A:a3 X:55 Y:e4 P:85 S:fb pc: d904, reg_addr: 0033
d904 a9 89 8d LDA  IMM   A:a3 X:55 Y:e4 P:85 S:fb pc: d906, reg_addr: 0089
d906 8d 00 03 STA  ABS   A:89 X:55 Y:e4 P:85 S:fb pc: d909, reg_addr: 0300
d909 a9 12 8d LDA  IMM   A:89 X:55 Y:e4 P:85 S:fb pc: d90b, reg_addr: 0012
d90b 8d 45 02 STA  ABS   A:12 X:55 Y:e4 P:05 S:fb pc: d90e, reg_addr: 0245
d90e a9 ff 85 LDA  IMM   A:12 X:55 Y:e4 P:05 S:fb pc: d910, reg_addr: 00ff
d910 85 01 a2 STA  ZP    A:ff X:55 Y:e4 P:85 S:fb pc: d912, reg_addr: 0001
d912 a2 65 a9 LDX  IMM   A:ff X:55 Y:e4 P:85 S:fb pc: d914, reg_addr: 0065
d914 a9 00 85 LDA  IMM   A:ff X:65 Y:e4 P:05 S:fb pc: d916, reg_addr: 0000
d916 85 89 a9 STA  ZP    A:00 X:65 Y:e4 P:07 S:fb pc: d918, reg_addr: 0089
d918 a9 03 85 LDA  IMM   A:00 X:65 Y:e4 P:07 S:fb pc: d91a, reg_addr: 0003
d91a 85 8a a0 STA  ZP    A:03 X:65 Y:e4 P:05 S:fb pc: d91c, reg_addr: 008a
d91c a0 00 38 LDY  IMM   A:03 X:65 Y:e4 P:05 S:fb pc: d91e, reg_addr: 0000
d91e 38 a9 00 SEC  IMPL  A:03 X:65 Y:00 P:07 S:fb pc: d91f, reg_addr: 0000
d91f a9 00 b8 LDA  IMM   A:03 X:65 Y:00 P:07 S:fb pc: d921, reg_addr: 0000
d921 b8 b1 89 CLV  IMPL  A:00 X:65 Y:00 P:07 S:fb pc: d922, reg_addr: 0000
d922 b1 89 f0 LDA  INDY  A:00 X:65 Y:00 P:07 S:fb pc: d924, reg_addr: 0300
d924 f0 0c 90 BEQ  REL   A:89 X:65 Y:00 P:85 S:fb pc: d926, reg_addr: d932
d926 90 0a 70 BCC  REL   A:89 X:65 Y:00 P:85 S:fb pc: d928, reg_addr: d932
d928 70 08 c9 BVS  REL   A:89 X:65 Y:00 P:85 S:fb pc: d92a, reg_addr: d932
d92a c9 89 d0 CMP  IMM   A:89 X:65 Y:00 P:85 S:fb pc: d92c, reg_addr: 0089
d92c d0 04 e0 BNE  REL   A:89 X:65 Y:00 P:07 S:fb pc: d92e, reg_addr: d932
d92e e0 65 f0 CPX  IMM   A:89 X:65 Y:00 P:07 S:fb pc: d930, reg_addr: 0065
d930 f0 04 a9 BEQ  REL   A:89 X:65 Y:00 P:07 S:fb pc: d936, reg_addr: d936
d936 a9 ff 85 LDA  IMM   A:89 X:65 Y:00 P:07 S:fb pc: d938, reg_addr: 00ff
d938 85 97 85 STA  ZP    A:ff X:65 Y:00 P:85 S:fb pc: d93a, reg_addr: 0097
d93a 85 98 24 STA  ZP    A:ff X:65 Y:00 P:85 S:fb pc: d93c, reg_addr: 0098
d93c 24 98 a0 BIT  ZP    A:ff X:65 Y:00 P:85 S:fb pc: d93e, reg_addr: 0098
d93e a0 34 b1 LDY  IMM   A:ff X:65 Y:00 P:c5 S:fb pc: d940, reg_addr: 0034
d940 b1 97 c9 LDA  INDY  A:ff X:65 Y:34 P:45 S:fb pc: d942, reg_addr: 0033
d942 c9 a3 d0 CMP  IMM   A:a3 X:65 Y:34 P:c5 S:fb pc: d944, reg_addr: 00a3
d944 d0 02 b0 BNE  REL   A:a3 X:65 Y:34 P:47 S:fb pc: d946, reg_addr: d948
d946 b0 04 a9 BCS  REL   A:a3 X:65 Y:34 P:47 S:fb pc: d94c, reg_addr: d94c
d94c a5 00 48 LDA  ZP    A:a3 X:65 Y:34 P:47 S:fb pc: d94e, reg_addr: 0000
d94e 48 a9 46 PHA  IMPL  A:00 X:65 Y:34 P:47 S:fb pc: d94f, reg_addr: 0000
d94f a9 46 85 LDA  IMM   A:00 X:65 Y:34 P:47 S:fa pc: d951, reg_addr: 0046
d951 85 ff a9 STA  ZP    A:46 X:65 Y:34 P:45 S:fa pc: d953, reg_addr: 00ff
d953 a9 01 85 LDA  IMM   A:46 X:65 Y:34 P:45 S:fa pc: d955, reg_addr: 0001
d955 85 00 a0 STA  ZP    A:01 X:65 Y:34 P:45 S:fa pc: d957, reg_addr: 0000
d957 a0 ff b1 LDY  IMM   A:01 X:65 Y:34 P:45 S:fa pc: d959, reg_addr: 00ff
d959 b1 ff c9 LDA  INDY  A:01 X:65 Y:ff P:c5 S:fa pc: d95b, reg_addr: 0245
d95b c9 12 f0 CMP  IMM   A:12 X:65 Y:ff P:45 S:fa pc: d95d, reg_addr: 0012
d95d f0 04 68 BEQ  REL   A:12 X:65 Y:ff P:47 S:fa pc: d963, reg_addr: d963
d963 68 85 00 PLA  IMPL  A:12 X:65 Y:ff P:47 S:fa pc: d964, reg_addr: 0000
d964 85 00 a2 STA  ZP    A:00 X:65 Y:ff P:47 S:fb pc: d966, reg_addr: 0000
d966 a2 ed a9 LDX  IMM   A:00 X:65 Y:ff P:47 S:fb pc: d968, reg_addr: 00ed
d968 a9 00 85 LDA  IMM   A:00 X:ed Y:ff P:c5 S:fb pc: d96a, reg_addr: 0000
d96a 85 33 a9 STA  ZP    A:00 X:ed Y:ff P:47 S:fb pc: d96c, reg_addr: 0033
d96c a9 04 85 LDA  IMM   A:00 X:ed Y:ff P:47 S:fb pc: d96e, reg_addr: 0004
d96e 85 34 a0 STA  ZP    A:04 X:ed Y:ff P:45 S:fb pc: d970, reg_addr: 0034
d970 a0 00 18 LDY  IMM   A:04 X:ed Y:ff P:45 S:fb pc: d972, reg_addr: 0000
d972 18 a9 ff CLC  IMPL  A:04 X:ed Y:00 P:47 S:fb pc: d973, reg_addr: 0000
d973 a9 ff 85 LDA  IMM   A:04 X:ed Y:00 P:46 S:fb pc: d975, reg_addr: 00ff
d975 85 01 24 STA  ZP    A:ff X:ed Y:00 P:c4 S:fb pc: d977, reg_addr: 0001
d977 24 01 a9 BIT  ZP    A:ff X:ed Y:00 P:c4 S:fb pc: d979, reg_addr: 0001
d979 a9 aa 8d LDA  IMM   A:ff X:ed Y:00 P:c4 S:fb pc: d97b, reg_addr: 00aa
d97b 8d 00 04 STA  ABS   A:aa X:ed Y:00 P:c4 S:fb pc: d97e, reg_addr: 0400
d97e a9 55 11 LDA  IMM   A:aa X:ed Y:00 P:c4 S:fb pc: d980, reg_addr: 0055
d980 11 33 b0 ORA  INDY  A:55 X:ed Y:00 P:44 S:fb pc: d982, reg_addr: 0400
d982 b0 08 10 BCS  REL   A:ff X:ed Y:00 P:c4 S:fb pc: d984, reg_addr: d98c
d984 10 06 c9 BPL  REL   A:ff X:ed Y:00 P:c4 S:fb pc: d986, reg_addr: d98c
d986 c9 ff d0 CMP  IMM   A:ff X:ed Y:00 P:c4 S:fb pc: d988, reg_addr: 00ff
d988 d0 02 70 BNE  REL   A:ff X:ed Y:00 P:47 S:fb pc: d98a, reg_addr: d98c
d98a 70 02 86 BVS  REL   A:ff X:ed Y:00 P:47 S:fb pc: d98e, reg_addr: d98e
d98e e8 38 b8 INX  IMPL  A:ff X:ed Y:00 P:47 S:fb pc: d98f, reg_addr: 0000
d98f 38 b8 a9 SEC  IMPL  A:ff X:ee Y:00 P:c5 S:fb pc: d990, reg_addr: 0000
d990 b8 a9 00 CLV  IMPL  A:ff X:ee Y:00 P:c5 S:fb pc: d991, reg_addr: 0000
d991 a9 00 11 LDA  IMM   A:ff X:ee Y:00 P:85 S:fb pc: d993, reg_addr: 0000
d993 11 33 f0 ORA  INDY  A:00 X:ee Y:00 P:07 S:fb pc: d995, reg_addr: 0400
d995 f0 06 70 BEQ  REL   A:aa X:ee Y:00 P:85 S:fb pc: d997, reg_addr: d99d
d997 70 04 90 BVS  REL   A:aa X:ee Y:00 P:85 S:fb pc: d999, reg_addr: d99d
d999 90 02 30 BCC  REL   A:aa X:ee Y:00 P:85 S:fb pc: d99b, reg_addr: d99d
d99b 30 02 86 BMI  REL   A:aa X:ee Y:00 P:85 S:fb pc: d99f, reg_addr: d99f
d99f e8 18 24 INX  IMPL  A:aa X:ee Y:00 P:85 S:fb pc: d9a0, reg_addr: 0000
d9a0 18 24 01 CLC  IMPL  A:aa X:ef Y:00 P:85 S:fb pc: d9a1, reg_addr: 0000
d9a1 24 01 a9 BIT  ZP    A:aa X:ef Y:00 P:84 S:fb pc: d9a3, reg_addr: 0001
d9a3 a9 55 31 LDA  IMM   A:aa X:ef Y:00 P:c4 S:fb pc: d9a5, reg_addr: 0055
d9a5 31 33 d0 AND  INDY  A:55 X:ef Y:00 P:44 S:fb pc: d9a7, reg_addr: 0400
d9a7 d0 06 50 BNE  REL   A:00 X:ef Y:00 P:46 S:fb pc: d9a9, reg_addr: d9af
d9a9 50 04 b0 BVC  REL   A:00 X:ef Y:00 P:46 S:fb pc: d9ab, reg_addr: d9af
d9ab b0 02 10 BCS  REL   A:00 X:ef Y:00 P:46 S:fb pc: d9ad, reg_addr: d9af
d9ad 10 02 86 BPL  REL   A:00 X:ef Y:00 P:46 S:fb pc: d9b1, reg_addr: d9b1
d9b1 e8 38 b8 INX  IMPL  A:00 X:ef Y:00 P:46 S:fb pc: d9b2, reg_addr: 0000
d9b2 38 b8 a9 SEC  IMPL  A:00 X:f0 Y:00 P:c4 S:fb pc: d9b3, reg_addr: 0000
d9b3 b8 a9 ef CLV  IMPL  A:00 X:f0 Y:00 P:c5 S:fb pc: d9b4, reg_addr: 0000
d9b4 a9 ef 8d LDA  IMM   A:00 X:f0 Y:00 P:85 S:fb pc: d9b6, reg_addr: 00ef
d9b6 8d 00 04 STA  ABS   A:ef X:f0 Y:00 P:85 S:fb pc: d9b9, reg_addr: 0400
d9b9 a9 f8 31 LDA  IMM   A:ef X:f0 Y:00 P:85 S:fb pc: d9bb, reg_addr: 00f8
d9bb 31 33 90 AND  INDY  A:f8 X:f0 Y:00 P:85 S:fb pc: d9bd, reg_addr: 0400
d9bd 90 08 10 BCC  REL   A:e8 X:f0 Y:00 P:85 S:fb pc: d9bf, reg_addr: d9c7
d9bf 10 06 c9 BPL  REL   A:e8 X:f0 Y:00 P:85 S:fb pc: d9c1, reg_addr: d9c7
d9c1 c9 e8 d0 CMP  IMM   A:e8 X:f0 Y:00 P:85 S:fb pc: d9c3, reg_addr: 00e8
d9c3 d0 02 50 BNE  REL   A:e8 X:f0 Y:00 P:07 S:fb pc: d9c5, reg_addr: d9c7
d9c5 50 02 86 BVC  REL   A:e8 X:f0 Y:00 P:07 S:fb pc: d9c9, reg_addr: d9c9
d9c9 e8 18 24 INX  IMPL  A:e8 X:f0 Y:00 P:07 S:fb pc: d9ca, reg_addr: 0000
d9ca 18 24 01 CLC  IMPL  A:e8 X:f1 Y:00 P:85 S:fb pc: d9cb, reg_addr: 0000
d9cb 24 01 a9 BIT  ZP    A:e8 X:f1 Y:00 P:84 S:fb pc: d9cd, reg_addr: 0001
d9cd a9 aa 8d LDA  IMM   A:e8 X:f1 Y:00 P:c4 S:fb pc: d9cf, reg_addr: 00aa
d9cf 8d 00 04 STA  ABS   A:aa X:f1 Y:00 P:c4 S:fb pc: d9d2, reg_addr: 0400
d9d2 a9 5f 51 LDA  IMM   A:aa X:f1 Y:00 P:c4 S:fb pc: d9d4, reg_addr: 005f
d9d4 51 33 b0 EOR  INDY  A:5f X:f1 Y:00 P:44 S:fb pc: d9d6, reg_addr: 0400
d9d6 b0 08 10 BCS  REL   A:f5 X:f1 Y:00 P:c4 S:fb pc: d9d8, reg_addr: d9e0
d9d8 10 06 c9 BPL  REL   A:f5 X:f1 Y:00 P:c4 S:fb pc: d9da, reg_addr: d9e0
d9da c9 f5 d0 CMP  IMM   A:f5 X:f1 Y:00 P:c4 S:fb pc: d9dc, reg_addr: 00f5
d9dc d0 02 70 BNE  REL   A:f5 X:f1 Y:00 P:47 S:fb pc: d9de, reg_addr: d9e0
d9de 70 02 86 BVS  REL   A:f5 X:f1 Y:00 P:47 S:fb pc: d9e2, reg_addr: d9e2
d9e2 e8 38 b8 INX  IMPL  A:f5 X:f1 Y:00 P:47 S:fb pc: d9e3, reg_addr: 0000
d9e3 38 b8 a9 SEC  IMPL  A:f5 X:f2 Y:00 P:c5 S:fb pc: d9e4, reg_addr: 0000
d9e4 b8 a9 70 CLV  IMPL  A:f5 X:f2 Y:00 P:c5 S:fb pc: d9e5, reg_addr: 0000
d9e5 a9 70 8d LDA  IMM   A:f5 X:f2 Y:00 P:85 S:fb pc: d9e7, reg_addr: 0070
d9e7 8d 00 04 STA  ABS   A:70 X:f2 Y:00 P:05 S:fb pc: d9ea, reg_addr: 0400
d9ea 51 33 d0 EOR  INDY  A:70 X:f2 Y:00 P:05 S:fb pc: d9ec, reg_addr: 0400
d9ec d0 06 70 BNE  REL   A:00 X:f2 Y:00 P:07 S:fb pc: d9ee, reg_addr: d9f4
d9ee 70 04 90 BVS  REL   A:00 X:f2 Y:00 P:07 S:fb pc: d9f0, reg_addr: d9f4
d9f0 90 02 10 BCC  REL   A:00 X:f2 Y:00 P:07 S:fb pc: d9f2, reg_addr: d9f4
d9f2 10 02 86 BPL  REL   A:00 X:f2 Y:00 P:07 S:fb pc: d9f6, reg_addr: d9f6
d9f6 e8 18 24 INX  IMPL  A:00 X:f2 Y:00 P:07 S:fb pc: d9f7, reg_addr: 0000
d9f7 18 24 01 CLC  IMPL  A:00 X:f3 Y:00 P:85 S:fb pc: d9f8, reg_addr: 0000
d9f8 24 01 a9 BIT  ZP    A:00 X:f3 Y:00 P:84 S:fb pc: d9fa, reg_addr: 0001
d9fa a9 69 8d LDA  IMM   A:00 X:f3 Y:00 P:c6 S:fb pc: d9fc, reg_addr: 0069
d9fc 8d 00 04 STA  ABS   A:69 X:f3 Y:00 P:44 S:fb pc: d9ff, reg_addr: 0400
d9ff a9 00 71 LDA  IMM   A:69 X:f3 Y:00 P:44 S:fb pc: da01, reg_addr: 0000
da01 71 33 30 ADC  INDY  A:00 X:f3 Y:00 P:46 S:fb pc: da03, reg_addr: 0400
da03 30 08 b0 BMI  REL   A:69 X:f3 Y:00 P:04 S:fb pc: da05, reg_addr: da0d
da05 b0 06 c9 BCS  REL   A:69 X:f3 Y:00 P:04 S:fb pc: da07, reg_addr: da0d
da07 c9 69 d0 CMP  IMM   A:69 X:f3 Y:00 P:04 S:fb pc: da09, reg_addr: 0069
da09 d0 02 50 BNE  REL   A:69 X:f3 Y:00 P:07 S:fb pc: da0b, reg_addr: da0d
da0b 50 02 86 BVC  REL   A:69 X:f3 Y:00 P:07 S:fb pc: da0f, reg_addr: da0f
da0f e8 38 24 INX  IMPL  A:69 X:f3 Y:00 P:07 S:fb pc: da10, reg_addr: 0000
da10 38 24 01 SEC  IMPL  A:69 X:f4 Y:00 P:85 S:fb pc: da11, reg_addr: 0000
da11 24 01 a9 BIT  ZP    A:69 X:f4 Y:00 P:85 S:fb pc: da13, reg_addr: 0001
da13 a9 00 71 LDA  IMM   A:69 X:f4 Y:00 P:c5 S:fb pc: da15, reg_addr: 0000
da15 71 33 30 ADC  INDY  A:00 X:f4 Y:00 P:47 S:fb pc: da17, reg_addr: 0400
da17 30 08 b0 BMI  REL   A:6a X:f4 Y:00 P:04 S:fb pc: da19, reg_addr: da21
da19 b0 06 c9 BCS  REL   A:6a X:f4 Y:00 P:04 S:fb pc: da1b, reg_addr: da21
da1b c9 6a d0 CMP  IMM   A:6a X:f4 Y:00 P:04 S:fb pc: da1d, reg_addr: 006a
da1d d0 02 50 BNE  REL   A:6a X:f4 Y:00 P:07 S:fb pc: da1f, reg_addr: da21
da1f 50 02 86 BVC  REL   A:6a X:f4 Y:00 P:07 S:fb pc: da23, reg_addr: da23
da23 e8 38 b8 INX  IMPL  A:6a X:f4 Y:00 P:07 S:fb pc: da24, reg_addr: 0000
da24 38 b8 a9 SEC  IMPL  A:6a X:f5 Y:00 P:85 S:fb pc: da25, reg_addr: 0000
da25 b8 a9 7f CLV  IMPL  A:6a X:f5 Y:00 P:85 S:fb pc: da26, reg_addr: 0000
da26 a9 7f 8d LDA  IMM   A:6a X:f5 Y:00 P:85 S:fb pc: da28, reg_addr: 007f
da28 8d 00 04 STA  ABS   A:7f X:f5 Y:00 P:05 S:fb pc: da2b, reg_addr: 0400
da2b 71 33 10 ADC  INDY  A:7f X:f5 Y:00 P:05 S:fb pc: da2d, reg_addr: 0400
da2d 10 08 b0 BPL  REL   A:ff X:f5 Y:00 P:c4 S:fb pc: da2f, reg_addr: da37
da2f b0 06 c9 BCS  REL   A:ff X:f5 Y:00 P:c4 S:fb pc: da31, reg_addr: da37
da31 c9 ff d0 CMP  IMM   A:ff X:f5 Y:00 P:c4 S:fb pc: da33, reg_addr: 00ff
da33 d0 02 70 BNE  REL   A:ff X:f5 Y:00 P:47 S:fb pc: da35, reg_addr: da37
da35 70 02 86 BVS  REL   A:ff X:f5 Y:00 P:47 S:fb pc: da39, reg_addr: da39
da39 e8 18 24 INX  IMPL  A:ff X:f5 Y:00 P:47 S:fb pc: da3a, reg_addr: 0000
da3a 18 24 01 CLC  IMPL  A:ff X:f6 Y:00 P:c5 S:fb pc: da3b, reg_addr: 0000
da3b 24 01 a9 BIT  ZP    A:ff X:f6 Y:00 P:c4 S:fb pc: da3d, reg_addr: 0001
da3d a9 80 8d LDA  IMM   A:ff X:f6 Y:00 P:c4 S:fb pc: da3f, reg_addr: 0080
da3f 8d 00 04 STA  ABS   A:80 X:f6 Y:00 P:c4 S:fb pc: da42, reg_addr: 0400
da42 a9 7f 71 LDA  IMM   A:80 X:f6 Y:00 P:c4 S:fb pc: da44, reg_addr: 007f
da44 71 33 10 ADC  INDY  A:7f X:f6 Y:00 P:44 S:fb pc: da46, reg_addr: 0400
da46 10 08 b0 BPL  REL   A:ff X:f6 Y:00 P:84 S:fb pc: da48, reg_addr: da50
da48 b0 06 c9 BCS  REL   A:ff X:f6 Y:00 P:84 S:fb pc: da4a, reg_addr: da50
da4a c9 ff d0 CMP  IMM   A:ff X:f6 Y:00 P:84 S:fb pc: da4c, reg_addr: 00ff
da4c d0 02 50 BNE  REL   A:ff X:f6 Y:00 P:07 S:fb pc: da4e, reg_addr: da50
da4e 50 02 86 BVC  REL   A:ff X:f6 Y:00 P:07 S:fb pc: da52, reg_addr: da52
da52 e8 38 b8 INX  IMPL  A:ff X:f6 Y:00 P:07 S:fb pc: da53, reg_addr: 0000
da53 38 b8 a9 SEC  IMPL  A:ff X:f7 Y:00 P:85 S:fb pc: da54, reg_addr: 0000
da54 b8 a9 80 CLV  IMPL  A:ff X:f7 Y:00 P:85 S:fb pc: da55, reg_addr: 0000
da55 a9 80 8d LDA  IMM   A:ff X:f7 Y:00 P:85 S:fb pc: da57, reg_addr: 0080
da57 8d 00 04 STA  ABS   A:80 X:f7 Y:00 P:85 S:fb pc: da5a, reg_addr: 0400
da5a a9 7f 71 LDA  IMM   A:80 X:f7 Y:00 P:85 S:fb pc: da5c, reg_addr: 007f
da5c 71 33 d0 ADC  INDY  A:7f X:f7 Y:00 P:05 S:fb pc: da5e, reg_addr: 0400
da5e d0 06 30 BNE  REL   A:00 X:f7 Y:00 P:07 S:fb pc: da60, reg_addr: da66
da60 30 04 70 BMI  REL   A:00 X:f7 Y:00 P:07 S:fb pc: da62, reg_addr: da66
da62 70 02 b0 BVS  REL   A:00 X:f7 Y:00 P:07 S:fb pc: da64, reg_addr: da66
da64 b0 02 86 BCS  REL   A:00 X:f7 Y:00 P:07 S:fb pc: da68, reg_addr: da68
da68 e8 24 01 INX  IMPL  A:00 X:f7 Y:00 P:07 S:fb pc: da69, reg_addr: 0000
da69 24 01 a9 BIT  ZP    A:00 X:f8 Y:00 P:85 S:fb pc: da6b, reg_addr: 0001
da6b a9 40 8d LDA  IMM   A:00 X:f8 Y:00 P:c7 S:fb pc: da6d, reg_addr: 0040
da6d 8d 00 04 STA  ABS   A:40 X:f8 Y:00 P:45 S:fb pc: da70, reg_addr: 0400
da70 d1 33 30 CMP  INDY  A:40 X:f8 Y:00 P:45 S:fb pc: da72, reg_addr: 0400
da72 30 06 90 BMI  REL   A:40 X:f8 Y:00 P:47 S:fb pc: da74, reg_addr: da7a
da74 90 04 d0 BCC  REL   A:40 X:f8 Y:00 P:47 S:fb pc: da76, reg_addr: da7a
da76 d0 02 70 BNE  REL   A:40 X:f8 Y:00 P:47 S:fb pc: da78, reg_addr: da7a
da78 70 02 86 BVS  REL   A:40 X:f8 Y:00 P:47 S:fb pc: da7c, reg_addr: da7c
da7c e8 b8 ce INX  IMPL  A:40 X:f8 Y:00 P:47 S:fb pc: da7d, reg_addr: 0000
da7d b8 ce 00 CLV  IMPL  A:40 X:f9 Y:00 P:c5 S:fb pc: da7e, reg_addr: 0000
da7e ce 00 04 DEC  ABS   A:40 X:f9 Y:00 P:85 S:fb pc: da81, reg_addr: 0400
da81 d1 33 f0 CMP  INDY  A:40 X:f9 Y:00 P:05 S:fb pc: da83, reg_addr: 0400
da83 f0 06 30 BEQ  REL   A:40 X:f9 Y:00 P:05 S:fb pc: da85, reg_addr: da8b
da85 30 04 90 BMI  REL   A:40 X:f9 Y:00 P:05 S:fb pc: da87, reg_addr: da8b
da87 90 02 50 BCC  REL   A:40 X:f9 Y:00 P:05 S:fb pc: da89, reg_addr: da8b
da89 50 02 86 BVC  REL   A:40 X:f9 Y:00 P:05 S:fb pc: da8d, reg_addr: da8d
da8d e8 ee 00 INX  IMPL  A:40 X:f9 Y:00 P:05 S:fb pc: da8e, reg_addr: 0000
da8e ee 00 04 INC  ABS   A:40 X:fa Y:00 P:85 S:fb pc: da91, reg_addr: 0400
da91 ee 00 04 INC  ABS   A:40 X:fa Y:00 P:05 S:fb pc: da94, reg_addr: 0400
da94 d1 33 f0 CMP  INDY  A:40 X:fa Y:00 P:05 S:fb pc: da96, reg_addr: 0400
da96 f0 02 30 BEQ  REL   A:40 X:fa Y:00 P:84 S:fb pc: da98, reg_addr: da9a
da98 30 02 86 BMI  REL   A:40 X:fa Y:00 P:84 S:fb pc: da9c, reg_addr: da9c
da9c e8 a9 00 INX  IMPL  A:40 X:fa Y:00 P:84 S:fb pc: da9d, reg_addr: 0000
da9d a9 00 8d LDA  IMM   A:40 X:fb Y:00 P:84 S:fb pc: da9f, reg_addr: 0000
da9f 8d 00 04 STA  ABS   A:00 X:fb Y:00 P:06 S:fb pc: daa2, reg_addr: 0400
daa2 a9 80 d1 LDA  IMM   A:00 X:fb Y:00 P:06 S:fb pc: daa4, reg_addr: 0080
daa4 d1 33 f0 CMP  INDY  A:80 X:fb Y:00 P:84 S:fb pc: daa6, reg_addr: 0400
daa6 f0 04 10 BEQ  REL   A:80 X:fb Y:00 P:85 S:fb pc: daa8, reg_addr: daac
daa8 10 02 b0 BPL  REL   A:80 X:fb Y:00 P:85 S:fb pc: daaa, reg_addr: daac
daaa b0 02 86 BCS  REL   A:80 X:fb Y:00 P:85 S:fb pc: daae, reg_addr: daae
daae e8 a0 80 INX  IMPL  A:80 X:fb Y:00 P:85 S:fb pc: daaf, reg_addr: 0000
daaf a0 80 8c LDY  IMM   A:80 X:fc Y:00 P:85 S:fb pc: dab1, reg_addr: 0080
dab1 8c 00 04 STY  ABS   A:80 X:fc Y:80 P:85 S:fb pc: dab4, reg_addr: 0400
dab4 a0 00 d1 LDY  IMM   A:80 X:fc Y:80 P:85 S:fb pc: dab6, reg_addr: 0000
dab6 d1 33 d0 CMP  INDY  A:80 X:fc Y:00 P:07 S:fb pc: dab8, reg_addr: 0400
dab8 d0 04 30 BNE  REL   A:80 X:fc Y:00 P:07 S:fb pc: daba, reg_addr: dabe
daba 30 02 b0 BMI  REL   A:80 X:fc Y:00 P:07 S:fb pc: dabc, reg_addr: dabe
dabc b0 02 86 BCS  REL   A:80 X:fc Y:00 P:07 S:fb pc: dac0, reg_addr: dac0
dac0 e8 ee 00 INX  IMPL  A:80 X:fc Y:00 P:07 S:fb pc: dac1, reg_addr: 0000
dac1 ee 00 04 INC  ABS   A:80 X:fd Y:00 P:85 S:fb pc: dac4, reg_addr: 0400
dac4 d1 33 b0 CMP  INDY  A:80 X:fd Y:00 P:85 S:fb pc: dac6, reg_addr: 0400
dac6 b0 04 f0 BCS  REL   A:80 X:fd Y:00 P:84 S:fb pc: dac8, reg_addr: dacc
dac8 f0 02 30 BEQ  REL   A:80 X:fd Y:00 P:84 S:fb pc: daca, reg_addr: dacc
daca 30 02 86 BMI  REL   A:80 X:fd Y:00 P:84 S:fb pc: dace, reg_addr: dace
dace e8 ce 00 INX  IMPL  A:80 X:fd Y:00 P:84 S:fb pc: dacf, reg_addr: 0000
dacf ce 00 04 DEC  ABS   A:80 X:fe Y:00 P:84 S:fb pc: dad2, reg_addr: 0400
dad2 ce 00 04 DEC  ABS   A:80 X:fe Y:00 P:84 S:fb pc: dad5, reg_addr: 0400
dad5 d1 33 90 CMP  INDY  A:80 X:fe Y:00 P:04 S:fb pc: dad7, reg_addr: 0400
dad7 90 04 f0 BCC  REL   A:80 X:fe Y:00 P:05 S:fb pc: dad9, reg_addr: dadd
dad9 f0 02 10 BEQ  REL   A:80 X:fe Y:00 P:05 S:fb pc: dadb, reg_addr: dadd
dadb 10 02 86 BPL  REL   A:80 X:fe Y:00 P:05 S:fb pc: dadf, reg_addr: dadf
dadf 60 a9 00 RTS  IMPL  A:80 X:fe Y:00 P:05 S:fb pc: c61b, reg_addr: 0000
c61b a5 00 85 LDA  ZP    A:80 X:fe Y:00 P:05 S:fd pc: c61d, reg_addr: 0000
c61d 85 10 a9 STA  ZP    A:00 X:fe Y:00 P:07 S:fd pc: c61f, reg_addr: 0010
c61f a9 00 85 LDA  IMM   A:00 X:fe Y:00 P:07 S:fd pc: c621, reg_addr: 0000
c621 85 00 20 STA  ZP    A:00 X:fe Y:00 P:07 S:fd pc: c623, reg_addr: 0000
c623 20 e0 da JSR  ABS   A:00 X:fe Y:00 P:07 S:fd pc: dae0, reg_addr: dae0
dae0 a9 00 85 LDA  IMM   A:00 X:fe Y:00 P:07 S:fb pc: dae2, reg_addr: 0000
dae2 85 33 a9 STA  ZP    A:00 X:fe Y:00 P:07 S:fb pc: dae4, reg_addr: 0033
dae4 a9 04 85 LDA  IMM   A:00 X:fe Y:00 P:07 S:fb pc: dae6, reg_addr: 0004
dae6 85 34 a0 STA  ZP    A:04 X:fe Y:00 P:05 S:fb pc: dae8, reg_addr: 0034
dae8 a0 00 a2 LDY  IMM   A:04 X:fe Y:00 P:05 S:fb pc: daea, reg_addr: 0000
daea a2 01 24 LDX  IMM   A:04 X:fe Y:00 P:07 S:fb pc: daec, reg_addr: 0001
daec 24 01 a9 BIT  ZP    A:04 X:01 Y:00 P:05 S:fb pc: daee, reg_addr: 0001
daee a9 40 8d LDA  IMM   A:04 X:01 Y:00 P:c5 S:fb pc: daf0, reg_addr: 0040
daf0 8d 00 04 STA  ABS   A:40 X:01 Y:00 P:45 S:fb pc: daf3, reg_addr: 0400
daf3 38 f1 33 SEC  IMPL  A:40 X:01 Y:00 P:45 S:fb pc: daf4, reg_addr: 0000
daf4 f1 33 30 SBC  INDY  A:40 X:01 Y:00 P:45 S:fb pc: daf6, reg_addr: 0400
daf6 30 0a 90 BMI  REL   A:00 X:01 Y:00 P:07 S:fb pc: daf8, reg_addr: db02
daf8 90 08 d0 BCC  REL   A:00 X:01 Y:00 P:07 S:fb pc: dafa, reg_addr: db02
dafa d0 06 70 BNE  REL   A:00 X:01 Y:00 P:07 S:fb pc: dafc, reg_addr: db02
dafc 70 04 c9 BVS  REL   A:00 X:01 Y:00 P:07 S:fb pc: dafe, reg_addr: db02
dafe c9 00 f0 CMP  IMM   A:00 X:01 Y:00 P:07 S:fb pc: db00, reg_addr: 0000
db00 f0 02 86 BEQ  REL   A:00 X:01 Y:00 P:07 S:fb pc: db04, reg_addr: db04
db04 e8 b8 38 INX  IMPL  A:00 X:01 Y:00 P:07 S:fb pc: db05, reg_addr: 0000
db05 b8 38 a9 CLV  IMPL  A:00 X:02 Y:00 P:05 S:fb pc: db06, reg_addr: 0000
db06 38 a9 40 SEC  IMPL  A:00 X:02 Y:00 P:05 S:fb pc: db07, reg_addr: 0000
db07 a9 40 ce LDA  IMM   A:00 X:02 Y:00 P:05 S:fb pc: db09, reg_addr: 0040
db09 ce 00 04 DEC  ABS   A:40 X:02 Y:00 P:05 S:fb pc: db0c, reg_addr: 0400
db0c f1 33 f0 SBC  INDY  A:40 X:02 Y:00 P:05 S:fb pc: db0e, reg_addr: 0400
db0e f0 0a 30 BEQ  REL   A:01 X:02 Y:00 P:05 S:fb pc: db10, reg_addr: db1a
db10 30 08 90 BMI  REL   A:01 X:02 Y:00 P:05 S:fb pc: db12, reg_addr: db1a
db12 90 06 70 BCC  REL   A:01 X:02 Y:00 P:05 S:fb pc: db14, reg_addr: db1a
db14 70 04 c9 BVS  REL   A:01 X:02 Y:00 P:05 S:fb pc: db16, reg_addr: db1a
db16 c9 01 f0 CMP  IMM   A:01 X:02 Y:00 P:05 S:fb pc: db18, reg_addr: 0001
db18 f0 02 86 BEQ  REL   A:01 X:02 Y:00 P:07 S:fb pc: db1c, reg_addr: db1c
db1c e8 a9 40 INX  IMPL  A:01 X:02 Y:00 P:07 S:fb pc: db1d, reg_addr: 0000
db1d a9 40 38 LDA  IMM   A:01 X:03 Y:00 P:05 S:fb pc: db1f, reg_addr: 0040
db1f 38 24 01 SEC  IMPL  A:40 X:03 Y:00 P:05 S:fb pc: db20, reg_addr: 0000
db20 24 01 ee BIT  ZP    A:40 X:03 Y:00 P:05 S:fb pc: db22, reg_addr: 0001
db22 ee 00 04 INC  ABS   A:40 X:03 Y:00 P:c5 S:fb pc: db25, reg_addr: 0400
db25 ee 00 04 INC  ABS   A:40 X:03 Y:00 P:05 S:fb pc: db28, reg_addr: 0400
db28 f1 33 b0 SBC  INDY  A:40 X:03 Y:00 P:05 S:fb pc: db2a, reg_addr: 0400
db2a b0 0a f0 BCS  REL   A:ff X:03 Y:00 P:84 S:fb pc: db2c, reg_addr: db36
db2c f0 08 10 BEQ  REL   A:ff X:03 Y:00 P:84 S:fb pc: db2e, reg_addr: db36
db2e 10 06 70 BPL  REL   A:ff X:03 Y:00 P:84 S:fb pc: db30, reg_addr: db36
db30 70 04 c9 BVS  REL   A:ff X:03 Y:00 P:84 S:fb pc: db32, reg_addr: db36
db32 c9 ff f0 CMP  IMM   A:ff X:03 Y:00 P:84 S:fb pc: db34, reg_addr: 00ff
db34 f0 02 86 BEQ  REL   A:ff X:03 Y:00 P:07 S:fb pc: db38, reg_addr: db38
db38 e8 18 a9 INX  IMPL  A:ff X:03 Y:00 P:07 S:fb pc: db39, reg_addr: 0000
db39 18 a9 00 CLC  IMPL  A:ff X:04 Y:00 P:05 S:fb pc: db3a, reg_addr: 0000
db3a a9 00 8d LDA  IMM   A:ff X:04 Y:00 P:04 S:fb pc: db3c, reg_addr: 0000
db3c 8d 00 04 STA  ABS   A:00 X:04 Y:00 P:06 S:fb pc: db3f, reg_addr: 0400
db3f a9 80 f1 LDA  IMM   A:00 X:04 Y:00 P:06 S:fb pc: db41, reg_addr: 0080
db41 f1 33 90 SBC  INDY  A:80 X:04 Y:00 P:84 S:fb pc: db43, reg_addr: 0400
db43 90 04 c9 BCC  REL   A:7f X:04 Y:00 P:45 S:fb pc: db45, reg_addr: db49
db45 c9 7f f0 CMP  IMM   A:7f X:04 Y:00 P:45 S:fb pc: db47, reg_addr: 007f
db47 f0 02 86 BEQ  REL   A:7f X:04 Y:00 P:47 S:fb pc: db4b, reg_addr: db4b
db4b e8 38 a9 INX  IMPL  A:7f X:04 Y:00 P:47 S:fb pc: db4c, reg_addr: 0000
db4c 38 a9 7f SEC  IMPL  A:7f X:05 Y:00 P:45 S:fb pc: db4d, reg_addr: 0000
db4d a9 7f 8d LDA  IMM   A:7f X:05 Y:00 P:45 S:fb pc: db4f, reg_addr: 007f
db4f 8d 00 04 STA  ABS   A:7f X:05 Y:00 P:45 S:fb pc: db52, reg_addr: 0400
db52 a9 81 f1 LDA  IMM   A:7f X:05 Y:00 P:45 S:fb pc: db54, reg_addr: 0081
db54 f1 33 50 SBC  INDY  A:81 X:05 Y:00 P:c5 S:fb pc: db56, reg_addr: 0400
db56 50 06 90 BVC  REL   A:02 X:05 Y:00 P:45 S:fb pc: db58, reg_addr: db5e
db58 90 04 c9 BCC  REL   A:02 X:05 Y:00 P:45 S:fb pc: db5a, reg_addr: db5e
db5a c9 02 f0 CMP  IMM   A:02 X:05 Y:00 P:45 S:fb pc: db5c, reg_addr: 0002
db5c f0 02 86 BEQ  REL   A:02 X:05 Y:00 P:47 S:fb pc: db60, reg_addr: db60
db60 e8 a9 00 INX  IMPL  A:02 X:05 Y:00 P:47 S:fb pc: db61, reg_addr: 0000
db61 a9 00 a9 LDA  IMM   A:02 X:06 Y:00 P:45 S:fb pc: db63, reg_addr: 0000
db63 a9 87 91 LDA  IMM   A:00 X:06 Y:00 P:47 S:fb pc: db65, reg_addr: 0087
db65 91 33 ad STA  INDY  A:87 X:06 Y:00 P:c5 S:fb pc: db67, reg_addr: 0400
db67 ad 00 04 LDA  ABS   A:87 X:06 Y:00 P:c5 S:fb pc: db6a, reg_addr: 0400
db6a c9 87 f0 CMP  IMM   A:87 X:06 Y:00 P:c5 S:fb pc: db6c, reg_addr: 0087
db6c f0 02 86 BEQ  REL   A:87 X:06 Y:00 P:47 S:fb pc: db70, reg_addr: db70
db70 e8 a9 7e INX  IMPL  A:87 X:06 Y:00 P:47 S:fb pc: db71, reg_addr: 0000
db71 a9 7e 8d LDA  IMM   A:87 X:07 Y:00 P:45 S:fb pc: db73, reg_addr: 007e
db73 8d 00 02 STA  ABS   A:7e X:07 Y:00 P:45 S:fb pc: db76, reg_addr: 0200
db76 a9 db 8d LDA  IMM   A:7e X:07 Y:00 P:45 S:fb pc: db78, reg_addr: 00db
db78 8d 01 02 STA  ABS   A:db X:07 Y:00 P:c5 S:fb pc: db7b, reg_addr: 0201
db7b 6c 00 02 JMP  IND   A:db X:07 Y:00 P:c5 S:fb pc: db7e, reg_addr: db7e
db7e a9 00 8d LDA  IMM   A:db X:07 Y:00 P:c5 S:fb pc: db80, reg_addr: 0000
db80 8d ff 02 STA  ABS   A:00 X:07 Y:00 P:47 S:fb pc: db83, reg_addr: 02ff
db83 a9 01 8d LDA  IMM   A:00 X:07 Y:00 P:47 S:fb pc: db85, reg_addr: 0001
db85 8d 00 03 STA  ABS   A:01 X:07 Y:00 P:45 S:fb pc: db88, reg_addr: 0300
db88 a9 03 8d LDA  IMM   A:01 X:07 Y:00 P:45 S:fb pc: db8a, reg_addr: 0003
db8a 8d 00 02 STA  ABS   A:03 X:07 Y:00 P:45 S:fb pc: db8d, reg_addr: 0200
db8d a9 a9 8d LDA  IMM   A:03 X:07 Y:00 P:45 S:fb pc: db8f, reg_addr: 00a9
db8f 8d 00 01 STA  ABS   A:a9 X:07 Y:00 P:c5 S:fb pc: db92, reg_addr: 0100
db92 a9 55 8d LDA  IMM   A:a9 X:07 Y:00 P:c5 S:fb pc: db94, reg_addr: 0055
db94 8d 01 01 STA  ABS   A:55 X:07 Y:00 P:45 S:fb pc: db97, reg_addr: 0101
db97 a9 60 8d LDA  IMM   A:55 X:07 Y:00 P:45 S:fb pc: db99, reg_addr: 0060
db99 8d 02 01 STA  ABS   A:60 X:07 Y:00 P:45 S:fb pc: db9c, reg_addr: 0102
db9c a9 a9 8d LDA  IMM   A:60 X:07 Y:00 P:45 S:fb pc: db9e, reg_addr: 00a9
db9e 8d 00 03 STA  ABS   A:a9 X:07 Y:00 P:c5 S:fb pc: dba1, reg_addr: 0300
dba1 a9 aa 8d LDA  IMM   A:a9 X:07 Y:00 P:c5 S:fb pc: dba3, reg_addr: 00aa
dba3 8d 01 03 STA  ABS   A:aa X:07 Y:00 P:c5 S:fb pc: dba6, reg_addr: 0301
dba6 a9 60 8d LDA  IMM   A:aa X:07 Y:00 P:c5 S:fb pc: dba8, reg_addr: 0060
dba8 8d 02 03 STA  ABS   A:60 X:07 Y:00 P:45 S:fb pc: dbab, reg_addr: 0302
dbab 20 b5 db JSR  ABS   A:60 X:07 Y:00 P:45 S:fb pc: dbb5, reg_addr: dbb5
dbb5 6c ff 02 JMP  IND   A:60 X:07 Y:00 P:45 S:f9 pc: 0300, reg_addr: 0300
0300 a9 aa 60 LDA  IMM   A:60 X:07 Y:00 P:45 S:f9 pc: 0302, reg_addr: 00aa
0302 60 ac 00 RTS  IMPL  A:aa X:07 Y:00 P:c5 S:f9 pc: dbae, reg_addr: 0000
dbae c9 aa f0 CMP  IMM   A:aa X:07 Y:00 P:c5 S:fb pc: dbb0, reg_addr: 00aa
dbb0 f0 02 86 BEQ  REL   A:aa X:07 Y:00 P:47 S:fb pc: dbb4, reg_addr: dbb4
dbb4 60 6c ff RTS  IMPL  A:aa X:07 Y:00 P:47 S:fb pc: c626, reg_addr: 0000
c626 20 4a df JSR  ABS   A:aa X:07 Y:00 P:47 S:fd pc: df4a, reg_addr: df4a
df4a a9 89 8d LDA  IMM   A:aa X:07 Y:00 P:47 S:fb pc: df4c, reg_addr: 0089
df4c 8d 00 03 STA  ABS   A:89 X:07 Y:00 P:c5 S:fb pc: df4f, reg_addr: 0300
df4f a9 a3 85 LDA  IMM   A:89 X:07 Y:00 P:c5 S:fb pc: df51, reg_addr: 00a3
df51 85 33 a9 STA  ZP    A:a3 X:07 Y:00 P:c5 S:fb pc: df53, reg_addr: 0033
df53 a9 12 8d LDA  IMM   A:a3 X:07 Y:00 P:c5 S:fb pc: df55, reg_addr: 0012
df55 8d 45 02 STA  ABS   A:12 X:07 Y:00 P:45 S:fb pc: df58, reg_addr: 0245
df58 a2 65 a0 LDX  IMM   A:12 X:07 Y:00 P:45 S:fb pc: df5a, reg_addr: 0065
df5a a0 00 38 LDY  IMM   A:12 X:65 Y:00 P:45 S:fb pc: df5c, reg_addr: 0000
df5c 38 a9 00 SEC  IMPL  A:12 X:65 Y:00 P:47 S:fb pc: df5d, reg_addr: 0000
df5d a9 00 b8 LDA  IMM   A:12 X:65 Y:00 P:47 S:fb pc: df5f, reg_addr: 0000
df5f b8 b9 00 CLV  IMPL  A:00 X:65 Y:00 P:47 S:fb pc: df60, reg_addr: 0000
df60 b9 00 03 LDA  ABSY  A:00 X:65 Y:00 P:07 S:fb pc: df63, reg_addr: 0300
df63 f0 0c 90 BEQ  REL   A:89 X:65 Y:00 P:85 S:fb pc: df65, reg_addr: df71
df65 90 0a 70 BCC  REL   A:89 X:65 Y:00 P:85 S:fb pc: df67, reg_addr: df71
df67 70 08 c9 BVS  REL   A:89 X:65 Y:00 P:85 S:fb pc: df69, reg_addr: df71
df69 c9 89 d0 CMP  IMM   A:89 X:65 Y:00 P:85 S:fb pc: df6b, reg_addr: 0089
df6b d0 04 e0 BNE  REL   A:89 X:65 Y:00 P:07 S:fb pc: df6d, reg_addr: df71
df6d e0 65 f0 CPX  IMM   A:89 X:65 Y:00 P:07 S:fb pc: df6f, reg_addr: 0065
df6f f0 04 a9 BEQ  REL   A:89 X:65 Y:00 P:07 S:fb pc: df75, reg_addr: df75
df75 a9 ff 85 LDA  IMM   A:89 X:65 Y:00 P:07 S:fb pc: df77, reg_addr: 00ff
df77 85 01 24 STA  ZP    A:ff X:65 Y:00 P:85 S:fb pc: df79, reg_addr: 0001
df79 24 01 a0 BIT  ZP    A:ff X:65 Y:00 P:85 S:fb pc: df7b, reg_addr: 0001
df7b a0 34 b9 LDY  IMM   A:ff X:65 Y:00 P:c5 S:fb pc: df7d, reg_addr: 0034
df7d b9 ff ff LDA  ABSY  A:ff X:65 Y:34 P:45 S:fb pc: df80, reg_addr: 0033
df80 c9 a3 d0 CMP  IMM   A:a3 X:65 Y:34 P:c5 S:fb pc: df82, reg_addr: 00a3
df82 d0 02 b0 BNE  REL   A:a3 X:65 Y:34 P:47 S:fb pc: df84, reg_addr: df86
df84 b0 04 a9 BCS  REL   A:a3 X:65 Y:34 P:47 S:fb pc: df8a, reg_addr: df8a
df8a a9 46 85 LDA  IMM   A:a3 X:65 Y:34 P:47 S:fb pc: df8c, reg_addr: 0046
df8c 85 ff a0 STA  ZP    A:46 X:65 Y:34 P:45 S:fb pc: df8e, reg_addr: 00ff
df8e a0 ff b9 LDY  IMM   A:46 X:65 Y:34 P:45 S:fb pc: df90, reg_addr: 00ff
df90 b9 46 01 LDA  ABSY  A:46 X:65 Y:ff P:c5 S:fb pc: df93, reg_addr: 0245
df93 c9 12 f0 CMP  IMM   A:12 X:65 Y:ff P:45 S:fb pc: df95, reg_addr: 0012
df95 f0 04 a9 BEQ  REL   A:12 X:65 Y:ff P:47 S:fb pc: df9b, reg_addr: df9b
df9b a2 39 18 LDX  IMM   A:12 X:65 Y:ff P:47 S:fb pc: df9d, reg_addr: 0039
df9d 18 a9 ff CLC  IMPL  A:12 X:39 Y:ff P:45 S:fb pc: df9e, reg_addr: 0000
df9e a9 ff 85 LDA  IMM   A:12 X:39 Y:ff P:44 S:fb pc: dfa0, reg_addr: 00ff
dfa0 85 01 24 STA  ZP    A:ff X:39 Y:ff P:c4 S:fb pc: dfa2, reg_addr: 0001
dfa2 24 01 a9 BIT  ZP    A:ff X:39 Y:ff P:c4 S:fb pc: dfa4, reg_addr: 0001
dfa4 a9 aa 8d LDA  IMM   A:ff X:39 Y:ff P:c4 S:fb pc: dfa6, reg_addr: 00aa
dfa6 8d 00 04 STA  ABS   A:aa X:39 Y:ff P:c4 S:fb pc: dfa9, reg_addr: 0400
dfa9 a9 55 a0 LDA  IMM   A:aa X:39 Y:ff P:c4 S:fb pc: dfab, reg_addr: 0055
dfab a0 00 19 LDY  IMM   A:55 X:39 Y:ff P:44 S:fb pc: dfad, reg_addr: 0000
dfad 19 00 04 ORA  ABSY  A:55 X:39 Y:00 P:46 S:fb pc: dfb0, reg_addr: 0400
dfb0 b0 08 10 BCS  REL   A:ff X:39 Y:00 P:c4 S:fb pc: dfb2, reg_addr: dfba
dfb2 10 06 c9 BPL  REL   A:ff X:39 Y:00 P:c4 S:fb pc: dfb4, reg_addr: dfba
dfb4 c9 ff d0 CMP  IMM   A:ff X:39 Y:00 P:c4 S:fb pc: dfb6, reg_addr: 00ff
dfb6 d0 02 70 BNE  REL   A:ff X:39 Y:00 P:47 S:fb pc: dfb8, reg_addr: dfba
dfb8 70 02 86 BVS  REL   A:ff X:39 Y:00 P:47 S:fb pc: dfbc, reg_addr: dfbc
dfbc e8 38 b8 INX  IMPL  A:ff X:39 Y:00 P:47 S:fb pc: dfbd, reg_addr: 0000
dfbd 38 b8 a9 SEC  IMPL  A:ff X:3a Y:00 P:45 S:fb pc: dfbe, reg_addr: 0000
dfbe b8 a9 00 CLV  IMPL  A:ff X:3a Y:00 P:45 S:fb pc: dfbf, reg_addr: 0000
dfbf a9 00 19 LDA  IMM   A:ff X:3a Y:00 P:05 S:fb pc: dfc1, reg_addr: 0000
dfc1 19 00 04 ORA  ABSY  A:00 X:3a Y:00 P:07 S:fb pc: dfc4, reg_addr: 0400
dfc4 f0 06 70 BEQ  REL   A:aa X:3a Y:00 P:85 S:fb pc: dfc6, reg_addr: dfcc
dfc6 70 04 90 BVS  REL   A:aa X:3a Y:00 P:85 S:fb pc: dfc8, reg_addr: dfcc
dfc8 90 02 30 BCC  REL   A:aa X:3a Y:00 P:85 S:fb pc: dfca, reg_addr: dfcc
dfca 30 02 86 BMI  REL   A:aa X:3a Y:00 P:85 S:fb pc: dfce, reg_addr: dfce
dfce e8 18 24 INX  IMPL  A:aa X:3a Y:00 P:85 S:fb pc: dfcf, reg_addr: 0000
dfcf 18 24 01 CLC  IMPL  A:aa X:3b Y:00 P:05 S:fb pc: dfd0, reg_addr: 0000
dfd0 24 01 a9 BIT  ZP    A:aa X:3b Y:00 P:04 S:fb pc: dfd2, reg_addr: 0001
dfd2 a9 55 39 LDA  IMM   A:aa X:3b Y:00 P:c4 S:fb pc: dfd4, reg_addr: 0055
dfd4 39 00 04 AND  ABSY  A:55 X:3b Y:00 P:44 S:fb pc: dfd7, reg_addr: 0400
dfd7 d0 06 50 BNE  REL   A:00 X:3b Y:00 P:46 S:fb pc: dfd9, reg_addr: dfdf
dfd9 50 04 b0 BVC  REL   A:00 X:3b Y:00 P:46 S:fb pc: dfdb, reg_addr: dfdf
dfdb b0 02 10 BCS  REL   A:00 X:3b Y:00 P:46 S:fb pc: dfdd, reg_addr: dfdf
dfdd 10 02 86 BPL  REL   A:00 X:3b Y:00 P:46 S:fb pc: dfe1, reg_addr: dfe1
dfe1 e8 38 b8 INX  IMPL  A:00 X:3b Y:00 P:46 S:fb pc: dfe2, reg_addr: 0000
dfe2 38 b8 a9 SEC  IMPL  A:00 X:3c Y:00 P:44 S:fb pc: dfe3, reg_addr: 0000
dfe3 b8 a9 ef CLV  IMPL  A:00 X:3c Y:00 P:45 S:fb pc: dfe4, reg_addr: 0000
dfe4 a9 ef 8d LDA  IMM   A:00 X:3c Y:00 P:05 S:fb pc: dfe6, reg_addr: 00ef
dfe6 8d 00 04 STA  ABS   A:ef X:3c Y:00 P:85 S:fb pc: dfe9, reg_addr: 0400
dfe9 a9 f8 39 LDA  IMM   A:ef X:3c Y:00 P:85 S:fb pc: dfeb, reg_addr: 00f8
dfeb 39 00 04 AND  ABSY  A:f8 X:3c Y:00 P:85 S:fb pc: dfee, reg_addr: 0400
dfee 90 08 10 BCC  REL   A:e8 X:3c Y:00 P:85 S:fb pc: dff0, reg_addr: dff8
dff0 10 06 c9 BPL  REL   A:e8 X:3c Y:00 P:85 S:fb pc: dff2, reg_addr: dff8
dff2 c9 e8 d0 CMP  IMM   A:e8 X:3c Y:00 P:85 S:fb pc: dff4, reg_addr: 00e8
dff4 d0 02 50 BNE  REL   A:e8 X:3c Y:00 P:07 S:fb pc: dff6, reg_addr: dff8
dff6 50 02 86 BVC  REL   A:e8 X:3c Y:00 P:07 S:fb pc: dffa, reg_addr: dffa
dffa e8 18 24 INX  IMPL  A:e8 X:3c Y:00 P:07 S:fb pc: dffb, reg_addr: 0000
dffb 18 24 01 CLC  IMPL  A:e8 X:3d Y:00 P:05 S:fb pc: dffc, reg_addr: 0000
dffc 24 01 a9 BIT  ZP    A:e8 X:3d Y:00 P:04 S:fb pc: dffe, reg_addr: 0001
dffe a9 aa 8d LDA  IMM   A:e8 X:3d Y:00 P:c4 S:fb pc: e000, reg_addr: 00aa
e000 8d 00 04 STA  ABS   A:aa X:3d Y:00 P:c4 S:fb pc: e003, reg_addr: 0400
e003 a9 5f 59 LDA  IMM   A:aa X:3d Y:00 P:c4 S:fb pc: e005, reg_addr: 005f
e005 59 00 04 EOR  ABSY  A:5f X:3d Y:00 P:44 S:fb pc: e008, reg_addr: 0400
e008 b0 08 10 BCS  REL   A:f5 X:3d Y:00 P:c4 S:fb pc: e00a, reg_addr: e012
e00a 10 06 c9 BPL  REL   A:f5 X:3d Y:00 P:c4 S:fb pc: e00c, reg_addr: e012
e00c c9 f5 d0 CMP  IMM   A:f5 X:3d Y:00 P:c4 S:fb pc: e00e, reg_addr: 00f5
e00e d0 02 70 BNE  REL   A:f5 X:3d Y:00 P:47 S:fb pc: e010, reg_addr: e012
e010 70 02 86 BVS  REL   A:f5 X:3d Y:00 P:47 S:fb pc: e014, reg_addr: e014
e014 e8 38 b8 INX  IMPL  A:f5 X:3d Y:00 P:47 S:fb pc: e015, reg_addr: 0000
e015 38 b8 a9 SEC  IMPL  A:f5 X:3e Y:00 P:45 S:fb pc: e016, reg_addr: 0000
e016 b8 a9 70 CLV  IMPL  A:f5 X:3e Y:00 P:45 S:fb pc: e017, reg_addr: 0000
e017 a9 70 8d LDA  IMM   A:f5 X:3e Y:00 P:05 S:fb pc: e019, reg_addr: 0070
e019 8d 00 04 STA  ABS   A:70 X:3e Y:00 P:05 S:fb pc: e01c, reg_addr: 0400
e01c 59 00 04 EOR  ABSY  A:70 X:3e Y:00 P:05 S:fb pc: e01f, reg_addr: 0400
e01f d0 06 70 BNE  REL   A:00 X:3e Y:00 P:07 S:fb pc: e021, reg_addr: e027
e021 70 04 90 BVS  REL   A:00 X:3e Y:00 P:07 S:fb pc: e023, reg_addr: e027
e023 90 02 10 BCC  REL   A:00 X:3e Y:00 P:07 S:fb pc: e025, reg_addr: e027
e025 10 02 86 BPL  REL   A:00 X:3e Y:00 P:07 S:fb pc: e029, reg_addr: e029
e029 e8 18 24 INX  IMPL  A:00 X:3e Y:00 P:07 S:fb pc: e02a, reg_addr: 0000
e02a 18 24 01 CLC  IMPL  A:00 X:3f Y:00 P:05 S:fb pc: e02b, reg_addr: 0000
e02b 24 01 a9 BIT  ZP    A:00 X:3f Y:00 P:04 S:fb pc: e02d, reg_addr: 0001
e02d a9 69 8d LDA  IMM   A:00 X:3f Y:00 P:c6 S:fb pc: e02f, reg_addr: 0069
e02f 8d 00 04 STA  ABS   A:69 X:3f Y:00 P:44 S:fb pc: e032, reg_addr: 0400
e032 a9 00 79 LDA  IMM   A:69 X:3f Y:00 P:44 S:fb pc: e034, reg_addr: 0000
e034 79 00 04 ADC  ABSY  A:00 X:3f Y:00 P:46 S:fb pc: e037, reg_addr: 0400
e037 30 08 b0 BMI  REL   A:69 X:3f Y:00 P:04 S:fb pc: e039, reg_addr: e041
e039 b0 06 c9 BCS  REL   A:69 X:3f Y:00 P:04 S:fb pc: e03b, reg_addr: e041
e03b c9 69 d0 CMP  IMM   A:69 X:3f Y:00 P:04 S:fb pc: e03d, reg_addr: 0069
e03d d0 02 50 BNE  REL   A:69 X:3f Y:00 P:07 S:fb pc: e03f, reg_addr: e041
e03f 50 02 86 BVC  REL   A:69 X:3f Y:00 P:07 S:fb pc: e043, reg_addr: e043
e043 e8 38 24 INX  IMPL  A:69 X:3f Y:00 P:07 S:fb pc: e044, reg_addr: 0000
e044 38 24 01 SEC  IMPL  A:69 X:40 Y:00 P:05 S:fb pc: e045, reg_addr: 0000
e045 24 01 a9 BIT  ZP    A:69 X:40 Y:00 P:05 S:fb pc: e047, reg_addr: 0001
e047 a9 00 79 LDA  IMM   A:69 X:40 Y:00 P:c5 S:fb pc: e049, reg_addr: 0000
e049 79 00 04 ADC  ABSY  A:00 X:40 Y:00 P:47 S:fb pc: e04c, reg_addr: 0400
e04c 30 08 b0 BMI  REL   A:6a X:40 Y:00 P:04 S:fb pc: e04e, reg_addr: e056
e04e b0 06 c9 BCS  REL   A:6a X:40 Y:00 P:04 S:fb pc: e050, reg_addr: e056
e050 c9 6a d0 CMP  IMM   A:6a X:40 Y:00 P:04 S:fb pc: e052, reg_addr: 006a
e052 d0 02 50 BNE  REL   A:6a X:40 Y:00 P:07 S:fb pc: e054, reg_addr: e056
e054 50 02 86 BVC  REL   A:6a X:40 Y:00 P:07 S:fb pc: e058, reg_addr: e058
e058 e8 38 b8 INX  IMPL  A:6a X:40 Y:00 P:07 S:fb pc: e059, reg_addr: 0000
e059 38 b8 a9 SEC  IMPL  A:6a X:41 Y:00 P:05 S:fb pc: e05a, reg_addr: 0000
e05a b8 a9 7f CLV  IMPL  A:6a X:41 Y:00 P:05 S:fb pc: e05b, reg_addr: 0000
e05b a9 7f 8d LDA  IMM   A:6a X:41 Y:00 P:05 S:fb pc: e05d, reg_addr: 007f
e05d 8d 00 04 STA  ABS   A:7f X:41 Y:00 P:05 S:fb pc: e060, reg_addr: 0400
e060 79 00 04 ADC  ABSY  A:7f X:41 Y:00 P:05 S:fb pc: e063, reg_addr: 0400
e063 10 08 b0 BPL  REL   A:ff X:41 Y:00 P:c4 S:fb pc: e065, reg_addr: e06d
e065 b0 06 c9 BCS  REL   A:ff X:41 Y:00 P:c4 S:fb pc: e067, reg_addr: e06d
e067 c9 ff d0 CMP  IMM   A:ff X:41 Y:00 P:c4 S:fb pc: e069, reg_addr: 00ff
e069 d0 02 70 BNE  REL   A:ff X:41 Y:00 P:47 S:fb pc: e06b, reg_addr: e06d
e06b 70 02 86 BVS  REL   A:ff X:41 Y:00 P:47 S:fb pc: e06f, reg_addr: e06f
e06f e8 18 24 INX  IMPL  A:ff X:41 Y:00 P:47 S:fb pc: e070, reg_addr: 0000
e070 18 24 01 CLC  IMPL  A:ff X:42 Y:00 P:45 S:fb pc: e071, reg_addr: 0000
e071 24 01 a9 BIT  ZP    A:ff X:42 Y:00 P:44 S:fb pc: e073, reg_addr: 0001
e073 a9 80 8d LDA  IMM   A:ff X:42 Y:00 P:c4 S:fb pc: e075, reg_addr: 0080
e075 8d 00 04 STA  ABS   A:80 X:42 Y:00 P:c4 S:fb pc: e078, reg_addr: 0400
e078 a9 7f 79 LDA  IMM   A:80 X:42 Y:00 P:c4 S:fb pc: e07a, reg_addr: 007f
e07a 79 00 04 ADC  ABSY  A:7f X:42 Y:00 P:44 S:fb pc: e07d, reg_addr: 0400
e07d 10 08 b0 BPL  REL   A:ff X:42 Y:00 P:84 S:fb pc: e07f, reg_addr: e087
e07f b0 06 c9 BCS  REL   A:ff X:42 Y:00 P:84 S:fb pc: e081, reg_addr: e087
e081 c9 ff d0 CMP  IMM   A:ff X:42 Y:00 P:84 S:fb pc: e083, reg_addr: 00ff
e083 d0 02 50 BNE  REL   A:ff X:42 Y:00 P:07 S:fb pc: e085, reg_addr: e087
e085 50 02 86 BVC  REL   A:ff X:42 Y:00 P:07 S:fb pc: e089, reg_addr: e089
e089 e8 38 b8 INX  IMPL  A:ff X:42 Y:00 P:07 S:fb pc: e08a, reg_addr: 0000
e08a 38 b8 a9 SEC  IMPL  A:ff X:43 Y:00 P:05 S:fb pc: e08b, reg_addr: 0000
e08b b8 a9 80 CLV  IMPL  A:ff X:43 Y:00 P:05 S:fb pc: e08c, reg_addr: 0000
e08c a9 80 8d LDA  IMM   A:ff X:43 Y:00 P:05 S:fb pc: e08e, reg_addr: 0080
e08e 8d 00 04 STA  ABS   A:80 X:43 Y:00 P:85 S:fb pc: e091, reg_addr: 0400
e091 a9 7f 79 LDA  IMM   A:80 X:43 Y:00 P:85 S:fb pc: e093, reg_addr: 007f
e093 79 00 04 ADC  ABSY  A:7f X:43 Y:00 P:05 S:fb pc: e096, reg_addr: 0400
e096 d0 06 30 BNE  REL   A:00 X:43 Y:00 P:07 S:fb pc: e098, reg_addr: e09e
e098 30 04 70 BMI  REL   A:00 X:43 Y:00 P:07 S:fb pc: e09a, reg_addr: e09e
e09a 70 02 b0 BVS  REL   A:00 X:43 Y:00 P:07 S:fb pc: e09c, reg_addr: e09e
e09c b0 02 86 BCS  REL   A:00 X:43 Y:00 P:07 S:fb pc: e0a0, reg_addr: e0a0
e0a0 e8 24 01 INX  IMPL  A:00 X:43 Y:00 P:07 S:fb pc: e0a1, reg_addr: 0000
e0a1 24 01 a9 BIT  ZP    A:00 X:44 Y:00 P:05 S:fb pc: e0a3, reg_addr: 0001
e0a3 a9 40 8d LDA  IMM   A:00 X:44 Y:00 P:c7 S:fb pc: e0a5, reg_addr: 0040
e0a5 8d 00 04 STA  ABS   A:40 X:44 Y:00 P:45 S:fb pc: e0a8, reg_addr: 0400
e0a8 d9 00 04 CMP  ABSY  A:40 X:44 Y:00 P:45 S:fb pc: e0ab, reg_addr: 0400
e0ab 30 06 90 BMI  REL   A:40 X:44 Y:00 P:47 S:fb pc: e0ad, reg_addr: e0b3
e0ad 90 04 d0 BCC  REL   A:40 X:44 Y:00 P:47 S:fb pc: e0af, reg_addr: e0b3
e0af d0 02 70 BNE  REL   A:40 X:44 Y:00 P:47 S:fb pc: e0b1, reg_addr: e0b3
e0b1 70 02 86 BVS  REL   A:40 X:44 Y:00 P:47 S:fb pc: e0b5, reg_addr: e0b5
e0b5 e8 b8 ce INX  IMPL  A:40 X:44 Y:00 P:47 S:fb pc: e0b6, reg_addr: 0000
e0b6 b8 ce 00 CLV  IMPL  A:40 X:45 Y:00 P:45 S:fb pc: e0b7, reg_addr: 0000
e0b7 ce 00 04 DEC  ABS   A:40 X:45 Y:00 P:05 S:fb pc: e0ba, reg_addr: 0400
e0ba d9 00 04 CMP  ABSY  A:40 X:45 Y:00 P:05 S:fb pc: e0bd, reg_addr: 0400
e0bd f0 06 30 BEQ  REL   A:40 X:45 Y:00 P:05 S:fb pc: e0bf, reg_addr: e0c5
e0bf 30 04 90 BMI  REL   A:40 X:45 Y:00 P:05 S:fb pc: e0c1, reg_addr: e0c5
e0c1 90 02 50 BCC  REL   A:40 X:45 Y:00 P:05 S:fb pc: e0c3, reg_addr: e0c5
e0c3 50 02 86 BVC  REL   A:40 X:45 Y:00 P:05 S:fb pc: e0c7, reg_addr: e0c7
e0c7 e8 ee 00 INX  IMPL  A:40 X:45 Y:00 P:05 S:fb pc: e0c8, reg_addr: 0000
e0c8 ee 00 04 INC  ABS   A:40 X:46 Y:00 P:05 S:fb pc: e0cb, reg_addr: 0400
e0cb ee 00 04 INC  ABS   A:40 X:46 Y:00 P:05 S:fb pc: e0ce, reg_addr: 0400
e0ce d9 00 04 CMP  ABSY  A:40 X:46 Y:00 P:05 S:fb pc: e0d1, reg_addr: 0400
e0d1 f0 02 30 BEQ  REL   A:40 X:46 Y:00 P:84 S:fb pc: e0d3, reg_addr: e0d5
e0d3 30 02 86 BMI  REL   A:40 X:46 Y:00 P:84 S:fb pc: e0d7, reg_addr: e0d7
e0d7 e8 a9 00 INX  IMPL  A:40 X:46 Y:00 P:84 S:fb pc: e0d8, reg_addr: 0000
e0d8 a9 00 8d LDA  IMM   A:40 X:47 Y:00 P:04 S:fb pc: e0da, reg_addr: 0000
e0da 8d 00 04 STA  ABS   A:00 X:47 Y:00 P:06 S:fb pc: e0dd, reg_addr: 0400
e0dd a9 80 d9 LDA  IMM   A:00 X:47 Y:00 P:06 S:fb pc: e0df, reg_addr: 0080
e0df d9 00 04 CMP  ABSY  A:80 X:47 Y:00 P:84 S:fb pc: e0e2, reg_addr: 0400
e0e2 f0 04 10 BEQ  REL   A:80 X:47 Y:00 P:85 S:fb pc: e0e4, reg_addr: e0e8
e0e4 10 02 b0 BPL  REL   A:80 X:47 Y:00 P:85 S:fb pc: e0e6, reg_addr: e0e8
e0e6 b0 02 86 BCS  REL   A:80 X:47 Y:00 P:85 S:fb pc: e0ea, reg_addr: e0ea
e0ea e8 a0 80 INX  IMPL  A:80 X:47 Y:00 P:85 S:fb pc: e0eb, reg_addr: 0000
e0eb a0 80 8c LDY  IMM   A:80 X:48 Y:00 P:05 S:fb pc: e0ed, reg_addr: 0080
e0ed 8c 00 04 STY  ABS   A:80 X:48 Y:80 P:85 S:fb pc: e0f0, reg_addr: 0400
e0f0 a0 00 d9 LDY  IMM   A:80 X:48 Y:80 P:85 S:fb pc: e0f2, reg_addr: 0000
e0f2 d9 00 04 CMP  ABSY  A:80 X:48 Y:00 P:07 S:fb pc: e0f5, reg_addr: 0400
e0f5 d0 04 30 BNE  REL   A:80 X:48 Y:00 P:07 S:fb pc: e0f7, reg_addr: e0fb
e0f7 30 02 b0 BMI  REL   A:80 X:48 Y:00 P:07 S:fb pc: e0f9, reg_addr: e0fb
e0f9 b0 02 86 BCS  REL   A:80 X:48 Y:00 P:07 S:fb pc: e0fd, reg_addr: e0fd
e0fd e8 ee 00 INX  IMPL  A:80 X:48 Y:00 P:07 S:fb pc: e0fe, reg_addr: 0000
e0fe ee 00 04 INC  ABS   A:80 X:49 Y:00 P:05 S:fb pc: e101, reg_addr: 0400
e101 d9 00 04 CMP  ABSY  A:80 X:49 Y:00 P:85 S:fb pc: e104, reg_addr: 0400
e104 b0 04 f0 BCS  REL   A:80 X:49 Y:00 P:84 S:fb pc: e106, reg_addr: e10a
e106 f0 02 30 BEQ  REL   A:80 X:49 Y:00 P:84 S:fb pc: e108, reg_addr: e10a
e108 30 02 86 BMI  REL   A:80 X:49 Y:00 P:84 S:fb pc: e10c, reg_addr: e10c
e10c e8 ce 00 INX  IMPL  A:80 X:49 Y:00 P:84 S:fb pc: e10d, reg_addr: 0000
e10d ce 00 04 DEC  ABS   A:80 X:4a Y:00 P:04 S:fb pc: e110, reg_addr: 0400
e110 ce 00 04 DEC  ABS   A:80 X:4a Y:00 P:84 S:fb pc: e113, reg_addr: 0400
e113 d9 00 04 CMP  ABSY  A:80 X:4a Y:00 P:04 S:fb pc: e116, reg_addr: 0400
e116 90 04 f0 BCC  REL   A:80 X:4a Y:00 P:05 S:fb pc: e118, reg_addr: e11c
e118 f0 02 10 BEQ  REL   A:80 X:4a Y:00 P:05 S:fb pc: e11a, reg_addr: e11c
e11a 10 02 86 BPL  REL   A:80 X:4a Y:00 P:05 S:fb pc: e11e, reg_addr: e11e
e11e e8 24 01 INX  IMPL  A:80 X:4a Y:00 P:05 S:fb pc: e11f, reg_addr: 0000
e11f 24 01 a9 BIT  ZP    A:80 X:4b Y:00 P:05 S:fb pc: e121, reg_addr: 0001
e121 a9 40 8d LDA  IMM   A:80 X:4b Y:00 P:c5 S:fb pc: e123, reg_addr: 0040
e123 8d 00 04 STA  ABS   A:40 X:4b Y:00 P:45 S:fb pc: e126, reg_addr: 0400
e126 38 f9 00 SEC  IMPL  A:40 X:4b Y:00 P:45 S:fb pc: e127, reg_addr: 0000
e127 f9 00 04 SBC  ABSY  A:40 X:4b Y:00 P:45 S:fb pc: e12a, reg_addr: 0400
e12a 30 0a 90 BMI  REL   A:00 X:4b Y:00 P:07 S:fb pc: e12c, reg_addr: e136
e12c 90 08 d0 BCC  REL   A:00 X:4b Y:00 P:07 S:fb pc: e12e, reg_addr: e136
e12e d0 06 70 BNE  REL   A:00 X:4b Y:00 P:07 S:fb pc: e130, reg_addr: e136
e130 70 04 c9 BVS  REL   A:00 X:4b Y:00 P:07 S:fb pc: e132, reg_addr: e136
e132 c9 00 f0 CMP  IMM   A:00 X:4b Y:00 P:07 S:fb pc: e134, reg_addr: 0000
e134 f0 02 86 BEQ  REL   A:00 X:4b Y:00 P:07 S:fb pc: e138, reg_addr: e138
e138 e8 b8 38 INX  IMPL  A:00 X:4b Y:00 P:07 S:fb pc: e139, reg_addr: 0000
e139 b8 38 a9 CLV  IMPL  A:00 X:4c Y:00 P:05 S:fb pc: e13a, reg_addr: 0000
e13a 38 a9 40 SEC  IMPL  A:00 X:4c Y:00 P:05 S:fb pc: e13b, reg_addr: 0000
e13b a9 40 ce LDA  IMM   A:00 X:4c Y:00 P:05 S:fb pc: e13d, reg_addr: 0040
e13d ce 00 04 DEC  ABS   A:40 X:4c Y:00 P:05 S:fb pc: e140, reg_addr: 0400
e140 f9 00 04 SBC  ABSY  A:40 X:4c Y:00 P:05 S:fb pc: e143, reg_addr: 0400
e143 f0 0a 30 BEQ  REL   A:01 X:4c Y:00 P:05 S:fb pc: e145, reg_addr: e14f
e145 30 08 90 BMI  REL   A:01 X:4c Y:00 P:05 S:fb pc: e147, reg_addr: e14f
e147 90 06 70 BCC  REL   A:01 X:4c Y:00 P:05 S:fb pc: e149, reg_addr: e14f
e149 70 04 c9 BVS  REL   A:01 X:4c Y:00 P:05 S:fb pc: e14b, reg_addr: e14f
e14b c9 01 f0 CMP  IMM   A:01 X:4c Y:00 P:05 S:fb pc: e14d, reg_addr: 0001
e14d f0 02 86 BEQ  REL   A:01 X:4c Y:00 P:07 S:fb pc: e151, reg_addr: e151
e151 e8 a9 40 INX  IMPL  A:01 X:4c Y:00 P:07 S:fb pc: e152, reg_addr: 0000
e152 a9 40 38 LDA  IMM   A:01 X:4d Y:00 P:05 S:fb pc: e154, reg_addr: 0040
e154 38 24 01 SEC  IMPL  A:40 X:4d Y:00 P:05 S:fb pc: e155, reg_addr: 0000
e155 24 01 ee BIT  ZP    A:40 X:4d Y:00 P:05 S:fb pc: e157, reg_addr: 0001
e157 ee 00 04 INC  ABS   A:40 X:4d Y:00 P:c5 S:fb pc: e15a, reg_addr: 0400
e15a ee 00 04 INC  ABS   A:40 X:4d Y:00 P:05 S:fb pc: e15d, reg_addr: 0400
e15d f9 00 04 SBC  ABSY  A:40 X:4d Y:00 P:05 S:fb pc: e160, reg_addr: 0400
e160 b0 0a f0 BCS  REL   A:ff X:4d Y:00 P:84 S:fb pc: e162, reg_addr: e16c
e162 f0 08 10 BEQ  REL   A:ff X:4d Y:00 P:84 S:fb pc: e164, reg_addr: e16c
e164 10 06 70 BPL  REL   A:ff X:4d Y:00 P:84 S:fb pc: e166, reg_addr: e16c
e166 70 04 c9 BVS  REL   A:ff X:4d Y:00 P:84 S:fb pc: e168, reg_addr: e16c
e168 c9 ff f0 CMP  IMM   A:ff X:4d Y:00 P:84 S:fb pc: e16a, reg_addr: 00ff
e16a f0 02 86 BEQ  REL   A:ff X:4d Y:00 P:07 S:fb pc: e16e, reg_addr: e16e
e16e e8 18 a9 INX  IMPL  A:ff X:4d Y:00 P:07 S:fb pc: e16f, reg_addr: 0000
e16f 18 a9 00 CLC  IMPL  A:ff X:4e Y:00 P:05 S:fb pc: e170, reg_addr: 0000
e170 a9 00 8d LDA  IMM   A:ff X:4e Y:00 P:04 S:fb pc: e172, reg_addr: 0000
e172 8d 00 04 STA  ABS   A:00 X:4e Y:00 P:06 S:fb pc: e175, reg_addr: 0400
e175 a9 80 f9 LDA  IMM   A:00 X:4e Y:00 P:06 S:fb pc: e177, reg_addr: 0080
e177 f9 00 04 SBC  ABSY  A:80 X:4e Y:00 P:84 S:fb pc: e17a, reg_addr: 0400
e17a 90 04 c9 BCC  REL   A:7f X:4e Y:00 P:45 S:fb pc: e17c, reg_addr: e180
e17c c9 7f f0 CMP  IMM   A:7f X:4e Y:00 P:45 S:fb pc: e17e, reg_addr: 007f
e17e f0 02 86 BEQ  REL   A:7f X:4e Y:00 P:47 S:fb pc: e182, reg_addr: e182
e182 e8 38 a9 INX  IMPL  A:7f X:4e Y:00 P:47 S:fb pc: e183, reg_addr: 0000
e183 38 a9 7f SEC  IMPL  A:7f X:4f Y:00 P:45 S:fb pc: e184, reg_addr: 0000
e184 a9 7f 8d LDA  IMM   A:7f X:4f Y:00 P:45 S:fb pc: e186, reg_addr: 007f
e186 8d 00 04 STA  ABS   A:7f X:4f Y:00 P:45 S:fb pc: e189, reg_addr: 0400
e189 a9 81 f9 LDA  IMM   A:7f X:4f Y:00 P:45 S:fb pc: e18b, reg_addr: 0081
e18b f9 00 04 SBC  ABSY  A:81 X:4f Y:00 P:c5 S:fb pc: e18e, reg_addr: 0400
e18e 50 06 90 BVC  REL   A:02 X:4f Y:00 P:45 S:fb pc: e190, reg_addr: e196
e190 90 04 c9 BCC  REL   A:02 X:4f Y:00 P:45 S:fb pc: e192, reg_addr: e196
e192 c9 02 f0 CMP  IMM   A:02 X:4f Y:00 P:45 S:fb pc: e194, reg_addr: 0002
e194 f0 02 86 BEQ  REL   A:02 X:4f Y:00 P:47 S:fb pc: e198, reg_addr: e198
e198 e8 a9 00 INX  IMPL  A:02 X:4f Y:00 P:47 S:fb pc: e199, reg_addr: 0000
e199 a9 00 a9 LDA  IMM   A:02 X:50 Y:00 P:45 S:fb pc: e19b, reg_addr: 0000
e19b a9 87 99 LDA  IMM   A:00 X:50 Y:00 P:47 S:fb pc: e19d, reg_addr: 0087
e19d 99 00 04 STA  ABSY  A:87 X:50 Y:00 P:c5 S:fb pc: e1a0, reg_addr: 0400
e1a0 ad 00 04 LDA  ABS   A:87 X:50 Y:00 P:c5 S:fb pc: e1a3, reg_addr: 0400
e1a3 c9 87 f0 CMP  IMM   A:87 X:50 Y:00 P:c5 S:fb pc: e1a5, reg_addr: 0087
e1a5 f0 02 86 BEQ  REL   A:87 X:50 Y:00 P:47 S:fb pc: e1a9, reg_addr: e1a9
e1a9 60 a9 ff RTS  IMPL  A:87 X:50 Y:00 P:47 S:fb pc: c629, reg_addr: 0000
c629 20 b8 db JSR  ABS   A:87 X:50 Y:00 P:47 S:fd pc: dbb8, reg_addr: dbb8
dbb8 a9 ff 85 LDA  IMM   A:87 X:50 Y:00 P:47 S:fb pc: dbba, reg_addr: 00ff
dbba 85 01 a9 STA  ZP    A:ff X:50 Y:00 P:c5 S:fb pc: dbbc, reg_addr: 0001
dbbc a9 aa 85 LDA  IMM   A:ff X:50 Y:00 P:c5 S:fb pc: dbbe, reg_addr: 00aa
dbbe 85 33 a9 STA  ZP    A:aa X:50 Y:00 P:c5 S:fb pc: dbc0, reg_addr: 0033
dbc0 a9 bb 85 LDA  IMM   A:aa X:50 Y:00 P:c5 S:fb pc: dbc2, reg_addr: 00bb
dbc2 85 89 a2 STA  ZP    A:bb X:50 Y:00 P:c5 S:fb pc: dbc4, reg_addr: 0089
dbc4 a2 00 a9 LDX  IMM   A:bb X:50 Y:00 P:c5 S:fb pc: dbc6, reg_addr: 0000
dbc6 a9 66 24 LDA  IMM   A:bb X:00 Y:00 P:47 S:fb pc: dbc8, reg_addr: 0066
dbc8 24 01 38 BIT  ZP    A:66 X:00 Y:00 P:45 S:fb pc: dbca, reg_addr: 0001
dbca 38 a0 00 SEC  IMPL  A:66 X:00 Y:00 P:c5 S:fb pc: dbcb, reg_addr: 0000
dbcb a0 00 b4 LDY  IMM   A:66 X:00 Y:00 P:c5 S:fb pc: dbcd, reg_addr: 0000
dbcd b4 33 10 LDY  ZPX   A:66 X:00 Y:00 P:47 S:fb pc: dbcf, reg_addr: 0033
dbcf 10 12 f0 BPL  REL   A:66 X:00 Y:aa P:c5 S:fb pc: dbd1, reg_addr: dbe3
dbd1 f0 10 50 BEQ  REL   A:66 X:00 Y:aa P:c5 S:fb pc: dbd3, reg_addr: dbe3
dbd3 50 0e 90 BVC  REL   A:66 X:00 Y:aa P:c5 S:fb pc: dbd5, reg_addr: dbe3
dbd5 90 0c c9 BCC  REL   A:66 X:00 Y:aa P:c5 S:fb pc: dbd7, reg_addr: dbe3
dbd7 c9 66 d0 CMP  IMM   A:66 X:00 Y:aa P:c5 S:fb pc: dbd9, reg_addr: 0066
dbd9 d0 08 e0 BNE  REL   A:66 X:00 Y:aa P:47 S:fb pc: dbdb, reg_addr: dbe3
dbdb e0 00 d0 CPX  IMM   A:66 X:00 Y:aa P:47 S:fb pc: dbdd, reg_addr: 0000
dbdd d0 04 c0 BNE  REL   A:66 X:00 Y:aa P:47 S:fb pc: dbdf, reg_addr: dbe3
dbdf c0 aa f0 CPY  IMM   A:66 X:00 Y:aa P:47 S:fb pc: dbe1, reg_addr: 00aa
dbe1 f0 04 a9 BEQ  REL   A:66 X:00 Y:aa P:47 S:fb pc: dbe7, reg_addr: dbe7
dbe7 a2 8a a9 LDX  IMM   A:66 X:00 Y:aa P:47 S:fb pc: dbe9, reg_addr: 008a
dbe9 a9 66 b8 LDA  IMM   A:66 X:8a Y:aa P:c5 S:fb pc: dbeb, reg_addr: 0066
dbeb b8 18 a0 CLV  IMPL  A:66 X:8a Y:aa P:45 S:fb pc: dbec, reg_addr: 0000
dbec 18 a0 00 CLC  IMPL  A:66 X:8a Y:aa P:05 S:fb pc: dbed, reg_addr: 0000
dbed a0 00 b4 LDY  IMM   A:66 X:8a Y:aa P:04 S:fb pc: dbef, reg_addr: 0000
dbef b4 ff 10 LDY  ZPX   A:66 X:8a Y:00 P:06 S:fb pc: dbf1, reg_addr: 0089
dbf1 10 12 f0 BPL  REL   A:66 X:8a Y:bb P:84 S:fb pc: dbf3, reg_addr: dc05
dbf3 f0 10 70 BEQ  REL   A:66 X:8a Y:bb P:84 S:fb pc: dbf5, reg_addr: dc05
dbf5 70 0e b0 BVS  REL   A:66 X:8a Y:bb P:84 S:fb pc: dbf7, reg_addr: dc05
dbf7 b0 0c c0 BCS  REL   A:66 X:8a Y:bb P:84 S:fb pc: dbf9, reg_addr: dc05
dbf9 c0 bb d0 CPY  IMM   A:66 X:8a Y:bb P:84 S:fb pc: dbfb, reg_addr: 00bb
dbfb d0 08 c9 BNE  REL   A:66 X:8a Y:bb P:07 S:fb pc: dbfd, reg_addr: dc05
dbfd c9 66 d0 CMP  IMM   A:66 X:8a Y:bb P:07 S:fb pc: dbff, reg_addr: 0066
dbff d0 04 e0 BNE  REL   A:66 X:8a Y:bb P:07 S:fb pc: dc01, reg_addr: dc05
dc01 e0 8a f0 CPX  IMM   A:66 X:8a Y:bb P:07 S:fb pc: dc03, reg_addr: 008a
dc03 f0 04 a9 BEQ  REL   A:66 X:8a Y:bb P:07 S:fb pc: dc09, reg_addr: dc09
dc09 24 01 38 BIT  ZP    A:66 X:8a Y:bb P:07 S:fb pc: dc0b, reg_addr: 0001
dc0b 38 a0 44 SEC  IMPL  A:66 X:8a Y:bb P:c5 S:fb pc: dc0c, reg_addr: 0000
dc0c a0 44 a2 LDY  IMM   A:66 X:8a Y:bb P:c5 S:fb pc: dc0e, reg_addr: 0044
dc0e a2 00 94 LDX  IMM   A:66 X:8a Y:44 P:45 S:fb pc: dc10, reg_addr: 0000
dc10 94 33 a5 STY  ZPX   A:66 X:00 Y:44 P:47 S:fb pc: dc12, reg_addr: 0033
dc12 a5 33 90 LDA  ZP    A:66 X:00 Y:44 P:47 S:fb pc: dc14, reg_addr: 0033
dc14 90 18 c9 BCC  REL   A:44 X:00 Y:44 P:45 S:fb pc: dc16, reg_addr: dc2e
dc16 c9 44 d0 CMP  IMM   A:44 X:00 Y:44 P:45 S:fb pc: dc18, reg_addr: 0044
dc18 d0 14 50 BNE  REL   A:44 X:00 Y:44 P:47 S:fb pc: dc1a, reg_addr: dc2e
dc1a 50 12 18 BVC  REL   A:44 X:00 Y:44 P:47 S:fb pc: dc1c, reg_addr: dc2e
dc1c 18 b8 a0 CLC  IMPL  A:44 X:00 Y:44 P:47 S:fb pc: dc1d, reg_addr: 0000
dc1d b8 a0 99 CLV  IMPL  A:44 X:00 Y:44 P:46 S:fb pc: dc1e, reg_addr: 0000
dc1e a0 99 a2 LDY  IMM   A:44 X:00 Y:44 P:06 S:fb pc: dc20, reg_addr: 0099
dc20 a2 80 94 LDX  IMM   A:44 X:00 Y:99 P:84 S:fb pc: dc22, reg_addr: 0080
dc22 94 85 a5 STY  ZPX   A:44 X:80 Y:99 P:84 S:fb pc: dc24, reg_addr: 0005
dc24 a5 05 b0 LDA  ZP    A:44 X:80 Y:99 P:84 S:fb pc: dc26, reg_addr: 0005
dc26 b0 06 c9 BCS  REL   A:99 X:80 Y:99 P:84 S:fb pc: dc28, reg_addr: dc2e
dc28 c9 99 d0 CMP  IMM   A:99 X:80 Y:99 P:84 S:fb pc: dc2a, reg_addr: 0099
dc2a d0 02 50 BNE  REL   A:99 X:80 Y:99 P:07 S:fb pc: dc2c, reg_addr: dc2e
dc2c 50 04 a9 BVC  REL   A:99 X:80 Y:99 P:07 S:fb pc: dc32, reg_addr: dc32
dc32 a0 0b a9 LDY  IMM   A:99 X:80 Y:99 P:07 S:fb pc: dc34, reg_addr: 000b
dc34 a9 aa a2 LDA  IMM   A:99 X:80 Y:0b P:05 S:fb pc: dc36, reg_addr: 00aa
dc36 a2 78 85 LDX  IMM   A:aa X:80 Y:0b P:85 S:fb pc: dc38, reg_addr: 0078
dc38 85 78 20 STA  ZP    A:aa X:78 Y:0b P:05 S:fb pc: dc3a, reg_addr: 0078
dc3a 20 b6 f7 JSR  ABS   A:aa X:78 Y:0b P:05 S:fb pc: f7b6, reg_addr: f7b6
f7b6 18 a9 ff CLC  IMPL  A:aa X:78 Y:0b P:05 S:f9 pc: f7b7, reg_addr: 0000
f7b7 a9 ff 85 LDA  IMM   A:aa X:78 Y:0b P:04 S:f9 pc: f7b9, reg_addr: 00ff
f7b9 85 01 24 STA  ZP    A:ff X:78 Y:0b P:84 S:f9 pc: f7bb, reg_addr: 0001
f7bb 24 01 a9 BIT  ZP    A:ff X:78 Y:0b P:84 S:f9 pc: f7bd, reg_addr: 0001
f7bd a9 55 60 LDA  IMM   A:ff X:78 Y:0b P:c4 S:f9 pc: f7bf, reg_addr: 0055
f7bf 60 b0 09 RTS  IMPL  A:55 X:78 Y:0b P:44 S:f9 pc: dc3d, reg_addr: 0000
dc3d 15 00 20 ORA  ZPX   A:55 X:78 Y:0b P:44 S:fb pc: dc3f, reg_addr: 0078
dc3f 20 c0 f7 JSR  ABS   A:ff X:78 Y:0b P:c4 S:fb pc: f7c0, reg_addr: f7c0
f7c0 b0 09 10 BCS  REL   A:ff X:78 Y:0b P:c4 S:f9 pc: f7c2, reg_addr: f7cb
f7c2 10 07 c9 BPL  REL   A:ff X:78 Y:0b P:c4 S:f9 pc: f7c4, reg_addr: f7cb
f7c4 c9 ff d0 CMP  IMM   A:ff X:78 Y:0b P:c4 S:f9 pc: f7c6, reg_addr: 00ff
f7c6 d0 03 50 BNE  REL   A:ff X:78 Y:0b P:47 S:f9 pc: f7c8, reg_addr: f7cb
f7c8 50 01 60 BVC  REL   A:ff X:78 Y:0b P:47 S:f9 pc: f7ca, reg_addr: f7cb
f7ca 60 84 00 RTS  IMPL  A:ff X:78 Y:0b P:47 S:f9 pc: dc42, reg_addr: 0000
dc42 c8 a9 00 INY  IMPL  A:ff X:78 Y:0b P:47 S:fb pc: dc43, reg_addr: 0000
dc43 a9 00 85 LDA  IMM   A:ff X:78 Y:0c P:45 S:fb pc: dc45, reg_addr: 0000
dc45 85 78 20 STA  ZP    A:00 X:78 Y:0c P:47 S:fb pc: dc47, reg_addr: 0078
dc47 20 ce f7 JSR  ABS   A:00 X:78 Y:0c P:47 S:fb pc: f7ce, reg_addr: f7ce
f7ce 38 b8 a9 SEC  IMPL  A:00 X:78 Y:0c P:47 S:f9 pc: f7cf, reg_addr: 0000
f7cf b8 a9 00 CLV  IMPL  A:00 X:78 Y:0c P:47 S:f9 pc: f7d0, reg_addr: 0000
f7d0 a9 00 60 LDA  IMM   A:00 X:78 Y:0c P:07 S:f9 pc: f7d2, reg_addr: 0000
f7d2 60 d0 07 RTS  IMPL  A:00 X:78 Y:0c P:07 S:f9 pc: dc4a, reg_addr: 0000
dc4a 15 00 20 ORA  ZPX   A:00 X:78 Y:0c P:07 S:fb pc: dc4c, reg_addr: 0078
dc4c 20 d3 f7 JSR  ABS   A:00 X:78 Y:0c P:07 S:fb pc: f7d3, reg_addr: f7d3
f7d3 d0 07 70 BNE  REL   A:00 X:78 Y:0c P:07 S:f9 pc: f7d5, reg_addr: f7dc
f7d5 70 05 90 BVS  REL   A:00 X:78 Y:0c P:07 S:f9 pc: f7d7, reg_addr: f7dc
f7d7 90 03 30 BCC  REL   A:00 X:78 Y:0c P:07 S:f9 pc: f7d9, reg_addr: f7dc
f7d9 30 01 60 BMI  REL   A:00 X:78 Y:0c P:07 S:f9 pc: f7db, reg_addr: f7dc
f7db 60 84 00 RTS  IMPL  A:00 X:78 Y:0c P:07 S:f9 pc: dc4f, reg_addr: 0000
dc4f c8 a9 aa INY  IMPL  A:00 X:78 Y:0c P:07 S:fb pc: dc50, reg_addr: 0000
dc50 a9 aa 85 LDA  IMM   A:00 X:78 Y:0d P:05 S:fb pc: dc52, reg_addr: 00aa
dc52 85 78 20 STA  ZP    A:aa X:78 Y:0d P:85 S:fb pc: dc54, reg_addr: 0078
dc54 20 df f7 JSR  ABS   A:aa X:78 Y:0d P:85 S:fb pc: f7df, reg_addr: f7df
f7df 18 24 01 CLC  IMPL  A:aa X:78 Y:0d P:85 S:f9 pc: f7e0, reg_addr: 0000
f7e0 24 01 a9 BIT  ZP    A:aa X:78 Y:0d P:84 S:f9 pc: f7e2, reg_addr: 0001
f7e2 a9 55 60 LDA  IMM   A:aa X:78 Y:0d P:c4 S:f9 pc: f7e4, reg_addr: 0055
f7e4 60 d0 07 RTS  IMPL  A:55 X:78 Y:0d P:44 S:f9 pc: dc57, reg_addr: 0000
dc57 35 00 20 AND  ZPX   A:55 X:78 Y:0d P:44 S:fb pc: dc59, reg_addr: 0078
dc59 20 e5 f7 JSR  ABS   A:00 X:78 Y:0d P:46 S:fb pc: f7e5, reg_addr: f7e5
f7e5 d0 07 50 BNE  REL   A:00 X:78 Y:0d P:46 S:f9 pc: f7e7, reg_addr: f7ee
f7e7 50 05 b0 BVC  REL   A:00 X:78 Y:0d P:46 S:f9 pc: f7e9, reg_addr: f7ee
f7e9 b0 03 30 BCS  REL   A:00 X:78 Y:0d P:46 S:f9 pc: f7eb, reg_addr: f7ee
f7eb 30 01 60 BMI  REL   A:00 X:78 Y:0d P:46 S:f9 pc: f7ed, reg_addr: f7ee
f7ed 60 84 00 RTS  IMPL  A:00 X:78 Y:0d P:46 S:f9 pc: dc5c, reg_addr: 0000
dc5c c8 a9 ef INY  IMPL  A:00 X:78 Y:0d P:46 S:fb pc: dc5d, reg_addr: 0000
dc5d a9 ef 85 LDA  IMM   A:00 X:78 Y:0e P:44 S:fb pc: dc5f, reg_addr: 00ef
dc5f 85 78 20 STA  ZP    A:ef X:78 Y:0e P:c4 S:fb pc: dc61, reg_addr: 0078
dc61 20 f1 f7 JSR  ABS   A:ef X:78 Y:0e P:c4 S:fb pc: f7f1, reg_addr: f7f1
f7f1 38 b8 a9 SEC  IMPL  A:ef X:78 Y:0e P:c4 S:f9 pc: f7f2, reg_addr: 0000
f7f2 b8 a9 f8 CLV  IMPL  A:ef X:78 Y:0e P:c5 S:f9 pc: f7f3, reg_addr: 0000
f7f3 a9 f8 60 LDA  IMM   A:ef X:78 Y:0e P:85 S:f9 pc: f7f5, reg_addr: 00f8
f7f5 60 90 09 RTS  IMPL  A:f8 X:78 Y:0e P:85 S:f9 pc: dc64, reg_addr: 0000
dc64 35 00 20 AND  ZPX   A:f8 X:78 Y:0e P:85 S:fb pc: dc66, reg_addr: 0078
dc66 20 f6 f7 JSR  ABS   A:e8 X:78 Y:0e P:85 S:fb pc: f7f6, reg_addr: f7f6
f7f6 90 09 10 BCC  REL   A:e8 X:78 Y:0e P:85 S:f9 pc: f7f8, reg_addr: f801
f7f8 10 07 c9 BPL  REL   A:e8 X:78 Y:0e P:85 S:f9 pc: f7fa, reg_addr: f801
f7fa c9 e8 d0 CMP  IMM   A:e8 X:78 Y:0e P:85 S:f9 pc: f7fc, reg_addr: 00e8
f7fc d0 03 70 BNE  REL   A:e8 X:78 Y:0e P:07 S:f9 pc: f7fe, reg_addr: f801
f7fe 70 01 60 BVS  REL   A:e8 X:78 Y:0e P:07 S:f9 pc: f800, reg_addr: f801
f800 60 84 00 RTS  IMPL  A:e8 X:78 Y:0e P:07 S:f9 pc: dc69, reg_addr: 0000
dc69 c8 a9 aa INY  IMPL  A:e8 X:78 Y:0e P:07 S:fb pc: dc6a, reg_addr: 0000
dc6a a9 aa 85 LDA  IMM   A:e8 X:78 Y:0f P:05 S:fb pc: dc6c, reg_addr: 00aa
dc6c 85 78 20 STA  ZP    A:aa X:78 Y:0f P:85 S:fb pc: dc6e, reg_addr: 0078
dc6e 20 04 f8 JSR  ABS   A:aa X:78 Y:0f P:85 S:fb pc: f804, reg_addr: f804
f804 18 24 01 CLC  IMPL  A:aa X:78 Y:0f P:85 S:f9 pc: f805, reg_addr: 0000
f805 24 01 a9 BIT  ZP    A:aa X:78 Y:0f P:84 S:f9 pc: f807, reg_addr: 0001
f807 a9 5f 60 LDA  IMM   A:aa X:78 Y:0f P:c4 S:f9 pc: f809, reg_addr: 005f
f809 60 b0 09 RTS  IMPL  A:5f X:78 Y:0f P:44 S:f9 pc: dc71, reg_addr: 0000
dc71 55 00 20 EOR  ZPX   A:5f X:78 Y:0f P:44 S:fb pc: dc73, reg_addr: 0078
dc73 20 0a f8 JSR  ABS   A:f5 X:78 Y:0f P:c4 S:fb pc: f80a, reg_addr: f80a
f80a b0 09 10 BCS  REL   A:f5 X:78 Y:0f P:c4 S:f9 pc: f80c, reg_addr: f815
f80c 10 07 c9 BPL  REL   A:f5 X:78 Y:0f P:c4 S:f9 pc: f80e, reg_addr: f815
f80e c9 f5 d0 CMP  IMM   A:f5 X:78 Y:0f P:c4 S:f9 pc: f810, reg_addr: 00f5
f810 d0 03 50 BNE  REL   A:f5 X:78 Y:0f P:47 S:f9 pc: f812, reg_addr: f815
f812 50 01 60 BVC  REL   A:f5 X:78 Y:0f P:47 S:f9 pc: f814, reg_addr: f815
f814 60 84 00 RTS  IMPL  A:f5 X:78 Y:0f P:47 S:f9 pc: dc76, reg_addr: 0000
dc76 c8 a9 70 INY  IMPL  A:f5 X:78 Y:0f P:47 S:fb pc: dc77, reg_addr: 0000
dc77 a9 70 85 LDA  IMM   A:f5 X:78 Y:10 P:45 S:fb pc: dc79, reg_addr: 0070
dc79 85 78 20 STA  ZP    A:70 X:78 Y:10 P:45 S:fb pc: dc7b, reg_addr: 0078
dc7b 20 18 f8 JSR  ABS   A:70 X:78 Y:10 P:45 S:fb pc: f818, reg_addr: f818
f818 38 b8 a9 SEC  IMPL  A:70 X:78 Y:10 P:45 S:f9 pc: f819, reg_addr: 0000
f819 b8 a9 70 CLV  IMPL  A:70 X:78 Y:10 P:45 S:f9 pc: f81a, reg_addr: 0000
f81a a9 70 60 LDA  IMM   A:70 X:78 Y:10 P:05 S:f9 pc: f81c, reg_addr: 0070
f81c 60 d0 07 RTS  IMPL  A:70 X:78 Y:10 P:05 S:f9 pc: dc7e, reg_addr: 0000
dc7e 55 00 20 EOR  ZPX   A:70 X:78 Y:10 P:05 S:fb pc: dc80, reg_addr: 0078
dc80 20 1d f8 JSR  ABS   A:00 X:78 Y:10 P:07 S:fb pc: f81d, reg_addr: f81d
f81d d0 07 70 BNE  REL   A:00 X:78 Y:10 P:07 S:f9 pc: f81f, reg_addr: f826
f81f 70 05 90 BVS  REL   A:00 X:78 Y:10 P:07 S:f9 pc: f821, reg_addr: f826
f821 90 03 30 BCC  REL   A:00 X:78 Y:10 P:07 S:f9 pc: f823, reg_addr: f826
f823 30 01 60 BMI  REL   A:00 X:78 Y:10 P:07 S:f9 pc: f825, reg_addr: f826
f825 60 84 00 RTS  IMPL  A:00 X:78 Y:10 P:07 S:f9 pc: dc83, reg_addr: 0000
dc83 c8 a9 69 INY  IMPL  A:00 X:78 Y:10 P:07 S:fb pc: dc84, reg_addr: 0000
dc84 a9 69 85 LDA  IMM   A:00 X:78 Y:11 P:05 S:fb pc: dc86, reg_addr: 0069
dc86 85 78 20 STA  ZP    A:69 X:78 Y:11 P:05 S:fb pc: dc88, reg_addr: 0078
dc88 20 29 f8 JSR  ABS   A:69 X:78 Y:11 P:05 S:fb pc: f829, reg_addr: f829
f829 18 24 01 CLC  IMPL  A:69 X:78 Y:11 P:05 S:f9 pc: f82a, reg_addr: 0000
f82a 24 01 a9 BIT  ZP    A:69 X:78 Y:11 P:04 S:f9 pc: f82c, reg_addr: 0001
f82c a9 00 60 LDA  IMM   A:69 X:78 Y:11 P:c4 S:f9 pc: f82e, reg_addr: 0000
f82e 60 30 09 RTS  IMPL  A:00 X:78 Y:11 P:46 S:f9 pc: dc8b, reg_addr: 0000
dc8b 75 00 20 ADC  ZPX   A:00 X:78 Y:11 P:46 S:fb pc: dc8d, reg_addr: 0078
dc8d 20 2f f8 JSR  ABS   A:69 X:78 Y:11 P:04 S:fb pc: f82f, reg_addr: f82f
f82f 30 09 b0 BMI  REL   A:69 X:78 Y:11 P:04 S:f9 pc: f831, reg_addr: f83a
f831 b0 07 c9 BCS  REL   A:69 X:78 Y:11 P:04 S:f9 pc: f833, reg_addr: f83a
f833 c9 69 d0 CMP  IMM   A:69 X:78 Y:11 P:04 S:f9 pc: f835, reg_addr: 0069
f835 d0 03 70 BNE  REL   A:69 X:78 Y:11 P:07 S:f9 pc: f837, reg_addr: f83a
f837 70 01 60 BVS  REL   A:69 X:78 Y:11 P:07 S:f9 pc: f839, reg_addr: f83a
f839 60 84 00 RTS  IMPL  A:69 X:78 Y:11 P:07 S:f9 pc: dc90, reg_addr: 0000
dc90 c8 20 3d INY  IMPL  A:69 X:78 Y:11 P:07 S:fb pc: dc91, reg_addr: 0000
dc91 20 3d f8 JSR  ABS   A:69 X:78 Y:12 P:05 S:fb pc: f83d, reg_addr: f83d
f83d 38 24 01 SEC  IMPL  A:69 X:78 Y:12 P:05 S:f9 pc: f83e, reg_addr: 0000
f83e 24 01 a9 BIT  ZP    A:69 X:78 Y:12 P:05 S:f9 pc: f840, reg_addr: 0001
f840 a9 00 60 LDA  IMM   A:69 X:78 Y:12 P:c5 S:f9 pc: f842, reg_addr: 0000
f842 60 30 09 RTS  IMPL  A:00 X:78 Y:12 P:47 S:f9 pc: dc94, reg_addr: 0000
dc94 75 00 20 ADC  ZPX   A:00 X:78 Y:12 P:47 S:fb pc: dc96, reg_addr: 0078
dc96 20 43 f8 JSR  ABS   A:6a X:78 Y:12 P:04 S:fb pc: f843, reg_addr: f843
f843 30 09 b0 BMI  REL   A:6a X:78 Y:12 P:04 S:f9 pc: f845, reg_addr: f84e
f845 b0 07 c9 BCS  REL   A:6a X:78 Y:12 P:04 S:f9 pc: f847, reg_addr: f84e
f847 c9 6a d0 CMP  IMM   A:6a X:78 Y:12 P:04 S:f9 pc: f849, reg_addr: 006a
f849 d0 03 70 BNE  REL   A:6a X:78 Y:12 P:07 S:f9 pc: f84b, reg_addr: f84e
f84b 70 01 60 BVS  REL   A:6a X:78 Y:12 P:07 S:f9 pc: f84d, reg_addr: f84e
f84d 60 84 00 RTS  IMPL  A:6a X:78 Y:12 P:07 S:f9 pc: dc99, reg_addr: 0000
dc99 c8 a9 7f INY  IMPL  A:6a X:78 Y:12 P:07 S:fb pc: dc9a, reg_addr: 0000
dc9a a9 7f 85 LDA  IMM   A:6a X:78 Y:13 P:05 S:fb pc: dc9c, reg_addr: 007f
dc9c 85 78 20 STA  ZP    A:7f X:78 Y:13 P:05 S:fb pc: dc9e, reg_addr: 0078
dc9e 20 51 f8 JSR  ABS   A:7f X:78 Y:13 P:05 S:fb pc: f851, reg_addr: f851
f851 38 b8 a9 SEC  IMPL  A:7f X:78 Y:13 P:05 S:f9 pc: f852, reg_addr: 0000
f852 b8 a9 7f CLV  IMPL  A:7f X:78 Y:13 P:05 S:f9 pc: f853, reg_addr: 0000
f853 a9 7f 60 LDA  IMM   A:7f X:78 Y:13 P:05 S:f9 pc: f855, reg_addr: 007f
f855 60 10 09 RTS  IMPL  A:7f X:78 Y:13 P:05 S:f9 pc: dca1, reg_addr: 0000
dca1 75 00 20 ADC  ZPX   A:7f X:78 Y:13 P:05 S:fb pc: dca3, reg_addr: 0078
dca3 20 56 f8 JSR  ABS   A:ff X:78 Y:13 P:c4 S:fb pc: f856, reg_addr: f856
f856 10 09 b0 BPL  REL   A:ff X:78 Y:13 P:c4 S:f9 pc: f858, reg_addr: f861
f858 b0 07 c9 BCS  REL   A:ff X:78 Y:13 P:c4 S:f9 pc: f85a, reg_addr: f861
f85a c9 ff d0 CMP  IMM   A:ff X:78 Y:13 P:c4 S:f9 pc: f85c, reg_addr: 00ff
f85c d0 03 50 BNE  REL   A:ff X:78 Y:13 P:47 S:f9 pc: f85e, reg_addr: f861
f85e 50 01 60 BVC  REL   A:ff X:78 Y:13 P:47 S:f9 pc: f860, reg_addr: f861
f860 60 84 00 RTS  IMPL  A:ff X:78 Y:13 P:47 S:f9 pc: dca6, reg_addr: 0000
dca6 c8 a9 80 INY  IMPL  A:ff X:78 Y:13 P:47 S:fb pc: dca7, reg_addr: 0000
dca7 a9 80 85 LDA  IMM   A:ff X:78 Y:14 P:45 S:fb pc: dca9, reg_addr: 0080
dca9 85 78 20 STA  ZP    A:80 X:78 Y:14 P:c5 S:fb pc: dcab, reg_addr: 0078
dcab 20 64 f8 JSR  ABS   A:80 X:78 Y:14 P:c5 S:fb pc: f864, reg_addr: f864
f864 18 24 01 CLC  IMPL  A:80 X:78 Y:14 P:c5 S:f9 pc: f865, reg_addr: 0000
f865 24 01 a9 BIT  ZP    A:80 X:78 Y:14 P:c4 S:f9 pc: f867, reg_addr: 0001
f867 a9 7f 60 LDA  IMM   A:80 X:78 Y:14 P:c4 S:f9 pc: f869, reg_addr: 007f
f869 60 10 09 RTS  IMPL  A:7f X:78 Y:14 P:44 S:f9 pc: dcae, reg_addr: 0000
dcae 75 00 20 ADC  ZPX   A:7f X:78 Y:14 P:44 S:fb pc: dcb0, reg_addr: 0078
dcb0 20 6a f8 JSR  ABS   A:ff X:78 Y:14 P:84 S:fb pc: f86a, reg_addr: f86a
f86a 10 09 b0 BPL  REL   A:ff X:78 Y:14 P:84 S:f9 pc: f86c, reg_addr: f875
f86c b0 07 c9 BCS  REL   A:ff X:78 Y:14 P:84 S:f9 pc: f86e, reg_addr: f875
f86e c9 ff d0 CMP  IMM   A:ff X:78 Y:14 P:84 S:f9 pc: f870, reg_addr: 00ff
f870 d0 03 70 BNE  REL   A:ff X:78 Y:14 P:07 S:f9 pc: f872, reg_addr: f875
f872 70 01 60 BVS  REL   A:ff X:78 Y:14 P:07 S:f9 pc: f874, reg_addr: f875
f874 60 84 00 RTS  IMPL  A:ff X:78 Y:14 P:07 S:f9 pc: dcb3, reg_addr: 0000
dcb3 c8 20 78 INY  IMPL  A:ff X:78 Y:14 P:07 S:fb pc: dcb4, reg_addr: 0000
dcb4 20 78 f8 JSR  ABS   A:ff X:78 Y:15 P:05 S:fb pc: f878, reg_addr: f878
f878 38 b8 a9 SEC  IMPL  A:ff X:78 Y:15 P:05 S:f9 pc: f879, reg_addr: 0000
f879 b8 a9 7f CLV  IMPL  A:ff X:78 Y:15 P:05 S:f9 pc: f87a, reg_addr: 0000
f87a a9 7f 60 LDA  IMM   A:ff X:78 Y:15 P:05 S:f9 pc: f87c, reg_addr: 007f
f87c 60 d0 07 RTS  IMPL  A:7f X:78 Y:15 P:05 S:f9 pc: dcb7, reg_addr: 0000
dcb7 75 00 20 ADC  ZPX   A:7f X:78 Y:15 P:05 S:fb pc: dcb9, reg_addr: 0078
dcb9 20 7d f8 JSR  ABS   A:00 X:78 Y:15 P:07 S:fb pc: f87d, reg_addr: f87d
f87d d0 07 30 BNE  REL   A:00 X:78 Y:15 P:07 S:f9 pc: f87f, reg_addr: f886
f87f 30 05 70 BMI  REL   A:00 X:78 Y:15 P:07 S:f9 pc: f881, reg_addr: f886
f881 70 03 90 BVS  REL   A:00 X:78 Y:15 P:07 S:f9 pc: f883, reg_addr: f886
f883 90 01 60 BCC  REL   A:00 X:78 Y:15 P:07 S:f9 pc: f885, reg_addr: f886
f885 60 84 00 RTS  IMPL  A:00 X:78 Y:15 P:07 S:f9 pc: dcbc, reg_addr: 0000
dcbc c8 a9 40 INY  IMPL  A:00 X:78 Y:15 P:07 S:fb pc: dcbd, reg_addr: 0000
dcbd a9 40 85 LDA  IMM   A:00 X:78 Y:16 P:05 S:fb pc: dcbf, reg_addr: 0040
dcbf 85 78 20 STA  ZP    A:40 X:78 Y:16 P:05 S:fb pc: dcc1, reg_addr: 0078
dcc1 20 89 f8 JSR  ABS   A:40 X:78 Y:16 P:05 S:fb pc: f889, reg_addr: f889
f889 24 01 a9 BIT  ZP    A:40 X:78 Y:16 P:05 S:f9 pc: f88b, reg_addr: 0001
f88b a9 40 60 LDA  IMM   A:40 X:78 Y:16 P:c5 S:f9 pc: f88d, reg_addr: 0040
f88d 60 30 07 RTS  IMPL  A:40 X:78 Y:16 P:45 S:f9 pc: dcc4, reg_addr: 0000
dcc4 d5 00 20 CMP  ZPX   A:40 X:78 Y:16 P:45 S:fb pc: dcc6, reg_addr: 0078
dcc6 20 8e f8 JSR  ABS   A:40 X:78 Y:16 P:47 S:fb pc: f88e, reg_addr: f88e
f88e 30 07 90 BMI  REL   A:40 X:78 Y:16 P:47 S:f9 pc: f890, reg_addr: f897
f890 90 05 d0 BCC  REL   A:40 X:78 Y:16 P:47 S:f9 pc: f892, reg_addr: f897
f892 d0 03 50 BNE  REL   A:40 X:78 Y:16 P:47 S:f9 pc: f894, reg_addr: f897
f894 50 01 60 BVC  REL   A:40 X:78 Y:16 P:47 S:f9 pc: f896, reg_addr: f897
f896 60 84 00 RTS  IMPL  A:40 X:78 Y:16 P:47 S:f9 pc: dcc9, reg_addr: 0000
dcc9 c8 48 a9 INY  IMPL  A:40 X:78 Y:16 P:47 S:fb pc: dcca, reg_addr: 0000
dcca 48 a9 3f PHA  IMPL  A:40 X:78 Y:17 P:45 S:fb pc: dccb, reg_addr: 0000
dccb a9 3f 85 LDA  IMM   A:40 X:78 Y:17 P:45 S:fa pc: dccd, reg_addr: 003f
dccd 85 78 68 STA  ZP    A:3f X:78 Y:17 P:45 S:fa pc: dccf, reg_addr: 0078
dccf 68 20 9a PLA  IMPL  A:3f X:78 Y:17 P:45 S:fa pc: dcd0, reg_addr: 0000
dcd0 20 9a f8 JSR  ABS   A:40 X:78 Y:17 P:45 S:fb pc: f89a, reg_addr: f89a
f89a b8 60 f0 CLV  IMPL  A:40 X:78 Y:17 P:45 S:f9 pc: f89b, reg_addr: 0000
f89b 60 f0 07 RTS  IMPL  A:40 X:78 Y:17 P:05 S:f9 pc: dcd3, reg_addr: 0000
dcd3 d5 00 20 CMP  ZPX   A:40 X:78 Y:17 P:05 S:fb pc: dcd5, reg_addr: 0078
dcd5 20 9c f8 JSR  ABS   A:40 X:78 Y:17 P:05 S:fb pc: f89c, reg_addr: f89c
f89c f0 07 30 BEQ  REL   A:40 X:78 Y:17 P:05 S:f9 pc: f89e, reg_addr: f8a5
f89e 30 05 90 BMI  REL   A:40 X:78 Y:17 P:05 S:f9 pc: f8a0, reg_addr: f8a5
f8a0 90 03 70 BCC  REL   A:40 X:78 Y:17 P:05 S:f9 pc: f8a2, reg_addr: f8a5
f8a2 70 01 60 BVS  REL   A:40 X:78 Y:17 P:05 S:f9 pc: f8a4, reg_addr: f8a5
f8a4 60 84 00 RTS  IMPL  A:40 X:78 Y:17 P:05 S:f9 pc: dcd8, reg_addr: 0000
dcd8 c8 48 a9 INY  IMPL  A:40 X:78 Y:17 P:05 S:fb pc: dcd9, reg_addr: 0000
dcd9 48 a9 41 PHA  IMPL  A:40 X:78 Y:18 P:05 S:fb pc: dcda, reg_addr: 0000
dcda a9 41 85 LDA  IMM   A:40 X:78 Y:18 P:05 S:fa pc: dcdc, reg_addr: 0041
dcdc 85 78 68 STA  ZP    A:41 X:78 Y:18 P:05 S:fa pc: dcde, reg_addr: 0078
dcde 68 d5 00 PLA  IMPL  A:41 X:78 Y:18 P:05 S:fa pc: dcdf, reg_addr: 0000
dcdf d5 00 20 CMP  ZPX   A:40 X:78 Y:18 P:05 S:fb pc: dce1, reg_addr: 0078
dce1 20 a8 f8 JSR  ABS   A:40 X:78 Y:18 P:84 S:fb pc: f8a8, reg_addr: f8a8
f8a8 f0 05 10 BEQ  REL   A:40 X:78 Y:18 P:84 S:f9 pc: f8aa, reg_addr: f8af
f8aa 10 03 10 BPL  REL   A:40 X:78 Y:18 P:84 S:f9 pc: f8ac, reg_addr: f8af
f8ac 10 01 60 BPL  REL   A:40 X:78 Y:18 P:84 S:f9 pc: f8ae, reg_addr: f8af
f8ae 60 84 00 RTS  IMPL  A:40 X:78 Y:18 P:84 S:f9 pc: dce4, reg_addr: 0000
dce4 c8 48 a9 INY  IMPL  A:40 X:78 Y:18 P:84 S:fb pc: dce5, reg_addr: 0000
dce5 48 a9 00 PHA  IMPL  A:40 X:78 Y:19 P:04 S:fb pc: dce6, reg_addr: 0000
dce6 a9 00 85 LDA  IMM   A:40 X:78 Y:19 P:04 S:fa pc: dce8, reg_addr: 0000
dce8 85 78 68 STA  ZP    A:00 X:78 Y:19 P:06 S:fa pc: dcea, reg_addr: 0078
dcea 68 20 b2 PLA  IMPL  A:00 X:78 Y:19 P:06 S:fa pc: dceb, reg_addr: 0000
dceb 20 b2 f8 JSR  ABS   A:40 X:78 Y:19 P:04 S:fb pc: f8b2, reg_addr: f8b2
f8b2 a9 80 60 LDA  IMM   A:40 X:78 Y:19 P:04 S:f9 pc: f8b4, reg_addr: 0080
f8b4 60 f0 05 RTS  IMPL  A:80 X:78 Y:19 P:84 S:f9 pc: dcee, reg_addr: 0000
dcee d5 00 20 CMP  ZPX   A:80 X:78 Y:19 P:84 S:fb pc: dcf0, reg_addr: 0078
dcf0 20 b5 f8 JSR  ABS   A:80 X:78 Y:19 P:85 S:fb pc: f8b5, reg_addr: f8b5
f8b5 f0 05 10 BEQ  REL   A:80 X:78 Y:19 P:85 S:f9 pc: f8b7, reg_addr: f8bc
f8b7 10 03 90 BPL  REL   A:80 X:78 Y:19 P:85 S:f9 pc: f8b9, reg_addr: f8bc
f8b9 90 01 60 BCC  REL   A:80 X:78 Y:19 P:85 S:f9 pc: f8bb, reg_addr: f8bc
f8bb 60 84 00 RTS  IMPL  A:80 X:78 Y:19 P:85 S:f9 pc: dcf3, reg_addr: 0000
dcf3 c8 48 a9 INY  IMPL  A:80 X:78 Y:19 P:85 S:fb pc: dcf4, reg_addr: 0000
dcf4 48 a9 80 PHA  IMPL  A:80 X:78 Y:1a P:05 S:fb pc: dcf5, reg_addr: 0000
dcf5 a9 80 85 LDA  IMM   A:80 X:78 Y:1a P:05 S:fa pc: dcf7, reg_addr: 0080
dcf7 85 78 68 STA  ZP    A:80 X:78 Y:1a P:85 S:fa pc: dcf9, reg_addr: 0078
dcf9 68 d5 00 PLA  IMPL  A:80 X:78 Y:1a P:85 S:fa pc: dcfa, reg_addr: 0000
dcfa d5 00 20 CMP  ZPX   A:80 X:78 Y:1a P:85 S:fb pc: dcfc, reg_addr: 0078
dcfc 20 bf f8 JSR  ABS   A:80 X:78 Y:1a P:07 S:fb pc: f8bf, reg_addr: f8bf
f8bf d0 05 30 BNE  REL   A:80 X:78 Y:1a P:07 S:f9 pc: f8c1, reg_addr: f8c6
f8c1 30 03 90 BMI  REL   A:80 X:78 Y:1a P:07 S:f9 pc: f8c3, reg_addr: f8c6
f8c3 90 01 60 BCC  REL   A:80 X:78 Y:1a P:07 S:f9 pc: f8c5, reg_addr: f8c6
f8c5 60 84 00 RTS  IMPL  A:80 X:78 Y:1a P:07 S:f9 pc: dcff, reg_addr: 0000
dcff c8 48 a9 INY  IMPL  A:80 X:78 Y:1a P:07 S:fb pc: dd00, reg_addr: 0000
dd00 48 a9 81 PHA  IMPL  A:80 X:78 Y:1b P:05 S:fb pc: dd01, reg_addr: 0000
dd01 a9 81 85 LDA  IMM   A:80 X:78 Y:1b P:05 S:fa pc: dd03, reg_addr: 0081
dd03 85 78 68 STA  ZP    A:81 X:78 Y:1b P:85 S:fa pc: dd05, reg_addr: 0078
dd05 68 d5 00 PLA  IMPL  A:81 X:78 Y:1b P:85 S:fa pc: dd06, reg_addr: 0000
dd06 d5 00 20 CMP  ZPX   A:80 X:78 Y:1b P:85 S:fb pc: dd08, reg_addr: 0078
dd08 20 c9 f8 JSR  ABS   A:80 X:78 Y:1b P:84 S:fb pc: f8c9, reg_addr: f8c9
f8c9 b0 05 f0 BCS  REL   A:80 X:78 Y:1b P:84 S:f9 pc: f8cb, reg_addr: f8d0
f8cb f0 03 10 BEQ  REL   A:80 X:78 Y:1b P:84 S:f9 pc: f8cd, reg_addr: f8d0
f8cd 10 01 60 BPL  REL   A:80 X:78 Y:1b P:84 S:f9 pc: f8cf, reg_addr: f8d0
f8cf 60 84 00 RTS  IMPL  A:80 X:78 Y:1b P:84 S:f9 pc: dd0b, reg_addr: 0000
dd0b c8 48 a9 INY  IMPL  A:80 X:78 Y:1b P:84 S:fb pc: dd0c, reg_addr: 0000
dd0c 48 a9 7f PHA  IMPL  A:80 X:78 Y:1c P:04 S:fb pc: dd0d, reg_addr: 0000
dd0d a9 7f 85 LDA  IMM   A:80 X:78 Y:1c P:04 S:fa pc: dd0f, reg_addr: 007f
dd0f 85 78 68 STA  ZP    A:7f X:78 Y:1c P:04 S:fa pc: dd11, reg_addr: 0078
dd11 68 d5 00 PLA  IMPL  A:7f X:78 Y:1c P:04 S:fa pc: dd12, reg_addr: 0000
dd12 d5 00 20 CMP  ZPX   A:80 X:78 Y:1c P:84 S:fb pc: dd14, reg_addr: 0078
dd14 20 d3 f8 JSR  ABS   A:80 X:78 Y:1c P:05 S:fb pc: f8d3, reg_addr: f8d3
f8d3 90 05 f0 BCC  REL   A:80 X:78 Y:1c P:05 S:f9 pc: f8d5, reg_addr: f8da
f8d5 f0 03 30 BEQ  REL   A:80 X:78 Y:1c P:05 S:f9 pc: f8d7, reg_addr: f8da
f8d7 30 01 60 BMI  REL   A:80 X:78 Y:1c P:05 S:f9 pc: f8d9, reg_addr: f8da
f8d9 60 84 00 RTS  IMPL  A:80 X:78 Y:1c P:05 S:f9 pc: dd17, reg_addr: 0000
dd17 c8 a9 40 INY  IMPL  A:80 X:78 Y:1c P:05 S:fb pc: dd18, reg_addr: 0000
dd18 a9 40 85 LDA  IMM   A:80 X:78 Y:1d P:05 S:fb pc: dd1a, reg_addr: 0040
dd1a 85 78 20 STA  ZP    A:40 X:78 Y:1d P:05 S:fb pc: dd1c, reg_addr: 0078
dd1c 20 31 f9 JSR  ABS   A:40 X:78 Y:1d P:05 S:fb pc: f931, reg_addr: f931
f931 24 01 a9 BIT  ZP    A:40 X:78 Y:1d P:05 S:f9 pc: f933, reg_addr: 0001
f933 a9 40 38 LDA  IMM   A:40 X:78 Y:1d P:c5 S:f9 pc: f935, reg_addr: 0040
f935 38 60 30 SEC  IMPL  A:40 X:78 Y:1d P:45 S:f9 pc: f936, reg_addr: 0000
f936 60 30 0b RTS  IMPL  A:40 X:78 Y:1d P:45 S:f9 pc: dd1f, reg_addr: 0000
dd1f f5 00 20 SBC  ZPX   A:40 X:78 Y:1d P:45 S:fb pc: dd21, reg_addr: 0078
dd21 20 37 f9 JSR  ABS   A:00 X:78 Y:1d P:07 S:fb pc: f937, reg_addr: f937
f937 30 0b 90 BMI  REL   A:00 X:78 Y:1d P:07 S:f9 pc: f939, reg_addr: f944
f939 90 09 d0 BCC  REL   A:00 X:78 Y:1d P:07 S:f9 pc: f93b, reg_addr: f944
f93b d0 07 70 BNE  REL   A:00 X:78 Y:1d P:07 S:f9 pc: f93d, reg_addr: f944
f93d 70 05 c9 BVS  REL   A:00 X:78 Y:1d P:07 S:f9 pc: f93f, reg_addr: f944
f93f c9 00 d0 CMP  IMM   A:00 X:78 Y:1d P:07 S:f9 pc: f941, reg_addr: 0000
f941 d0 01 60 BNE  REL   A:00 X:78 Y:1d P:07 S:f9 pc: f943, reg_addr: f944
f943 60 84 00 RTS  IMPL  A:00 X:78 Y:1d P:07 S:f9 pc: dd24, reg_addr: 0000
dd24 c8 a9 3f INY  IMPL  A:00 X:78 Y:1d P:07 S:fb pc: dd25, reg_addr: 0000
dd25 a9 3f 85 LDA  IMM   A:00 X:78 Y:1e P:05 S:fb pc: dd27, reg_addr: 003f
dd27 85 78 20 STA  ZP    A:3f X:78 Y:1e P:05 S:fb pc: dd29, reg_addr: 0078
dd29 20 47 f9 JSR  ABS   A:3f X:78 Y:1e P:05 S:fb pc: f947, reg_addr: f947
f947 b8 38 a9 CLV  IMPL  A:3f X:78 Y:1e P:05 S:f9 pc: f948, reg_addr: 0000
f948 38 a9 40 SEC  IMPL  A:3f X:78 Y:1e P:05 S:f9 pc: f949, reg_addr: 0000
f949 a9 40 60 LDA  IMM   A:3f X:78 Y:1e P:05 S:f9 pc: f94b, reg_addr: 0040
f94b 60 f0 0b RTS  IMPL  A:40 X:78 Y:1e P:05 S:f9 pc: dd2c, reg_addr: 0000
dd2c f5 00 20 SBC  ZPX   A:40 X:78 Y:1e P:05 S:fb pc: dd2e, reg_addr: 0078
dd2e 20 4c f9 JSR  ABS   A:01 X:78 Y:1e P:05 S:fb pc: f94c, reg_addr: f94c
f94c f0 0b 30 BEQ  REL   A:01 X:78 Y:1e P:05 S:f9 pc: f94e, reg_addr: f959
f94e 30 09 90 BMI  REL   A:01 X:78 Y:1e P:05 S:f9 pc: f950, reg_addr: f959
f950 90 07 70 BCC  REL   A:01 X:78 Y:1e P:05 S:f9 pc: f952, reg_addr: f959
f952 70 05 c9 BVS  REL   A:01 X:78 Y:1e P:05 S:f9 pc: f954, reg_addr: f959
f954 c9 01 d0 CMP  IMM   A:01 X:78 Y:1e P:05 S:f9 pc: f956, reg_addr: 0001
f956 d0 01 60 BNE  REL   A:01 X:78 Y:1e P:07 S:f9 pc: f958, reg_addr: f959
f958 60 84 00 RTS  IMPL  A:01 X:78 Y:1e P:07 S:f9 pc: dd31, reg_addr: 0000
dd31 c8 a9 41 INY  IMPL  A:01 X:78 Y:1e P:07 S:fb pc: dd32, reg_addr: 0000
dd32 a9 41 85 LDA  IMM   A:01 X:78 Y:1f P:05 S:fb pc: dd34, reg_addr: 0041
dd34 85 78 20 STA  ZP    A:41 X:78 Y:1f P:05 S:fb pc: dd36, reg_addr: 0078
dd36 20 5c f9 JSR  ABS   A:41 X:78 Y:1f P:05 S:fb pc: f95c, reg_addr: f95c
f95c a9 40 38 LDA  IMM   A:41 X:78 Y:1f P:05 S:f9 pc: f95e, reg_addr: 0040
f95e 38 24 01 SEC  IMPL  A:40 X:78 Y:1f P:05 S:f9 pc: f95f, reg_addr: 0000
f95f 24 01 60 BIT  ZP    A:40 X:78 Y:1f P:05 S:f9 pc: f961, reg_addr: 0001
f961 60 b0 0b RTS  IMPL  A:40 X:78 Y:1f P:c5 S:f9 pc: dd39, reg_addr: 0000
dd39 f5 00 20 SBC  ZPX   A:40 X:78 Y:1f P:c5 S:fb pc: dd3b, reg_addr: 0078
dd3b 20 62 f9 JSR  ABS   A:ff X:78 Y:1f P:84 S:fb pc: f962, reg_addr: f962
f962 b0 0b f0 BCS  REL   A:ff X:78 Y:1f P:84 S:f9 pc: f964, reg_addr: f96f
f964 f0 09 10 BEQ  REL   A:ff X:78 Y:1f P:84 S:f9 pc: f966, reg_addr: f96f
f966 10 07 70 BPL  REL   A:ff X:78 Y:1f P:84 S:f9 pc: f968, reg_addr: f96f
f968 70 05 c9 BVS  REL   A:ff X:78 Y:1f P:84 S:f9 pc: f96a, reg_addr: f96f
f96a c9 ff d0 CMP  IMM   A:ff X:78 Y:1f P:84 S:f9 pc: f96c, reg_addr: 00ff
f96c d0 01 60 BNE  REL   A:ff X:78 Y:1f P:07 S:f9 pc: f96e, reg_addr: f96f
f96e 60 84 00 RTS  IMPL  A:ff X:78 Y:1f P:07 S:f9 pc: dd3e, reg_addr: 0000
dd3e c8 a9 00 INY  IMPL  A:ff X:78 Y:1f P:07 S:fb pc: dd3f, reg_addr: 0000
dd3f a9 00 85 LDA  IMM   A:ff X:78 Y:20 P:05 S:fb pc: dd41, reg_addr: 0000
dd41 85 78 20 STA  ZP    A:00 X:78 Y:20 P:07 S:fb pc: dd43, reg_addr: 0078
dd43 20 72 f9 JSR  ABS   A:00 X:78 Y:20 P:07 S:fb pc: f972, reg_addr: f972
f972 18 a9 80 CLC  IMPL  A:00 X:78 Y:20 P:07 S:f9 pc: f973, reg_addr: 0000
f973 a9 80 60 LDA  IMM   A:00 X:78 Y:20 P:06 S:f9 pc: f975, reg_addr: 0080
f975 60 90 05 RTS  IMPL  A:80 X:78 Y:20 P:84 S:f9 pc: dd46, reg_addr: 0000
dd46 f5 00 20 SBC  ZPX   A:80 X:78 Y:20 P:84 S:fb pc: dd48, reg_addr: 0078
dd48 20 76 f9 JSR  ABS   A:7f X:78 Y:20 P:45 S:fb pc: f976, reg_addr: f976
f976 90 05 c9 BCC  REL   A:7f X:78 Y:20 P:45 S:f9 pc: f978, reg_addr: f97d
f978 c9 7f d0 CMP  IMM   A:7f X:78 Y:20 P:45 S:f9 pc: f97a, reg_addr: 007f
f97a d0 01 60 BNE  REL   A:7f X:78 Y:20 P:47 S:f9 pc: f97c, reg_addr: f97d
f97c 60 84 00 RTS  IMPL  A:7f X:78 Y:20 P:47 S:f9 pc: dd4b, reg_addr: 0000
dd4b c8 a9 7f INY  IMPL  A:7f X:78 Y:20 P:47 S:fb pc: dd4c, reg_addr: 0000
dd4c a9 7f 85 LDA  IMM   A:7f X:78 Y:21 P:45 S:fb pc: dd4e, reg_addr: 007f
dd4e 85 78 20 STA  ZP    A:7f X:78 Y:21 P:45 S:fb pc: dd50, reg_addr: 0078
dd50 20 80 f9 JSR  ABS   A:7f X:78 Y:21 P:45 S:fb pc: f980, reg_addr: f980
f980 38 a9 81 SEC  IMPL  A:7f X:78 Y:21 P:45 S:f9 pc: f981, reg_addr: 0000
f981 a9 81 60 LDA  IMM   A:7f X:78 Y:21 P:45 S:f9 pc: f983, reg_addr: 0081
f983 60 50 07 RTS  IMPL  A:81 X:78 Y:21 P:c5 S:f9 pc: dd53, reg_addr: 0000
dd53 f5 00 20 SBC  ZPX   A:81 X:78 Y:21 P:c5 S:fb pc: dd55, reg_addr: 0078
dd55 20 84 f9 JSR  ABS   A:02 X:78 Y:21 P:45 S:fb pc: f984, reg_addr: f984
f984 50 07 90 BVC  REL   A:02 X:78 Y:21 P:45 S:f9 pc: f986, reg_addr: f98d
f986 90 05 c9 BCC  REL   A:02 X:78 Y:21 P:45 S:f9 pc: f988, reg_addr: f98d
f988 c9 02 d0 CMP  IMM   A:02 X:78 Y:21 P:45 S:f9 pc: f98a, reg_addr: 0002
f98a d0 01 60 BNE  REL   A:02 X:78 Y:21 P:47 S:f9 pc: f98c, reg_addr: f98d
f98c 60 84 00 RTS  IMPL  A:02 X:78 Y:21 P:47 S:f9 pc: dd58, reg_addr: 0000
dd58 a9 aa 85 LDA  IMM   A:02 X:78 Y:21 P:47 S:fb pc: dd5a, reg_addr: 00aa
dd5a 85 33 a9 STA  ZP    A:aa X:78 Y:21 P:c5 S:fb pc: dd5c, reg_addr: 0033
dd5c a9 bb 85 LDA  IMM   A:aa X:78 Y:21 P:c5 S:fb pc: dd5e, reg_addr: 00bb
dd5e 85 89 a2 STA  ZP    A:bb X:78 Y:21 P:c5 S:fb pc: dd60, reg_addr: 0089
dd60 a2 00 a0 LDX  IMM   A:bb X:78 Y:21 P:c5 S:fb pc: dd62, reg_addr: 0000
dd62 a0 66 24 LDY  IMM   A:bb X:00 Y:21 P:47 S:fb pc: dd64, reg_addr: 0066
dd64 24 01 38 BIT  ZP    A:bb X:00 Y:66 P:45 S:fb pc: dd66, reg_addr: 0001
dd66 38 a9 00 SEC  IMPL  A:bb X:00 Y:66 P:c5 S:fb pc: dd67, reg_addr: 0000
dd67 a9 00 b5 LDA  IMM   A:bb X:00 Y:66 P:c5 S:fb pc: dd69, reg_addr: 0000
dd69 b5 33 10 LDA  ZPX   A:00 X:00 Y:66 P:47 S:fb pc: dd6b, reg_addr: 0033
dd6b 10 12 f0 BPL  REL   A:aa X:00 Y:66 P:c5 S:fb pc: dd6d, reg_addr: dd7f
dd6d f0 10 50 BEQ  REL   A:aa X:00 Y:66 P:c5 S:fb pc: dd6f, reg_addr: dd7f
dd6f 50 0e 90 BVC  REL   A:aa X:00 Y:66 P:c5 S:fb pc: dd71, reg_addr: dd7f
dd71 90 0c c0 BCC  REL   A:aa X:00 Y:66 P:c5 S:fb pc: dd73, reg_addr: dd7f
dd73 c0 66 d0 CPY  IMM   A:aa X:00 Y:66 P:c5 S:fb pc: dd75, reg_addr: 0066
dd75 d0 08 e0 BNE  REL   A:aa X:00 Y:66 P:47 S:fb pc: dd77, reg_addr: dd7f
dd77 e0 00 d0 CPX  IMM   A:aa X:00 Y:66 P:47 S:fb pc: dd79, reg_addr: 0000
dd79 d0 04 c9 BNE  REL   A:aa X:00 Y:66 P:47 S:fb pc: dd7b, reg_addr: dd7f
dd7b c9 aa f0 CMP  IMM   A:aa X:00 Y:66 P:47 S:fb pc: dd7d, reg_addr: 00aa
dd7d f0 04 a9 BEQ  REL   A:aa X:00 Y:66 P:47 S:fb pc: dd83, reg_addr: dd83
dd83 a2 8a a0 LDX  IMM   A:aa X:00 Y:66 P:47 S:fb pc: dd85, reg_addr: 008a
dd85 a0 66 b8 LDY  IMM   A:aa X:8a Y:66 P:c5 S:fb pc: dd87, reg_addr: 0066
dd87 b8 18 a9 CLV  IMPL  A:aa X:8a Y:66 P:45 S:fb pc: dd88, reg_addr: 0000
dd88 18 a9 00 CLC  IMPL  A:aa X:8a Y:66 P:05 S:fb pc: dd89, reg_addr: 0000
dd89 a9 00 b5 LDA  IMM   A:aa X:8a Y:66 P:04 S:fb pc: dd8b, reg_addr: 0000
dd8b b5 ff 10 LDA  ZPX   A:00 X:8a Y:66 P:06 S:fb pc: dd8d, reg_addr: 0089
dd8d 10 12 f0 BPL  REL   A:bb X:8a Y:66 P:84 S:fb pc: dd8f, reg_addr: dda1
dd8f f0 10 70 BEQ  REL   A:bb X:8a Y:66 P:84 S:fb pc: dd91, reg_addr: dda1
dd91 70 0e b0 BVS  REL   A:bb X:8a Y:66 P:84 S:fb pc: dd93, reg_addr: dda1
dd93 b0 0c c9 BCS  REL   A:bb X:8a Y:66 P:84 S:fb pc: dd95, reg_addr: dda1
dd95 c9 bb d0 CMP  IMM   A:bb X:8a Y:66 P:84 S:fb pc: dd97, reg_addr: 00bb
dd97 d0 08 c0 BNE  REL   A:bb X:8a Y:66 P:07 S:fb pc: dd99, reg_addr: dda1
dd99 c0 66 d0 CPY  IMM   A:bb X:8a Y:66 P:07 S:fb pc: dd9b, reg_addr: 0066
dd9b d0 04 e0 BNE  REL   A:bb X:8a Y:66 P:07 S:fb pc: dd9d, reg_addr: dda1
dd9d e0 8a f0 CPX  IMM   A:bb X:8a Y:66 P:07 S:fb pc: dd9f, reg_addr: 008a
dd9f f0 04 a9 BEQ  REL   A:bb X:8a Y:66 P:07 S:fb pc: dda5, reg_addr: dda5
dda5 24 01 38 BIT  ZP    A:bb X:8a Y:66 P:07 S:fb pc: dda7, reg_addr: 0001
dda7 38 a9 44 SEC  IMPL  A:bb X:8a Y:66 P:c5 S:fb pc: dda8, reg_addr: 0000
dda8 a9 44 a2 LDA  IMM   A:bb X:8a Y:66 P:c5 S:fb pc: ddaa, reg_addr: 0044
ddaa a2 00 95 LDX  IMM   A:44 X:8a Y:66 P:45 S:fb pc: ddac, reg_addr: 0000
ddac 95 33 a5 STA  ZPX   A:44 X:00 Y:66 P:47 S:fb pc: ddae, reg_addr: 0033
ddae a5 33 90 LDA  ZP    A:44 X:00 Y:66 P:47 S:fb pc: ddb0, reg_addr: 0033
ddb0 90 18 c9 BCC  REL   A:44 X:00 Y:66 P:45 S:fb pc: ddb2, reg_addr: ddca
ddb2 c9 44 d0 CMP  IMM   A:44 X:00 Y:66 P:45 S:fb pc: ddb4, reg_addr: 0044
ddb4 d0 14 50 BNE  REL   A:44 X:00 Y:66 P:47 S:fb pc: ddb6, reg_addr: ddca
ddb6 50 12 18 BVC  REL   A:44 X:00 Y:66 P:47 S:fb pc: ddb8, reg_addr: ddca
ddb8 18 b8 a9 CLC  IMPL  A:44 X:00 Y:66 P:47 S:fb pc: ddb9, reg_addr: 0000
ddb9 b8 a9 99 CLV  IMPL  A:44 X:00 Y:66 P:46 S:fb pc: ddba, reg_addr: 0000
ddba a9 99 a2 LDA  IMM   A:44 X:00 Y:66 P:06 S:fb pc: ddbc, reg_addr: 0099
ddbc a2 80 95 LDX  IMM   A:99 X:00 Y:66 P:84 S:fb pc: ddbe, reg_addr: 0080
ddbe 95 85 a5 STA  ZPX   A:99 X:80 Y:66 P:84 S:fb pc: ddc0, reg_addr: 0005
ddc0 a5 05 b0 LDA  ZP    A:99 X:80 Y:66 P:84 S:fb pc: ddc2, reg_addr: 0005
ddc2 b0 06 c9 BCS  REL   A:99 X:80 Y:66 P:84 S:fb pc: ddc4, reg_addr: ddca
ddc4 c9 99 d0 CMP  IMM   A:99 X:80 Y:66 P:84 S:fb pc: ddc6, reg_addr: 0099
ddc6 d0 02 50 BNE  REL   A:99 X:80 Y:66 P:07 S:fb pc: ddc8, reg_addr: ddca
ddc8 50 04 a9 BVC  REL   A:99 X:80 Y:66 P:07 S:fb pc: ddce, reg_addr: ddce
ddce a0 25 a2 LDY  IMM   A:99 X:80 Y:66 P:07 S:fb pc: ddd0, reg_addr: 0025
ddd0 a2 78 20 LDX  IMM   A:99 X:80 Y:25 P:05 S:fb pc: ddd2, reg_addr: 0078
ddd2 20 90 f9 JSR  ABS   A:99 X:78 Y:25 P:05 S:fb pc: f990, reg_addr: f990
f990 a2 55 a9 LDX  IMM   A:99 X:78 Y:25 P:05 S:f9 pc: f992, reg_addr: 0055
f992 a9 ff 85 LDA  IMM   A:99 X:55 Y:25 P:05 S:f9 pc: f994, reg_addr: 00ff
f994 85 01 ea STA  ZP    A:ff X:55 Y:25 P:85 S:f9 pc: f996, reg_addr: 0001
f996 ea 24 01 NOP  IMPL  A:ff X:55 Y:25 P:85 S:f9 pc: f997, reg_addr: 0000
f997 24 01 38 BIT  ZP    A:ff X:55 Y:25 P:85 S:f9 pc: f999, reg_addr: 0001
f999 38 a9 01 SEC  IMPL  A:ff X:55 Y:25 P:c5 S:f9 pc: f99a, reg_addr: 0000
f99a a9 01 60 LDA  IMM   A:ff X:55 Y:25 P:c5 S:f9 pc: f99c, reg_addr: 0001
f99c 60 90 1b RTS  IMPL  A:01 X:55 Y:25 P:45 S:f9 pc: ddd5, reg_addr: 0000
ddd5 95 00 56 STA  ZPX   A:01 X:55 Y:25 P:45 S:fb pc: ddd7, reg_addr: 0055
ddd7 56 00 b5 LSR  ZPX   A:01 X:55 Y:25 P:45 S:fb pc: ddd9, reg_addr: 0055
ddd9 b5 00 20 LDA  ZPX   A:01 X:55 Y:25 P:47 S:fb pc: dddb, reg_addr: 0055
dddb 20 9d f9 JSR  ABS   A:00 X:55 Y:25 P:47 S:fb pc: f99d, reg_addr: f99d
f99d 90 1b d0 BCC  REL   A:00 X:55 Y:25 P:47 S:f9 pc: f99f, reg_addr: f9ba
f99f d0 19 30 BNE  REL   A:00 X:55 Y:25 P:47 S:f9 pc: f9a1, reg_addr: f9ba
f9a1 30 17 50 BMI  REL   A:00 X:55 Y:25 P:47 S:f9 pc: f9a3, reg_addr: f9ba
f9a3 50 15 c9 BVC  REL   A:00 X:55 Y:25 P:47 S:f9 pc: f9a5, reg_addr: f9ba
f9a5 c9 00 d0 CMP  IMM   A:00 X:55 Y:25 P:47 S:f9 pc: f9a7, reg_addr: 0000
f9a7 d0 11 b8 BNE  REL   A:00 X:55 Y:25 P:47 S:f9 pc: f9a9, reg_addr: f9ba
f9a9 b8 a9 aa CLV  IMPL  A:00 X:55 Y:25 P:47 S:f9 pc: f9aa, reg_addr: 0000
f9aa a9 aa 60 LDA  IMM   A:00 X:55 Y:25 P:07 S:f9 pc: f9ac, reg_addr: 00aa
f9ac 60 b0 0b RTS  IMPL  A:aa X:55 Y:25 P:85 S:f9 pc: ddde, reg_addr: 0000
ddde c8 95 00 INY  IMPL  A:aa X:55 Y:25 P:85 S:fb pc: dddf, reg_addr: 0000
dddf 95 00 56 STA  ZPX   A:aa X:55 Y:26 P:05 S:fb pc: dde1, reg_addr: 0055
dde1 56 00 b5 LSR  ZPX   A:aa X:55 Y:26 P:05 S:fb pc: dde3, reg_addr: 0055
dde3 b5 00 20 LDA  ZPX   A:aa X:55 Y:26 P:04 S:fb pc: dde5, reg_addr: 0055
dde5 20 ad f9 JSR  ABS   A:55 X:55 Y:26 P:04 S:fb pc: f9ad, reg_addr: f9ad
f9ad b0 0b f0 BCS  REL   A:55 X:55 Y:26 P:04 S:f9 pc: f9af, reg_addr: f9ba
f9af f0 09 30 BEQ  REL   A:55 X:55 Y:26 P:04 S:f9 pc: f9b1, reg_addr: f9ba
f9b1 30 07 70 BMI  REL   A:55 X:55 Y:26 P:04 S:f9 pc: f9b3, reg_addr: f9ba
f9b3 70 05 c9 BVS  REL   A:55 X:55 Y:26 P:04 S:f9 pc: f9b5, reg_addr: f9ba
f9b5 c9 55 d0 CMP  IMM   A:55 X:55 Y:26 P:04 S:f9 pc: f9b7, reg_addr: 0055
f9b7 d0 01 60 BNE  REL   A:55 X:55 Y:26 P:07 S:f9 pc: f9b9, reg_addr: f9ba
f9b9 60 84 00 RTS  IMPL  A:55 X:55 Y:26 P:07 S:f9 pc: dde8, reg_addr: 0000
dde8 c8 20 bd INY  IMPL  A:55 X:55 Y:26 P:07 S:fb pc: dde9, reg_addr: 0000
dde9 20 bd f9 JSR  ABS   A:55 X:55 Y:27 P:05 S:fb pc: f9bd, reg_addr: f9bd
f9bd 24 01 38 BIT  ZP    A:55 X:55 Y:27 P:05 S:f9 pc: f9bf, reg_addr: 0001
f9bf 38 a9 80 SEC  IMPL  A:55 X:55 Y:27 P:c5 S:f9 pc: f9c0, reg_addr: 0000
f9c0 a9 80 60 LDA  IMM   A:55 X:55 Y:27 P:c5 S:f9 pc: f9c2, reg_addr: 0080
f9c2 60 90 1c RTS  IMPL  A:80 X:55 Y:27 P:c5 S:f9 pc: ddec, reg_addr: 0000
ddec 95 00 16 STA  ZPX   A:80 X:55 Y:27 P:c5 S:fb pc: ddee, reg_addr: 0055
ddee 16 00 b5 ASL  ZPX   A:80 X:55 Y:27 P:c5 S:fb pc: ddf0, reg_addr: 0055
ddf0 b5 00 20 LDA  ZPX   A:80 X:55 Y:27 P:47 S:fb pc: ddf2, reg_addr: 0055
ddf2 20 c3 f9 JSR  ABS   A:00 X:55 Y:27 P:47 S:fb pc: f9c3, reg_addr: f9c3
f9c3 90 1c d0 BCC  REL   A:00 X:55 Y:27 P:47 S:f9 pc: f9c5, reg_addr: f9e1
f9c5 d0 1a 30 BNE  REL   A:00 X:55 Y:27 P:47 S:f9 pc: f9c7, reg_addr: f9e1
f9c7 30 18 50 BMI  REL   A:00 X:55 Y:27 P:47 S:f9 pc: f9c9, reg_addr: f9e1
f9c9 50 16 c9 BVC  REL   A:00 X:55 Y:27 P:47 S:f9 pc: f9cb, reg_addr: f9e1
f9cb c9 00 d0 CMP  IMM   A:00 X:55 Y:27 P:47 S:f9 pc: f9cd, reg_addr: 0000
f9cd d0 12 b8 BNE  REL   A:00 X:55 Y:27 P:47 S:f9 pc: f9cf, reg_addr: f9e1
f9cf b8 a9 55 CLV  IMPL  A:00 X:55 Y:27 P:47 S:f9 pc: f9d0, reg_addr: 0000
f9d0 a9 55 38 LDA  IMM   A:00 X:55 Y:27 P:07 S:f9 pc: f9d2, reg_addr: 0055
f9d2 38 60 b0 SEC  IMPL  A:55 X:55 Y:27 P:05 S:f9 pc: f9d3, reg_addr: 0000
f9d3 60 b0 0b RTS  IMPL  A:55 X:55 Y:27 P:05 S:f9 pc: ddf5, reg_addr: 0000
ddf5 c8 95 00 INY  IMPL  A:55 X:55 Y:27 P:05 S:fb pc: ddf6, reg_addr: 0000
ddf6 95 00 16 STA  ZPX   A:55 X:55 Y:28 P:05 S:fb pc: ddf8, reg_addr: 0055
ddf8 16 00 b5 ASL  ZPX   A:55 X:55 Y:28 P:05 S:fb pc: ddfa, reg_addr: 0055
ddfa b5 00 20 LDA  ZPX   A:55 X:55 Y:28 P:84 S:fb pc: ddfc, reg_addr: 0055
ddfc 20 d4 f9 JSR  ABS   A:aa X:55 Y:28 P:84 S:fb pc: f9d4, reg_addr: f9d4
f9d4 b0 0b f0 BCS  REL   A:aa X:55 Y:28 P:84 S:f9 pc: f9d6, reg_addr: f9e1
f9d6 f0 09 10 BEQ  REL   A:aa X:55 Y:28 P:84 S:f9 pc: f9d8, reg_addr: f9e1
f9d8 10 07 70 BPL  REL   A:aa X:55 Y:28 P:84 S:f9 pc: f9da, reg_addr: f9e1
f9da 70 05 c9 BVS  REL   A:aa X:55 Y:28 P:84 S:f9 pc: f9dc, reg_addr: f9e1
f9dc c9 aa d0 CMP  IMM   A:aa X:55 Y:28 P:84 S:f9 pc: f9de, reg_addr: 00aa
f9de d0 01 60 BNE  REL   A:aa X:55 Y:28 P:07 S:f9 pc: f9e0, reg_addr: f9e1
f9e0 60 84 00 RTS  IMPL  A:aa X:55 Y:28 P:07 S:f9 pc: ddff, reg_addr: 0000
ddff c8 20 e4 INY  IMPL  A:aa X:55 Y:28 P:07 S:fb pc: de00, reg_addr: 0000
de00 20 e4 f9 JSR  ABS   A:aa X:55 Y:29 P:05 S:fb pc: f9e4, reg_addr: f9e4
f9e4 24 01 38 BIT  ZP    A:aa X:55 Y:29 P:05 S:f9 pc: f9e6, reg_addr: 0001
f9e6 38 a9 01 SEC  IMPL  A:aa X:55 Y:29 P:c5 S:f9 pc: f9e7, reg_addr: 0000
f9e7 a9 01 60 LDA  IMM   A:aa X:55 Y:29 P:c5 S:f9 pc: f9e9, reg_addr: 0001
f9e9 60 90 1c RTS  IMPL  A:01 X:55 Y:29 P:45 S:f9 pc: de03, reg_addr: 0000
de03 95 00 76 STA  ZPX   A:01 X:55 Y:29 P:45 S:fb pc: de05, reg_addr: 0055
de05 76 00 b5 ROR  ZPX   A:01 X:55 Y:29 P:45 S:fb pc: de07, reg_addr: 0055
de07 b5 00 20 LDA  ZPX   A:01 X:55 Y:29 P:c5 S:fb pc: de09, reg_addr: 0055
de09 20 ea f9 JSR  ABS   A:80 X:55 Y:29 P:c5 S:fb pc: f9ea, reg_addr: f9ea
f9ea 90 1c f0 BCC  REL   A:80 X:55 Y:29 P:c5 S:f9 pc: f9ec, reg_addr: fa08
f9ec f0 1a 10 BEQ  REL   A:80 X:55 Y:29 P:c5 S:f9 pc: f9ee, reg_addr: fa08
f9ee 10 18 50 BPL  REL   A:80 X:55 Y:29 P:c5 S:f9 pc: f9f0, reg_addr: fa08
f9f0 50 16 c9 BVC  REL   A:80 X:55 Y:29 P:c5 S:f9 pc: f9f2, reg_addr: fa08
f9f2 c9 80 d0 CMP  IMM   A:80 X:55 Y:29 P:c5 S:f9 pc: f9f4, reg_addr: 0080
f9f4 d0 12 b8 BNE  REL   A:80 X:55 Y:29 P:47 S:f9 pc: f9f6, reg_addr: fa08
f9f6 b8 18 a9 CLV  IMPL  A:80 X:55 Y:29 P:47 S:f9 pc: f9f7, reg_addr: 0000
f9f7 18 a9 55 CLC  IMPL  A:80 X:55 Y:29 P:07 S:f9 pc: f9f8, reg_addr: 0000
f9f8 a9 55 60 LDA  IMM   A:80 X:55 Y:29 P:06 S:f9 pc: f9fa, reg_addr: 0055
f9fa 60 90 0b RTS  IMPL  A:55 X:55 Y:29 P:04 S:f9 pc: de0c, reg_addr: 0000
de0c c8 95 00 INY  IMPL  A:55 X:55 Y:29 P:04 S:fb pc: de0d, reg_addr: 0000
de0d 95 00 76 STA  ZPX   A:55 X:55 Y:2a P:04 S:fb pc: de0f, reg_addr: 0055
de0f 76 00 b5 ROR  ZPX   A:55 X:55 Y:2a P:04 S:fb pc: de11, reg_addr: 0055
de11 b5 00 20 LDA  ZPX   A:55 X:55 Y:2a P:05 S:fb pc: de13, reg_addr: 0055
de13 20 fb f9 JSR  ABS   A:2a X:55 Y:2a P:05 S:fb pc: f9fb, reg_addr: f9fb
f9fb 90 0b f0 BCC  REL   A:2a X:55 Y:2a P:05 S:f9 pc: f9fd, reg_addr: fa08
f9fd f0 09 30 BEQ  REL   A:2a X:55 Y:2a P:05 S:f9 pc: f9ff, reg_addr: fa08
f9ff 30 07 70 BMI  REL   A:2a X:55 Y:2a P:05 S:f9 pc: fa01, reg_addr: fa08
fa01 70 05 c9 BVS  REL   A:2a X:55 Y:2a P:05 S:f9 pc: fa03, reg_addr: fa08
fa03 c9 2a d0 CMP  IMM   A:2a X:55 Y:2a P:05 S:f9 pc: fa05, reg_addr: 002a
fa05 d0 01 60 BNE  REL   A:2a X:55 Y:2a P:07 S:f9 pc: fa07, reg_addr: fa08
fa07 60 84 00 RTS  IMPL  A:2a X:55 Y:2a P:07 S:f9 pc: de16, reg_addr: 0000
de16 c8 20 0a INY  IMPL  A:2a X:55 Y:2a P:07 S:fb pc: de17, reg_addr: 0000
de17 20 0a fa JSR  ABS   A:2a X:55 Y:2b P:05 S:fb pc: fa0a, reg_addr: fa0a
fa0a 24 01 38 BIT  ZP    A:2a X:55 Y:2b P:05 S:f9 pc: fa0c, reg_addr: 0001
fa0c 38 a9 80 SEC  IMPL  A:2a X:55 Y:2b P:c5 S:f9 pc: fa0d, reg_addr: 0000
fa0d a9 80 60 LDA  IMM   A:2a X:55 Y:2b P:c5 S:f9 pc: fa0f, reg_addr: 0080
fa0f 60 90 1c RTS  IMPL  A:80 X:55 Y:2b P:c5 S:f9 pc: de1a, reg_addr: 0000
de1a 95 00 36 STA  ZPX   A:80 X:55 Y:2b P:c5 S:fb pc: de1c, reg_addr: 0055
de1c 36 00 b5 ROL  ZPX   A:80 X:55 Y:2b P:c5 S:fb pc: de1e, reg_addr: 0055
de1e b5 00 20 LDA  ZPX   A:80 X:55 Y:2b P:45 S:fb pc: de20, reg_addr: 0055
de20 20 10 fa JSR  ABS   A:01 X:55 Y:2b P:45 S:fb pc: fa10, reg_addr: fa10
fa10 90 1c f0 BCC  REL   A:01 X:55 Y:2b P:45 S:f9 pc: fa12, reg_addr: fa2e
fa12 f0 1a 30 BEQ  REL   A:01 X:55 Y:2b P:45 S:f9 pc: fa14, reg_addr: fa2e
fa14 30 18 50 BMI  REL   A:01 X:55 Y:2b P:45 S:f9 pc: fa16, reg_addr: fa2e
fa16 50 16 c9 BVC  REL   A:01 X:55 Y:2b P:45 S:f9 pc: fa18, reg_addr: fa2e
fa18 c9 01 d0 CMP  IMM   A:01 X:55 Y:2b P:45 S:f9 pc: fa1a, reg_addr: 0001
fa1a d0 12 b8 BNE  REL   A:01 X:55 Y:2b P:47 S:f9 pc: fa1c, reg_addr: fa2e
fa1c b8 18 a9 CLV  IMPL  A:01 X:55 Y:2b P:47 S:f9 pc: fa1d, reg_addr: 0000
fa1d 18 a9 55 CLC  IMPL  A:01 X:55 Y:2b P:07 S:f9 pc: fa1e, reg_addr: 0000
fa1e a9 55 60 LDA  IMM   A:01 X:55 Y:2b P:06 S:f9 pc: fa20, reg_addr: 0055
fa20 60 b0 0b RTS  IMPL  A:55 X:55 Y:2b P:04 S:f9 pc: de23, reg_addr: 0000
de23 c8 95 00 INY  IMPL  A:55 X:55 Y:2b P:04 S:fb pc: de24, reg_addr: 0000
de24 95 00 36 STA  ZPX   A:55 X:55 Y:2c P:04 S:fb pc: de26, reg_addr: 0055
de26 36 00 b5 ROL  ZPX   A:55 X:55 Y:2c P:04 S:fb pc: de28, reg_addr: 0055
de28 b5 00 20 LDA  ZPX   A:55 X:55 Y:2c P:84 S:fb pc: de2a, reg_addr: 0055
de2a 20 21 fa JSR  ABS   A:aa X:55 Y:2c P:84 S:fb pc: fa21, reg_addr: fa21
fa21 b0 0b f0 BCS  REL   A:aa X:55 Y:2c P:84 S:f9 pc: fa23, reg_addr: fa2e
fa23 f0 09 10 BEQ  REL   A:aa X:55 Y:2c P:84 S:f9 pc: fa25, reg_addr: fa2e
fa25 10 07 70 BPL  REL   A:aa X:55 Y:2c P:84 S:f9 pc: fa27, reg_addr: fa2e
fa27 70 05 c9 BVS  REL   A:aa X:55 Y:2c P:84 S:f9 pc: fa29, reg_addr: fa2e
fa29 c9 aa d0 CMP  IMM   A:aa X:55 Y:2c P:84 S:f9 pc: fa2b, reg_addr: 00aa
fa2b d0 01 60 BNE  REL   A:aa X:55 Y:2c P:07 S:f9 pc: fa2d, reg_addr: fa2e
fa2d 60 84 00 RTS  IMPL  A:aa X:55 Y:2c P:07 S:f9 pc: de2d, reg_addr: 0000
de2d a9 ff 95 LDA  IMM   A:aa X:55 Y:2c P:07 S:fb pc: de2f, reg_addr: 00ff
de2f 95 00 85 STA  ZPX   A:ff X:55 Y:2c P:85 S:fb pc: de31, reg_addr: 0055
de31 85 01 24 STA  ZP    A:ff X:55 Y:2c P:85 S:fb pc: de33, reg_addr: 0001
de33 24 01 38 BIT  ZP    A:ff X:55 Y:2c P:85 S:fb pc: de35, reg_addr: 0001
de35 38 f6 00 SEC  IMPL  A:ff X:55 Y:2c P:c5 S:fb pc: de36, reg_addr: 0000
de36 f6 00 d0 INC  ZPX   A:ff X:55 Y:2c P:c5 S:fb pc: de38, reg_addr: 0055
de38 d0 0c 30 BNE  REL   A:ff X:55 Y:2c P:47 S:fb pc: de3a, reg_addr: de46
de3a 30 0a 50 BMI  REL   A:ff X:55 Y:2c P:47 S:fb pc: de3c, reg_addr: de46
de3c 50 08 90 BVC  REL   A:ff X:55 Y:2c P:47 S:fb pc: de3e, reg_addr: de46
de3e 90 06 b5 BCC  REL   A:ff X:55 Y:2c P:47 S:fb pc: de40, reg_addr: de46
de40 b5 00 c9 LDA  ZPX   A:ff X:55 Y:2c P:47 S:fb pc: de42, reg_addr: 0055
de42 c9 00 f0 CMP  IMM   A:00 X:55 Y:2c P:47 S:fb pc: de44, reg_addr: 0000
de44 f0 04 a9 BEQ  REL   A:00 X:55 Y:2c P:47 S:fb pc: de4a, reg_addr: de4a
de4a a9 7f 95 LDA  IMM   A:00 X:55 Y:2c P:47 S:fb pc: de4c, reg_addr: 007f
de4c 95 00 b8 STA  ZPX   A:7f X:55 Y:2c P:45 S:fb pc: de4e, reg_addr: 0055
de4e b8 18 f6 CLV  IMPL  A:7f X:55 Y:2c P:45 S:fb pc: de4f, reg_addr: 0000
de4f 18 f6 00 CLC  IMPL  A:7f X:55 Y:2c P:05 S:fb pc: de50, reg_addr: 0000
de50 f6 00 f0 INC  ZPX   A:7f X:55 Y:2c P:04 S:fb pc: de52, reg_addr: 0055
de52 f0 0c 10 BEQ  REL   A:7f X:55 Y:2c P:84 S:fb pc: de54, reg_addr: de60
de54 10 0a 70 BPL  REL   A:7f X:55 Y:2c P:84 S:fb pc: de56, reg_addr: de60
de56 70 08 b0 BVS  REL   A:7f X:55 Y:2c P:84 S:fb pc: de58, reg_addr: de60
de58 b0 06 b5 BCS  REL   A:7f X:55 Y:2c P:84 S:fb pc: de5a, reg_addr: de60
de5a b5 00 c9 LDA  ZPX   A:7f X:55 Y:2c P:84 S:fb pc: de5c, reg_addr: 0055
de5c c9 80 f0 CMP  IMM   A:80 X:55 Y:2c P:84 S:fb pc: de5e, reg_addr: 0080
de5e f0 04 a9 BEQ  REL   A:80 X:55 Y:2c P:07 S:fb pc: de64, reg_addr: de64
de64 a9 00 95 LDA  IMM   A:80 X:55 Y:2c P:07 S:fb pc: de66, reg_addr: 0000
de66 95 00 24 STA  ZPX   A:00 X:55 Y:2c P:07 S:fb pc: de68, reg_addr: 0055
de68 24 01 38 BIT  ZP    A:00 X:55 Y:2c P:07 S:fb pc: de6a, reg_addr: 0001
de6a 38 d6 00 SEC  IMPL  A:00 X:55 Y:2c P:c7 S:fb pc: de6b, reg_addr: 0000
de6b d6 00 f0 DEC  ZPX   A:00 X:55 Y:2c P:c7 S:fb pc: de6d, reg_addr: 0055
de6d f0 0c 10 BEQ  REL   A:00 X:55 Y:2c P:c5 S:fb pc: de6f, reg_addr: de7b
de6f 10 0a 50 BPL  REL   A:00 X:55 Y:2c P:c5 S:fb pc: de71, reg_addr: de7b
de71 50 08 90 BVC  REL   A:00 X:55 Y:2c P:c5 S:fb pc: de73, reg_addr: de7b
de73 90 06 b5 BCC  REL   A:00 X:55 Y:2c P:c5 S:fb pc: de75, reg_addr: de7b
de75 b5 00 c9 LDA  ZPX   A:00 X:55 Y:2c P:c5 S:fb pc: de77, reg_addr: 0055
de77 c9 ff f0 CMP  IMM   A:ff X:55 Y:2c P:c5 S:fb pc: de79, reg_addr: 00ff
de79 f0 04 a9 BEQ  REL   A:ff X:55 Y:2c P:47 S:fb pc: de7f, reg_addr: de7f
de7f a9 80 95 LDA  IMM   A:ff X:55 Y:2c P:47 S:fb pc: de81, reg_addr: 0080
de81 95 00 b8 STA  ZPX   A:80 X:55 Y:2c P:c5 S:fb pc: de83, reg_addr: 0055
de83 b8 18 d6 CLV  IMPL  A:80 X:55 Y:2c P:c5 S:fb pc: de84, reg_addr: 0000
de84 18 d6 00 CLC  IMPL  A:80 X:55 Y:2c P:85 S:fb pc: de85, reg_addr: 0000
de85 d6 00 f0 DEC  ZPX   A:80 X:55 Y:2c P:84 S:fb pc: de87, reg_addr: 0055
de87 f0 0c 30 BEQ  REL   A:80 X:55 Y:2c P:04 S:fb pc: de89, reg_addr: de95
de89 30 0a 70 BMI  REL   A:80 X:55 Y:2c P:04 S:fb pc: de8b, reg_addr: de95
de8b 70 08 b0 BVS  REL   A:80 X:55 Y:2c P:04 S:fb pc: de8d, reg_addr: de95
de8d b0 06 b5 BCS  REL   A:80 X:55 Y:2c P:04 S:fb pc: de8f, reg_addr: de95
de8f b5 00 c9 LDA  ZPX   A:80 X:55 Y:2c P:04 S:fb pc: de91, reg_addr: 0055
de91 c9 7f f0 CMP  IMM   A:7f X:55 Y:2c P:04 S:fb pc: de93, reg_addr: 007f
de93 f0 04 a9 BEQ  REL   A:7f X:55 Y:2c P:07 S:fb pc: de99, reg_addr: de99
de99 a9 01 95 LDA  IMM   A:7f X:55 Y:2c P:07 S:fb pc: de9b, reg_addr: 0001
de9b 95 00 d6 STA  ZPX   A:01 X:55 Y:2c P:05 S:fb pc: de9d, reg_addr: 0055
de9d d6 00 f0 DEC  ZPX   A:01 X:55 Y:2c P:05 S:fb pc: de9f, reg_addr: 0055
de9f f0 04 a9 BEQ  REL   A:01 X:55 Y:2c P:07 S:fb pc: dea5, reg_addr: dea5
dea5 a9 33 85 LDA  IMM   A:01 X:55 Y:2c P:07 S:fb pc: dea7, reg_addr: 0033
dea7 85 78 a9 STA  ZP    A:33 X:55 Y:2c P:05 S:fb pc: dea9, reg_addr: 0078
dea9 a9 44 a0 LDA  IMM   A:33 X:55 Y:2c P:05 S:fb pc: deab, reg_addr: 0044
deab a0 78 a2 LDY  IMM   A:44 X:55 Y:2c P:05 S:fb pc: dead, reg_addr: 0078
dead a2 00 38 LDX  IMM   A:44 X:55 Y:78 P:05 S:fb pc: deaf, reg_addr: 0000
deaf 38 24 01 SEC  IMPL  A:44 X:00 Y:78 P:07 S:fb pc: deb0, reg_addr: 0000
deb0 24 01 b6 BIT  ZP    A:44 X:00 Y:78 P:07 S:fb pc: deb2, reg_addr: 0001
deb2 b6 00 90 LDX  ZPY   A:44 X:00 Y:78 P:c5 S:fb pc: deb4, reg_addr: 0078
deb4 90 12 50 BCC  REL   A:44 X:33 Y:78 P:45 S:fb pc: deb6, reg_addr: dec8
deb6 50 10 30 BVC  REL   A:44 X:33 Y:78 P:45 S:fb pc: deb8, reg_addr: dec8
deb8 30 0e f0 BMI  REL   A:44 X:33 Y:78 P:45 S:fb pc: deba, reg_addr: dec8
deba f0 0c e0 BEQ  REL   A:44 X:33 Y:78 P:45 S:fb pc: debc, reg_addr: dec8
debc e0 33 d0 CPX  IMM   A:44 X:33 Y:78 P:45 S:fb pc: debe, reg_addr: 0033
debe d0 08 c0 BNE  REL   A:44 X:33 Y:78 P:47 S:fb pc: dec0, reg_addr: dec8
dec0 c0 78 d0 CPY  IMM   A:44 X:33 Y:78 P:47 S:fb pc: dec2, reg_addr: 0078
dec2 d0 04 c9 BNE  REL   A:44 X:33 Y:78 P:47 S:fb pc: dec4, reg_addr: dec8
dec4 c9 44 f0 CMP  IMM   A:44 X:33 Y:78 P:47 S:fb pc: dec6, reg_addr: 0044
dec6 f0 04 a9 BEQ  REL   A:44 X:33 Y:78 P:47 S:fb pc: decc, reg_addr: decc
decc a9 97 85 LDA  IMM   A:44 X:33 Y:78 P:47 S:fb pc: dece, reg_addr: 0097
dece 85 7f a9 STA  ZP    A:97 X:33 Y:78 P:c5 S:fb pc: ded0, reg_addr: 007f
ded0 a9 47 a0 LDA  IMM   A:97 X:33 Y:78 P:c5 S:fb pc: ded2, reg_addr: 0047
ded2 a0 ff a2 LDY  IMM   A:47 X:33 Y:78 P:45 S:fb pc: ded4, reg_addr: 00ff
ded4 a2 00 18 LDX  IMM   A:47 X:33 Y:ff P:c5 S:fb pc: ded6, reg_addr: 0000
ded6 18 b8 b6 CLC  IMPL  A:47 X:00 Y:ff P:47 S:fb pc: ded7, reg_addr: 0000
ded7 b8 b6 80 CLV  IMPL  A:47 X:00 Y:ff P:46 S:fb pc: ded8, reg_addr: 0000
ded8 b6 80 b0 LDX  ZPY   A:47 X:00 Y:ff P:06 S:fb pc: deda, reg_addr: 007f
deda b0 12 70 BCS  REL   A:47 X:97 Y:ff P:84 S:fb pc: dedc, reg_addr: deee
dedc 70 10 10 BVS  REL   A:47 X:97 Y:ff P:84 S:fb pc: dede, reg_addr: deee
dede 10 0e f0 BPL  REL   A:47 X:97 Y:ff P:84 S:fb pc: dee0, reg_addr: deee
dee0 f0 0c e0 BEQ  REL   A:47 X:97 Y:ff P:84 S:fb pc: dee2, reg_addr: deee
dee2 e0 97 d0 CPX  IMM   A:47 X:97 Y:ff P:84 S:fb pc: dee4, reg_addr: 0097
dee4 d0 08 c0 BNE  REL   A:47 X:97 Y:ff P:07 S:fb pc: dee6, reg_addr: deee
dee6 c0 ff d0 CPY  IMM   A:47 X:97 Y:ff P:07 S:fb pc: dee8, reg_addr: 00ff
dee8 d0 04 c9 BNE  REL   A:47 X:97 Y:ff P:07 S:fb pc: deea, reg_addr: deee
deea c9 47 f0 CMP  IMM   A:47 X:97 Y:ff P:07 S:fb pc: deec, reg_addr: 0047
deec f0 04 a9 BEQ  REL   A:47 X:97 Y:ff P:07 S:fb pc: def2, reg_addr: def2
def2 a9 00 85 LDA  IMM   A:47 X:97 Y:ff P:07 S:fb pc: def4, reg_addr: 0000
def4 85 7f a9 STA  ZP    A:00 X:97 Y:ff P:07 S:fb pc: def6, reg_addr: 007f
def6 a9 47 a0 LDA  IMM   A:00 X:97 Y:ff P:07 S:fb pc: def8, reg_addr: 0047
def8 a0 ff a2 LDY  IMM   A:47 X:97 Y:ff P:05 S:fb pc: defa, reg_addr: 00ff
defa a2 69 18 LDX  IMM   A:47 X:97 Y:ff P:85 S:fb pc: defc, reg_addr: 0069
defc 18 b8 96 CLC  IMPL  A:47 X:69 Y:ff P:05 S:fb pc: defd, reg_addr: 0000
defd b8 96 80 CLV  IMPL  A:47 X:69 Y:ff P:04 S:fb pc: defe, reg_addr: 0000
defe 96 80 b0 STX  ZPY   A:47 X:69 Y:ff P:04 S:fb pc: df00, reg_addr: 007f
df00 b0 18 70 BCS  REL   A:47 X:69 Y:ff P:04 S:fb pc: df02, reg_addr: df1a
df02 70 16 30 BVS  REL   A:47 X:69 Y:ff P:04 S:fb pc: df04, reg_addr: df1a
df04 30 14 f0 BMI  REL   A:47 X:69 Y:ff P:04 S:fb pc: df06, reg_addr: df1a
df06 f0 12 e0 BEQ  REL   A:47 X:69 Y:ff P:04 S:fb pc: df08, reg_addr: df1a
df08 e0 69 d0 CPX  IMM   A:47 X:69 Y:ff P:04 S:fb pc: df0a, reg_addr: 0069
df0a d0 0e c0 BNE  REL   A:47 X:69 Y:ff P:07 S:fb pc: df0c, reg_addr: df1a
df0c c0 ff d0 CPY  IMM   A:47 X:69 Y:ff P:07 S:fb pc: df0e, reg_addr: 00ff
df0e d0 0a c9 BNE  REL   A:47 X:69 Y:ff P:07 S:fb pc: df10, reg_addr: df1a
df10 c9 47 d0 CMP  IMM   A:47 X:69 Y:ff P:07 S:fb pc: df12, reg_addr: 0047
df12 d0 06 a5 BNE  REL   A:47 X:69 Y:ff P:07 S:fb pc: df14, reg_addr: df1a
df14 a5 7f c9 LDA  ZP    A:47 X:69 Y:ff P:07 S:fb pc: df16, reg_addr: 007f
df16 c9 69 f0 CMP  IMM   A:69 X:69 Y:ff P:05 S:fb pc: df18, reg_addr: 0069
df18 f0 04 a9 BEQ  REL   A:69 X:69 Y:ff P:07 S:fb pc: df1e, reg_addr: df1e
df1e a9 f5 85 LDA  IMM   A:69 X:69 Y:ff P:07 S:fb pc: df20, reg_addr: 00f5
df20 85 4f a9 STA  ZP    A:f5 X:69 Y:ff P:85 S:fb pc: df22, reg_addr: 004f
df22 a9 47 a0 LDA  IMM   A:f5 X:69 Y:ff P:85 S:fb pc: df24, reg_addr: 0047
df24 a0 4f 24 LDY  IMM   A:47 X:69 Y:ff P:05 S:fb pc: df26, reg_addr: 004f
df26 24 01 a2 BIT  ZP    A:47 X:69 Y:4f P:05 S:fb pc: df28, reg_addr: 0001
df28 a2 00 38 LDX  IMM   A:47 X:69 Y:4f P:c5 S:fb pc: df2a, reg_addr: 0000
df2a 38 96 00 SEC  IMPL  A:47 X:00 Y:4f P:47 S:fb pc: df2b, reg_addr: 0000
df2b 96 00 90 STX  ZPY   A:47 X:00 Y:4f P:47 S:fb pc: df2d, reg_addr: 004f
df2d 90 16 50 BCC  REL   A:47 X:00 Y:4f P:47 S:fb pc: df2f, reg_addr: df45
df2f 50 14 30 BVC  REL   A:47 X:00 Y:4f P:47 S:fb pc: df31, reg_addr: df45
df31 30 12 d0 BMI  REL   A:47 X:00 Y:4f P:47 S:fb pc: df33, reg_addr: df45
df33 d0 10 e0 BNE  REL   A:47 X:00 Y:4f P:47 S:fb pc: df35, reg_addr: df45
df35 e0 00 d0 CPX  IMM   A:47 X:00 Y:4f P:47 S:fb pc: df37, reg_addr: 0000
df37 d0 0c c0 BNE  REL   A:47 X:00 Y:4f P:47 S:fb pc: df39, reg_addr: df45
df39 c0 4f d0 CPY  IMM   A:47 X:00 Y:4f P:47 S:fb pc: df3b, reg_addr: 004f
df3b d0 08 c9 BNE  REL   A:47 X:00 Y:4f P:47 S:fb pc: df3d, reg_addr: df45
df3d c9 47 d0 CMP  IMM   A:47 X:00 Y:4f P:47 S:fb pc: df3f, reg_addr: 0047
df3f d0 04 a5 BNE  REL   A:47 X:00 Y:4f P:47 S:fb pc: df41, reg_addr: df45
df41 a5 4f f0 LDA  ZP    A:47 X:00 Y:4f P:47 S:fb pc: df43, reg_addr: 004f
df43 f0 04 a9 BEQ  REL   A:00 X:00 Y:4f P:47 S:fb pc: df49, reg_addr: df49
df49 60 a9 89 RTS  IMPL  A:00 X:00 Y:4f P:47 S:fb pc: c62c, reg_addr: 0000
c62c 20 aa e1 JSR  ABS   A:00 X:00 Y:4f P:47 S:fd pc: e1aa, reg_addr: e1aa
e1aa a9 ff 85 LDA  IMM   A:00 X:00 Y:4f P:47 S:fb pc: e1ac, reg_addr: 00ff
e1ac 85 01 a9 STA  ZP    A:ff X:00 Y:4f P:c5 S:fb pc: e1ae, reg_addr: 0001
e1ae a9 aa 8d LDA  IMM   A:ff X:00 Y:4f P:c5 S:fb pc: e1b0, reg_addr: 00aa
e1b0 8d 33 06 STA  ABS   A:aa X:00 Y:4f P:c5 S:fb pc: e1b3, reg_addr: 0633
e1b3 a9 bb 8d LDA  IMM   A:aa X:00 Y:4f P:c5 S:fb pc: e1b5, reg_addr: 00bb
e1b5 8d 89 06 STA  ABS   A:bb X:00 Y:4f P:c5 S:fb pc: e1b8, reg_addr: 0689
e1b8 a2 00 a9 LDX  IMM   A:bb X:00 Y:4f P:c5 S:fb pc: e1ba, reg_addr: 0000
e1ba a9 66 24 LDA  IMM   A:bb X:00 Y:4f P:47 S:fb pc: e1bc, reg_addr: 0066
e1bc 24 01 38 BIT  ZP    A:66 X:00 Y:4f P:45 S:fb pc: e1be, reg_addr: 0001
e1be 38 a0 00 SEC  IMPL  A:66 X:00 Y:4f P:c5 S:fb pc: e1bf, reg_addr: 0000
e1bf a0 00 bc LDY  IMM   A:66 X:00 Y:4f P:c5 S:fb pc: e1c1, reg_addr: 0000
e1c1 bc 33 06 LDY  ABSX  A:66 X:00 Y:00 P:47 S:fb pc: e1c4, reg_addr: 0633
e1c4 10 12 f0 BPL  REL   A:66 X:00 Y:aa P:c5 S:fb pc: e1c6, reg_addr: e1d8
e1c6 f0 10 50 BEQ  REL   A:66 X:00 Y:aa P:c5 S:fb pc: e1c8, reg_addr: e1d8
e1c8 50 0e 90 BVC  REL   A:66 X:00 Y:aa P:c5 S:fb pc: e1ca, reg_addr: e1d8
e1ca 90 0c c9 BCC  REL   A:66 X:00 Y:aa P:c5 S:fb pc: e1cc, reg_addr: e1d8
e1cc c9 66 d0 CMP  IMM   A:66 X:00 Y:aa P:c5 S:fb pc: e1ce, reg_addr: 0066
e1ce d0 08 e0 BNE  REL   A:66 X:00 Y:aa P:47 S:fb pc: e1d0, reg_addr: e1d8
e1d0 e0 00 d0 CPX  IMM   A:66 X:00 Y:aa P:47 S:fb pc: e1d2, reg_addr: 0000
e1d2 d0 04 c0 BNE  REL   A:66 X:00 Y:aa P:47 S:fb pc: e1d4, reg_addr: e1d8
e1d4 c0 aa f0 CPY  IMM   A:66 X:00 Y:aa P:47 S:fb pc: e1d6, reg_addr: 00aa
e1d6 f0 04 a9 BEQ  REL   A:66 X:00 Y:aa P:47 S:fb pc: e1dc, reg_addr: e1dc
e1dc a2 8a a9 LDX  IMM   A:66 X:00 Y:aa P:47 S:fb pc: e1de, reg_addr: 008a
e1de a9 66 b8 LDA  IMM   A:66 X:8a Y:aa P:c5 S:fb pc: e1e0, reg_addr: 0066
e1e0 b8 18 a0 CLV  IMPL  A:66 X:8a Y:aa P:45 S:fb pc: e1e1, reg_addr: 0000
e1e1 18 a0 00 CLC  IMPL  A:66 X:8a Y:aa P:05 S:fb pc: e1e2, reg_addr: 0000
e1e2 a0 00 bc LDY  IMM   A:66 X:8a Y:aa P:04 S:fb pc: e1e4, reg_addr: 0000
e1e4 bc ff 05 LDY  ABSX  A:66 X:8a Y:00 P:06 S:fb pc: e1e7, reg_addr: 0689
e1e7 10 12 f0 BPL  REL   A:66 X:8a Y:bb P:84 S:fb pc: e1e9, reg_addr: e1fb
e1e9 f0 10 70 BEQ  REL   A:66 X:8a Y:bb P:84 S:fb pc: e1eb, reg_addr: e1fb
e1eb 70 0e b0 BVS  REL   A:66 X:8a Y:bb P:84 S:fb pc: e1ed, reg_addr: e1fb
e1ed b0 0c c0 BCS  REL   A:66 X:8a Y:bb P:84 S:fb pc: e1ef, reg_addr: e1fb
e1ef c0 bb d0 CPY  IMM   A:66 X:8a Y:bb P:84 S:fb pc: e1f1, reg_addr: 00bb
e1f1 d0 08 c9 BNE  REL   A:66 X:8a Y:bb P:07 S:fb pc: e1f3, reg_addr: e1fb
e1f3 c9 66 d0 CMP  IMM   A:66 X:8a Y:bb P:07 S:fb pc: e1f5, reg_addr: 0066
e1f5 d0 04 e0 BNE  REL   A:66 X:8a Y:bb P:07 S:fb pc: e1f7, reg_addr: e1fb
e1f7 e0 8a f0 CPX  IMM   A:66 X:8a Y:bb P:07 S:fb pc: e1f9, reg_addr: 008a
e1f9 f0 04 a9 BEQ  REL   A:66 X:8a Y:bb P:07 S:fb pc: e1ff, reg_addr: e1ff
e1ff a0 53 a9 LDY  IMM   A:66 X:8a Y:bb P:07 S:fb pc: e201, reg_addr: 0053
e201 a9 aa a2 LDA  IMM   A:66 X:8a Y:53 P:05 S:fb pc: e203, reg_addr: 00aa
e203 a2 78 8d LDX  IMM   A:aa X:8a Y:53 P:85 S:fb pc: e205, reg_addr: 0078
e205 8d 78 06 STA  ABS   A:aa X:78 Y:53 P:05 S:fb pc: e208, reg_addr: 0678
e208 20 b6 f7 JSR  ABS   A:aa X:78 Y:53 P:05 S:fb pc: f7b6, reg_addr: f7b6
f7b6 18 a9 ff CLC  IMPL  A:aa X:78 Y:53 P:05 S:f9 pc: f7b7, reg_addr: 0000
f7b7 a9 ff 85 LDA  IMM   A:aa X:78 Y:53 P:04 S:f9 pc: f7b9, reg_addr: 00ff
f7b9 85 01 24 STA  ZP    A:ff X:78 Y:53 P:84 S:f9 pc: f7bb, reg_addr: 0001
f7bb 24 01 a9 BIT  ZP    A:ff X:78 Y:53 P:84 S:f9 pc: f7bd, reg_addr: 0001
f7bd a9 55 60 LDA  IMM   A:ff X:78 Y:53 P:c4 S:f9 pc: f7bf, reg_addr: 0055
f7bf 60 b0 09 RTS  IMPL  A:55 X:78 Y:53 P:44 S:f9 pc: e20b, reg_addr: 0000
e20b 1d 00 06 ORA  ABSX  A:55 X:78 Y:53 P:44 S:fb pc: e20e, reg_addr: 0678
e20e 20 c0 f7 JSR  ABS   A:ff X:78 Y:53 P:c4 S:fb pc: f7c0, reg_addr: f7c0
f7c0 b0 09 10 BCS  REL   A:ff X:78 Y:53 P:c4 S:f9 pc: f7c2, reg_addr: f7cb
f7c2 10 07 c9 BPL  REL   A:ff X:78 Y:53 P:c4 S:f9 pc: f7c4, reg_addr: f7cb
f7c4 c9 ff d0 CMP  IMM   A:ff X:78 Y:53 P:c4 S:f9 pc: f7c6, reg_addr: 00ff
f7c6 d0 03 50 BNE  REL   A:ff X:78 Y:53 P:47 S:f9 pc: f7c8, reg_addr: f7cb
f7c8 50 01 60 BVC  REL   A:ff X:78 Y:53 P:47 S:f9 pc: f7ca, reg_addr: f7cb
f7ca 60 84 00 RTS  IMPL  A:ff X:78 Y:53 P:47 S:f9 pc: e211, reg_addr: 0000
e211 c8 a9 00 INY  IMPL  A:ff X:78 Y:53 P:47 S:fb pc: e212, reg_addr: 0000
e212 a9 00 8d LDA  IMM   A:ff X:78 Y:54 P:45 S:fb pc: e214, reg_addr: 0000
e214 8d 78 06 STA  ABS   A:00 X:78 Y:54 P:47 S:fb pc: e217, reg_addr: 0678
e217 20 ce f7 JSR  ABS   A:00 X:78 Y:54 P:47 S:fb pc: f7ce, reg_addr: f7ce
f7ce 38 b8 a9 SEC  IMPL  A:00 X:78 Y:54 P:47 S:f9 pc: f7cf, reg_addr: 0000
f7cf b8 a9 00 CLV  IMPL  A:00 X:78 Y:54 P:47 S:f9 pc: f7d0, reg_addr: 0000
f7d0 a9 00 60 LDA  IMM   A:00 X:78 Y:54 P:07 S:f9 pc: f7d2, reg_addr: 0000
f7d2 60 d0 07 RTS  IMPL  A:00 X:78 Y:54 P:07 S:f9 pc: e21a, reg_addr: 0000
e21a 1d 00 06 ORA  ABSX  A:00 X:78 Y:54 P:07 S:fb pc: e21d, reg_addr: 0678
e21d 20 d3 f7 JSR  ABS   A:00 X:78 Y:54 P:07 S:fb pc: f7d3, reg_addr: f7d3
f7d3 d0 07 70 BNE  REL   A:00 X:78 Y:54 P:07 S:f9 pc: f7d5, reg_addr: f7dc
f7d5 70 05 90 BVS  REL   A:00 X:78 Y:54 P:07 S:f9 pc: f7d7, reg_addr: f7dc
f7d7 90 03 30 BCC  REL   A:00 X:78 Y:54 P:07 S:f9 pc: f7d9, reg_addr: f7dc
f7d9 30 01 60 BMI  REL   A:00 X:78 Y:54 P:07 S:f9 pc: f7db, reg_addr: f7dc
f7db 60 84 00 RTS  IMPL  A:00 X:78 Y:54 P:07 S:f9 pc: e220, reg_addr: 0000
e220 c8 a9 aa INY  IMPL  A:00 X:78 Y:54 P:07 S:fb pc: e221, reg_addr: 0000
e221 a9 aa 8d LDA  IMM   A:00 X:78 Y:55 P:05 S:fb pc: e223, reg_addr: 00aa
e223 8d 78 06 STA  ABS   A:aa X:78 Y:55 P:85 S:fb pc: e226, reg_addr: 0678
e226 20 df f7 JSR  ABS   A:aa X:78 Y:55 P:85 S:fb pc: f7df, reg_addr: f7df
f7df 18 24 01 CLC  IMPL  A:aa X:78 Y:55 P:85 S:f9 pc: f7e0, reg_addr: 0000
f7e0 24 01 a9 BIT  ZP    A:aa X:78 Y:55 P:84 S:f9 pc: f7e2, reg_addr: 0001
f7e2 a9 55 60 LDA  IMM   A:aa X:78 Y:55 P:c4 S:f9 pc: f7e4, reg_addr: 0055
f7e4 60 d0 07 RTS  IMPL  A:55 X:78 Y:55 P:44 S:f9 pc: e229, reg_addr: 0000
e229 3d 00 06 AND  ABSX  A:55 X:78 Y:55 P:44 S:fb pc: e22c, reg_addr: 0678
e22c 20 e5 f7 JSR  ABS   A:00 X:78 Y:55 P:46 S:fb pc: f7e5, reg_addr: f7e5
f7e5 d0 07 50 BNE  REL   A:00 X:78 Y:55 P:46 S:f9 pc: f7e7, reg_addr: f7ee
f7e7 50 05 b0 BVC  REL   A:00 X:78 Y:55 P:46 S:f9 pc: f7e9, reg_addr: f7ee
f7e9 b0 03 30 BCS  REL   A:00 X:78 Y:55 P:46 S:f9 pc: f7eb, reg_addr: f7ee
f7eb 30 01 60 BMI  REL   A:00 X:78 Y:55 P:46 S:f9 pc: f7ed, reg_addr: f7ee
f7ed 60 84 00 RTS  IMPL  A:00 X:78 Y:55 P:46 S:f9 pc: e22f, reg_addr: 0000
e22f c8 a9 ef INY  IMPL  A:00 X:78 Y:55 P:46 S:fb pc: e230, reg_addr: 0000
e230 a9 ef 8d LDA  IMM   A:00 X:78 Y:56 P:44 S:fb pc: e232, reg_addr: 00ef
e232 8d 78 06 STA  ABS   A:ef X:78 Y:56 P:c4 S:fb pc: e235, reg_addr: 0678
e235 20 f1 f7 JSR  ABS   A:ef X:78 Y:56 P:c4 S:fb pc: f7f1, reg_addr: f7f1
f7f1 38 b8 a9 SEC  IMPL  A:ef X:78 Y:56 P:c4 S:f9 pc: f7f2, reg_addr: 0000
f7f2 b8 a9 f8 CLV  IMPL  A:ef X:78 Y:56 P:c5 S:f9 pc: f7f3, reg_addr: 0000
f7f3 a9 f8 60 LDA  IMM   A:ef X:78 Y:56 P:85 S:f9 pc: f7f5, reg_addr: 00f8
f7f5 60 90 09 RTS  IMPL  A:f8 X:78 Y:56 P:85 S:f9 pc: e238, reg_addr: 0000
e238 3d 00 06 AND  ABSX  A:f8 X:78 Y:56 P:85 S:fb pc: e23b, reg_addr: 0678
e23b 20 f6 f7 JSR  ABS   A:e8 X:78 Y:56 P:85 S:fb pc: f7f6, reg_addr: f7f6
f7f6 90 09 10 BCC  REL   A:e8 X:78 Y:56 P:85 S:f9 pc: f7f8, reg_addr: f801
f7f8 10 07 c9 BPL  REL   A:e8 X:78 Y:56 P:85 S:f9 pc: f7fa, reg_addr: f801
f7fa c9 e8 d0 CMP  IMM   A:e8 X:78 Y:56 P:85 S:f9 pc: f7fc, reg_addr: 00e8
f7fc d0 03 70 BNE  REL   A:e8 X:78 Y:56 P:07 S:f9 pc: f7fe, reg_addr: f801
f7fe 70 01 60 BVS  REL   A:e8 X:78 Y:56 P:07 S:f9 pc: f800, reg_addr: f801
f800 60 84 00 RTS  IMPL  A:e8 X:78 Y:56 P:07 S:f9 pc: e23e, reg_addr: 0000
e23e c8 a9 aa INY  IMPL  A:e8 X:78 Y:56 P:07 S:fb pc: e23f, reg_addr: 0000
e23f a9 aa 8d LDA  IMM   A:e8 X:78 Y:57 P:05 S:fb pc: e241, reg_addr: 00aa
e241 8d 78 06 STA  ABS   A:aa X:78 Y:57 P:85 S:fb pc: e244, reg_addr: 0678
e244 20 04 f8 JSR  ABS   A:aa X:78 Y:57 P:85 S:fb pc: f804, reg_addr: f804
f804 18 24 01 CLC  IMPL  A:aa X:78 Y:57 P:85 S:f9 pc: f805, reg_addr: 0000
f805 24 01 a9 BIT  ZP    A:aa X:78 Y:57 P:84 S:f9 pc: f807, reg_addr: 0001
f807 a9 5f 60 LDA  IMM   A:aa X:78 Y:57 P:c4 S:f9 pc: f809, reg_addr: 005f
f809 60 b0 09 RTS  IMPL  A:5f X:78 Y:57 P:44 S:f9 pc: e247, reg_addr: 0000
e247 5d 00 06 EOR  ABSX  A:5f X:78 Y:57 P:44 S:fb pc: e24a, reg_addr: 0678
e24a 20 0a f8 JSR  ABS   A:f5 X:78 Y:57 P:c4 S:fb pc: f80a, reg_addr: f80a
f80a b0 09 10 BCS  REL   A:f5 X:78 Y:57 P:c4 S:f9 pc: f80c, reg_addr: f815
f80c 10 07 c9 BPL  REL   A:f5 X:78 Y:57 P:c4 S:f9 pc: f80e, reg_addr: f815
f80e c9 f5 d0 CMP  IMM   A:f5 X:78 Y:57 P:c4 S:f9 pc: f810, reg_addr: 00f5
f810 d0 03 50 BNE  REL   A:f5 X:78 Y:57 P:47 S:f9 pc: f812, reg_addr: f815
f812 50 01 60 BVC  REL   A:f5 X:78 Y:57 P:47 S:f9 pc: f814, reg_addr: f815
f814 60 84 00 RTS  IMPL  A:f5 X:78 Y:57 P:47 S:f9 pc: e24d, reg_addr: 0000
e24d c8 a9 70 INY  IMPL  A:f5 X:78 Y:57 P:47 S:fb pc: e24e, reg_addr: 0000
e24e a9 70 8d LDA  IMM   A:f5 X:78 Y:58 P:45 S:fb pc: e250, reg_addr: 0070
e250 8d 78 06 STA  ABS   A:70 X:78 Y:58 P:45 S:fb pc: e253, reg_addr: 0678
e253 20 18 f8 JSR  ABS   A:70 X:78 Y:58 P:45 S:fb pc: f818, reg_addr: f818
f818 38 b8 a9 SEC  IMPL  A:70 X:78 Y:58 P:45 S:f9 pc: f819, reg_addr: 0000
f819 b8 a9 70 CLV  IMPL  A:70 X:78 Y:58 P:45 S:f9 pc: f81a, reg_addr: 0000
f81a a9 70 60 LDA  IMM   A:70 X:78 Y:58 P:05 S:f9 pc: f81c, reg_addr: 0070
f81c 60 d0 07 RTS  IMPL  A:70 X:78 Y:58 P:05 S:f9 pc: e256, reg_addr: 0000
e256 5d 00 06 EOR  ABSX  A:70 X:78 Y:58 P:05 S:fb pc: e259, reg_addr: 0678
e259 20 1d f8 JSR  ABS   A:00 X:78 Y:58 P:07 S:fb pc: f81d, reg_addr: f81d
f81d d0 07 70 BNE  REL   A:00 X:78 Y:58 P:07 S:f9 pc: f81f, reg_addr: f826
f81f 70 05 90 BVS  REL   A:00 X:78 Y:58 P:07 S:f9 pc: f821, reg_addr: f826
f821 90 03 30 BCC  REL   A:00 X:78 Y:58 P:07 S:f9 pc: f823, reg_addr: f826
f823 30 01 60 BMI  REL   A:00 X:78 Y:58 P:07 S:f9 pc: f825, reg_addr: f826
f825 60 84 00 RTS  IMPL  A:00 X:78 Y:58 P:07 S:f9 pc: e25c, reg_addr: 0000
e25c c8 a9 69 INY  IMPL  A:00 X:78 Y:58 P:07 S:fb pc: e25d, reg_addr: 0000
e25d a9 69 8d LDA  IMM   A:00 X:78 Y:59 P:05 S:fb pc: e25f, reg_addr: 0069
e25f 8d 78 06 STA  ABS   A:69 X:78 Y:59 P:05 S:fb pc: e262, reg_addr: 0678
e262 20 29 f8 JSR  ABS   A:69 X:78 Y:59 P:05 S:fb pc: f829, reg_addr: f829
f829 18 24 01 CLC  IMPL  A:69 X:78 Y:59 P:05 S:f9 pc: f82a, reg_addr: 0000
f82a 24 01 a9 BIT  ZP    A:69 X:78 Y:59 P:04 S:f9 pc: f82c, reg_addr: 0001
f82c a9 00 60 LDA  IMM   A:69 X:78 Y:59 P:c4 S:f9 pc: f82e, reg_addr: 0000
f82e 60 30 09 RTS  IMPL  A:00 X:78 Y:59 P:46 S:f9 pc: e265, reg_addr: 0000
e265 7d 00 06 ADC  ABSX  A:00 X:78 Y:59 P:46 S:fb pc: e268, reg_addr: 0678
e268 20 2f f8 JSR  ABS   A:69 X:78 Y:59 P:04 S:fb pc: f82f, reg_addr: f82f
f82f 30 09 b0 BMI  REL   A:69 X:78 Y:59 P:04 S:f9 pc: f831, reg_addr: f83a
f831 b0 07 c9 BCS  REL   A:69 X:78 Y:59 P:04 S:f9 pc: f833, reg_addr: f83a
f833 c9 69 d0 CMP  IMM   A:69 X:78 Y:59 P:04 S:f9 pc: f835, reg_addr: 0069
f835 d0 03 70 BNE  REL   A:69 X:78 Y:59 P:07 S:f9 pc: f837, reg_addr: f83a
f837 70 01 60 BVS  REL   A:69 X:78 Y:59 P:07 S:f9 pc: f839, reg_addr: f83a
f839 60 84 00 RTS  IMPL  A:69 X:78 Y:59 P:07 S:f9 pc: e26b, reg_addr: 0000
e26b c8 20 3d INY  IMPL  A:69 X:78 Y:59 P:07 S:fb pc: e26c, reg_addr: 0000
e26c 20 3d f8 JSR  ABS   A:69 X:78 Y:5a P:05 S:fb pc: f83d, reg_addr: f83d
f83d 38 24 01 SEC  IMPL  A:69 X:78 Y:5a P:05 S:f9 pc: f83e, reg_addr: 0000
f83e 24 01 a9 BIT  ZP    A:69 X:78 Y:5a P:05 S:f9 pc: f840, reg_addr: 0001
f840 a9 00 60 LDA  IMM   A:69 X:78 Y:5a P:c5 S:f9 pc: f842, reg_addr: 0000
f842 60 30 09 RTS  IMPL  A:00 X:78 Y:5a P:47 S:f9 pc: e26f, reg_addr: 0000
e26f 7d 00 06 ADC  ABSX  A:00 X:78 Y:5a P:47 S:fb pc: e272, reg_addr: 0678
e272 20 43 f8 JSR  ABS   A:6a X:78 Y:5a P:04 S:fb pc: f843, reg_addr: f843
f843 30 09 b0 BMI  REL   A:6a X:78 Y:5a P:04 S:f9 pc: f845, reg_addr: f84e
f845 b0 07 c9 BCS  REL   A:6a X:78 Y:5a P:04 S:f9 pc: f847, reg_addr: f84e
f847 c9 6a d0 CMP  IMM   A:6a X:78 Y:5a P:04 S:f9 pc: f849, reg_addr: 006a
f849 d0 03 70 BNE  REL   A:6a X:78 Y:5a P:07 S:f9 pc: f84b, reg_addr: f84e
f84b 70 01 60 BVS  REL   A:6a X:78 Y:5a P:07 S:f9 pc: f84d, reg_addr: f84e
f84d 60 84 00 RTS  IMPL  A:6a X:78 Y:5a P:07 S:f9 pc: e275, reg_addr: 0000
e275 c8 a9 7f INY  IMPL  A:6a X:78 Y:5a P:07 S:fb pc: e276, reg_addr: 0000
e276 a9 7f 8d LDA  IMM   A:6a X:78 Y:5b P:05 S:fb pc: e278, reg_addr: 007f
e278 8d 78 06 STA  ABS   A:7f X:78 Y:5b P:05 S:fb pc: e27b, reg_addr: 0678
e27b 20 51 f8 JSR  ABS   A:7f X:78 Y:5b P:05 S:fb pc: f851, reg_addr: f851
f851 38 b8 a9 SEC  IMPL  A:7f X:78 Y:5b P:05 S:f9 pc: f852, reg_addr: 0000
f852 b8 a9 7f CLV  IMPL  A:7f X:78 Y:5b P:05 S:f9 pc: f853, reg_addr: 0000
f853 a9 7f 60 LDA  IMM   A:7f X:78 Y:5b P:05 S:f9 pc: f855, reg_addr: 007f
f855 60 10 09 RTS  IMPL  A:7f X:78 Y:5b P:05 S:f9 pc: e27e, reg_addr: 0000
e27e 7d 00 06 ADC  ABSX  A:7f X:78 Y:5b P:05 S:fb pc: e281, reg_addr: 0678
e281 20 56 f8 JSR  ABS   A:ff X:78 Y:5b P:c4 S:fb pc: f856, reg_addr: f856
f856 10 09 b0 BPL  REL   A:ff X:78 Y:5b P:c4 S:f9 pc: f858, reg_addr: f861
f858 b0 07 c9 BCS  REL   A:ff X:78 Y:5b P:c4 S:f9 pc: f85a, reg_addr: f861
f85a c9 ff d0 CMP  IMM   A:ff X:78 Y:5b P:c4 S:f9 pc: f85c, reg_addr: 00ff
f85c d0 03 50 BNE  REL   A:ff X:78 Y:5b P:47 S:f9 pc: f85e, reg_addr: f861
f85e 50 01 60 BVC  REL   A:ff X:78 Y:5b P:47 S:f9 pc: f860, reg_addr: f861
f860 60 84 00 RTS  IMPL  A:ff X:78 Y:5b P:47 S:f9 pc: e284, reg_addr: 0000
e284 c8 a9 80 INY  IMPL  A:ff X:78 Y:5b P:47 S:fb pc: e285, reg_addr: 0000
e285 a9 80 8d LDA  IMM   A:ff X:78 Y:5c P:45 S:fb pc: e287, reg_addr: 0080
e287 8d 78 06 STA  ABS   A:80 X:78 Y:5c P:c5 S:fb pc: e28a, reg_addr: 0678
e28a 20 64 f8 JSR  ABS   A:80 X:78 Y:5c P:c5 S:fb pc: f864, reg_addr: f864
f864 18 24 01 CLC  IMPL  A:80 X:78 Y:5c P:c5 S:f9 pc: f865, reg_addr: 0000
f865 24 01 a9 BIT  ZP    A:80 X:78 Y:5c P:c4 S:f9 pc: f867, reg_addr: 0001
f867 a9 7f 60 LDA  IMM   A:80 X:78 Y:5c P:c4 S:f9 pc: f869, reg_addr: 007f
f869 60 10 09 RTS  IMPL  A:7f X:78 Y:5c P:44 S:f9 pc: e28d, reg_addr: 0000
e28d 7d 00 06 ADC  ABSX  A:7f X:78 Y:5c P:44 S:fb pc: e290, reg_addr: 0678
e290 20 6a f8 JSR  ABS   A:ff X:78 Y:5c P:84 S:fb pc: f86a, reg_addr: f86a
f86a 10 09 b0 BPL  REL   A:ff X:78 Y:5c P:84 S:f9 pc: f86c, reg_addr: f875
f86c b0 07 c9 BCS  REL   A:ff X:78 Y:5c P:84 S:f9 pc: f86e, reg_addr: f875
f86e c9 ff d0 CMP  IMM   A:ff X:78 Y:5c P:84 S:f9 pc: f870, reg_addr: 00ff
f870 d0 03 70 BNE  REL   A:ff X:78 Y:5c P:07 S:f9 pc: f872, reg_addr: f875
f872 70 01 60 BVS  REL   A:ff X:78 Y:5c P:07 S:f9 pc: f874, reg_addr: f875
f874 60 84 00 RTS  IMPL  A:ff X:78 Y:5c P:07 S:f9 pc: e293, reg_addr: 0000
e293 c8 20 78 INY  IMPL  A:ff X:78 Y:5c P:07 S:fb pc: e294, reg_addr: 0000
e294 20 78 f8 JSR  ABS   A:ff X:78 Y:5d P:05 S:fb pc: f878, reg_addr: f878
f878 38 b8 a9 SEC  IMPL  A:ff X:78 Y:5d P:05 S:f9 pc: f879, reg_addr: 0000
f879 b8 a9 7f CLV  IMPL  A:ff X:78 Y:5d P:05 S:f9 pc: f87a, reg_addr: 0000
f87a a9 7f 60 LDA  IMM   A:ff X:78 Y:5d P:05 S:f9 pc: f87c, reg_addr: 007f
f87c 60 d0 07 RTS  IMPL  A:7f X:78 Y:5d P:05 S:f9 pc: e297, reg_addr: 0000
e297 7d 00 06 ADC  ABSX  A:7f X:78 Y:5d P:05 S:fb pc: e29a, reg_addr: 0678
e29a 20 7d f8 JSR  ABS   A:00 X:78 Y:5d P:07 S:fb pc: f87d, reg_addr: f87d
f87d d0 07 30 BNE  REL   A:00 X:78 Y:5d P:07 S:f9 pc: f87f, reg_addr: f886
f87f 30 05 70 BMI  REL   A:00 X:78 Y:5d P:07 S:f9 pc: f881, reg_addr: f886
f881 70 03 90 BVS  REL   A:00 X:78 Y:5d P:07 S:f9 pc: f883, reg_addr: f886
f883 90 01 60 BCC  REL   A:00 X:78 Y:5d P:07 S:f9 pc: f885, reg_addr: f886
f885 60 84 00 RTS  IMPL  A:00 X:78 Y:5d P:07 S:f9 pc: e29d, reg_addr: 0000
e29d c8 a9 40 INY  IMPL  A:00 X:78 Y:5d P:07 S:fb pc: e29e, reg_addr: 0000
e29e a9 40 8d LDA  IMM   A:00 X:78 Y:5e P:05 S:fb pc: e2a0, reg_addr: 0040
e2a0 8d 78 06 STA  ABS   A:40 X:78 Y:5e P:05 S:fb pc: e2a3, reg_addr: 0678
e2a3 20 89 f8 JSR  ABS   A:40 X:78 Y:5e P:05 S:fb pc: f889, reg_addr: f889
f889 24 01 a9 BIT  ZP    A:40 X:78 Y:5e P:05 S:f9 pc: f88b, reg_addr: 0001
f88b a9 40 60 LDA  IMM   A:40 X:78 Y:5e P:c5 S:f9 pc: f88d, reg_addr: 0040
f88d 60 30 07 RTS  IMPL  A:40 X:78 Y:5e P:45 S:f9 pc: e2a6, reg_addr: 0000
e2a6 dd 00 06 CMP  ABSX  A:40 X:78 Y:5e P:45 S:fb pc: e2a9, reg_addr: 0678
e2a9 20 8e f8 JSR  ABS   A:40 X:78 Y:5e P:47 S:fb pc: f88e, reg_addr: f88e
f88e 30 07 90 BMI  REL   A:40 X:78 Y:5e P:47 S:f9 pc: f890, reg_addr: f897
f890 90 05 d0 BCC  REL   A:40 X:78 Y:5e P:47 S:f9 pc: f892, reg_addr: f897
f892 d0 03 50 BNE  REL   A:40 X:78 Y:5e P:47 S:f9 pc: f894, reg_addr: f897
f894 50 01 60 BVC  REL   A:40 X:78 Y:5e P:47 S:f9 pc: f896, reg_addr: f897
f896 60 84 00 RTS  IMPL  A:40 X:78 Y:5e P:47 S:f9 pc: e2ac, reg_addr: 0000
e2ac c8 48 a9 INY  IMPL  A:40 X:78 Y:5e P:47 S:fb pc: e2ad, reg_addr: 0000
e2ad 48 a9 3f PHA  IMPL  A:40 X:78 Y:5f P:45 S:fb pc: e2ae, reg_addr: 0000
e2ae a9 3f 8d LDA  IMM   A:40 X:78 Y:5f P:45 S:fa pc: e2b0, reg_addr: 003f
e2b0 8d 78 06 STA  ABS   A:3f X:78 Y:5f P:45 S:fa pc: e2b3, reg_addr: 0678
e2b3 68 20 9a PLA  IMPL  A:3f X:78 Y:5f P:45 S:fa pc: e2b4, reg_addr: 0000
e2b4 20 9a f8 JSR  ABS   A:40 X:78 Y:5f P:45 S:fb pc: f89a, reg_addr: f89a
f89a b8 60 f0 CLV  IMPL  A:40 X:78 Y:5f P:45 S:f9 pc: f89b, reg_addr: 0000
f89b 60 f0 07 RTS  IMPL  A:40 X:78 Y:5f P:05 S:f9 pc: e2b7, reg_addr: 0000
e2b7 dd 00 06 CMP  ABSX  A:40 X:78 Y:5f P:05 S:fb pc: e2ba, reg_addr: 0678
e2ba 20 9c f8 JSR  ABS   A:40 X:78 Y:5f P:05 S:fb pc: f89c, reg_addr: f89c
f89c f0 07 30 BEQ  REL   A:40 X:78 Y:5f P:05 S:f9 pc: f89e, reg_addr: f8a5
f89e 30 05 90 BMI  REL   A:40 X:78 Y:5f P:05 S:f9 pc: f8a0, reg_addr: f8a5
f8a0 90 03 70 BCC  REL   A:40 X:78 Y:5f P:05 S:f9 pc: f8a2, reg_addr: f8a5
f8a2 70 01 60 BVS  REL   A:40 X:78 Y:5f P:05 S:f9 pc: f8a4, reg_addr: f8a5
f8a4 60 84 00 RTS  IMPL  A:40 X:78 Y:5f P:05 S:f9 pc: e2bd, reg_addr: 0000
e2bd c8 48 a9 INY  IMPL  A:40 X:78 Y:5f P:05 S:fb pc: e2be, reg_addr: 0000
e2be 48 a9 41 PHA  IMPL  A:40 X:78 Y:60 P:05 S:fb pc: e2bf, reg_addr: 0000
e2bf a9 41 8d LDA  IMM   A:40 X:78 Y:60 P:05 S:fa pc: e2c1, reg_addr: 0041
e2c1 8d 78 06 STA  ABS   A:41 X:78 Y:60 P:05 S:fa pc: e2c4, reg_addr: 0678
e2c4 68 dd 00 PLA  IMPL  A:41 X:78 Y:60 P:05 S:fa pc: e2c5, reg_addr: 0000
e2c5 dd 00 06 CMP  ABSX  A:40 X:78 Y:60 P:05 S:fb pc: e2c8, reg_addr: 0678
e2c8 20 a8 f8 JSR  ABS   A:40 X:78 Y:60 P:84 S:fb pc: f8a8, reg_addr: f8a8
f8a8 f0 05 10 BEQ  REL   A:40 X:78 Y:60 P:84 S:f9 pc: f8aa, reg_addr: f8af
f8aa 10 03 10 BPL  REL   A:40 X:78 Y:60 P:84 S:f9 pc: f8ac, reg_addr: f8af
f8ac 10 01 60 BPL  REL   A:40 X:78 Y:60 P:84 S:f9 pc: f8ae, reg_addr: f8af
f8ae 60 84 00 RTS  IMPL  A:40 X:78 Y:60 P:84 S:f9 pc: e2cb, reg_addr: 0000
e2cb c8 48 a9 INY  IMPL  A:40 X:78 Y:60 P:84 S:fb pc: e2cc, reg_addr: 0000
e2cc 48 a9 00 PHA  IMPL  A:40 X:78 Y:61 P:04 S:fb pc: e2cd, reg_addr: 0000
e2cd a9 00 8d LDA  IMM   A:40 X:78 Y:61 P:04 S:fa pc: e2cf, reg_addr: 0000
e2cf 8d 78 06 STA  ABS   A:00 X:78 Y:61 P:06 S:fa pc: e2d2, reg_addr: 0678
e2d2 68 20 b2 PLA  IMPL  A:00 X:78 Y:61 P:06 S:fa pc: e2d3, reg_addr: 0000
e2d3 20 b2 f8 JSR  ABS   A:40 X:78 Y:61 P:04 S:fb pc: f8b2, reg_addr: f8b2
f8b2 a9 80 60 LDA  IMM   A:40 X:78 Y:61 P:04 S:f9 pc: f8b4, reg_addr: 0080
f8b4 60 f0 05 RTS  IMPL  A:80 X:78 Y:61 P:84 S:f9 pc: e2d6, reg_addr: 0000
e2d6 dd 00 06 CMP  ABSX  A:80 X:78 Y:61 P:84 S:fb pc: e2d9, reg_addr: 0678
e2d9 20 b5 f8 JSR  ABS   A:80 X:78 Y:61 P:85 S:fb pc: f8b5, reg_addr: f8b5
f8b5 f0 05 10 BEQ  REL   A:80 X:78 Y:61 P:85 S:f9 pc: f8b7, reg_addr: f8bc
f8b7 10 03 90 BPL  REL   A:80 X:78 Y:61 P:85 S:f9 pc: f8b9, reg_addr: f8bc
f8b9 90 01 60 BCC  REL   A:80 X:78 Y:61 P:85 S:f9 pc: f8bb, reg_addr: f8bc
f8bb 60 84 00 RTS  IMPL  A:80 X:78 Y:61 P:85 S:f9 pc: e2dc, reg_addr: 0000
e2dc c8 48 a9 INY  IMPL  A:80 X:78 Y:61 P:85 S:fb pc: e2dd, reg_addr: 0000
e2dd 48 a9 80 PHA  IMPL  A:80 X:78 Y:62 P:05 S:fb pc: e2de, reg_addr: 0000
e2de a9 80 8d LDA  IMM   A:80 X:78 Y:62 P:05 S:fa pc: e2e0, reg_addr: 0080
e2e0 8d 78 06 STA  ABS   A:80 X:78 Y:62 P:85 S:fa pc: e2e3, reg_addr: 0678
e2e3 68 dd 00 PLA  IMPL  A:80 X:78 Y:62 P:85 S:fa pc: e2e4, reg_addr: 0000
e2e4 dd 00 06 CMP  ABSX  A:80 X:78 Y:62 P:85 S:fb pc: e2e7, reg_addr: 0678
e2e7 20 bf f8 JSR  ABS   A:80 X:78 Y:62 P:07 S:fb pc: f8bf, reg_addr: f8bf
f8bf d0 05 30 BNE  REL   A:80 X:78 Y:62 P:07 S:f9 pc: f8c1, reg_addr: f8c6
f8c1 30 03 90 BMI  REL   A:80 X:78 Y:62 P:07 S:f9 pc: f8c3, reg_addr: f8c6
f8c3 90 01 60 BCC  REL   A:80 X:78 Y:62 P:07 S:f9 pc: f8c5, reg_addr: f8c6
f8c5 60 84 00 RTS  IMPL  A:80 X:78 Y:62 P:07 S:f9 pc: e2ea, reg_addr: 0000
e2ea c8 48 a9 INY  IMPL  A:80 X:78 Y:62 P:07 S:fb pc: e2eb, reg_addr: 0000
e2eb 48 a9 81 PHA  IMPL  A:80 X:78 Y:63 P:05 S:fb pc: e2ec, reg_addr: 0000
e2ec a9 81 8d LDA  IMM   A:80 X:78 Y:63 P:05 S:fa pc: e2ee, reg_addr: 0081
e2ee 8d 78 06 STA  ABS   A:81 X:78 Y:63 P:85 S:fa pc: e2f1, reg_addr: 0678
e2f1 68 dd 00 PLA  IMPL  A:81 X:78 Y:63 P:85 S:fa pc: e2f2, reg_addr: 0000
e2f2 dd 00 06 CMP  ABSX  A:80 X:78 Y:63 P:85 S:fb pc: e2f5, reg_addr: 0678
e2f5 20 c9 f8 JSR  ABS   A:80 X:78 Y:63 P:84 S:fb pc: f8c9, reg_addr: f8c9
f8c9 b0 05 f0 BCS  REL   A:80 X:78 Y:63 P:84 S:f9 pc: f8cb, reg_addr: f8d0
f8cb f0 03 10 BEQ  REL   A:80 X:78 Y:63 P:84 S:f9 pc: f8cd, reg_addr: f8d0
f8cd 10 01 60 BPL  REL   A:80 X:78 Y:63 P:84 S:f9 pc: f8cf, reg_addr: f8d0
f8cf 60 84 00 RTS  IMPL  A:80 X:78 Y:63 P:84 S:f9 pc: e2f8, reg_addr: 0000
e2f8 c8 48 a9 INY  IMPL  A:80 X:78 Y:63 P:84 S:fb pc: e2f9, reg_addr: 0000
e2f9 48 a9 7f PHA  IMPL  A:80 X:78 Y:64 P:04 S:fb pc: e2fa, reg_addr: 0000
e2fa a9 7f 8d LDA  IMM   A:80 X:78 Y:64 P:04 S:fa pc: e2fc, reg_addr: 007f
e2fc 8d 78 06 STA  ABS   A:7f X:78 Y:64 P:04 S:fa pc: e2ff, reg_addr: 0678
e2ff 68 dd 00 PLA  IMPL  A:7f X:78 Y:64 P:04 S:fa pc: e300, reg_addr: 0000
e300 dd 00 06 CMP  ABSX  A:80 X:78 Y:64 P:84 S:fb pc: e303, reg_addr: 0678
e303 20 d3 f8 JSR  ABS   A:80 X:78 Y:64 P:05 S:fb pc: f8d3, reg_addr: f8d3
f8d3 90 05 f0 BCC  REL   A:80 X:78 Y:64 P:05 S:f9 pc: f8d5, reg_addr: f8da
f8d5 f0 03 30 BEQ  REL   A:80 X:78 Y:64 P:05 S:f9 pc: f8d7, reg_addr: f8da
f8d7 30 01 60 BMI  REL   A:80 X:78 Y:64 P:05 S:f9 pc: f8d9, reg_addr: f8da
f8d9 60 84 00 RTS  IMPL  A:80 X:78 Y:64 P:05 S:f9 pc: e306, reg_addr: 0000
e306 c8 a9 40 INY  IMPL  A:80 X:78 Y:64 P:05 S:fb pc: e307, reg_addr: 0000
e307 a9 40 8d LDA  IMM   A:80 X:78 Y:65 P:05 S:fb pc: e309, reg_addr: 0040
e309 8d 78 06 STA  ABS   A:40 X:78 Y:65 P:05 S:fb pc: e30c, reg_addr: 0678
e30c 20 31 f9 JSR  ABS   A:40 X:78 Y:65 P:05 S:fb pc: f931, reg_addr: f931
f931 24 01 a9 BIT  ZP    A:40 X:78 Y:65 P:05 S:f9 pc: f933, reg_addr: 0001
f933 a9 40 38 LDA  IMM   A:40 X:78 Y:65 P:c5 S:f9 pc: f935, reg_addr: 0040
f935 38 60 30 SEC  IMPL  A:40 X:78 Y:65 P:45 S:f9 pc: f936, reg_addr: 0000
f936 60 30 0b RTS  IMPL  A:40 X:78 Y:65 P:45 S:f9 pc: e30f, reg_addr: 0000
e30f fd 00 06 SBC  ABSX  A:40 X:78 Y:65 P:45 S:fb pc: e312, reg_addr: 0678
e312 20 37 f9 JSR  ABS   A:00 X:78 Y:65 P:07 S:fb pc: f937, reg_addr: f937
f937 30 0b 90 BMI  REL   A:00 X:78 Y:65 P:07 S:f9 pc: f939, reg_addr: f944
f939 90 09 d0 BCC  REL   A:00 X:78 Y:65 P:07 S:f9 pc: f93b, reg_addr: f944
f93b d0 07 70 BNE  REL   A:00 X:78 Y:65 P:07 S:f9 pc: f93d, reg_addr: f944
f93d 70 05 c9 BVS  REL   A:00 X:78 Y:65 P:07 S:f9 pc: f93f, reg_addr: f944
f93f c9 00 d0 CMP  IMM   A:00 X:78 Y:65 P:07 S:f9 pc: f941, reg_addr: 0000
f941 d0 01 60 BNE  REL   A:00 X:78 Y:65 P:07 S:f9 pc: f943, reg_addr: f944
f943 60 84 00 RTS  IMPL  A:00 X:78 Y:65 P:07 S:f9 pc: e315, reg_addr: 0000
e315 c8 a9 3f INY  IMPL  A:00 X:78 Y:65 P:07 S:fb pc: e316, reg_addr: 0000
e316 a9 3f 8d LDA  IMM   A:00 X:78 Y:66 P:05 S:fb pc: e318, reg_addr: 003f
e318 8d 78 06 STA  ABS   A:3f X:78 Y:66 P:05 S:fb pc: e31b, reg_addr: 0678
e31b 20 47 f9 JSR  ABS   A:3f X:78 Y:66 P:05 S:fb pc: f947, reg_addr: f947
f947 b8 38 a9 CLV  IMPL  A:3f X:78 Y:66 P:05 S:f9 pc: f948, reg_addr: 0000
f948 38 a9 40 SEC  IMPL  A:3f X:78 Y:66 P:05 S:f9 pc: f949, reg_addr: 0000
f949 a9 40 60 LDA  IMM   A:3f X:78 Y:66 P:05 S:f9 pc: f94b, reg_addr: 0040
f94b 60 f0 0b RTS  IMPL  A:40 X:78 Y:66 P:05 S:f9 pc: e31e, reg_addr: 0000
e31e fd 00 06 SBC  ABSX  A:40 X:78 Y:66 P:05 S:fb pc: e321, reg_addr: 0678
e321 20 4c f9 JSR  ABS   A:01 X:78 Y:66 P:05 S:fb pc: f94c, reg_addr: f94c
f94c f0 0b 30 BEQ  REL   A:01 X:78 Y:66 P:05 S:f9 pc: f94e, reg_addr: f959
f94e 30 09 90 BMI  REL   A:01 X:78 Y:66 P:05 S:f9 pc: f950, reg_addr: f959
f950 90 07 70 BCC  REL   A:01 X:78 Y:66 P:05 S:f9 pc: f952, reg_addr: f959
f952 70 05 c9 BVS  REL   A:01 X:78 Y:66 P:05 S:f9 pc: f954, reg_addr: f959
f954 c9 01 d0 CMP  IMM   A:01 X:78 Y:66 P:05 S:f9 pc: f956, reg_addr: 0001
f956 d0 01 60 BNE  REL   A:01 X:78 Y:66 P:07 S:f9 pc: f958, reg_addr: f959
f958 60 84 00 RTS  IMPL  A:01 X:78 Y:66 P:07 S:f9 pc: e324, reg_addr: 0000
e324 c8 a9 41 INY  IMPL  A:01 X:78 Y:66 P:07 S:fb pc: e325, reg_addr: 0000
e325 a9 41 8d LDA  IMM   A:01 X:78 Y:67 P:05 S:fb pc: e327, reg_addr: 0041
e327 8d 78 06 STA  ABS   A:41 X:78 Y:67 P:05 S:fb pc: e32a, reg_addr: 0678
e32a 20 5c f9 JSR  ABS   A:41 X:78 Y:67 P:05 S:fb pc: f95c, reg_addr: f95c
f95c a9 40 38 LDA  IMM   A:41 X:78 Y:67 P:05 S:f9 pc: f95e, reg_addr: 0040
f95e 38 24 01 SEC  IMPL  A:40 X:78 Y:67 P:05 S:f9 pc: f95f, reg_addr: 0000
f95f 24 01 60 BIT  ZP    A:40 X:78 Y:67 P:05 S:f9 pc: f961, reg_addr: 0001
f961 60 b0 0b RTS  IMPL  A:40 X:78 Y:67 P:c5 S:f9 pc: e32d, reg_addr: 0000
e32d fd 00 06 SBC  ABSX  A:40 X:78 Y:67 P:c5 S:fb pc: e330, reg_addr: 0678
e330 20 62 f9 JSR  ABS   A:ff X:78 Y:67 P:84 S:fb pc: f962, reg_addr: f962
f962 b0 0b f0 BCS  REL   A:ff X:78 Y:67 P:84 S:f9 pc: f964, reg_addr: f96f
f964 f0 09 10 BEQ  REL   A:ff X:78 Y:67 P:84 S:f9 pc: f966, reg_addr: f96f
f966 10 07 70 BPL  REL   A:ff X:78 Y:67 P:84 S:f9 pc: f968, reg_addr: f96f
f968 70 05 c9 BVS  REL   A:ff X:78 Y:67 P:84 S:f9 pc: f96a, reg_addr: f96f
f96a c9 ff d0 CMP  IMM   A:ff X:78 Y:67 P:84 S:f9 pc: f96c, reg_addr: 00ff
f96c d0 01 60 BNE  REL   A:ff X:78 Y:67 P:07 S:f9 pc: f96e, reg_addr: f96f
f96e 60 84 00 RTS  IMPL  A:ff X:78 Y:67 P:07 S:f9 pc: e333, reg_addr: 0000
e333 c8 a9 00 INY  IMPL  A:ff X:78 Y:67 P:07 S:fb pc: e334, reg_addr: 0000
e334 a9 00 8d LDA  IMM   A:ff X:78 Y:68 P:05 S:fb pc: e336, reg_addr: 0000
e336 8d 78 06 STA  ABS   A:00 X:78 Y:68 P:07 S:fb pc: e339, reg_addr: 0678
e339 20 72 f9 JSR  ABS   A:00 X:78 Y:68 P:07 S:fb pc: f972, reg_addr: f972
f972 18 a9 80 CLC  IMPL  A:00 X:78 Y:68 P:07 S:f9 pc: f973, reg_addr: 0000
f973 a9 80 60 LDA  IMM   A:00 X:78 Y:68 P:06 S:f9 pc: f975, reg_addr: 0080
f975 60 90 05 RTS  IMPL  A:80 X:78 Y:68 P:84 S:f9 pc: e33c, reg_addr: 0000
e33c fd 00 06 SBC  ABSX  A:80 X:78 Y:68 P:84 S:fb pc: e33f, reg_addr: 0678
e33f 20 76 f9 JSR  ABS   A:7f X:78 Y:68 P:45 S:fb pc: f976, reg_addr: f976
f976 90 05 c9 BCC  REL   A:7f X:78 Y:68 P:45 S:f9 pc: f978, reg_addr: f97d
f978 c9 7f d0 CMP  IMM   A:7f X:78 Y:68 P:45 S:f9 pc: f97a, reg_addr: 007f
f97a d0 01 60 BNE  REL   A:7f X:78 Y:68 P:47 S:f9 pc: f97c, reg_addr: f97d
f97c 60 84 00 RTS  IMPL  A:7f X:78 Y:68 P:47 S:f9 pc: e342, reg_addr: 0000
e342 c8 a9 7f INY  IMPL  A:7f X:78 Y:68 P:47 S:fb pc: e343, reg_addr: 0000
e343 a9 7f 8d LDA  IMM   A:7f X:78 Y:69 P:45 S:fb pc: e345, reg_addr: 007f
e345 8d 78 06 STA  ABS   A:7f X:78 Y:69 P:45 S:fb pc: e348, reg_addr: 0678
e348 20 80 f9 JSR  ABS   A:7f X:78 Y:69 P:45 S:fb pc: f980, reg_addr: f980
f980 38 a9 81 SEC  IMPL  A:7f X:78 Y:69 P:45 S:f9 pc: f981, reg_addr: 0000
f981 a9 81 60 LDA  IMM   A:7f X:78 Y:69 P:45 S:f9 pc: f983, reg_addr: 0081
f983 60 50 07 RTS  IMPL  A:81 X:78 Y:69 P:c5 S:f9 pc: e34b, reg_addr: 0000
e34b fd 00 06 SBC  ABSX  A:81 X:78 Y:69 P:c5 S:fb pc: e34e, reg_addr: 0678
e34e 20 84 f9 JSR  ABS   A:02 X:78 Y:69 P:45 S:fb pc: f984, reg_addr: f984
f984 50 07 90 BVC  REL   A:02 X:78 Y:69 P:45 S:f9 pc: f986, reg_addr: f98d
f986 90 05 c9 BCC  REL   A:02 X:78 Y:69 P:45 S:f9 pc: f988, reg_addr: f98d
f988 c9 02 d0 CMP  IMM   A:02 X:78 Y:69 P:45 S:f9 pc: f98a, reg_addr: 0002
f98a d0 01 60 BNE  REL   A:02 X:78 Y:69 P:47 S:f9 pc: f98c, reg_addr: f98d
f98c 60 84 00 RTS  IMPL  A:02 X:78 Y:69 P:47 S:f9 pc: e351, reg_addr: 0000
e351 a9 aa 8d LDA  IMM   A:02 X:78 Y:69 P:47 S:fb pc: e353, reg_addr: 00aa
e353 8d 33 06 STA  ABS   A:aa X:78 Y:69 P:c5 S:fb pc: e356, reg_addr: 0633
e356 a9 bb 8d LDA  IMM   A:aa X:78 Y:69 P:c5 S:fb pc: e358, reg_addr: 00bb
e358 8d 89 06 STA  ABS   A:bb X:78 Y:69 P:c5 S:fb pc: e35b, reg_addr: 0689
e35b a2 00 a0 LDX  IMM   A:bb X:78 Y:69 P:c5 S:fb pc: e35d, reg_addr: 0000
e35d a0 66 24 LDY  IMM   A:bb X:00 Y:69 P:47 S:fb pc: e35f, reg_addr: 0066
e35f 24 01 38 BIT  ZP    A:bb X:00 Y:66 P:45 S:fb pc: e361, reg_addr: 0001
e361 38 a9 00 SEC  IMPL  A:bb X:00 Y:66 P:c5 S:fb pc: e362, reg_addr: 0000
e362 a9 00 bd LDA  IMM   A:bb X:00 Y:66 P:c5 S:fb pc: e364, reg_addr: 0000
e364 bd 33 06 LDA  ABSX  A:00 X:00 Y:66 P:47 S:fb pc: e367, reg_addr: 0633
e367 10 12 f0 BPL  REL   A:aa X:00 Y:66 P:c5 S:fb pc: e369, reg_addr: e37b
e369 f0 10 50 BEQ  REL   A:aa X:00 Y:66 P:c5 S:fb pc: e36b, reg_addr: e37b
e36b 50 0e 90 BVC  REL   A:aa X:00 Y:66 P:c5 S:fb pc: e36d, reg_addr: e37b
e36d 90 0c c0 BCC  REL   A:aa X:00 Y:66 P:c5 S:fb pc: e36f, reg_addr: e37b
e36f c0 66 d0 CPY  IMM   A:aa X:00 Y:66 P:c5 S:fb pc: e371, reg_addr: 0066
e371 d0 08 e0 BNE  REL   A:aa X:00 Y:66 P:47 S:fb pc: e373, reg_addr: e37b
e373 e0 00 d0 CPX  IMM   A:aa X:00 Y:66 P:47 S:fb pc: e375, reg_addr: 0000
e375 d0 04 c9 BNE  REL   A:aa X:00 Y:66 P:47 S:fb pc: e377, reg_addr: e37b
e377 c9 aa f0 CMP  IMM   A:aa X:00 Y:66 P:47 S:fb pc: e379, reg_addr: 00aa
e379 f0 04 a9 BEQ  REL   A:aa X:00 Y:66 P:47 S:fb pc: e37f, reg_addr: e37f
e37f a2 8a a0 LDX  IMM   A:aa X:00 Y:66 P:47 S:fb pc: e381, reg_addr: 008a
e381 a0 66 b8 LDY  IMM   A:aa X:8a Y:66 P:c5 S:fb pc: e383, reg_addr: 0066
e383 b8 18 a9 CLV  IMPL  A:aa X:8a Y:66 P:45 S:fb pc: e384, reg_addr: 0000
e384 18 a9 00 CLC  IMPL  A:aa X:8a Y:66 P:05 S:fb pc: e385, reg_addr: 0000
e385 a9 00 bd LDA  IMM   A:aa X:8a Y:66 P:04 S:fb pc: e387, reg_addr: 0000
e387 bd ff 05 LDA  ABSX  A:00 X:8a Y:66 P:06 S:fb pc: e38a, reg_addr: 0689
e38a 10 12 f0 BPL  REL   A:bb X:8a Y:66 P:84 S:fb pc: e38c, reg_addr: e39e
e38c f0 10 70 BEQ  REL   A:bb X:8a Y:66 P:84 S:fb pc: e38e, reg_addr: e39e
e38e 70 0e b0 BVS  REL   A:bb X:8a Y:66 P:84 S:fb pc: e390, reg_addr: e39e
e390 b0 0c c9 BCS  REL   A:bb X:8a Y:66 P:84 S:fb pc: e392, reg_addr: e39e
e392 c9 bb d0 CMP  IMM   A:bb X:8a Y:66 P:84 S:fb pc: e394, reg_addr: 00bb
e394 d0 08 c0 BNE  REL   A:bb X:8a Y:66 P:07 S:fb pc: e396, reg_addr: e39e
e396 c0 66 d0 CPY  IMM   A:bb X:8a Y:66 P:07 S:fb pc: e398, reg_addr: 0066
e398 d0 04 e0 BNE  REL   A:bb X:8a Y:66 P:07 S:fb pc: e39a, reg_addr: e39e
e39a e0 8a f0 CPX  IMM   A:bb X:8a Y:66 P:07 S:fb pc: e39c, reg_addr: 008a
e39c f0 04 a9 BEQ  REL   A:bb X:8a Y:66 P:07 S:fb pc: e3a2, reg_addr: e3a2
e3a2 24 01 38 BIT  ZP    A:bb X:8a Y:66 P:07 S:fb pc: e3a4, reg_addr: 0001
e3a4 38 a9 44 SEC  IMPL  A:bb X:8a Y:66 P:c5 S:fb pc: e3a5, reg_addr: 0000
e3a5 a9 44 a2 LDA  IMM   A:bb X:8a Y:66 P:c5 S:fb pc: e3a7, reg_addr: 0044
e3a7 a2 00 9d LDX  IMM   A:44 X:8a Y:66 P:45 S:fb pc: e3a9, reg_addr: 0000
e3a9 9d 33 06 STA  ABSX  A:44 X:00 Y:66 P:47 S:fb pc: e3ac, reg_addr: 0633
e3ac ad 33 06 LDA  ABS   A:44 X:00 Y:66 P:47 S:fb pc: e3af, reg_addr: 0633
e3af 90 1a c9 BCC  REL   A:44 X:00 Y:66 P:45 S:fb pc: e3b1, reg_addr: e3cb
e3b1 c9 44 d0 CMP  IMM   A:44 X:00 Y:66 P:45 S:fb pc: e3b3, reg_addr: 0044
e3b3 d0 16 50 BNE  REL   A:44 X:00 Y:66 P:47 S:fb pc: e3b5, reg_addr: e3cb
e3b5 50 14 18 BVC  REL   A:44 X:00 Y:66 P:47 S:fb pc: e3b7, reg_addr: e3cb
e3b7 18 b8 a9 CLC  IMPL  A:44 X:00 Y:66 P:47 S:fb pc: e3b8, reg_addr: 0000
e3b8 b8 a9 99 CLV  IMPL  A:44 X:00 Y:66 P:46 S:fb pc: e3b9, reg_addr: 0000
e3b9 a9 99 a2 LDA  IMM   A:44 X:00 Y:66 P:06 S:fb pc: e3bb, reg_addr: 0099
e3bb a2 80 9d LDX  IMM   A:99 X:00 Y:66 P:84 S:fb pc: e3bd, reg_addr: 0080
e3bd 9d 85 05 STA  ABSX  A:99 X:80 Y:66 P:84 S:fb pc: e3c0, reg_addr: 0605
e3c0 ad 05 06 LDA  ABS   A:99 X:80 Y:66 P:84 S:fb pc: e3c3, reg_addr: 0605
e3c3 b0 06 c9 BCS  REL   A:99 X:80 Y:66 P:84 S:fb pc: e3c5, reg_addr: e3cb
e3c5 c9 99 d0 CMP  IMM   A:99 X:80 Y:66 P:84 S:fb pc: e3c7, reg_addr: 0099
e3c7 d0 02 50 BNE  REL   A:99 X:80 Y:66 P:07 S:fb pc: e3c9, reg_addr: e3cb
e3c9 50 04 a9 BVC  REL   A:99 X:80 Y:66 P:07 S:fb pc: e3cf, reg_addr: e3cf
e3cf a0 6d a2 LDY  IMM   A:99 X:80 Y:66 P:07 S:fb pc: e3d1, reg_addr: 006d
e3d1 a2 6d 20 LDX  IMM   A:99 X:80 Y:6d P:05 S:fb pc: e3d3, reg_addr: 006d
e3d3 20 90 f9 JSR  ABS   A:99 X:6d Y:6d P:05 S:fb pc: f990, reg_addr: f990
f990 a2 55 a9 LDX  IMM   A:99 X:6d Y:6d P:05 S:f9 pc: f992, reg_addr: 0055
f992 a9 ff 85 LDA  IMM   A:99 X:55 Y:6d P:05 S:f9 pc: f994, reg_addr: 00ff
f994 85 01 ea STA  ZP    A:ff X:55 Y:6d P:85 S:f9 pc: f996, reg_addr: 0001
f996 ea 24 01 NOP  IMPL  A:ff X:55 Y:6d P:85 S:f9 pc: f997, reg_addr: 0000
f997 24 01 38 BIT  ZP    A:ff X:55 Y:6d P:85 S:f9 pc: f999, reg_addr: 0001
f999 38 a9 01 SEC  IMPL  A:ff X:55 Y:6d P:c5 S:f9 pc: f99a, reg_addr: 0000
f99a a9 01 60 LDA  IMM   A:ff X:55 Y:6d P:c5 S:f9 pc: f99c, reg_addr: 0001
f99c 60 90 1b RTS  IMPL  A:01 X:55 Y:6d P:45 S:f9 pc: e3d6, reg_addr: 0000
e3d6 9d 00 06 STA  ABSX  A:01 X:55 Y:6d P:45 S:fb pc: e3d9, reg_addr: 0655
e3d9 5e 00 06 LSR  ABSX  A:01 X:55 Y:6d P:45 S:fb pc: e3dc, reg_addr: 0655
e3dc bd 00 06 LDA  ABSX  A:01 X:55 Y:6d P:47 S:fb pc: e3df, reg_addr: 0655
e3df 20 9d f9 JSR  ABS   A:00 X:55 Y:6d P:47 S:fb pc: f99d, reg_addr: f99d
f99d 90 1b d0 BCC  REL   A:00 X:55 Y:6d P:47 S:f9 pc: f99f, reg_addr: f9ba
f99f d0 19 30 BNE  REL   A:00 X:55 Y:6d P:47 S:f9 pc: f9a1, reg_addr: f9ba
f9a1 30 17 50 BMI  REL   A:00 X:55 Y:6d P:47 S:f9 pc: f9a3, reg_addr: f9ba
f9a3 50 15 c9 BVC  REL   A:00 X:55 Y:6d P:47 S:f9 pc: f9a5, reg_addr: f9ba
f9a5 c9 00 d0 CMP  IMM   A:00 X:55 Y:6d P:47 S:f9 pc: f9a7, reg_addr: 0000
f9a7 d0 11 b8 BNE  REL   A:00 X:55 Y:6d P:47 S:f9 pc: f9a9, reg_addr: f9ba
f9a9 b8 a9 aa CLV  IMPL  A:00 X:55 Y:6d P:47 S:f9 pc: f9aa, reg_addr: 0000
f9aa a9 aa 60 LDA  IMM   A:00 X:55 Y:6d P:07 S:f9 pc: f9ac, reg_addr: 00aa
f9ac 60 b0 0b RTS  IMPL  A:aa X:55 Y:6d P:85 S:f9 pc: e3e2, reg_addr: 0000
e3e2 c8 9d 00 INY  IMPL  A:aa X:55 Y:6d P:85 S:fb pc: e3e3, reg_addr: 0000
e3e3 9d 00 06 STA  ABSX  A:aa X:55 Y:6e P:05 S:fb pc: e3e6, reg_addr: 0655
e3e6 5e 00 06 LSR  ABSX  A:aa X:55 Y:6e P:05 S:fb pc: e3e9, reg_addr: 0655
e3e9 bd 00 06 LDA  ABSX  A:aa X:55 Y:6e P:04 S:fb pc: e3ec, reg_addr: 0655
e3ec 20 ad f9 JSR  ABS   A:55 X:55 Y:6e P:04 S:fb pc: f9ad, reg_addr: f9ad
f9ad b0 0b f0 BCS  REL   A:55 X:55 Y:6e P:04 S:f9 pc: f9af, reg_addr: f9ba
f9af f0 09 30 BEQ  REL   A:55 X:55 Y:6e P:04 S:f9 pc: f9b1, reg_addr: f9ba
f9b1 30 07 70 BMI  REL   A:55 X:55 Y:6e P:04 S:f9 pc: f9b3, reg_addr: f9ba
f9b3 70 05 c9 BVS  REL   A:55 X:55 Y:6e P:04 S:f9 pc: f9b5, reg_addr: f9ba
f9b5 c9 55 d0 CMP  IMM   A:55 X:55 Y:6e P:04 S:f9 pc: f9b7, reg_addr: 0055
f9b7 d0 01 60 BNE  REL   A:55 X:55 Y:6e P:07 S:f9 pc: f9b9, reg_addr: f9ba
f9b9 60 84 00 RTS  IMPL  A:55 X:55 Y:6e P:07 S:f9 pc: e3ef, reg_addr: 0000
e3ef c8 20 bd INY  IMPL  A:55 X:55 Y:6e P:07 S:fb pc: e3f0, reg_addr: 0000
e3f0 20 bd f9 JSR  ABS   A:55 X:55 Y:6f P:05 S:fb pc: f9bd, reg_addr: f9bd
f9bd 24 01 38 BIT  ZP    A:55 X:55 Y:6f P:05 S:f9 pc: f9bf, reg_addr: 0001
f9bf 38 a9 80 SEC  IMPL  A:55 X:55 Y:6f P:c5 S:f9 pc: f9c0, reg_addr: 0000
f9c0 a9 80 60 LDA  IMM   A:55 X:55 Y:6f P:c5 S:f9 pc: f9c2, reg_addr: 0080
f9c2 60 90 1c RTS  IMPL  A:80 X:55 Y:6f P:c5 S:f9 pc: e3f3, reg_addr: 0000
e3f3 9d 00 06 STA  ABSX  A:80 X:55 Y:6f P:c5 S:fb pc: e3f6, reg_addr: 0655
e3f6 1e 00 06 ASL  ABSX  A:80 X:55 Y:6f P:c5 S:fb pc: e3f9, reg_addr: 0655
e3f9 bd 00 06 LDA  ABSX  A:80 X:55 Y:6f P:47 S:fb pc: e3fc, reg_addr: 0655
e3fc 20 c3 f9 JSR  ABS   A:00 X:55 Y:6f P:47 S:fb pc: f9c3, reg_addr: f9c3
f9c3 90 1c d0 BCC  REL   A:00 X:55 Y:6f P:47 S:f9 pc: f9c5, reg_addr: f9e1
f9c5 d0 1a 30 BNE  REL   A:00 X:55 Y:6f P:47 S:f9 pc: f9c7, reg_addr: f9e1
f9c7 30 18 50 BMI  REL   A:00 X:55 Y:6f P:47 S:f9 pc: f9c9, reg_addr: f9e1
f9c9 50 16 c9 BVC  REL   A:00 X:55 Y:6f P:47 S:f9 pc: f9cb, reg_addr: f9e1
f9cb c9 00 d0 CMP  IMM   A:00 X:55 Y:6f P:47 S:f9 pc: f9cd, reg_addr: 0000
f9cd d0 12 b8 BNE  REL   A:00 X:55 Y:6f P:47 S:f9 pc: f9cf, reg_addr: f9e1
f9cf b8 a9 55 CLV  IMPL  A:00 X:55 Y:6f P:47 S:f9 pc: f9d0, reg_addr: 0000
f9d0 a9 55 38 LDA  IMM   A:00 X:55 Y:6f P:07 S:f9 pc: f9d2, reg_addr: 0055
f9d2 38 60 b0 SEC  IMPL  A:55 X:55 Y:6f P:05 S:f9 pc: f9d3, reg_addr: 0000
f9d3 60 b0 0b RTS  IMPL  A:55 X:55 Y:6f P:05 S:f9 pc: e3ff, reg_addr: 0000
e3ff c8 9d 00 INY  IMPL  A:55 X:55 Y:6f P:05 S:fb pc: e400, reg_addr: 0000
e400 9d 00 06 STA  ABSX  A:55 X:55 Y:70 P:05 S:fb pc: e403, reg_addr: 0655
e403 1e 00 06 ASL  ABSX  A:55 X:55 Y:70 P:05 S:fb pc: e406, reg_addr: 0655
e406 bd 00 06 LDA  ABSX  A:55 X:55 Y:70 P:84 S:fb pc: e409, reg_addr: 0655
e409 20 d4 f9 JSR  ABS   A:aa X:55 Y:70 P:84 S:fb pc: f9d4, reg_addr: f9d4
f9d4 b0 0b f0 BCS  REL   A:aa X:55 Y:70 P:84 S:f9 pc: f9d6, reg_addr: f9e1
f9d6 f0 09 10 BEQ  REL   A:aa X:55 Y:70 P:84 S:f9 pc: f9d8, reg_addr: f9e1
f9d8 10 07 70 BPL  REL   A:aa X:55 Y:70 P:84 S:f9 pc: f9da, reg_addr: f9e1
f9da 70 05 c9 BVS  REL   A:aa X:55 Y:70 P:84 S:f9 pc: f9dc, reg_addr: f9e1
f9dc c9 aa d0 CMP  IMM   A:aa X:55 Y:70 P:84 S:f9 pc: f9de, reg_addr: 00aa
f9de d0 01 60 BNE  REL   A:aa X:55 Y:70 P:07 S:f9 pc: f9e0, reg_addr: f9e1
f9e0 60 84 00 RTS  IMPL  A:aa X:55 Y:70 P:07 S:f9 pc: e40c, reg_addr: 0000
e40c c8 20 e4 INY  IMPL  A:aa X:55 Y:70 P:07 S:fb pc: e40d, reg_addr: 0000
e40d 20 e4 f9 JSR  ABS   A:aa X:55 Y:71 P:05 S:fb pc: f9e4, reg_addr: f9e4
f9e4 24 01 38 BIT  ZP    A:aa X:55 Y:71 P:05 S:f9 pc: f9e6, reg_addr: 0001
f9e6 38 a9 01 SEC  IMPL  A:aa X:55 Y:71 P:c5 S:f9 pc: f9e7, reg_addr: 0000
f9e7 a9 01 60 LDA  IMM   A:aa X:55 Y:71 P:c5 S:f9 pc: f9e9, reg_addr: 0001
f9e9 60 90 1c RTS  IMPL  A:01 X:55 Y:71 P:45 S:f9 pc: e410, reg_addr: 0000
e410 9d 00 06 STA  ABSX  A:01 X:55 Y:71 P:45 S:fb pc: e413, reg_addr: 0655
e413 7e 00 06 ROR  ABSX  A:01 X:55 Y:71 P:45 S:fb pc: e416, reg_addr: 0655
e416 bd 00 06 LDA  ABSX  A:01 X:55 Y:71 P:c5 S:fb pc: e419, reg_addr: 0655
e419 20 ea f9 JSR  ABS   A:80 X:55 Y:71 P:c5 S:fb pc: f9ea, reg_addr: f9ea
f9ea 90 1c f0 BCC  REL   A:80 X:55 Y:71 P:c5 S:f9 pc: f9ec, reg_addr: fa08
f9ec f0 1a 10 BEQ  REL   A:80 X:55 Y:71 P:c5 S:f9 pc: f9ee, reg_addr: fa08
f9ee 10 18 50 BPL  REL   A:80 X:55 Y:71 P:c5 S:f9 pc: f9f0, reg_addr: fa08
f9f0 50 16 c9 BVC  REL   A:80 X:55 Y:71 P:c5 S:f9 pc: f9f2, reg_addr: fa08
f9f2 c9 80 d0 CMP  IMM   A:80 X:55 Y:71 P:c5 S:f9 pc: f9f4, reg_addr: 0080
f9f4 d0 12 b8 BNE  REL   A:80 X:55 Y:71 P:47 S:f9 pc: f9f6, reg_addr: fa08
f9f6 b8 18 a9 CLV  IMPL  A:80 X:55 Y:71 P:47 S:f9 pc: f9f7, reg_addr: 0000
f9f7 18 a9 55 CLC  IMPL  A:80 X:55 Y:71 P:07 S:f9 pc: f9f8, reg_addr: 0000
f9f8 a9 55 60 LDA  IMM   A:80 X:55 Y:71 P:06 S:f9 pc: f9fa, reg_addr: 0055
f9fa 60 90 0b RTS  IMPL  A:55 X:55 Y:71 P:04 S:f9 pc: e41c, reg_addr: 0000
e41c c8 9d 00 INY  IMPL  A:55 X:55 Y:71 P:04 S:fb pc: e41d, reg_addr: 0000
e41d 9d 00 06 STA  ABSX  A:55 X:55 Y:72 P:04 S:fb pc: e420, reg_addr: 0655
e420 7e 00 06 ROR  ABSX  A:55 X:55 Y:72 P:04 S:fb pc: e423, reg_addr: 0655
e423 bd 00 06 LDA  ABSX  A:55 X:55 Y:72 P:05 S:fb pc: e426, reg_addr: 0655
e426 20 fb f9 JSR  ABS   A:2a X:55 Y:72 P:05 S:fb pc: f9fb, reg_addr: f9fb
f9fb 90 0b f0 BCC  REL   A:2a X:55 Y:72 P:05 S:f9 pc: f9fd, reg_addr: fa08
f9fd f0 09 30 BEQ  REL   A:2a X:55 Y:72 P:05 S:f9 pc: f9ff, reg_addr: fa08
f9ff 30 07 70 BMI  REL   A:2a X:55 Y:72 P:05 S:f9 pc: fa01, reg_addr: fa08
fa01 70 05 c9 BVS  REL   A:2a X:55 Y:72 P:05 S:f9 pc: fa03, reg_addr: fa08
fa03 c9 2a d0 CMP  IMM   A:2a X:55 Y:72 P:05 S:f9 pc: fa05, reg_addr: 002a
fa05 d0 01 60 BNE  REL   A:2a X:55 Y:72 P:07 S:f9 pc: fa07, reg_addr: fa08
fa07 60 84 00 RTS  IMPL  A:2a X:55 Y:72 P:07 S:f9 pc: e429, reg_addr: 0000
e429 c8 20 0a INY  IMPL  A:2a X:55 Y:72 P:07 S:fb pc: e42a, reg_addr: 0000
e42a 20 0a fa JSR  ABS   A:2a X:55 Y:73 P:05 S:fb pc: fa0a, reg_addr: fa0a
fa0a 24 01 38 BIT  ZP    A:2a X:55 Y:73 P:05 S:f9 pc: fa0c, reg_addr: 0001
fa0c 38 a9 80 SEC  IMPL  A:2a X:55 Y:73 P:c5 S:f9 pc: fa0d, reg_addr: 0000
fa0d a9 80 60 LDA  IMM   A:2a X:55 Y:73 P:c5 S:f9 pc: fa0f, reg_addr: 0080
fa0f 60 90 1c RTS  IMPL  A:80 X:55 Y:73 P:c5 S:f9 pc: e42d, reg_addr: 0000
e42d 9d 00 06 STA  ABSX  A:80 X:55 Y:73 P:c5 S:fb pc: e430, reg_addr: 0655
e430 3e 00 06 ROL  ABSX  A:80 X:55 Y:73 P:c5 S:fb pc: e433, reg_addr: 0655
e433 bd 00 06 LDA  ABSX  A:80 X:55 Y:73 P:45 S:fb pc: e436, reg_addr: 0655
e436 20 10 fa JSR  ABS   A:01 X:55 Y:73 P:45 S:fb pc: fa10, reg_addr: fa10
fa10 90 1c f0 BCC  REL   A:01 X:55 Y:73 P:45 S:f9 pc: fa12, reg_addr: fa2e
fa12 f0 1a 30 BEQ  REL   A:01 X:55 Y:73 P:45 S:f9 pc: fa14, reg_addr: fa2e
fa14 30 18 50 BMI  REL   A:01 X:55 Y:73 P:45 S:f9 pc: fa16, reg_addr: fa2e
fa16 50 16 c9 BVC  REL   A:01 X:55 Y:73 P:45 S:f9 pc: fa18, reg_addr: fa2e
fa18 c9 01 d0 CMP  IMM   A:01 X:55 Y:73 P:45 S:f9 pc: fa1a, reg_addr: 0001
fa1a d0 12 b8 BNE  REL   A:01 X:55 Y:73 P:47 S:f9 pc: fa1c, reg_addr: fa2e
fa1c b8 18 a9 CLV  IMPL  A:01 X:55 Y:73 P:47 S:f9 pc: fa1d, reg_addr: 0000
fa1d 18 a9 55 CLC  IMPL  A:01 X:55 Y:73 P:07 S:f9 pc: fa1e, reg_addr: 0000
fa1e a9 55 60 LDA  IMM   A:01 X:55 Y:73 P:06 S:f9 pc: fa20, reg_addr: 0055
fa20 60 b0 0b RTS  IMPL  A:55 X:55 Y:73 P:04 S:f9 pc: e439, reg_addr: 0000
e439 c8 9d 00 INY  IMPL  A:55 X:55 Y:73 P:04 S:fb pc: e43a, reg_addr: 0000
e43a 9d 00 06 STA  ABSX  A:55 X:55 Y:74 P:04 S:fb pc: e43d, reg_addr: 0655
e43d 3e 00 06 ROL  ABSX  A:55 X:55 Y:74 P:04 S:fb pc: e440, reg_addr: 0655
e440 bd 00 06 LDA  ABSX  A:55 X:55 Y:74 P:84 S:fb pc: e443, reg_addr: 0655
e443 20 21 fa JSR  ABS   A:aa X:55 Y:74 P:84 S:fb pc: fa21, reg_addr: fa21
fa21 b0 0b f0 BCS  REL   A:aa X:55 Y:74 P:84 S:f9 pc: fa23, reg_addr: fa2e
fa23 f0 09 10 BEQ  REL   A:aa X:55 Y:74 P:84 S:f9 pc: fa25, reg_addr: fa2e
fa25 10 07 70 BPL  REL   A:aa X:55 Y:74 P:84 S:f9 pc: fa27, reg_addr: fa2e
fa27 70 05 c9 BVS  REL   A:aa X:55 Y:74 P:84 S:f9 pc: fa29, reg_addr: fa2e
fa29 c9 aa d0 CMP  IMM   A:aa X:55 Y:74 P:84 S:f9 pc: fa2b, reg_addr: 00aa
fa2b d0 01 60 BNE  REL   A:aa X:55 Y:74 P:07 S:f9 pc: fa2d, reg_addr: fa2e
fa2d 60 84 00 RTS  IMPL  A:aa X:55 Y:74 P:07 S:f9 pc: e446, reg_addr: 0000
e446 a9 ff 9d LDA  IMM   A:aa X:55 Y:74 P:07 S:fb pc: e448, reg_addr: 00ff
e448 9d 00 06 STA  ABSX  A:ff X:55 Y:74 P:85 S:fb pc: e44b, reg_addr: 0655
e44b 85 01 24 STA  ZP    A:ff X:55 Y:74 P:85 S:fb pc: e44d, reg_addr: 0001
e44d 24 01 38 BIT  ZP    A:ff X:55 Y:74 P:85 S:fb pc: e44f, reg_addr: 0001
e44f 38 fe 00 SEC  IMPL  A:ff X:55 Y:74 P:c5 S:fb pc: e450, reg_addr: 0000
e450 fe 00 06 INC  ABSX  A:ff X:55 Y:74 P:c5 S:fb pc: e453, reg_addr: 0655
e453 d0 0d 30 BNE  REL   A:ff X:55 Y:74 P:47 S:fb pc: e455, reg_addr: e462
e455 30 0b 50 BMI  REL   A:ff X:55 Y:74 P:47 S:fb pc: e457, reg_addr: e462
e457 50 09 90 BVC  REL   A:ff X:55 Y:74 P:47 S:fb pc: e459, reg_addr: e462
e459 90 07 bd BCC  REL   A:ff X:55 Y:74 P:47 S:fb pc: e45b, reg_addr: e462
e45b bd 00 06 LDA  ABSX  A:ff X:55 Y:74 P:47 S:fb pc: e45e, reg_addr: 0655
e45e c9 00 f0 CMP  IMM   A:00 X:55 Y:74 P:47 S:fb pc: e460, reg_addr: 0000
e460 f0 04 a9 BEQ  REL   A:00 X:55 Y:74 P:47 S:fb pc: e466, reg_addr: e466
e466 a9 7f 9d LDA  IMM   A:00 X:55 Y:74 P:47 S:fb pc: e468, reg_addr: 007f
e468 9d 00 06 STA  ABSX  A:7f X:55 Y:74 P:45 S:fb pc: e46b, reg_addr: 0655
e46b b8 18 fe CLV  IMPL  A:7f X:55 Y:74 P:45 S:fb pc: e46c, reg_addr: 0000
e46c 18 fe 00 CLC  IMPL  A:7f X:55 Y:74 P:05 S:fb pc: e46d, reg_addr: 0000
e46d fe 00 06 INC  ABSX  A:7f X:55 Y:74 P:04 S:fb pc: e470, reg_addr: 0655
e470 f0 0d 10 BEQ  REL   A:7f X:55 Y:74 P:84 S:fb pc: e472, reg_addr: e47f
e472 10 0b 70 BPL  REL   A:7f X:55 Y:74 P:84 S:fb pc: e474, reg_addr: e47f
e474 70 09 b0 BVS  REL   A:7f X:55 Y:74 P:84 S:fb pc: e476, reg_addr: e47f
e476 b0 07 bd BCS  REL   A:7f X:55 Y:74 P:84 S:fb pc: e478, reg_addr: e47f
e478 bd 00 06 LDA  ABSX  A:7f X:55 Y:74 P:84 S:fb pc: e47b, reg_addr: 0655
e47b c9 80 f0 CMP  IMM   A:80 X:55 Y:74 P:84 S:fb pc: e47d, reg_addr: 0080
e47d f0 04 a9 BEQ  REL   A:80 X:55 Y:74 P:07 S:fb pc: e483, reg_addr: e483
e483 a9 00 9d LDA  IMM   A:80 X:55 Y:74 P:07 S:fb pc: e485, reg_addr: 0000
e485 9d 00 06 STA  ABSX  A:00 X:55 Y:74 P:07 S:fb pc: e488, reg_addr: 0655
e488 24 01 38 BIT  ZP    A:00 X:55 Y:74 P:07 S:fb pc: e48a, reg_addr: 0001
e48a 38 de 00 SEC  IMPL  A:00 X:55 Y:74 P:c7 S:fb pc: e48b, reg_addr: 0000
e48b de 00 06 DEC  ABSX  A:00 X:55 Y:74 P:c7 S:fb pc: e48e, reg_addr: 0655
e48e f0 0d 10 BEQ  REL   A:00 X:55 Y:74 P:c5 S:fb pc: e490, reg_addr: e49d
e490 10 0b 50 BPL  REL   A:00 X:55 Y:74 P:c5 S:fb pc: e492, reg_addr: e49d
e492 50 09 90 BVC  REL   A:00 X:55 Y:74 P:c5 S:fb pc: e494, reg_addr: e49d
e494 90 07 bd BCC  REL   A:00 X:55 Y:74 P:c5 S:fb pc: e496, reg_addr: e49d
e496 bd 00 06 LDA  ABSX  A:00 X:55 Y:74 P:c5 S:fb pc: e499, reg_addr: 0655
e499 c9 ff f0 CMP  IMM   A:ff X:55 Y:74 P:c5 S:fb pc: e49b, reg_addr: 00ff
e49b f0 04 a9 BEQ  REL   A:ff X:55 Y:74 P:47 S:fb pc: e4a1, reg_addr: e4a1
e4a1 a9 80 9d LDA  IMM   A:ff X:55 Y:74 P:47 S:fb pc: e4a3, reg_addr: 0080
e4a3 9d 00 06 STA  ABSX  A:80 X:55 Y:74 P:c5 S:fb pc: e4a6, reg_addr: 0655
e4a6 b8 18 de CLV  IMPL  A:80 X:55 Y:74 P:c5 S:fb pc: e4a7, reg_addr: 0000
e4a7 18 de 00 CLC  IMPL  A:80 X:55 Y:74 P:85 S:fb pc: e4a8, reg_addr: 0000
e4a8 de 00 06 DEC  ABSX  A:80 X:55 Y:74 P:84 S:fb pc: e4ab, reg_addr: 0655
e4ab f0 0d 30 BEQ  REL   A:80 X:55 Y:74 P:04 S:fb pc: e4ad, reg_addr: e4ba
e4ad 30 0b 70 BMI  REL   A:80 X:55 Y:74 P:04 S:fb pc: e4af, reg_addr: e4ba
e4af 70 09 b0 BVS  REL   A:80 X:55 Y:74 P:04 S:fb pc: e4b1, reg_addr: e4ba
e4b1 b0 07 bd BCS  REL   A:80 X:55 Y:74 P:04 S:fb pc: e4b3, reg_addr: e4ba
e4b3 bd 00 06 LDA  ABSX  A:80 X:55 Y:74 P:04 S:fb pc: e4b6, reg_addr: 0655
e4b6 c9 7f f0 CMP  IMM   A:7f X:55 Y:74 P:04 S:fb pc: e4b8, reg_addr: 007f
e4b8 f0 04 a9 BEQ  REL   A:7f X:55 Y:74 P:07 S:fb pc: e4be, reg_addr: e4be
e4be a9 01 9d LDA  IMM   A:7f X:55 Y:74 P:07 S:fb pc: e4c0, reg_addr: 0001
e4c0 9d 00 06 STA  ABSX  A:01 X:55 Y:74 P:05 S:fb pc: e4c3, reg_addr: 0655
e4c3 de 00 06 DEC  ABSX  A:01 X:55 Y:74 P:05 S:fb pc: e4c6, reg_addr: 0655
e4c6 f0 04 a9 BEQ  REL   A:01 X:55 Y:74 P:07 S:fb pc: e4cc, reg_addr: e4cc
e4cc a9 33 8d LDA  IMM   A:01 X:55 Y:74 P:07 S:fb pc: e4ce, reg_addr: 0033
e4ce 8d 78 06 STA  ABS   A:33 X:55 Y:74 P:05 S:fb pc: e4d1, reg_addr: 0678
e4d1 a9 44 a0 LDA  IMM   A:33 X:55 Y:74 P:05 S:fb pc: e4d3, reg_addr: 0044
e4d3 a0 78 a2 LDY  IMM   A:44 X:55 Y:74 P:05 S:fb pc: e4d5, reg_addr: 0078
e4d5 a2 00 38 LDX  IMM   A:44 X:55 Y:78 P:05 S:fb pc: e4d7, reg_addr: 0000
e4d7 38 24 01 SEC  IMPL  A:44 X:00 Y:78 P:07 S:fb pc: e4d8, reg_addr: 0000
e4d8 24 01 be BIT  ZP    A:44 X:00 Y:78 P:07 S:fb pc: e4da, reg_addr: 0001
e4da be 00 06 LDX  ABSY  A:44 X:00 Y:78 P:c5 S:fb pc: e4dd, reg_addr: 0678
e4dd 90 12 50 BCC  REL   A:44 X:33 Y:78 P:45 S:fb pc: e4df, reg_addr: e4f1
e4df 50 10 30 BVC  REL   A:44 X:33 Y:78 P:45 S:fb pc: e4e1, reg_addr: e4f1
e4e1 30 0e f0 BMI  REL   A:44 X:33 Y:78 P:45 S:fb pc: e4e3, reg_addr: e4f1
e4e3 f0 0c e0 BEQ  REL   A:44 X:33 Y:78 P:45 S:fb pc: e4e5, reg_addr: e4f1
e4e5 e0 33 d0 CPX  IMM   A:44 X:33 Y:78 P:45 S:fb pc: e4e7, reg_addr: 0033
e4e7 d0 08 c0 BNE  REL   A:44 X:33 Y:78 P:47 S:fb pc: e4e9, reg_addr: e4f1
e4e9 c0 78 d0 CPY  IMM   A:44 X:33 Y:78 P:47 S:fb pc: e4eb, reg_addr: 0078
e4eb d0 04 c9 BNE  REL   A:44 X:33 Y:78 P:47 S:fb pc: e4ed, reg_addr: e4f1
e4ed c9 44 f0 CMP  IMM   A:44 X:33 Y:78 P:47 S:fb pc: e4ef, reg_addr: 0044
e4ef f0 04 a9 BEQ  REL   A:44 X:33 Y:78 P:47 S:fb pc: e4f5, reg_addr: e4f5
e4f5 a9 97 8d LDA  IMM   A:44 X:33 Y:78 P:47 S:fb pc: e4f7, reg_addr: 0097
e4f7 8d 7f 06 STA  ABS   A:97 X:33 Y:78 P:c5 S:fb pc: e4fa, reg_addr: 067f
e4fa a9 47 a0 LDA  IMM   A:97 X:33 Y:78 P:c5 S:fb pc: e4fc, reg_addr: 0047
e4fc a0 ff a2 LDY  IMM   A:47 X:33 Y:78 P:45 S:fb pc: e4fe, reg_addr: 00ff
e4fe a2 00 18 LDX  IMM   A:47 X:33 Y:ff P:c5 S:fb pc: e500, reg_addr: 0000
e500 18 b8 be CLC  IMPL  A:47 X:00 Y:ff P:47 S:fb pc: e501, reg_addr: 0000
e501 b8 be 80 CLV  IMPL  A:47 X:00 Y:ff P:46 S:fb pc: e502, reg_addr: 0000
e502 be 80 05 LDX  ABSY  A:47 X:00 Y:ff P:06 S:fb pc: e505, reg_addr: 067f
e505 b0 12 70 BCS  REL   A:47 X:97 Y:ff P:84 S:fb pc: e507, reg_addr: e519
e507 70 10 10 BVS  REL   A:47 X:97 Y:ff P:84 S:fb pc: e509, reg_addr: e519
e509 10 0e f0 BPL  REL   A:47 X:97 Y:ff P:84 S:fb pc: e50b, reg_addr: e519
e50b f0 0c e0 BEQ  REL   A:47 X:97 Y:ff P:84 S:fb pc: e50d, reg_addr: e519
e50d e0 97 d0 CPX  IMM   A:47 X:97 Y:ff P:84 S:fb pc: e50f, reg_addr: 0097
e50f d0 08 c0 BNE  REL   A:47 X:97 Y:ff P:07 S:fb pc: e511, reg_addr: e519
e511 c0 ff d0 CPY  IMM   A:47 X:97 Y:ff P:07 S:fb pc: e513, reg_addr: 00ff
e513 d0 04 c9 BNE  REL   A:47 X:97 Y:ff P:07 S:fb pc: e515, reg_addr: e519
e515 c9 47 f0 CMP  IMM   A:47 X:97 Y:ff P:07 S:fb pc: e517, reg_addr: 0047
e517 f0 04 a9 BEQ  REL   A:47 X:97 Y:ff P:07 S:fb pc: e51d, reg_addr: e51d
e51d 60 a9 55 RTS  IMPL  A:47 X:97 Y:ff P:07 S:fb pc: c62f, reg_addr: 0000
c62f 20 a3 c6 JSR  ABS   A:47 X:97 Y:ff P:07 S:fd pc: c6a3, reg_addr: c6a3
c6a3 a0 4e a9 LDY  IMM   A:47 X:97 Y:ff P:07 S:fb pc: c6a5, reg_addr: 004e
c6a5 a9 ff 85 LDA  IMM   A:47 X:97 Y:4e P:05 S:fb pc: c6a7, reg_addr: 00ff
c6a7 85 01 20 STA  ZP    A:ff X:97 Y:4e P:85 S:fb pc: c6a9, reg_addr: 0001
c6a9 20 b0 c6 JSR  ABS   A:ff X:97 Y:4e P:85 S:fb pc: c6b0, reg_addr: c6b0
c6b0 a9 ff 48 LDA  IMM   A:ff X:97 Y:4e P:85 S:f9 pc: c6b2, reg_addr: 00ff
c6b2 48 a9 aa PHA  IMPL  A:ff X:97 Y:4e P:85 S:f9 pc: c6b3, reg_addr: 0000
c6b3 a9 aa d0 LDA  IMM   A:ff X:97 Y:4e P:85 S:f8 pc: c6b5, reg_addr: 00aa
c6b5 d0 05 a9 BNE  REL   A:aa X:97 Y:4e P:85 S:f8 pc: c6bc, reg_addr: c6bc
c6bc 28 04 a9 PLP  IMPL  A:aa X:97 Y:4e P:85 S:f8 pc: c6bd, reg_addr: 0000
c6bd 04 a9 44 DOP  ZP    A:aa X:97 Y:4e P:ff S:f9 pc: c6bf, reg_addr: 00a9
c6bf 44 a9 64 DOP  ZP    A:aa X:97 Y:4e P:ff S:f9 pc: c6c1, reg_addr: 00a9
c6c1 64 a9 ea DOP  ZP    A:aa X:97 Y:4e P:ff S:f9 pc: c6c3, reg_addr: 00a9
c6c3 ea ea ea NOP  IMPL  A:aa X:97 Y:4e P:ff S:f9 pc: c6c4, reg_addr: 0000
c6c4 ea ea ea NOP  IMPL  A:aa X:97 Y:4e P:ff S:f9 pc: c6c5, reg_addr: 0000
c6c5 ea ea 08 NOP  IMPL  A:aa X:97 Y:4e P:ff S:f9 pc: c6c6, reg_addr: 0000
c6c6 ea 08 48 NOP  IMPL  A:aa X:97 Y:4e P:ff S:f9 pc: c6c7, reg_addr: 0000
c6c7 08 48 0c PHP  IMPL  A:aa X:97 Y:4e P:ff S:f9 pc: c6c8, reg_addr: 0000
c6c8 48 0c a9 PHA  IMPL  A:aa X:97 Y:4e P:ff S:f8 pc: c6c9, reg_addr: 0000
c6c9 0c a9 a9 TOP  ABS   A:aa X:97 Y:4e P:ff S:f7 pc: c6cc, reg_addr: a9a9
c6cc ea ea ea NOP  IMPL  A:aa X:97 Y:4e P:ff S:f7 pc: c6cd, reg_addr: 0000
c6cd ea ea ea NOP  IMPL  A:aa X:97 Y:4e P:ff S:f7 pc: c6ce, reg_addr: 0000
c6ce ea ea 08 NOP  IMPL  A:aa X:97 Y:4e P:ff S:f7 pc: c6cf, reg_addr: 0000
c6cf ea 08 48 NOP  IMPL  A:aa X:97 Y:4e P:ff S:f7 pc: c6d0, reg_addr: 0000
c6d0 08 48 14 PHP  IMPL  A:aa X:97 Y:4e P:ff S:f7 pc: c6d1, reg_addr: 0000
c6d1 48 14 a9 PHA  IMPL  A:aa X:97 Y:4e P:ff S:f6 pc: c6d2, reg_addr: 0000
c6d2 14 a9 34 DOP  ZPX   A:aa X:97 Y:4e P:ff S:f5 pc: c6d4, reg_addr: 0040
c6d4 34 a9 54 DOP  ZPX   A:aa X:97 Y:4e P:ff S:f5 pc: c6d6, reg_addr: 0040
c6d6 54 a9 74 DOP  ZPX   A:aa X:97 Y:4e P:ff S:f5 pc: c6d8, reg_addr: 0040
c6d8 74 a9 d4 DOP  ZPX   A:aa X:97 Y:4e P:ff S:f5 pc: c6da, reg_addr: 0040
c6da d4 a9 f4 DOP  ZPX   A:aa X:97 Y:4e P:ff S:f5 pc: c6dc, reg_addr: 0040
c6dc f4 a9 ea DOP  ZPX   A:aa X:97 Y:4e P:ff S:f5 pc: c6de, reg_addr: 0040
c6de ea ea ea NOP  IMPL  A:aa X:97 Y:4e P:ff S:f5 pc: c6df, reg_addr: 0000
c6df ea ea ea NOP  IMPL  A:aa X:97 Y:4e P:ff S:f5 pc: c6e0, reg_addr: 0000
c6e0 ea ea 08 NOP  IMPL  A:aa X:97 Y:4e P:ff S:f5 pc: c6e1, reg_addr: 0000
c6e1 ea 08 48 NOP  IMPL  A:aa X:97 Y:4e P:ff S:f5 pc: c6e2, reg_addr: 0000
c6e2 08 48 1a PHP  IMPL  A:aa X:97 Y:4e P:ff S:f5 pc: c6e3, reg_addr: 0000
c6e3 48 1a 3a PHA  IMPL  A:aa X:97 Y:4e P:ff S:f4 pc: c6e4, reg_addr: 0000
c6e4 1a 3a 5a NOP  NOP   A:aa X:97 Y:4e P:ff S:f3 pc: c6e5, reg_addr: 0000
c6e5 3a 5a 7a NOP  NOP   A:aa X:97 Y:4e P:ff S:f3 pc: c6e6, reg_addr: 0000
c6e6 5a 7a da NOP  NOP   A:aa X:97 Y:4e P:ff S:f3 pc: c6e7, reg_addr: 0000
c6e7 7a da fa NOP  NOP   A:aa X:97 Y:4e P:ff S:f3 pc: c6e8, reg_addr: 0000
c6e8 da fa 80 NOP  NOP   A:aa X:97 Y:4e P:ff S:f3 pc: c6e9, reg_addr: 0000
c6e9 fa 80 89 NOP  NOP   A:aa X:97 Y:4e P:ff S:f3 pc: c6ea, reg_addr: 0000
c6ea 80 89 ea DOP  IMM   A:aa X:97 Y:4e P:ff S:f3 pc: c6ec, reg_addr: 0089
c6ec ea ea ea NOP  IMPL  A:aa X:97 Y:4e P:ff S:f3 pc: c6ed, reg_addr: 0000
c6ed ea ea ea NOP  IMPL  A:aa X:97 Y:4e P:ff S:f3 pc: c6ee, reg_addr: 0000
c6ee ea ea 08 NOP  IMPL  A:aa X:97 Y:4e P:ff S:f3 pc: c6ef, reg_addr: 0000
c6ef ea 08 48 NOP  IMPL  A:aa X:97 Y:4e P:ff S:f3 pc: c6f0, reg_addr: 0000
c6f0 08 48 1c PHP  IMPL  A:aa X:97 Y:4e P:ff S:f3 pc: c6f1, reg_addr: 0000
c6f1 48 1c a9 PHA  IMPL  A:aa X:97 Y:4e P:ff S:f2 pc: c6f2, reg_addr: 0000
c6f2 1c a9 a9 TOP  ABSX  A:aa X:97 Y:4e P:ff S:f1 pc: c6f5, reg_addr: aa40
c6f5 3c a9 a9 TOP  ABSX  A:aa X:97 Y:4e P:ff S:f1 pc: c6f8, reg_addr: aa40
c6f8 5c a9 a9 TOP  ABSX  A:aa X:97 Y:4e P:ff S:f1 pc: c6fb, reg_addr: aa40
c6fb 7c a9 a9 TOP  ABSX  A:aa X:97 Y:4e P:ff S:f1 pc: c6fe, reg_addr: aa40
c6fe dc a9 a9 TOP  ABSX  A:aa X:97 Y:4e P:ff S:f1 pc: c701, reg_addr: aa40
c701 fc a9 a9 TOP  ABSX  A:aa X:97 Y:4e P:ff S:f1 pc: c704, reg_addr: aa40
c704 ea ea ea NOP  IMPL  A:aa X:97 Y:4e P:ff S:f1 pc: c705, reg_addr: 0000
c705 ea ea ea NOP  IMPL  A:aa X:97 Y:4e P:ff S:f1 pc: c706, reg_addr: 0000
c706 ea ea 08 NOP  IMPL  A:aa X:97 Y:4e P:ff S:f1 pc: c707, reg_addr: 0000
c707 ea 08 48 NOP  IMPL  A:aa X:97 Y:4e P:ff S:f1 pc: c708, reg_addr: 0000
c708 08 48 a2 PHP  IMPL  A:aa X:97 Y:4e P:ff S:f1 pc: c709, reg_addr: 0000
c709 48 a2 05 PHA  IMPL  A:aa X:97 Y:4e P:ff S:f0 pc: c70a, reg_addr: 0000
c70a a2 05 68 LDX  IMM   A:aa X:97 Y:4e P:ff S:ef pc: c70c, reg_addr: 0005
c70c 68 c9 55 PLA  IMPL  A:aa X:05 Y:4e P:7d S:ef pc: c70d, reg_addr: 0000
c70d c9 55 f0 CMP  IMM   A:aa X:05 Y:4e P:fd S:f0 pc: c70f, reg_addr: 0055
c70f f0 0a c9 BEQ  REL   A:aa X:05 Y:4e P:7d S:f0 pc: c711, reg_addr: c71b
c711 c9 aa f0 CMP  IMM   A:aa X:05 Y:4e P:7d S:f0 pc: c713, reg_addr: 00aa
c713 f0 06 68 BEQ  REL   A:aa X:05 Y:4e P:7f S:f0 pc: c71b, reg_addr: c71b
c71b 68 29 cb PLA  IMPL  A:aa X:05 Y:4e P:7f S:f0 pc: c71c, reg_addr: 0000
c71c 29 cb c9 AND  IMM   A:ff X:05 Y:4e P:fd S:f1 pc: c71e, reg_addr: 00cb
c71e c9 00 f0 CMP  IMM   A:cb X:05 Y:4e P:fd S:f1 pc: c720, reg_addr: 0000
c720 f0 06 c9 BEQ  REL   A:cb X:05 Y:4e P:fd S:f1 pc: c722, reg_addr: c728
c722 c9 cb f0 CMP  IMM   A:cb X:05 Y:4e P:fd S:f1 pc: c724, reg_addr: 00cb
c724 f0 02 84 BEQ  REL   A:cb X:05 Y:4e P:7f S:f1 pc: c728, reg_addr: c728
c728 c8 ca d0 INY  IMPL  A:cb X:05 Y:4e P:7f S:f1 pc: c729, reg_addr: 0000
c729 ca d0 e0 DEX  IMPL  A:cb X:05 Y:4f P:7d S:f1 pc: c72a, reg_addr: 0000
c72a d0 e0 60 BNE  REL   A:cb X:04 Y:4f P:7d S:f1 pc: c70c, reg_addr: c70c
c70c 68 c9 55 PLA  IMPL  A:cb X:04 Y:4f P:7d S:f1 pc: c70d, reg_addr: 0000
c70d c9 55 f0 CMP  IMM   A:aa X:04 Y:4f P:fd S:f2 pc: c70f, reg_addr: 0055
c70f f0 0a c9 BEQ  REL   A:aa X:04 Y:4f P:7d S:f2 pc: c711, reg_addr: c71b
c711 c9 aa f0 CMP  IMM   A:aa X:04 Y:4f P:7d S:f2 pc: c713, reg_addr: 00aa
c713 f0 06 68 BEQ  REL   A:aa X:04 Y:4f P:7f S:f2 pc: c71b, reg_addr: c71b
c71b 68 29 cb PLA  IMPL  A:aa X:04 Y:4f P:7f S:f2 pc: c71c, reg_addr: 0000
c71c 29 cb c9 AND  IMM   A:ff X:04 Y:4f P:fd S:f3 pc: c71e, reg_addr: 00cb
c71e c9 00 f0 CMP  IMM   A:cb X:04 Y:4f P:fd S:f3 pc: c720, reg_addr: 0000
c720 f0 06 c9 BEQ  REL   A:cb X:04 Y:4f P:fd S:f3 pc: c722, reg_addr: c728
c722 c9 cb f0 CMP  IMM   A:cb X:04 Y:4f P:fd S:f3 pc: c724, reg_addr: 00cb
c724 f0 02 84 BEQ  REL   A:cb X:04 Y:4f P:7f S:f3 pc: c728, reg_addr: c728
c728 c8 ca d0 INY  IMPL  A:cb X:04 Y:4f P:7f S:f3 pc: c729, reg_addr: 0000
c729 ca d0 e0 DEX  IMPL  A:cb X:04 Y:50 P:7d S:f3 pc: c72a, reg_addr: 0000
c72a d0 e0 60 BNE  REL   A:cb X:03 Y:50 P:7d S:f3 pc: c70c, reg_addr: c70c
c70c 68 c9 55 PLA  IMPL  A:cb X:03 Y:50 P:7d S:f3 pc: c70d, reg_addr: 0000
c70d c9 55 f0 CMP  IMM   A:aa X:03 Y:50 P:fd S:f4 pc: c70f, reg_addr: 0055
c70f f0 0a c9 BEQ  REL   A:aa X:03 Y:50 P:7d S:f4 pc: c711, reg_addr: c71b
c711 c9 aa f0 CMP  IMM   A:aa X:03 Y:50 P:7d S:f4 pc: c713, reg_addr: 00aa
c713 f0 06 68 BEQ  REL   A:aa X:03 Y:50 P:7f S:f4 pc: c71b, reg_addr: c71b
c71b 68 29 cb PLA  IMPL  A:aa X:03 Y:50 P:7f S:f4 pc: c71c, reg_addr: 0000
c71c 29 cb c9 AND  IMM   A:ff X:03 Y:50 P:fd S:f5 pc: c71e, reg_addr: 00cb
c71e c9 00 f0 CMP  IMM   A:cb X:03 Y:50 P:fd S:f5 pc: c720, reg_addr: 0000
c720 f0 06 c9 BEQ  REL   A:cb X:03 Y:50 P:fd S:f5 pc: c722, reg_addr: c728
c722 c9 cb f0 CMP  IMM   A:cb X:03 Y:50 P:fd S:f5 pc: c724, reg_addr: 00cb
c724 f0 02 84 BEQ  REL   A:cb X:03 Y:50 P:7f S:f5 pc: c728, reg_addr: c728
c728 c8 ca d0 INY  IMPL  A:cb X:03 Y:50 P:7f S:f5 pc: c729, reg_addr: 0000
c729 ca d0 e0 DEX  IMPL  A:cb X:03 Y:51 P:7d S:f5 pc: c72a, reg_addr: 0000
c72a d0 e0 60 BNE  REL   A:cb X:02 Y:51 P:7d S:f5 pc: c70c, reg_addr: c70c
c70c 68 c9 55 PLA  IMPL  A:cb X:02 Y:51 P:7d S:f5 pc: c70d, reg_addr: 0000
c70d c9 55 f0 CMP  IMM   A:aa X:02 Y:51 P:fd S:f6 pc: c70f, reg_addr: 0055
c70f f0 0a c9 BEQ  REL   A:aa X:02 Y:51 P:7d S:f6 pc: c711, reg_addr: c71b
c711 c9 aa f0 CMP  IMM   A:aa X:02 Y:51 P:7d S:f6 pc: c713, reg_addr: 00aa
c713 f0 06 68 BEQ  REL   A:aa X:02 Y:51 P:7f S:f6 pc: c71b, reg_addr: c71b
c71b 68 29 cb PLA  IMPL  A:aa X:02 Y:51 P:7f S:f6 pc: c71c, reg_addr: 0000
c71c 29 cb c9 AND  IMM   A:ff X:02 Y:51 P:fd S:f7 pc: c71e, reg_addr: 00cb
c71e c9 00 f0 CMP  IMM   A:cb X:02 Y:51 P:fd S:f7 pc: c720, reg_addr: 0000
c720 f0 06 c9 BEQ  REL   A:cb X:02 Y:51 P:fd S:f7 pc: c722, reg_addr: c728
c722 c9 cb f0 CMP  IMM   A:cb X:02 Y:51 P:fd S:f7 pc: c724, reg_addr: 00cb
c724 f0 02 84 BEQ  REL   A:cb X:02 Y:51 P:7f S:f7 pc: c728, reg_addr: c728
c728 c8 ca d0 INY  IMPL  A:cb X:02 Y:51 P:7f S:f7 pc: c729, reg_addr: 0000
c729 ca d0 e0 DEX  IMPL  A:cb X:02 Y:52 P:7d S:f7 pc: c72a, reg_addr: 0000
c72a d0 e0 60 BNE  REL   A:cb X:01 Y:52 P:7d S:f7 pc: c70c, reg_addr: c70c
c70c 68 c9 55 PLA  IMPL  A:cb X:01 Y:52 P:7d S:f7 pc: c70d, reg_addr: 0000
c70d c9 55 f0 CMP  IMM   A:aa X:01 Y:52 P:fd S:f8 pc: c70f, reg_addr: 0055
c70f f0 0a c9 BEQ  REL   A:aa X:01 Y:52 P:7d S:f8 pc: c711, reg_addr: c71b
c711 c9 aa f0 CMP  IMM   A:aa X:01 Y:52 P:7d S:f8 pc: c713, reg_addr: 00aa
c713 f0 06 68 BEQ  REL   A:aa X:01 Y:52 P:7f S:f8 pc: c71b, reg_addr: c71b
c71b 68 29 cb PLA  IMPL  A:aa X:01 Y:52 P:7f S:f8 pc: c71c, reg_addr: 0000
c71c 29 cb c9 AND  IMM   A:ff X:01 Y:52 P:fd S:f9 pc: c71e, reg_addr: 00cb
c71e c9 00 f0 CMP  IMM   A:cb X:01 Y:52 P:fd S:f9 pc: c720, reg_addr: 0000
c720 f0 06 c9 BEQ  REL   A:cb X:01 Y:52 P:fd S:f9 pc: c722, reg_addr: c728
c722 c9 cb f0 CMP  IMM   A:cb X:01 Y:52 P:fd S:f9 pc: c724, reg_addr: 00cb
c724 f0 02 84 BEQ  REL   A:cb X:01 Y:52 P:7f S:f9 pc: c728, reg_addr: c728
c728 c8 ca d0 INY  IMPL  A:cb X:01 Y:52 P:7f S:f9 pc: c729, reg_addr: 0000
c729 ca d0 e0 DEX  IMPL  A:cb X:01 Y:53 P:7d S:f9 pc: c72a, reg_addr: 0000
c72a d0 e0 60 BNE  REL   A:cb X:00 Y:53 P:7f S:f9 pc: c72c, reg_addr: c70c
c72c 60 ea 38 RTS  IMPL  A:cb X:00 Y:53 P:7f S:f9 pc: c6ac, reg_addr: 0000
c6ac 20 b7 c6 JSR  ABS   A:cb X:00 Y:53 P:7f S:fb pc: c6b7, reg_addr: c6b7
c6b7 a9 34 48 LDA  IMM   A:cb X:00 Y:53 P:7f S:f9 pc: c6b9, reg_addr: 0034
c6b9 48 a9 55 PHA  IMPL  A:34 X:00 Y:53 P:7d S:f9 pc: c6ba, reg_addr: 0000
c6ba a9 55 28 LDA  IMM   A:34 X:00 Y:53 P:7d S:f8 pc: c6bc, reg_addr: 0055
c6bc 28 04 a9 PLP  IMPL  A:55 X:00 Y:53 P:7d S:f8 pc: c6bd, reg_addr: 0000
c6bd 04 a9 44 DOP  ZP    A:55 X:00 Y:53 P:34 S:f9 pc: c6bf, reg_addr: 00a9
c6bf 44 a9 64 DOP  ZP    A:55 X:00 Y:53 P:34 S:f9 pc: c6c1, reg_addr: 00a9
c6c1 64 a9 ea DOP  ZP    A:55 X:00 Y:53 P:34 S:f9 pc: c6c3, reg_addr: 00a9
c6c3 ea ea ea NOP  IMPL  A:55 X:00 Y:53 P:34 S:f9 pc: c6c4, reg_addr: 0000
c6c4 ea ea ea NOP  IMPL  A:55 X:00 Y:53 P:34 S:f9 pc: c6c5, reg_addr: 0000
c6c5 ea ea 08 NOP  IMPL  A:55 X:00 Y:53 P:34 S:f9 pc: c6c6, reg_addr: 0000
c6c6 ea 08 48 NOP  IMPL  A:55 X:00 Y:53 P:34 S:f9 pc: c6c7, reg_addr: 0000
c6c7 08 48 0c PHP  IMPL  A:55 X:00 Y:53 P:34 S:f9 pc: c6c8, reg_addr: 0000
c6c8 48 0c a9 PHA  IMPL  A:55 X:00 Y:53 P:34 S:f8 pc: c6c9, reg_addr: 0000
c6c9 0c a9 a9 TOP  ABS   A:55 X:00 Y:53 P:34 S:f7 pc: c6cc, reg_addr: a9a9
c6cc ea ea ea NOP  IMPL  A:55 X:00 Y:53 P:34 S:f7 pc: c6cd, reg_addr: 0000
c6cd ea ea ea NOP  IMPL  A:55 X:00 Y:53 P:34 S:f7 pc: c6ce, reg_addr: 0000
c6ce ea ea 08 NOP  IMPL  A:55 X:00 Y:53 P:34 S:f7 pc: c6cf, reg_addr: 0000
c6cf ea 08 48 NOP  IMPL  A:55 X:00 Y:53 P:34 S:f7 pc: c6d0, reg_addr: 0000
c6d0 08 48 14 PHP  IMPL  A:55 X:00 Y:53 P:34 S:f7 pc: c6d1, reg_addr: 0000
c6d1 48 14 a9 PHA  IMPL  A:55 X:00 Y:53 P:34 S:f6 pc: c6d2, reg_addr: 0000
c6d2 14 a9 34 DOP  ZPX   A:55 X:00 Y:53 P:34 S:f5 pc: c6d4, reg_addr: 00a9
c6d4 34 a9 54 DOP  ZPX   A:55 X:00 Y:53 P:34 S:f5 pc: c6d6, reg_addr: 00a9
c6d6 54 a9 74 DOP  ZPX   A:55 X:00 Y:53 P:34 S:f5 pc: c6d8, reg_addr: 00a9
c6d8 74 a9 d4 DOP  ZPX   A:55 X:00 Y:53 P:34 S:f5 pc: c6da, reg_addr: 00a9
c6da d4 a9 f4 DOP  ZPX   A:55 X:00 Y:53 P:34 S:f5 pc: c6dc, reg_addr: 00a9
c6dc f4 a9 ea DOP  ZPX   A:55 X:00 Y:53 P:34 S:f5 pc: c6de, reg_addr: 00a9
c6de ea ea ea NOP  IMPL  A:55 X:00 Y:53 P:34 S:f5 pc: c6df, reg_addr: 0000
c6df ea ea ea NOP  IMPL  A:55 X:00 Y:53 P:34 S:f5 pc: c6e0, reg_addr: 0000
c6e0 ea ea 08 NOP  IMPL  A:55 X:00 Y:53 P:34 S:f5 pc: c6e1, reg_addr: 0000
c6e1 ea 08 48 NOP  IMPL  A:55 X:00 Y:53 P:34 S:f5 pc: c6e2, reg_addr: 0000
c6e2 08 48 1a PHP  IMPL  A:55 X:00 Y:53 P:34 S:f5 pc: c6e3, reg_addr: 0000
c6e3 48 1a 3a PHA  IMPL  A:55 X:00 Y:53 P:34 S:f4 pc: c6e4, reg_addr: 0000
c6e4 1a 3a 5a NOP  NOP   A:55 X:00 Y:53 P:34 S:f3 pc: c6e5, reg_addr: 0000
c6e5 3a 5a 7a NOP  NOP   A:55 X:00 Y:53 P:34 S:f3 pc: c6e6, reg_addr: 0000
c6e6 5a 7a da NOP  NOP   A:55 X:00 Y:53 P:34 S:f3 pc: c6e7, reg_addr: 0000
c6e7 7a da fa NOP  NOP   A:55 X:00 Y:53 P:34 S:f3 pc: c6e8, reg_addr: 0000
c6e8 da fa 80 NOP  NOP   A:55 X:00 Y:53 P:34 S:f3 pc: c6e9, reg_addr: 0000
c6e9 fa 80 89 NOP  NOP   A:55 X:00 Y:53 P:34 S:f3 pc: c6ea, reg_addr: 0000
c6ea 80 89 ea DOP  IMM   A:55 X:00 Y:53 P:34 S:f3 pc: c6ec, reg_addr: 0089
c6ec ea ea ea NOP  IMPL  A:55 X:00 Y:53 P:34 S:f3 pc: c6ed, reg_addr: 0000
c6ed ea ea ea NOP  IMPL  A:55 X:00 Y:53 P:34 S:f3 pc: c6ee, reg_addr: 0000
c6ee ea ea 08 NOP  IMPL  A:55 X:00 Y:53 P:34 S:f3 pc: c6ef, reg_addr: 0000
c6ef ea 08 48 NOP  IMPL  A:55 X:00 Y:53 P:34 S:f3 pc: c6f0, reg_addr: 0000
c6f0 08 48 1c PHP  IMPL  A:55 X:00 Y:53 P:34 S:f3 pc: c6f1, reg_addr: 0000
c6f1 48 1c a9 PHA  IMPL  A:55 X:00 Y:53 P:34 S:f2 pc: c6f2, reg_addr: 0000
c6f2 1c a9 a9 TOP  ABSX  A:55 X:00 Y:53 P:34 S:f1 pc: c6f5, reg_addr: a9a9
c6f5 3c a9 a9 TOP  ABSX  A:55 X:00 Y:53 P:34 S:f1 pc: c6f8, reg_addr: a9a9
c6f8 5c a9 a9 TOP  ABSX  A:55 X:00 Y:53 P:34 S:f1 pc: c6fb, reg_addr: a9a9
c6fb 7c a9 a9 TOP  ABSX  A:55 X:00 Y:53 P:34 S:f1 pc: c6fe, reg_addr: a9a9
c6fe dc a9 a9 TOP  ABSX  A:55 X:00 Y:53 P:34 S:f1 pc: c701, reg_addr: a9a9
c701 fc a9 a9 TOP  ABSX  A:55 X:00 Y:53 P:34 S:f1 pc: c704, reg_addr: a9a9
c704 ea ea ea NOP  IMPL  A:55 X:00 Y:53 P:34 S:f1 pc: c705, reg_addr: 0000
c705 ea ea ea NOP  IMPL  A:55 X:00 Y:53 P:34 S:f1 pc: c706, reg_addr: 0000
c706 ea ea 08 NOP  IMPL  A:55 X:00 Y:53 P:34 S:f1 pc: c707, reg_addr: 0000
c707 ea 08 48 NOP  IMPL  A:55 X:00 Y:53 P:34 S:f1 pc: c708, reg_addr: 0000
c708 08 48 a2 PHP  IMPL  A:55 X:00 Y:53 P:34 S:f1 pc: c709, reg_addr: 0000
c709 48 a2 05 PHA  IMPL  A:55 X:00 Y:53 P:34 S:f0 pc: c70a, reg_addr: 0000
c70a a2 05 68 LDX  IMM   A:55 X:00 Y:53 P:34 S:ef pc: c70c, reg_addr: 0005
c70c 68 c9 55 PLA  IMPL  A:55 X:05 Y:53 P:34 S:ef pc: c70d, reg_addr: 0000
c70d c9 55 f0 CMP  IMM   A:55 X:05 Y:53 P:34 S:f0 pc: c70f, reg_addr: 0055
c70f f0 0a c9 BEQ  REL   A:55 X:05 Y:53 P:37 S:f0 pc: c71b, reg_addr: c71b
c71b 68 29 cb PLA  IMPL  A:55 X:05 Y:53 P:37 S:f0 pc: c71c, reg_addr: 0000
c71c 29 cb c9 AND  IMM   A:34 X:05 Y:53 P:35 S:f1 pc: c71e, reg_addr: 00cb
c71e c9 00 f0 CMP  IMM   A:00 X:05 Y:53 P:37 S:f1 pc: c720, reg_addr: 0000
c720 f0 06 c9 BEQ  REL   A:00 X:05 Y:53 P:37 S:f1 pc: c728, reg_addr: c728
c728 c8 ca d0 INY  IMPL  A:00 X:05 Y:53 P:37 S:f1 pc: c729, reg_addr: 0000
c729 ca d0 e0 DEX  IMPL  A:00 X:05 Y:54 P:35 S:f1 pc: c72a, reg_addr: 0000
c72a d0 e0 60 BNE  REL   A:00 X:04 Y:54 P:35 S:f1 pc: c70c, reg_addr: c70c
c70c 68 c9 55 PLA  IMPL  A:00 X:04 Y:54 P:35 S:f1 pc: c70d, reg_addr: 0000
c70d c9 55 f0 CMP  IMM   A:55 X:04 Y:54 P:35 S:f2 pc: c70f, reg_addr: 0055
c70f f0 0a c9 BEQ  REL   A:55 X:04 Y:54 P:37 S:f2 pc: c71b, reg_addr: c71b
c71b 68 29 cb PLA  IMPL  A:55 X:04 Y:54 P:37 S:f2 pc: c71c, reg_addr: 0000
c71c 29 cb c9 AND  IMM   A:34 X:04 Y:54 P:35 S:f3 pc: c71e, reg_addr: 00cb
c71e c9 00 f0 CMP  IMM   A:00 X:04 Y:54 P:37 S:f3 pc: c720, reg_addr: 0000
c720 f0 06 c9 BEQ  REL   A:00 X:04 Y:54 P:37 S:f3 pc: c728, reg_addr: c728
c728 c8 ca d0 INY  IMPL  A:00 X:04 Y:54 P:37 S:f3 pc: c729, reg_addr: 0000
c729 ca d0 e0 DEX  IMPL  A:00 X:04 Y:55 P:35 S:f3 pc: c72a, reg_addr: 0000
c72a d0 e0 60 BNE  REL   A:00 X:03 Y:55 P:35 S:f3 pc: c70c, reg_addr: c70c
c70c 68 c9 55 PLA  IMPL  A:00 X:03 Y:55 P:35 S:f3 pc: c70d, reg_addr: 0000
c70d c9 55 f0 CMP  IMM   A:55 X:03 Y:55 P:35 S:f4 pc: c70f, reg_addr: 0055
c70f f0 0a c9 BEQ  REL   A:55 X:03 Y:55 P:37 S:f4 pc: c71b, reg_addr: c71b
c71b 68 29 cb PLA  IMPL  A:55 X:03 Y:55 P:37 S:f4 pc: c71c, reg_addr: 0000
c71c 29 cb c9 AND  IMM   A:34 X:03 Y:55 P:35 S:f5 pc: c71e, reg_addr: 00cb
c71e c9 00 f0 CMP  IMM   A:00 X:03 Y:55 P:37 S:f5 pc: c720, reg_addr: 0000
c720 f0 06 c9 BEQ  REL   A:00 X:03 Y:55 P:37 S:f5 pc: c728, reg_addr: c728
c728 c8 ca d0 INY  IMPL  A:00 X:03 Y:55 P:37 S:f5 pc: c729, reg_addr: 0000
c729 ca d0 e0 DEX  IMPL  A:00 X:03 Y:56 P:35 S:f5 pc: c72a, reg_addr: 0000
c72a d0 e0 60 BNE  REL   A:00 X:02 Y:56 P:35 S:f5 pc: c70c, reg_addr: c70c
c70c 68 c9 55 PLA  IMPL  A:00 X:02 Y:56 P:35 S:f5 pc: c70d, reg_addr: 0000
c70d c9 55 f0 CMP  IMM   A:55 X:02 Y:56 P:35 S:f6 pc: c70f, reg_addr: 0055
c70f f0 0a c9 BEQ  REL   A:55 X:02 Y:56 P:37 S:f6 pc: c71b, reg_addr: c71b
c71b 68 29 cb PLA  IMPL  A:55 X:02 Y:56 P:37 S:f6 pc: c71c, reg_addr: 0000
c71c 29 cb c9 AND  IMM   A:34 X:02 Y:56 P:35 S:f7 pc: c71e, reg_addr: 00cb
c71e c9 00 f0 CMP  IMM   A:00 X:02 Y:56 P:37 S:f7 pc: c720, reg_addr: 0000
c720 f0 06 c9 BEQ  REL   A:00 X:02 Y:56 P:37 S:f7 pc: c728, reg_addr: c728
c728 c8 ca d0 INY  IMPL  A:00 X:02 Y:56 P:37 S:f7 pc: c729, reg_addr: 0000
c729 ca d0 e0 DEX  IMPL  A:00 X:02 Y:57 P:35 S:f7 pc: c72a, reg_addr: 0000
c72a d0 e0 60 BNE  REL   A:00 X:01 Y:57 P:35 S:f7 pc: c70c, reg_addr: c70c
c70c 68 c9 55 PLA  IMPL  A:00 X:01 Y:57 P:35 S:f7 pc: c70d, reg_addr: 0000
c70d c9 55 f0 CMP  IMM   A:55 X:01 Y:57 P:35 S:f8 pc: c70f, reg_addr: 0055
c70f f0 0a c9 BEQ  REL   A:55 X:01 Y:57 P:37 S:f8 pc: c71b, reg_addr: c71b
c71b 68 29 cb PLA  IMPL  A:55 X:01 Y:57 P:37 S:f8 pc: c71c, reg_addr: 0000
c71c 29 cb c9 AND  IMM   A:34 X:01 Y:57 P:35 S:f9 pc: c71e, reg_addr: 00cb
c71e c9 00 f0 CMP  IMM   A:00 X:01 Y:57 P:37 S:f9 pc: c720, reg_addr: 0000
c720 f0 06 c9 BEQ  REL   A:00 X:01 Y:57 P:37 S:f9 pc: c728, reg_addr: c728
c728 c8 ca d0 INY  IMPL  A:00 X:01 Y:57 P:37 S:f9 pc: c729, reg_addr: 0000
c729 ca d0 e0 DEX  IMPL  A:00 X:01 Y:58 P:35 S:f9 pc: c72a, reg_addr: 0000
c72a d0 e0 60 BNE  REL   A:00 X:00 Y:58 P:37 S:f9 pc: c72c, reg_addr: c70c
c72c 60 ea 38 RTS  IMPL  A:00 X:00 Y:58 P:37 S:f9 pc: c6af, reg_addr: 0000
c6af 60 a9 ff RTS  IMPL  A:00 X:00 Y:58 P:37 S:fb pc: c632, reg_addr: 0000
c632 20 1e e5 JSR  ABS   A:00 X:00 Y:58 P:37 S:fd pc: e51e, reg_addr: e51e
e51e a9 55 8d LDA  IMM   A:00 X:00 Y:58 P:37 S:fb pc: e520, reg_addr: 0055
e520 8d 80 05 STA  ABS   A:55 X:00 Y:58 P:35 S:fb pc: e523, reg_addr: 0580
e523 a9 aa 8d LDA  IMM   A:55 X:00 Y:58 P:35 S:fb pc: e525, reg_addr: 00aa
e525 8d 32 04 STA  ABS   A:aa X:00 Y:58 P:b5 S:fb pc: e528, reg_addr: 0432
e528 a9 80 85 LDA  IMM   A:aa X:00 Y:58 P:b5 S:fb pc: e52a, reg_addr: 0080
e52a 85 43 a9 STA  ZP    A:80 X:00 Y:58 P:b5 S:fb pc: e52c, reg_addr: 0043
e52c a9 05 85 LDA  IMM   A:80 X:00 Y:58 P:b5 S:fb pc: e52e, reg_addr: 0005
e52e 85 44 a9 STA  ZP    A:05 X:00 Y:58 P:35 S:fb pc: e530, reg_addr: 0044
e530 a9 32 85 LDA  IMM   A:05 X:00 Y:58 P:35 S:fb pc: e532, reg_addr: 0032
e532 85 45 a9 STA  ZP    A:32 X:00 Y:58 P:35 S:fb pc: e534, reg_addr: 0045
e534 a9 04 85 LDA  IMM   A:32 X:00 Y:58 P:35 S:fb pc: e536, reg_addr: 0004
e536 85 46 a2 STA  ZP    A:04 X:00 Y:58 P:35 S:fb pc: e538, reg_addr: 0046
e538 a2 03 a0 LDX  IMM   A:04 X:00 Y:58 P:35 S:fb pc: e53a, reg_addr: 0003
e53a a0 77 a9 LDY  IMM   A:04 X:03 Y:58 P:35 S:fb pc: e53c, reg_addr: 0077
e53c a9 ff 85 LDA  IMM   A:04 X:03 Y:77 P:35 S:fb pc: e53e, reg_addr: 00ff
e53e 85 01 24 STA  ZP    A:ff X:03 Y:77 P:b5 S:fb pc: e540, reg_addr: 0001
e540 24 01 38 BIT  ZP    A:ff X:03 Y:77 P:b5 S:fb pc: e542, reg_addr: 0001
e542 38 a9 00 SEC  IMPL  A:ff X:03 Y:77 P:f5 S:fb pc: e543, reg_addr: 0000
e543 a9 00 a3 LDA  IMM   A:ff X:03 Y:77 P:f5 S:fb pc: e545, reg_addr: 0000
e545 a3 40 ea LAX  INDX  A:00 X:03 Y:77 P:77 S:fb pc: e547, reg_addr: 0580
e547 ea ea ea NOP  IMPL  A:55 X:55 Y:77 P:75 S:fb pc: e548, reg_addr: 0000
e548 ea ea ea NOP  IMPL  A:55 X:55 Y:77 P:75 S:fb pc: e549, reg_addr: 0000
e549 ea ea f0 NOP  IMPL  A:55 X:55 Y:77 P:75 S:fb pc: e54a, reg_addr: 0000
e54a ea f0 12 NOP  IMPL  A:55 X:55 Y:77 P:75 S:fb pc: e54b, reg_addr: 0000
e54b f0 12 30 BEQ  REL   A:55 X:55 Y:77 P:75 S:fb pc: e54d, reg_addr: e55f
e54d 30 10 50 BMI  REL   A:55 X:55 Y:77 P:75 S:fb pc: e54f, reg_addr: e55f
e54f 50 0e 90 BVC  REL   A:55 X:55 Y:77 P:75 S:fb pc: e551, reg_addr: e55f
e551 90 0c c9 BCC  REL   A:55 X:55 Y:77 P:75 S:fb pc: e553, reg_addr: e55f
e553 c9 55 d0 CMP  IMM   A:55 X:55 Y:77 P:75 S:fb pc: e555, reg_addr: 0055
e555 d0 08 e0 BNE  REL   A:55 X:55 Y:77 P:77 S:fb pc: e557, reg_addr: e55f
e557 e0 55 d0 CPX  IMM   A:55 X:55 Y:77 P:77 S:fb pc: e559, reg_addr: 0055
e559 d0 04 c0 BNE  REL   A:55 X:55 Y:77 P:77 S:fb pc: e55b, reg_addr: e55f
e55b c0 77 f0 CPY  IMM   A:55 X:55 Y:77 P:77 S:fb pc: e55d, reg_addr: 0077
e55d f0 04 a9 BEQ  REL   A:55 X:55 Y:77 P:77 S:fb pc: e563, reg_addr: e563
e563 a2 05 a0 LDX  IMM   A:55 X:55 Y:77 P:77 S:fb pc: e565, reg_addr: 0005
e565 a0 33 b8 LDY  IMM   A:55 X:05 Y:77 P:75 S:fb pc: e567, reg_addr: 0033
e567 b8 18 a9 CLV  IMPL  A:55 X:05 Y:33 P:75 S:fb pc: e568, reg_addr: 0000
e568 18 a9 00 CLC  IMPL  A:55 X:05 Y:33 P:35 S:fb pc: e569, reg_addr: 0000
e569 a9 00 a3 LDA  IMM   A:55 X:05 Y:33 P:34 S:fb pc: e56b, reg_addr: 0000
e56b a3 40 ea LAX  INDX  A:00 X:05 Y:33 P:36 S:fb pc: e56d, reg_addr: 0432
e56d ea ea ea NOP  IMPL  A:aa X:aa Y:33 P:b4 S:fb pc: e56e, reg_addr: 0000
e56e ea ea ea NOP  IMPL  A:aa X:aa Y:33 P:b4 S:fb pc: e56f, reg_addr: 0000
e56f ea ea f0 NOP  IMPL  A:aa X:aa Y:33 P:b4 S:fb pc: e570, reg_addr: 0000
e570 ea f0 12 NOP  IMPL  A:aa X:aa Y:33 P:b4 S:fb pc: e571, reg_addr: 0000
e571 f0 12 10 BEQ  REL   A:aa X:aa Y:33 P:b4 S:fb pc: e573, reg_addr: e585
e573 10 10 70 BPL  REL   A:aa X:aa Y:33 P:b4 S:fb pc: e575, reg_addr: e585
e575 70 0e b0 BVS  REL   A:aa X:aa Y:33 P:b4 S:fb pc: e577, reg_addr: e585
e577 b0 0c c9 BCS  REL   A:aa X:aa Y:33 P:b4 S:fb pc: e579, reg_addr: e585
e579 c9 aa d0 CMP  IMM   A:aa X:aa Y:33 P:b4 S:fb pc: e57b, reg_addr: 00aa
e57b d0 08 e0 BNE  REL   A:aa X:aa Y:33 P:37 S:fb pc: e57d, reg_addr: e585
e57d e0 aa d0 CPX  IMM   A:aa X:aa Y:33 P:37 S:fb pc: e57f, reg_addr: 00aa
e57f d0 04 c0 BNE  REL   A:aa X:aa Y:33 P:37 S:fb pc: e581, reg_addr: e585
e581 c0 33 f0 CPY  IMM   A:aa X:aa Y:33 P:37 S:fb pc: e583, reg_addr: 0033
e583 f0 04 a9 BEQ  REL   A:aa X:aa Y:33 P:37 S:fb pc: e589, reg_addr: e589
e589 a9 87 85 LDA  IMM   A:aa X:aa Y:33 P:37 S:fb pc: e58b, reg_addr: 0087
e58b 85 67 a9 STA  ZP    A:87 X:aa Y:33 P:b5 S:fb pc: e58d, reg_addr: 0067
e58d a9 32 85 LDA  IMM   A:87 X:aa Y:33 P:b5 S:fb pc: e58f, reg_addr: 0032
e58f 85 68 a0 STA  ZP    A:32 X:aa Y:33 P:35 S:fb pc: e591, reg_addr: 0068
e591 a0 57 24 LDY  IMM   A:32 X:aa Y:33 P:35 S:fb pc: e593, reg_addr: 0057
e593 24 01 38 BIT  ZP    A:32 X:aa Y:57 P:35 S:fb pc: e595, reg_addr: 0001
e595 38 a9 00 SEC  IMPL  A:32 X:aa Y:57 P:f5 S:fb pc: e596, reg_addr: 0000
e596 a9 00 a7 LDA  IMM   A:32 X:aa Y:57 P:f5 S:fb pc: e598, reg_addr: 0000
e598 a7 67 ea LAX  ZP    A:00 X:aa Y:57 P:77 S:fb pc: e59a, reg_addr: 0067
e59a ea ea ea NOP  IMPL  A:87 X:87 Y:57 P:f5 S:fb pc: e59b, reg_addr: 0000
e59b ea ea ea NOP  IMPL  A:87 X:87 Y:57 P:f5 S:fb pc: e59c, reg_addr: 0000
e59c ea ea f0 NOP  IMPL  A:87 X:87 Y:57 P:f5 S:fb pc: e59d, reg_addr: 0000
e59d ea f0 12 NOP  IMPL  A:87 X:87 Y:57 P:f5 S:fb pc: e59e, reg_addr: 0000
e59e f0 12 10 BEQ  REL   A:87 X:87 Y:57 P:f5 S:fb pc: e5a0, reg_addr: e5b2
e5a0 10 10 50 BPL  REL   A:87 X:87 Y:57 P:f5 S:fb pc: e5a2, reg_addr: e5b2
e5a2 50 0e 90 BVC  REL   A:87 X:87 Y:57 P:f5 S:fb pc: e5a4, reg_addr: e5b2
e5a4 90 0c c9 BCC  REL   A:87 X:87 Y:57 P:f5 S:fb pc: e5a6, reg_addr: e5b2
e5a6 c9 87 d0 CMP  IMM   A:87 X:87 Y:57 P:f5 S:fb pc: e5a8, reg_addr: 0087
e5a8 d0 08 e0 BNE  REL   A:87 X:87 Y:57 P:77 S:fb pc: e5aa, reg_addr: e5b2
e5aa e0 87 d0 CPX  IMM   A:87 X:87 Y:57 P:77 S:fb pc: e5ac, reg_addr: 0087
e5ac d0 04 c0 BNE  REL   A:87 X:87 Y:57 P:77 S:fb pc: e5ae, reg_addr: e5b2
e5ae c0 57 f0 CPY  IMM   A:87 X:87 Y:57 P:77 S:fb pc: e5b0, reg_addr: 0057
e5b0 f0 04 a9 BEQ  REL   A:87 X:87 Y:57 P:77 S:fb pc: e5b6, reg_addr: e5b6
e5b6 a0 53 b8 LDY  IMM   A:87 X:87 Y:57 P:77 S:fb pc: e5b8, reg_addr: 0053
e5b8 b8 18 a9 CLV  IMPL  A:87 X:87 Y:53 P:75 S:fb pc: e5b9, reg_addr: 0000
e5b9 18 a9 00 CLC  IMPL  A:87 X:87 Y:53 P:35 S:fb pc: e5ba, reg_addr: 0000
e5ba a9 00 a7 LDA  IMM   A:87 X:87 Y:53 P:34 S:fb pc: e5bc, reg_addr: 0000
e5bc a7 68 ea LAX  ZP    A:00 X:87 Y:53 P:36 S:fb pc: e5be, reg_addr: 0068
e5be ea ea ea NOP  IMPL  A:32 X:32 Y:53 P:34 S:fb pc: e5bf, reg_addr: 0000
e5bf ea ea ea NOP  IMPL  A:32 X:32 Y:53 P:34 S:fb pc: e5c0, reg_addr: 0000
e5c0 ea ea f0 NOP  IMPL  A:32 X:32 Y:53 P:34 S:fb pc: e5c1, reg_addr: 0000
e5c1 ea f0 12 NOP  IMPL  A:32 X:32 Y:53 P:34 S:fb pc: e5c2, reg_addr: 0000
e5c2 f0 12 30 BEQ  REL   A:32 X:32 Y:53 P:34 S:fb pc: e5c4, reg_addr: e5d6
e5c4 30 10 70 BMI  REL   A:32 X:32 Y:53 P:34 S:fb pc: e5c6, reg_addr: e5d6
e5c6 70 0e b0 BVS  REL   A:32 X:32 Y:53 P:34 S:fb pc: e5c8, reg_addr: e5d6
e5c8 b0 0c c9 BCS  REL   A:32 X:32 Y:53 P:34 S:fb pc: e5ca, reg_addr: e5d6
e5ca c9 32 d0 CMP  IMM   A:32 X:32 Y:53 P:34 S:fb pc: e5cc, reg_addr: 0032
e5cc d0 08 e0 BNE  REL   A:32 X:32 Y:53 P:37 S:fb pc: e5ce, reg_addr: e5d6
e5ce e0 32 d0 CPX  IMM   A:32 X:32 Y:53 P:37 S:fb pc: e5d0, reg_addr: 0032
e5d0 d0 04 c0 BNE  REL   A:32 X:32 Y:53 P:37 S:fb pc: e5d2, reg_addr: e5d6
e5d2 c0 53 f0 CPY  IMM   A:32 X:32 Y:53 P:37 S:fb pc: e5d4, reg_addr: 0053
e5d4 f0 04 a9 BEQ  REL   A:32 X:32 Y:53 P:37 S:fb pc: e5da, reg_addr: e5da
e5da a9 87 8d LDA  IMM   A:32 X:32 Y:53 P:37 S:fb pc: e5dc, reg_addr: 0087
e5dc 8d 77 05 STA  ABS   A:87 X:32 Y:53 P:b5 S:fb pc: e5df, reg_addr: 0577
e5df a9 32 8d LDA  IMM   A:87 X:32 Y:53 P:b5 S:fb pc: e5e1, reg_addr: 0032
e5e1 8d 78 05 STA  ABS   A:32 X:32 Y:53 P:35 S:fb pc: e5e4, reg_addr: 0578
e5e4 a0 57 24 LDY  IMM   A:32 X:32 Y:53 P:35 S:fb pc: e5e6, reg_addr: 0057
e5e6 24 01 38 BIT  ZP    A:32 X:32 Y:57 P:35 S:fb pc: e5e8, reg_addr: 0001
e5e8 38 a9 00 SEC  IMPL  A:32 X:32 Y:57 P:f5 S:fb pc: e5e9, reg_addr: 0000
e5e9 a9 00 af LDA  IMM   A:32 X:32 Y:57 P:f5 S:fb pc: e5eb, reg_addr: 0000
e5eb af 77 05 LAX  ABS   A:00 X:32 Y:57 P:77 S:fb pc: e5ee, reg_addr: 0577
e5ee ea ea ea NOP  IMPL  A:87 X:87 Y:57 P:f5 S:fb pc: e5ef, reg_addr: 0000
e5ef ea ea ea NOP  IMPL  A:87 X:87 Y:57 P:f5 S:fb pc: e5f0, reg_addr: 0000
e5f0 ea ea f0 NOP  IMPL  A:87 X:87 Y:57 P:f5 S:fb pc: e5f1, reg_addr: 0000
e5f1 ea f0 12 NOP  IMPL  A:87 X:87 Y:57 P:f5 S:fb pc: e5f2, reg_addr: 0000
e5f2 f0 12 10 BEQ  REL   A:87 X:87 Y:57 P:f5 S:fb pc: e5f4, reg_addr: e606
e5f4 10 10 50 BPL  REL   A:87 X:87 Y:57 P:f5 S:fb pc: e5f6, reg_addr: e606
e5f6 50 0e 90 BVC  REL   A:87 X:87 Y:57 P:f5 S:fb pc: e5f8, reg_addr: e606
e5f8 90 0c c9 BCC  REL   A:87 X:87 Y:57 P:f5 S:fb pc: e5fa, reg_addr: e606
e5fa c9 87 d0 CMP  IMM   A:87 X:87 Y:57 P:f5 S:fb pc: e5fc, reg_addr: 0087
e5fc d0 08 e0 BNE  REL   A:87 X:87 Y:57 P:77 S:fb pc: e5fe, reg_addr: e606
e5fe e0 87 d0 CPX  IMM   A:87 X:87 Y:57 P:77 S:fb pc: e600, reg_addr: 0087
e600 d0 04 c0 BNE  REL   A:87 X:87 Y:57 P:77 S:fb pc: e602, reg_addr: e606
e602 c0 57 f0 CPY  IMM   A:87 X:87 Y:57 P:77 S:fb pc: e604, reg_addr: 0057
e604 f0 04 a9 BEQ  REL   A:87 X:87 Y:57 P:77 S:fb pc: e60a, reg_addr: e60a
e60a a0 53 b8 LDY  IMM   A:87 X:87 Y:57 P:77 S:fb pc: e60c, reg_addr: 0053
e60c b8 18 a9 CLV  IMPL  A:87 X:87 Y:53 P:75 S:fb pc: e60d, reg_addr: 0000
e60d 18 a9 00 CLC  IMPL  A:87 X:87 Y:53 P:35 S:fb pc: e60e, reg_addr: 0000
e60e a9 00 af LDA  IMM   A:87 X:87 Y:53 P:34 S:fb pc: e610, reg_addr: 0000
e610 af 78 05 LAX  ABS   A:00 X:87 Y:53 P:36 S:fb pc: e613, reg_addr: 0578
e613 ea ea ea NOP  IMPL  A:32 X:32 Y:53 P:34 S:fb pc: e614, reg_addr: 0000
e614 ea ea ea NOP  IMPL  A:32 X:32 Y:53 P:34 S:fb pc: e615, reg_addr: 0000
e615 ea ea f0 NOP  IMPL  A:32 X:32 Y:53 P:34 S:fb pc: e616, reg_addr: 0000
e616 ea f0 12 NOP  IMPL  A:32 X:32 Y:53 P:34 S:fb pc: e617, reg_addr: 0000
e617 f0 12 30 BEQ  REL   A:32 X:32 Y:53 P:34 S:fb pc: e619, reg_addr: e62b
e619 30 10 70 BMI  REL   A:32 X:32 Y:53 P:34 S:fb pc: e61b, reg_addr: e62b
e61b 70 0e b0 BVS  REL   A:32 X:32 Y:53 P:34 S:fb pc: e61d, reg_addr: e62b
e61d b0 0c c9 BCS  REL   A:32 X:32 Y:53 P:34 S:fb pc: e61f, reg_addr: e62b
e61f c9 32 d0 CMP  IMM   A:32 X:32 Y:53 P:34 S:fb pc: e621, reg_addr: 0032
e621 d0 08 e0 BNE  REL   A:32 X:32 Y:53 P:37 S:fb pc: e623, reg_addr: e62b
e623 e0 32 d0 CPX  IMM   A:32 X:32 Y:53 P:37 S:fb pc: e625, reg_addr: 0032
e625 d0 04 c0 BNE  REL   A:32 X:32 Y:53 P:37 S:fb pc: e627, reg_addr: e62b
e627 c0 53 f0 CPY  IMM   A:32 X:32 Y:53 P:37 S:fb pc: e629, reg_addr: 0053
e629 f0 04 a9 BEQ  REL   A:32 X:32 Y:53 P:37 S:fb pc: e62f, reg_addr: e62f
e62f a9 ff 85 LDA  IMM   A:32 X:32 Y:53 P:37 S:fb pc: e631, reg_addr: 00ff
e631 85 43 a9 STA  ZP    A:ff X:32 Y:53 P:b5 S:fb pc: e633, reg_addr: 0043
e633 a9 04 85 LDA  IMM   A:ff X:32 Y:53 P:b5 S:fb pc: e635, reg_addr: 0004
e635 85 44 a9 STA  ZP    A:04 X:32 Y:53 P:35 S:fb pc: e637, reg_addr: 0044
e637 a9 32 85 LDA  IMM   A:04 X:32 Y:53 P:35 S:fb pc: e639, reg_addr: 0032
e639 85 45 a9 STA  ZP    A:32 X:32 Y:53 P:35 S:fb pc: e63b, reg_addr: 0045
e63b a9 04 85 LDA  IMM   A:32 X:32 Y:53 P:35 S:fb pc: e63d, reg_addr: 0004
e63d 85 46 a9 STA  ZP    A:04 X:32 Y:53 P:35 S:fb pc: e63f, reg_addr: 0046
e63f a9 55 8d LDA  IMM   A:04 X:32 Y:53 P:35 S:fb pc: e641, reg_addr: 0055
e641 8d 80 05 STA  ABS   A:55 X:32 Y:53 P:35 S:fb pc: e644, reg_addr: 0580
e644 a9 aa 8d LDA  IMM   A:55 X:32 Y:53 P:35 S:fb pc: e646, reg_addr: 00aa
e646 8d 32 04 STA  ABS   A:aa X:32 Y:53 P:b5 S:fb pc: e649, reg_addr: 0432
e649 a2 03 a0 LDX  IMM   A:aa X:32 Y:53 P:b5 S:fb pc: e64b, reg_addr: 0003
e64b a0 81 24 LDY  IMM   A:aa X:03 Y:53 P:35 S:fb pc: e64d, reg_addr: 0081
e64d 24 01 38 BIT  ZP    A:aa X:03 Y:81 P:b5 S:fb pc: e64f, reg_addr: 0001
e64f 38 a9 00 SEC  IMPL  A:aa X:03 Y:81 P:f5 S:fb pc: e650, reg_addr: 0000
e650 a9 00 b3 LDA  IMM   A:aa X:03 Y:81 P:f5 S:fb pc: e652, reg_addr: 0000
e652 b3 43 ea LAX  INDY  A:00 X:03 Y:81 P:77 S:fb pc: e654, reg_addr: 0580
e654 ea ea ea NOP  IMPL  A:55 X:55 Y:81 P:75 S:fb pc: e655, reg_addr: 0000
e655 ea ea ea NOP  IMPL  A:55 X:55 Y:81 P:75 S:fb pc: e656, reg_addr: 0000
e656 ea ea f0 NOP  IMPL  A:55 X:55 Y:81 P:75 S:fb pc: e657, reg_addr: 0000
e657 ea f0 12 NOP  IMPL  A:55 X:55 Y:81 P:75 S:fb pc: e658, reg_addr: 0000
e658 f0 12 30 BEQ  REL   A:55 X:55 Y:81 P:75 S:fb pc: e65a, reg_addr: e66c
e65a 30 10 50 BMI  REL   A:55 X:55 Y:81 P:75 S:fb pc: e65c, reg_addr: e66c
e65c 50 0e 90 BVC  REL   A:55 X:55 Y:81 P:75 S:fb pc: e65e, reg_addr: e66c
e65e 90 0c c9 BCC  REL   A:55 X:55 Y:81 P:75 S:fb pc: e660, reg_addr: e66c
e660 c9 55 d0 CMP  IMM   A:55 X:55 Y:81 P:75 S:fb pc: e662, reg_addr: 0055
e662 d0 08 e0 BNE  REL   A:55 X:55 Y:81 P:77 S:fb pc: e664, reg_addr: e66c
e664 e0 55 d0 CPX  IMM   A:55 X:55 Y:81 P:77 S:fb pc: e666, reg_addr: 0055
e666 d0 04 c0 BNE  REL   A:55 X:55 Y:81 P:77 S:fb pc: e668, reg_addr: e66c
e668 c0 81 f0 CPY  IMM   A:55 X:55 Y:81 P:77 S:fb pc: e66a, reg_addr: 0081
e66a f0 04 a9 BEQ  REL   A:55 X:55 Y:81 P:77 S:fb pc: e670, reg_addr: e670
e670 a2 05 a0 LDX  IMM   A:55 X:55 Y:81 P:77 S:fb pc: e672, reg_addr: 0005
e672 a0 00 b8 LDY  IMM   A:55 X:05 Y:81 P:75 S:fb pc: e674, reg_addr: 0000
e674 b8 18 a9 CLV  IMPL  A:55 X:05 Y:00 P:77 S:fb pc: e675, reg_addr: 0000
e675 18 a9 00 CLC  IMPL  A:55 X:05 Y:00 P:37 S:fb pc: e676, reg_addr: 0000
e676 a9 00 b3 LDA  IMM   A:55 X:05 Y:00 P:36 S:fb pc: e678, reg_addr: 0000
e678 b3 45 ea LAX  INDY  A:00 X:05 Y:00 P:36 S:fb pc: e67a, reg_addr: 0432
e67a ea ea ea NOP  IMPL  A:aa X:aa Y:00 P:b4 S:fb pc: e67b, reg_addr: 0000
e67b ea ea ea NOP  IMPL  A:aa X:aa Y:00 P:b4 S:fb pc: e67c, reg_addr: 0000
e67c ea ea f0 NOP  IMPL  A:aa X:aa Y:00 P:b4 S:fb pc: e67d, reg_addr: 0000
e67d ea f0 12 NOP  IMPL  A:aa X:aa Y:00 P:b4 S:fb pc: e67e, reg_addr: 0000
e67e f0 12 10 BEQ  REL   A:aa X:aa Y:00 P:b4 S:fb pc: e680, reg_addr: e692
e680 10 10 70 BPL  REL   A:aa X:aa Y:00 P:b4 S:fb pc: e682, reg_addr: e692
e682 70 0e b0 BVS  REL   A:aa X:aa Y:00 P:b4 S:fb pc: e684, reg_addr: e692
e684 b0 0c c9 BCS  REL   A:aa X:aa Y:00 P:b4 S:fb pc: e686, reg_addr: e692
e686 c9 aa d0 CMP  IMM   A:aa X:aa Y:00 P:b4 S:fb pc: e688, reg_addr: 00aa
e688 d0 08 e0 BNE  REL   A:aa X:aa Y:00 P:37 S:fb pc: e68a, reg_addr: e692
e68a e0 aa d0 CPX  IMM   A:aa X:aa Y:00 P:37 S:fb pc: e68c, reg_addr: 00aa
e68c d0 04 c0 BNE  REL   A:aa X:aa Y:00 P:37 S:fb pc: e68e, reg_addr: e692
e68e c0 00 f0 CPY  IMM   A:aa X:aa Y:00 P:37 S:fb pc: e690, reg_addr: 0000
e690 f0 04 a9 BEQ  REL   A:aa X:aa Y:00 P:37 S:fb pc: e696, reg_addr: e696
e696 a9 87 85 LDA  IMM   A:aa X:aa Y:00 P:37 S:fb pc: e698, reg_addr: 0087
e698 85 67 a9 STA  ZP    A:87 X:aa Y:00 P:b5 S:fb pc: e69a, reg_addr: 0067
e69a a9 32 85 LDA  IMM   A:87 X:aa Y:00 P:b5 S:fb pc: e69c, reg_addr: 0032
e69c 85 68 a0 STA  ZP    A:32 X:aa Y:00 P:35 S:fb pc: e69e, reg_addr: 0068
e69e a0 57 24 LDY  IMM   A:32 X:aa Y:00 P:35 S:fb pc: e6a0, reg_addr: 0057
e6a0 24 01 38 BIT  ZP    A:32 X:aa Y:57 P:35 S:fb pc: e6a2, reg_addr: 0001
e6a2 38 a9 00 SEC  IMPL  A:32 X:aa Y:57 P:f5 S:fb pc: e6a3, reg_addr: 0000
e6a3 a9 00 b7 LDA  IMM   A:32 X:aa Y:57 P:f5 S:fb pc: e6a5, reg_addr: 0000
e6a5 b7 10 ea LAX  ZPY   A:00 X:aa Y:57 P:77 S:fb pc: e6a7, reg_addr: 0067
e6a7 ea ea ea NOP  IMPL  A:87 X:87 Y:57 P:f5 S:fb pc: e6a8, reg_addr: 0000
e6a8 ea ea ea NOP  IMPL  A:87 X:87 Y:57 P:f5 S:fb pc: e6a9, reg_addr: 0000
e6a9 ea ea f0 NOP  IMPL  A:87 X:87 Y:57 P:f5 S:fb pc: e6aa, reg_addr: 0000
e6aa ea f0 12 NOP  IMPL  A:87 X:87 Y:57 P:f5 S:fb pc: e6ab, reg_addr: 0000
e6ab f0 12 10 BEQ  REL   A:87 X:87 Y:57 P:f5 S:fb pc: e6ad, reg_addr: e6bf
e6ad 10 10 50 BPL  REL   A:87 X:87 Y:57 P:f5 S:fb pc: e6af, reg_addr: e6bf
e6af 50 0e 90 BVC  REL   A:87 X:87 Y:57 P:f5 S:fb pc: e6b1, reg_addr: e6bf
e6b1 90 0c c9 BCC  REL   A:87 X:87 Y:57 P:f5 S:fb pc: e6b3, reg_addr: e6bf
e6b3 c9 87 d0 CMP  IMM   A:87 X:87 Y:57 P:f5 S:fb pc: e6b5, reg_addr: 0087
e6b5 d0 08 e0 BNE  REL   A:87 X:87 Y:57 P:77 S:fb pc: e6b7, reg_addr: e6bf
e6b7 e0 87 d0 CPX  IMM   A:87 X:87 Y:57 P:77 S:fb pc: e6b9, reg_addr: 0087
e6b9 d0 04 c0 BNE  REL   A:87 X:87 Y:57 P:77 S:fb pc: e6bb, reg_addr: e6bf
e6bb c0 57 f0 CPY  IMM   A:87 X:87 Y:57 P:77 S:fb pc: e6bd, reg_addr: 0057
e6bd f0 04 a9 BEQ  REL   A:87 X:87 Y:57 P:77 S:fb pc: e6c3, reg_addr: e6c3
e6c3 a0 ff b8 LDY  IMM   A:87 X:87 Y:57 P:77 S:fb pc: e6c5, reg_addr: 00ff
e6c5 b8 18 a9 CLV  IMPL  A:87 X:87 Y:ff P:f5 S:fb pc: e6c6, reg_addr: 0000
e6c6 18 a9 00 CLC  IMPL  A:87 X:87 Y:ff P:b5 S:fb pc: e6c7, reg_addr: 0000
e6c7 a9 00 b7 LDA  IMM   A:87 X:87 Y:ff P:b4 S:fb pc: e6c9, reg_addr: 0000
e6c9 b7 69 ea LAX  ZPY   A:00 X:87 Y:ff P:36 S:fb pc: e6cb, reg_addr: 0068
e6cb ea ea ea NOP  IMPL  A:32 X:32 Y:ff P:34 S:fb pc: e6cc, reg_addr: 0000
e6cc ea ea ea NOP  IMPL  A:32 X:32 Y:ff P:34 S:fb pc: e6cd, reg_addr: 0000
e6cd ea ea f0 NOP  IMPL  A:32 X:32 Y:ff P:34 S:fb pc: e6ce, reg_addr: 0000
e6ce ea f0 12 NOP  IMPL  A:32 X:32 Y:ff P:34 S:fb pc: e6cf, reg_addr: 0000
e6cf f0 12 30 BEQ  REL   A:32 X:32 Y:ff P:34 S:fb pc: e6d1, reg_addr: e6e3
e6d1 30 10 70 BMI  REL   A:32 X:32 Y:ff P:34 S:fb pc: e6d3, reg_addr: e6e3
e6d3 70 0e b0 BVS  REL   A:32 X:32 Y:ff P:34 S:fb pc: e6d5, reg_addr: e6e3
e6d5 b0 0c c9 BCS  REL   A:32 X:32 Y:ff P:34 S:fb pc: e6d7, reg_addr: e6e3
e6d7 c9 32 d0 CMP  IMM   A:32 X:32 Y:ff P:34 S:fb pc: e6d9, reg_addr: 0032
e6d9 d0 08 e0 BNE  REL   A:32 X:32 Y:ff P:37 S:fb pc: e6db, reg_addr: e6e3
e6db e0 32 d0 CPX  IMM   A:32 X:32 Y:ff P:37 S:fb pc: e6dd, reg_addr: 0032
e6dd d0 04 c0 BNE  REL   A:32 X:32 Y:ff P:37 S:fb pc: e6df, reg_addr: e6e3
e6df c0 ff f0 CPY  IMM   A:32 X:32 Y:ff P:37 S:fb pc: e6e1, reg_addr: 00ff
e6e1 f0 04 a9 BEQ  REL   A:32 X:32 Y:ff P:37 S:fb pc: e6e7, reg_addr: e6e7
e6e7 a9 87 8d LDA  IMM   A:32 X:32 Y:ff P:37 S:fb pc: e6e9, reg_addr: 0087
e6e9 8d 87 05 STA  ABS   A:87 X:32 Y:ff P:b5 S:fb pc: e6ec, reg_addr: 0587
e6ec a9 32 8d LDA  IMM   A:87 X:32 Y:ff P:b5 S:fb pc: e6ee, reg_addr: 0032
e6ee 8d 88 05 STA  ABS   A:32 X:32 Y:ff P:35 S:fb pc: e6f1, reg_addr: 0588
e6f1 a0 30 24 LDY  IMM   A:32 X:32 Y:ff P:35 S:fb pc: e6f3, reg_addr: 0030
e6f3 24 01 38 BIT  ZP    A:32 X:32 Y:30 P:35 S:fb pc: e6f5, reg_addr: 0001
e6f5 38 a9 00 SEC  IMPL  A:32 X:32 Y:30 P:f5 S:fb pc: e6f6, reg_addr: 0000
e6f6 a9 00 bf LDA  IMM   A:32 X:32 Y:30 P:f5 S:fb pc: e6f8, reg_addr: 0000
e6f8 bf 57 05 LAX  ABSY  A:00 X:32 Y:30 P:77 S:fb pc: e6fb, reg_addr: 0587
e6fb ea ea ea NOP  IMPL  A:87 X:87 Y:30 P:f5 S:fb pc: e6fc, reg_addr: 0000
e6fc ea ea ea NOP  IMPL  A:87 X:87 Y:30 P:f5 S:fb pc: e6fd, reg_addr: 0000
e6fd ea ea f0 NOP  IMPL  A:87 X:87 Y:30 P:f5 S:fb pc: e6fe, reg_addr: 0000
e6fe ea f0 12 NOP  IMPL  A:87 X:87 Y:30 P:f5 S:fb pc: e6ff, reg_addr: 0000
e6ff f0 12 10 BEQ  REL   A:87 X:87 Y:30 P:f5 S:fb pc: e701, reg_addr: e713
e701 10 10 50 BPL  REL   A:87 X:87 Y:30 P:f5 S:fb pc: e703, reg_addr: e713
e703 50 0e 90 BVC  REL   A:87 X:87 Y:30 P:f5 S:fb pc: e705, reg_addr: e713
e705 90 0c c9 BCC  REL   A:87 X:87 Y:30 P:f5 S:fb pc: e707, reg_addr: e713
e707 c9 87 d0 CMP  IMM   A:87 X:87 Y:30 P:f5 S:fb pc: e709, reg_addr: 0087
e709 d0 08 e0 BNE  REL   A:87 X:87 Y:30 P:77 S:fb pc: e70b, reg_addr: e713
e70b e0 87 d0 CPX  IMM   A:87 X:87 Y:30 P:77 S:fb pc: e70d, reg_addr: 0087
e70d d0 04 c0 BNE  REL   A:87 X:87 Y:30 P:77 S:fb pc: e70f, reg_addr: e713
e70f c0 30 f0 CPY  IMM   A:87 X:87 Y:30 P:77 S:fb pc: e711, reg_addr: 0030
e711 f0 04 a9 BEQ  REL   A:87 X:87 Y:30 P:77 S:fb pc: e717, reg_addr: e717
e717 a0 40 b8 LDY  IMM   A:87 X:87 Y:30 P:77 S:fb pc: e719, reg_addr: 0040
e719 b8 18 a9 CLV  IMPL  A:87 X:87 Y:40 P:75 S:fb pc: e71a, reg_addr: 0000
e71a 18 a9 00 CLC  IMPL  A:87 X:87 Y:40 P:35 S:fb pc: e71b, reg_addr: 0000
e71b a9 00 bf LDA  IMM   A:87 X:87 Y:40 P:34 S:fb pc: e71d, reg_addr: 0000
e71d bf 48 05 LAX  ABSY  A:00 X:87 Y:40 P:36 S:fb pc: e720, reg_addr: 0588
e720 ea ea ea NOP  IMPL  A:32 X:32 Y:40 P:34 S:fb pc: e721, reg_addr: 0000
e721 ea ea ea NOP  IMPL  A:32 X:32 Y:40 P:34 S:fb pc: e722, reg_addr: 0000
e722 ea ea f0 NOP  IMPL  A:32 X:32 Y:40 P:34 S:fb pc: e723, reg_addr: 0000
e723 ea f0 12 NOP  IMPL  A:32 X:32 Y:40 P:34 S:fb pc: e724, reg_addr: 0000
e724 f0 12 30 BEQ  REL   A:32 X:32 Y:40 P:34 S:fb pc: e726, reg_addr: e738
e726 30 10 70 BMI  REL   A:32 X:32 Y:40 P:34 S:fb pc: e728, reg_addr: e738
e728 70 0e b0 BVS  REL   A:32 X:32 Y:40 P:34 S:fb pc: e72a, reg_addr: e738
e72a b0 0c c9 BCS  REL   A:32 X:32 Y:40 P:34 S:fb pc: e72c, reg_addr: e738
e72c c9 32 d0 CMP  IMM   A:32 X:32 Y:40 P:34 S:fb pc: e72e, reg_addr: 0032
e72e d0 08 e0 BNE  REL   A:32 X:32 Y:40 P:37 S:fb pc: e730, reg_addr: e738
e730 e0 32 d0 CPX  IMM   A:32 X:32 Y:40 P:37 S:fb pc: e732, reg_addr: 0032
e732 d0 04 c0 BNE  REL   A:32 X:32 Y:40 P:37 S:fb pc: e734, reg_addr: e738
e734 c0 40 f0 CPY  IMM   A:32 X:32 Y:40 P:37 S:fb pc: e736, reg_addr: 0040
e736 f0 04 a9 BEQ  REL   A:32 X:32 Y:40 P:37 S:fb pc: e73c, reg_addr: e73c
e73c 60 a9 c0 RTS  IMPL  A:32 X:32 Y:40 P:37 S:fb pc: c635, reg_addr: 0000
c635 20 3d e7 JSR  ABS   A:32 X:32 Y:40 P:37 S:fd pc: e73d, reg_addr: e73d
e73d a9 c0 85 LDA  IMM   A:32 X:32 Y:40 P:37 S:fb pc: e73f, reg_addr: 00c0
e73f 85 01 a9 STA  ZP    A:c0 X:32 Y:40 P:b5 S:fb pc: e741, reg_addr: 0001
e741 a9 00 8d LDA  IMM   A:c0 X:32 Y:40 P:b5 S:fb pc: e743, reg_addr: 0000
e743 8d 89 04 STA  ABS   A:00 X:32 Y:40 P:37 S:fb pc: e746, reg_addr: 0489
e746 a9 89 85 LDA  IMM   A:00 X:32 Y:40 P:37 S:fb pc: e748, reg_addr: 0089
e748 85 60 a9 STA  ZP    A:89 X:32 Y:40 P:b5 S:fb pc: e74a, reg_addr: 0060
e74a a9 04 85 LDA  IMM   A:89 X:32 Y:40 P:b5 S:fb pc: e74c, reg_addr: 0004
e74c 85 61 a0 STA  ZP    A:04 X:32 Y:40 P:35 S:fb pc: e74e, reg_addr: 0061
e74e a0 44 a2 LDY  IMM   A:04 X:32 Y:40 P:35 S:fb pc: e750, reg_addr: 0044
e750 a2 17 a9 LDX  IMM   A:04 X:32 Y:44 P:35 S:fb pc: e752, reg_addr: 0017
e752 a9 3e 24 LDA  IMM   A:04 X:17 Y:44 P:35 S:fb pc: e754, reg_addr: 003e
e754 24 01 18 BIT  ZP    A:3e X:17 Y:44 P:35 S:fb pc: e756, reg_addr: 0001
e756 18 83 49 CLC  IMPL  A:3e X:17 Y:44 P:f7 S:fb pc: e757, reg_addr: 0000
e757 83 49 ea SAX  INDX  A:3e X:17 Y:44 P:f6 S:fb pc: e759, reg_addr: 0489
e759 ea ea ea NOP  IMPL  A:3e X:17 Y:44 P:f6 S:fb pc: e75a, reg_addr: 0000
e75a ea ea ea NOP  IMPL  A:3e X:17 Y:44 P:f6 S:fb pc: e75b, reg_addr: 0000
e75b ea ea d0 NOP  IMPL  A:3e X:17 Y:44 P:f6 S:fb pc: e75c, reg_addr: 0000
e75c ea d0 19 NOP  IMPL  A:3e X:17 Y:44 P:f6 S:fb pc: e75d, reg_addr: 0000
e75d d0 19 b0 BNE  REL   A:3e X:17 Y:44 P:f6 S:fb pc: e75f, reg_addr: e778
e75f b0 17 50 BCS  REL   A:3e X:17 Y:44 P:f6 S:fb pc: e761, reg_addr: e778
e761 50 15 10 BVC  REL   A:3e X:17 Y:44 P:f6 S:fb pc: e763, reg_addr: e778
e763 10 13 c9 BPL  REL   A:3e X:17 Y:44 P:f6 S:fb pc: e765, reg_addr: e778
e765 c9 3e d0 CMP  IMM   A:3e X:17 Y:44 P:f6 S:fb pc: e767, reg_addr: 003e
e767 d0 0f c0 BNE  REL   A:3e X:17 Y:44 P:77 S:fb pc: e769, reg_addr: e778
e769 c0 44 d0 CPY  IMM   A:3e X:17 Y:44 P:77 S:fb pc: e76b, reg_addr: 0044
e76b d0 0b e0 BNE  REL   A:3e X:17 Y:44 P:77 S:fb pc: e76d, reg_addr: e778
e76d e0 17 d0 CPX  IMM   A:3e X:17 Y:44 P:77 S:fb pc: e76f, reg_addr: 0017
e76f d0 07 ad BNE  REL   A:3e X:17 Y:44 P:77 S:fb pc: e771, reg_addr: e778
e771 ad 89 04 LDA  ABS   A:3e X:17 Y:44 P:77 S:fb pc: e774, reg_addr: 0489
e774 c9 16 f0 CMP  IMM   A:16 X:17 Y:44 P:75 S:fb pc: e776, reg_addr: 0016
e776 f0 04 a9 BEQ  REL   A:16 X:17 Y:44 P:77 S:fb pc: e77c, reg_addr: e77c
e77c a0 44 a2 LDY  IMM   A:16 X:17 Y:44 P:77 S:fb pc: e77e, reg_addr: 0044
e77e a2 7a a9 LDX  IMM   A:16 X:17 Y:44 P:75 S:fb pc: e780, reg_addr: 007a
e780 a9 66 38 LDA  IMM   A:16 X:7a Y:44 P:75 S:fb pc: e782, reg_addr: 0066
e782 38 b8 83 SEC  IMPL  A:66 X:7a Y:44 P:75 S:fb pc: e783, reg_addr: 0000
e783 b8 83 e6 CLV  IMPL  A:66 X:7a Y:44 P:75 S:fb pc: e784, reg_addr: 0000
e784 83 e6 ea SAX  INDX  A:66 X:7a Y:44 P:35 S:fb pc: e786, reg_addr: 0489
e786 ea ea ea NOP  IMPL  A:66 X:7a Y:44 P:35 S:fb pc: e787, reg_addr: 0000
e787 ea ea ea NOP  IMPL  A:66 X:7a Y:44 P:35 S:fb pc: e788, reg_addr: 0000
e788 ea ea f0 NOP  IMPL  A:66 X:7a Y:44 P:35 S:fb pc: e789, reg_addr: 0000
e789 ea f0 19 NOP  IMPL  A:66 X:7a Y:44 P:35 S:fb pc: e78a, reg_addr: 0000
e78a f0 19 90 BEQ  REL   A:66 X:7a Y:44 P:35 S:fb pc: e78c, reg_addr: e7a5
e78c 90 17 70 BCC  REL   A:66 X:7a Y:44 P:35 S:fb pc: e78e, reg_addr: e7a5
e78e 70 15 30 BVS  REL   A:66 X:7a Y:44 P:35 S:fb pc: e790, reg_addr: e7a5
e790 30 13 c9 BMI  REL   A:66 X:7a Y:44 P:35 S:fb pc: e792, reg_addr: e7a5
e792 c9 66 d0 CMP  IMM   A:66 X:7a Y:44 P:35 S:fb pc: e794, reg_addr: 0066
e794 d0 0f c0 BNE  REL   A:66 X:7a Y:44 P:37 S:fb pc: e796, reg_addr: e7a5
e796 c0 44 d0 CPY  IMM   A:66 X:7a Y:44 P:37 S:fb pc: e798, reg_addr: 0044
e798 d0 0b e0 BNE  REL   A:66 X:7a Y:44 P:37 S:fb pc: e79a, reg_addr: e7a5
e79a e0 7a d0 CPX  IMM   A:66 X:7a Y:44 P:37 S:fb pc: e79c, reg_addr: 007a
e79c d0 07 ad BNE  REL   A:66 X:7a Y:44 P:37 S:fb pc: e79e, reg_addr: e7a5
e79e ad 89 04 LDA  ABS   A:66 X:7a Y:44 P:37 S:fb pc: e7a1, reg_addr: 0489
e7a1 c9 62 f0 CMP  IMM   A:62 X:7a Y:44 P:35 S:fb pc: e7a3, reg_addr: 0062
e7a3 f0 04 a9 BEQ  REL   A:62 X:7a Y:44 P:37 S:fb pc: e7a9, reg_addr: e7a9
e7a9 a9 ff 85 LDA  IMM   A:62 X:7a Y:44 P:37 S:fb pc: e7ab, reg_addr: 00ff
e7ab 85 49 a0 STA  ZP    A:ff X:7a Y:44 P:b5 S:fb pc: e7ad, reg_addr: 0049
e7ad a0 44 a2 LDY  IMM   A:ff X:7a Y:44 P:b5 S:fb pc: e7af, reg_addr: 0044
e7af a2 aa a9 LDX  IMM   A:ff X:7a Y:44 P:35 S:fb pc: e7b1, reg_addr: 00aa
e7b1 a9 55 24 LDA  IMM   A:ff X:aa Y:44 P:b5 S:fb pc: e7b3, reg_addr: 0055
e7b3 24 01 18 BIT  ZP    A:55 X:aa Y:44 P:35 S:fb pc: e7b5, reg_addr: 0001
e7b5 18 87 49 CLC  IMPL  A:55 X:aa Y:44 P:f5 S:fb pc: e7b6, reg_addr: 0000
e7b6 87 49 ea SAX  ZP    A:55 X:aa Y:44 P:f4 S:fb pc: e7b8, reg_addr: 0049
e7b8 ea ea ea NOP  IMPL  A:55 X:aa Y:44 P:f4 S:fb pc: e7b9, reg_addr: 0000
e7b9 ea ea ea NOP  IMPL  A:55 X:aa Y:44 P:f4 S:fb pc: e7ba, reg_addr: 0000
e7ba ea ea f0 NOP  IMPL  A:55 X:aa Y:44 P:f4 S:fb pc: e7bb, reg_addr: 0000
e7bb ea f0 18 NOP  IMPL  A:55 X:aa Y:44 P:f4 S:fb pc: e7bc, reg_addr: 0000
e7bc f0 18 b0 BEQ  REL   A:55 X:aa Y:44 P:f4 S:fb pc: e7be, reg_addr: e7d6
e7be b0 16 50 BCS  REL   A:55 X:aa Y:44 P:f4 S:fb pc: e7c0, reg_addr: e7d6
e7c0 50 14 10 BVC  REL   A:55 X:aa Y:44 P:f4 S:fb pc: e7c2, reg_addr: e7d6
e7c2 10 12 c9 BPL  REL   A:55 X:aa Y:44 P:f4 S:fb pc: e7c4, reg_addr: e7d6
e7c4 c9 55 d0 CMP  IMM   A:55 X:aa Y:44 P:f4 S:fb pc: e7c6, reg_addr: 0055
e7c6 d0 0e c0 BNE  REL   A:55 X:aa Y:44 P:77 S:fb pc: e7c8, reg_addr: e7d6
e7c8 c0 44 d0 CPY  IMM   A:55 X:aa Y:44 P:77 S:fb pc: e7ca, reg_addr: 0044
e7ca d0 0a e0 BNE  REL   A:55 X:aa Y:44 P:77 S:fb pc: e7cc, reg_addr: e7d6
e7cc e0 aa d0 CPX  IMM   A:55 X:aa Y:44 P:77 S:fb pc: e7ce, reg_addr: 00aa
e7ce d0 06 a5 BNE  REL   A:55 X:aa Y:44 P:77 S:fb pc: e7d0, reg_addr: e7d6
e7d0 a5 49 c9 LDA  ZP    A:55 X:aa Y:44 P:77 S:fb pc: e7d2, reg_addr: 0049
e7d2 c9 00 f0 CMP  IMM   A:00 X:aa Y:44 P:77 S:fb pc: e7d4, reg_addr: 0000
e7d4 f0 04 a9 BEQ  REL   A:00 X:aa Y:44 P:77 S:fb pc: e7da, reg_addr: e7da
e7da a9 00 85 LDA  IMM   A:00 X:aa Y:44 P:77 S:fb pc: e7dc, reg_addr: 0000
e7dc 85 56 a0 STA  ZP    A:00 X:aa Y:44 P:77 S:fb pc: e7de, reg_addr: 0056
e7de a0 58 a2 LDY  IMM   A:00 X:aa Y:44 P:77 S:fb pc: e7e0, reg_addr: 0058
e7e0 a2 ef a9 LDX  IMM   A:00 X:aa Y:58 P:75 S:fb pc: e7e2, reg_addr: 00ef
e7e2 a9 66 38 LDA  IMM   A:00 X:ef Y:58 P:f5 S:fb pc: e7e4, reg_addr: 0066
e7e4 38 b8 87 SEC  IMPL  A:66 X:ef Y:58 P:75 S:fb pc: e7e5, reg_addr: 0000
e7e5 b8 87 56 CLV  IMPL  A:66 X:ef Y:58 P:75 S:fb pc: e7e6, reg_addr: 0000
e7e6 87 56 ea SAX  ZP    A:66 X:ef Y:58 P:35 S:fb pc: e7e8, reg_addr: 0056
e7e8 ea ea ea NOP  IMPL  A:66 X:ef Y:58 P:35 S:fb pc: e7e9, reg_addr: 0000
e7e9 ea ea ea NOP  IMPL  A:66 X:ef Y:58 P:35 S:fb pc: e7ea, reg_addr: 0000
e7ea ea ea f0 NOP  IMPL  A:66 X:ef Y:58 P:35 S:fb pc: e7eb, reg_addr: 0000
e7eb ea f0 18 NOP  IMPL  A:66 X:ef Y:58 P:35 S:fb pc: e7ec, reg_addr: 0000
e7ec f0 18 90 BEQ  REL   A:66 X:ef Y:58 P:35 S:fb pc: e7ee, reg_addr: e806
e7ee 90 16 70 BCC  REL   A:66 X:ef Y:58 P:35 S:fb pc: e7f0, reg_addr: e806
e7f0 70 14 30 BVS  REL   A:66 X:ef Y:58 P:35 S:fb pc: e7f2, reg_addr: e806
e7f2 30 12 c9 BMI  REL   A:66 X:ef Y:58 P:35 S:fb pc: e7f4, reg_addr: e806
e7f4 c9 66 d0 CMP  IMM   A:66 X:ef Y:58 P:35 S:fb pc: e7f6, reg_addr: 0066
e7f6 d0 0e c0 BNE  REL   A:66 X:ef Y:58 P:37 S:fb pc: e7f8, reg_addr: e806
e7f8 c0 58 d0 CPY  IMM   A:66 X:ef Y:58 P:37 S:fb pc: e7fa, reg_addr: 0058
e7fa d0 0a e0 BNE  REL   A:66 X:ef Y:58 P:37 S:fb pc: e7fc, reg_addr: e806
e7fc e0 ef d0 CPX  IMM   A:66 X:ef Y:58 P:37 S:fb pc: e7fe, reg_addr: 00ef
e7fe d0 06 a5 BNE  REL   A:66 X:ef Y:58 P:37 S:fb pc: e800, reg_addr: e806
e800 a5 56 c9 LDA  ZP    A:66 X:ef Y:58 P:37 S:fb pc: e802, reg_addr: 0056
e802 c9 66 f0 CMP  IMM   A:66 X:ef Y:58 P:35 S:fb pc: e804, reg_addr: 0066
e804 f0 04 a9 BEQ  REL   A:66 X:ef Y:58 P:37 S:fb pc: e80a, reg_addr: e80a
e80a a9 ff 8d LDA  IMM   A:66 X:ef Y:58 P:37 S:fb pc: e80c, reg_addr: 00ff
e80c 8d 49 05 STA  ABS   A:ff X:ef Y:58 P:b5 S:fb pc: e80f, reg_addr: 0549
e80f a0 e5 a2 LDY  IMM   A:ff X:ef Y:58 P:b5 S:fb pc: e811, reg_addr: 00e5
e811 a2 af a9 LDX  IMM   A:ff X:ef Y:e5 P:b5 S:fb pc: e813, reg_addr: 00af
e813 a9 f5 24 LDA  IMM   A:ff X:af Y:e5 P:b5 S:fb pc: e815, reg_addr: 00f5
e815 24 01 18 BIT  ZP    A:f5 X:af Y:e5 P:b5 S:fb pc: e817, reg_addr: 0001
e817 18 8f 49 CLC  IMPL  A:f5 X:af Y:e5 P:f5 S:fb pc: e818, reg_addr: 0000
e818 8f 49 05 SAX  ABS   A:f5 X:af Y:e5 P:f4 S:fb pc: e81b, reg_addr: 0549
e81b ea ea ea NOP  IMPL  A:f5 X:af Y:e5 P:f4 S:fb pc: e81c, reg_addr: 0000
e81c ea ea ea NOP  IMPL  A:f5 X:af Y:e5 P:f4 S:fb pc: e81d, reg_addr: 0000
e81d ea ea f0 NOP  IMPL  A:f5 X:af Y:e5 P:f4 S:fb pc: e81e, reg_addr: 0000
e81e ea f0 19 NOP  IMPL  A:f5 X:af Y:e5 P:f4 S:fb pc: e81f, reg_addr: 0000
e81f f0 19 b0 BEQ  REL   A:f5 X:af Y:e5 P:f4 S:fb pc: e821, reg_addr: e83a
e821 b0 17 50 BCS  REL   A:f5 X:af Y:e5 P:f4 S:fb pc: e823, reg_addr: e83a
e823 50 15 10 BVC  REL   A:f5 X:af Y:e5 P:f4 S:fb pc: e825, reg_addr: e83a
e825 10 13 c9 BPL  REL   A:f5 X:af Y:e5 P:f4 S:fb pc: e827, reg_addr: e83a
e827 c9 f5 d0 CMP  IMM   A:f5 X:af Y:e5 P:f4 S:fb pc: e829, reg_addr: 00f5
e829 d0 0f c0 BNE  REL   A:f5 X:af Y:e5 P:77 S:fb pc: e82b, reg_addr: e83a
e82b c0 e5 d0 CPY  IMM   A:f5 X:af Y:e5 P:77 S:fb pc: e82d, reg_addr: 00e5
e82d d0 0b e0 BNE  REL   A:f5 X:af Y:e5 P:77 S:fb pc: e82f, reg_addr: e83a
e82f e0 af d0 CPX  IMM   A:f5 X:af Y:e5 P:77 S:fb pc: e831, reg_addr: 00af
e831 d0 07 ad BNE  REL   A:f5 X:af Y:e5 P:77 S:fb pc: e833, reg_addr: e83a
e833 ad 49 05 LDA  ABS   A:f5 X:af Y:e5 P:77 S:fb pc: e836, reg_addr: 0549
e836 c9 a5 f0 CMP  IMM   A:a5 X:af Y:e5 P:f5 S:fb pc: e838, reg_addr: 00a5
e838 f0 04 a9 BEQ  REL   A:a5 X:af Y:e5 P:77 S:fb pc: e83e, reg_addr: e83e
e83e a9 00 8d LDA  IMM   A:a5 X:af Y:e5 P:77 S:fb pc: e840, reg_addr: 0000
e840 8d 56 05 STA  ABS   A:00 X:af Y:e5 P:77 S:fb pc: e843, reg_addr: 0556
e843 a0 58 a2 LDY  IMM   A:00 X:af Y:e5 P:77 S:fb pc: e845, reg_addr: 0058
e845 a2 b3 a9 LDX  IMM   A:00 X:af Y:58 P:75 S:fb pc: e847, reg_addr: 00b3
e847 a9 97 38 LDA  IMM   A:00 X:b3 Y:58 P:f5 S:fb pc: e849, reg_addr: 0097
e849 38 b8 8f SEC  IMPL  A:97 X:b3 Y:58 P:f5 S:fb pc: e84a, reg_addr: 0000
e84a b8 8f 56 CLV  IMPL  A:97 X:b3 Y:58 P:f5 S:fb pc: e84b, reg_addr: 0000
e84b 8f 56 05 SAX  ABS   A:97 X:b3 Y:58 P:b5 S:fb pc: e84e, reg_addr: 0556
e84e ea ea ea NOP  IMPL  A:97 X:b3 Y:58 P:b5 S:fb pc: e84f, reg_addr: 0000
e84f ea ea ea NOP  IMPL  A:97 X:b3 Y:58 P:b5 S:fb pc: e850, reg_addr: 0000
e850 ea ea f0 NOP  IMPL  A:97 X:b3 Y:58 P:b5 S:fb pc: e851, reg_addr: 0000
e851 ea f0 19 NOP  IMPL  A:97 X:b3 Y:58 P:b5 S:fb pc: e852, reg_addr: 0000
e852 f0 19 90 BEQ  REL   A:97 X:b3 Y:58 P:b5 S:fb pc: e854, reg_addr: e86d
e854 90 17 70 BCC  REL   A:97 X:b3 Y:58 P:b5 S:fb pc: e856, reg_addr: e86d
e856 70 15 10 BVS  REL   A:97 X:b3 Y:58 P:b5 S:fb pc: e858, reg_addr: e86d
e858 10 13 c9 BPL  REL   A:97 X:b3 Y:58 P:b5 S:fb pc: e85a, reg_addr: e86d
e85a c9 97 d0 CMP  IMM   A:97 X:b3 Y:58 P:b5 S:fb pc: e85c, reg_addr: 0097
e85c d0 0f c0 BNE  REL   A:97 X:b3 Y:58 P:37 S:fb pc: e85e, reg_addr: e86d
e85e c0 58 d0 CPY  IMM   A:97 X:b3 Y:58 P:37 S:fb pc: e860, reg_addr: 0058
e860 d0 0b e0 BNE  REL   A:97 X:b3 Y:58 P:37 S:fb pc: e862, reg_addr: e86d
e862 e0 b3 d0 CPX  IMM   A:97 X:b3 Y:58 P:37 S:fb pc: e864, reg_addr: 00b3
e864 d0 07 ad BNE  REL   A:97 X:b3 Y:58 P:37 S:fb pc: e866, reg_addr: e86d
e866 ad 56 05 LDA  ABS   A:97 X:b3 Y:58 P:37 S:fb pc: e869, reg_addr: 0556
e869 c9 93 f0 CMP  IMM   A:93 X:b3 Y:58 P:b5 S:fb pc: e86b, reg_addr: 0093
e86b f0 04 a9 BEQ  REL   A:93 X:b3 Y:58 P:37 S:fb pc: e871, reg_addr: e871
e871 a9 ff 85 LDA  IMM   A:93 X:b3 Y:58 P:37 S:fb pc: e873, reg_addr: 00ff
e873 85 49 a0 STA  ZP    A:ff X:b3 Y:58 P:b5 S:fb pc: e875, reg_addr: 0049
e875 a0 ff a2 LDY  IMM   A:ff X:b3 Y:58 P:b5 S:fb pc: e877, reg_addr: 00ff
e877 a2 aa a9 LDX  IMM   A:ff X:b3 Y:ff P:b5 S:fb pc: e879, reg_addr: 00aa
e879 a9 55 24 LDA  IMM   A:ff X:aa Y:ff P:b5 S:fb pc: e87b, reg_addr: 0055
e87b 24 01 18 BIT  ZP    A:55 X:aa Y:ff P:35 S:fb pc: e87d, reg_addr: 0001
e87d 18 97 4a CLC  IMPL  A:55 X:aa Y:ff P:f5 S:fb pc: e87e, reg_addr: 0000
e87e 97 4a ea SAX  ZPY   A:55 X:aa Y:ff P:f4 S:fb pc: e880, reg_addr: 0049
e880 ea ea ea NOP  IMPL  A:55 X:aa Y:ff P:f4 S:fb pc: e881, reg_addr: 0000
e881 ea ea ea NOP  IMPL  A:55 X:aa Y:ff P:f4 S:fb pc: e882, reg_addr: 0000
e882 ea ea f0 NOP  IMPL  A:55 X:aa Y:ff P:f4 S:fb pc: e883, reg_addr: 0000
e883 ea f0 18 NOP  IMPL  A:55 X:aa Y:ff P:f4 S:fb pc: e884, reg_addr: 0000
e884 f0 18 b0 BEQ  REL   A:55 X:aa Y:ff P:f4 S:fb pc: e886, reg_addr: e89e
e886 b0 16 50 BCS  REL   A:55 X:aa Y:ff P:f4 S:fb pc: e888, reg_addr: e89e
e888 50 14 10 BVC  REL   A:55 X:aa Y:ff P:f4 S:fb pc: e88a, reg_addr: e89e
e88a 10 12 c9 BPL  REL   A:55 X:aa Y:ff P:f4 S:fb pc: e88c, reg_addr: e89e
e88c c9 55 d0 CMP  IMM   A:55 X:aa Y:ff P:f4 S:fb pc: e88e, reg_addr: 0055
e88e d0 0e c0 BNE  REL   A:55 X:aa Y:ff P:77 S:fb pc: e890, reg_addr: e89e
e890 c0 ff d0 CPY  IMM   A:55 X:aa Y:ff P:77 S:fb pc: e892, reg_addr: 00ff
e892 d0 0a e0 BNE  REL   A:55 X:aa Y:ff P:77 S:fb pc: e894, reg_addr: e89e
e894 e0 aa d0 CPX  IMM   A:55 X:aa Y:ff P:77 S:fb pc: e896, reg_addr: 00aa
e896 d0 06 a5 BNE  REL   A:55 X:aa Y:ff P:77 S:fb pc: e898, reg_addr: e89e
e898 a5 49 c9 LDA  ZP    A:55 X:aa Y:ff P:77 S:fb pc: e89a, reg_addr: 0049
e89a c9 00 f0 CMP  IMM   A:00 X:aa Y:ff P:77 S:fb pc: e89c, reg_addr: 0000
e89c f0 04 a9 BEQ  REL   A:00 X:aa Y:ff P:77 S:fb pc: e8a2, reg_addr: e8a2
e8a2 a9 00 85 LDA  IMM   A:00 X:aa Y:ff P:77 S:fb pc: e8a4, reg_addr: 0000
e8a4 85 56 a0 STA  ZP    A:00 X:aa Y:ff P:77 S:fb pc: e8a6, reg_addr: 0056
e8a6 a0 06 a2 LDY  IMM   A:00 X:aa Y:ff P:77 S:fb pc: e8a8, reg_addr: 0006
e8a8 a2 ef a9 LDX  IMM   A:00 X:aa Y:06 P:75 S:fb pc: e8aa, reg_addr: 00ef
e8aa a9 66 38 LDA  IMM   A:00 X:ef Y:06 P:f5 S:fb pc: e8ac, reg_addr: 0066
e8ac 38 b8 97 SEC  IMPL  A:66 X:ef Y:06 P:75 S:fb pc: e8ad, reg_addr: 0000
e8ad b8 97 50 CLV  IMPL  A:66 X:ef Y:06 P:75 S:fb pc: e8ae, reg_addr: 0000
e8ae 97 50 ea SAX  ZPY   A:66 X:ef Y:06 P:35 S:fb pc: e8b0, reg_addr: 0056
e8b0 ea ea ea NOP  IMPL  A:66 X:ef Y:06 P:35 S:fb pc: e8b1, reg_addr: 0000
e8b1 ea ea ea NOP  IMPL  A:66 X:ef Y:06 P:35 S:fb pc: e8b2, reg_addr: 0000
e8b2 ea ea f0 NOP  IMPL  A:66 X:ef Y:06 P:35 S:fb pc: e8b3, reg_addr: 0000
e8b3 ea f0 18 NOP  IMPL  A:66 X:ef Y:06 P:35 S:fb pc: e8b4, reg_addr: 0000
e8b4 f0 18 90 BEQ  REL   A:66 X:ef Y:06 P:35 S:fb pc: e8b6, reg_addr: e8ce
e8b6 90 16 70 BCC  REL   A:66 X:ef Y:06 P:35 S:fb pc: e8b8, reg_addr: e8ce
e8b8 70 14 30 BVS  REL   A:66 X:ef Y:06 P:35 S:fb pc: e8ba, reg_addr: e8ce
e8ba 30 12 c9 BMI  REL   A:66 X:ef Y:06 P:35 S:fb pc: e8bc, reg_addr: e8ce
e8bc c9 66 d0 CMP  IMM   A:66 X:ef Y:06 P:35 S:fb pc: e8be, reg_addr: 0066
e8be d0 0e c0 BNE  REL   A:66 X:ef Y:06 P:37 S:fb pc: e8c0, reg_addr: e8ce
e8c0 c0 06 d0 CPY  IMM   A:66 X:ef Y:06 P:37 S:fb pc: e8c2, reg_addr: 0006
e8c2 d0 0a e0 BNE  REL   A:66 X:ef Y:06 P:37 S:fb pc: e8c4, reg_addr: e8ce
e8c4 e0 ef d0 CPX  IMM   A:66 X:ef Y:06 P:37 S:fb pc: e8c6, reg_addr: 00ef
e8c6 d0 06 a5 BNE  REL   A:66 X:ef Y:06 P:37 S:fb pc: e8c8, reg_addr: e8ce
e8c8 a5 56 c9 LDA  ZP    A:66 X:ef Y:06 P:37 S:fb pc: e8ca, reg_addr: 0056
e8ca c9 66 f0 CMP  IMM   A:66 X:ef Y:06 P:35 S:fb pc: e8cc, reg_addr: 0066
e8cc f0 04 a9 BEQ  REL   A:66 X:ef Y:06 P:37 S:fb pc: e8d2, reg_addr: e8d2
e8d2 60 a0 90 RTS  IMPL  A:66 X:ef Y:06 P:37 S:fb pc: c638, reg_addr: 0000
c638 20 d3 e8 JSR  ABS   A:66 X:ef Y:06 P:37 S:fd pc: e8d3, reg_addr: e8d3
e8d3 a0 90 20 LDY  IMM   A:66 X:ef Y:06 P:37 S:fb pc: e8d5, reg_addr: 0090
e8d5 20 31 f9 JSR  ABS   A:66 X:ef Y:90 P:b5 S:fb pc: f931, reg_addr: f931
f931 24 01 a9 BIT  ZP    A:66 X:ef Y:90 P:b5 S:f9 pc: f933, reg_addr: 0001
f933 a9 40 38 LDA  IMM   A:66 X:ef Y:90 P:f5 S:f9 pc: f935, reg_addr: 0040
f935 38 60 30 SEC  IMPL  A:40 X:ef Y:90 P:75 S:f9 pc: f936, reg_addr: 0000
f936 60 30 0b RTS  IMPL  A:40 X:ef Y:90 P:75 S:f9 pc: e8d8, reg_addr: 0000
e8d8 eb 40 ea SBC  IMM   A:40 X:ef Y:90 P:75 S:fb pc: e8da, reg_addr: 0040
e8da ea ea ea NOP  IMPL  A:00 X:ef Y:90 P:37 S:fb pc: e8db, reg_addr: 0000
e8db ea ea ea NOP  IMPL  A:00 X:ef Y:90 P:37 S:fb pc: e8dc, reg_addr: 0000
e8dc ea ea 20 NOP  IMPL  A:00 X:ef Y:90 P:37 S:fb pc: e8dd, reg_addr: 0000
e8dd ea 20 37 NOP  IMPL  A:00 X:ef Y:90 P:37 S:fb pc: e8de, reg_addr: 0000
e8de 20 37 f9 JSR  ABS   A:00 X:ef Y:90 P:37 S:fb pc: f937, reg_addr: f937
f937 30 0b 90 BMI  REL   A:00 X:ef Y:90 P:37 S:f9 pc: f939, reg_addr: f944
f939 90 09 d0 BCC  REL   A:00 X:ef Y:90 P:37 S:f9 pc: f93b, reg_addr: f944
f93b d0 07 70 BNE  REL   A:00 X:ef Y:90 P:37 S:f9 pc: f93d, reg_addr: f944
f93d 70 05 c9 BVS  REL   A:00 X:ef Y:90 P:37 S:f9 pc: f93f, reg_addr: f944
f93f c9 00 d0 CMP  IMM   A:00 X:ef Y:90 P:37 S:f9 pc: f941, reg_addr: 0000
f941 d0 01 60 BNE  REL   A:00 X:ef Y:90 P:37 S:f9 pc: f943, reg_addr: f944
f943 60 84 00 RTS  IMPL  A:00 X:ef Y:90 P:37 S:f9 pc: e8e1, reg_addr: 0000
e8e1 c8 20 47 INY  IMPL  A:00 X:ef Y:90 P:37 S:fb pc: e8e2, reg_addr: 0000
e8e2 20 47 f9 JSR  ABS   A:00 X:ef Y:91 P:b5 S:fb pc: f947, reg_addr: f947
f947 b8 38 a9 CLV  IMPL  A:00 X:ef Y:91 P:b5 S:f9 pc: f948, reg_addr: 0000
f948 38 a9 40 SEC  IMPL  A:00 X:ef Y:91 P:b5 S:f9 pc: f949, reg_addr: 0000
f949 a9 40 60 LDA  IMM   A:00 X:ef Y:91 P:b5 S:f9 pc: f94b, reg_addr: 0040
f94b 60 f0 0b RTS  IMPL  A:40 X:ef Y:91 P:35 S:f9 pc: e8e5, reg_addr: 0000
e8e5 eb 3f ea SBC  IMM   A:40 X:ef Y:91 P:35 S:fb pc: e8e7, reg_addr: 003f
e8e7 ea ea ea NOP  IMPL  A:01 X:ef Y:91 P:35 S:fb pc: e8e8, reg_addr: 0000
e8e8 ea ea ea NOP  IMPL  A:01 X:ef Y:91 P:35 S:fb pc: e8e9, reg_addr: 0000
e8e9 ea ea 20 NOP  IMPL  A:01 X:ef Y:91 P:35 S:fb pc: e8ea, reg_addr: 0000
e8ea ea 20 4c NOP  IMPL  A:01 X:ef Y:91 P:35 S:fb pc: e8eb, reg_addr: 0000
e8eb 20 4c f9 JSR  ABS   A:01 X:ef Y:91 P:35 S:fb pc: f94c, reg_addr: f94c
f94c f0 0b 30 BEQ  REL   A:01 X:ef Y:91 P:35 S:f9 pc: f94e, reg_addr: f959
f94e 30 09 90 BMI  REL   A:01 X:ef Y:91 P:35 S:f9 pc: f950, reg_addr: f959
f950 90 07 70 BCC  REL   A:01 X:ef Y:91 P:35 S:f9 pc: f952, reg_addr: f959
f952 70 05 c9 BVS  REL   A:01 X:ef Y:91 P:35 S:f9 pc: f954, reg_addr: f959
f954 c9 01 d0 CMP  IMM   A:01 X:ef Y:91 P:35 S:f9 pc: f956, reg_addr: 0001
f956 d0 01 60 BNE  REL   A:01 X:ef Y:91 P:37 S:f9 pc: f958, reg_addr: f959
f958 60 84 00 RTS  IMPL  A:01 X:ef Y:91 P:37 S:f9 pc: e8ee, reg_addr: 0000
e8ee c8 20 5c INY  IMPL  A:01 X:ef Y:91 P:37 S:fb pc: e8ef, reg_addr: 0000
e8ef 20 5c f9 JSR  ABS   A:01 X:ef Y:92 P:b5 S:fb pc: f95c, reg_addr: f95c
f95c a9 40 38 LDA  IMM   A:01 X:ef Y:92 P:b5 S:f9 pc: f95e, reg_addr: 0040
f95e 38 24 01 SEC  IMPL  A:40 X:ef Y:92 P:35 S:f9 pc: f95f, reg_addr: 0000
f95f 24 01 60 BIT  ZP    A:40 X:ef Y:92 P:35 S:f9 pc: f961, reg_addr: 0001
f961 60 b0 0b RTS  IMPL  A:40 X:ef Y:92 P:f5 S:f9 pc: e8f2, reg_addr: 0000
e8f2 eb 41 ea SBC  IMM   A:40 X:ef Y:92 P:f5 S:fb pc: e8f4, reg_addr: 0041
e8f4 ea ea ea NOP  IMPL  A:ff X:ef Y:92 P:b4 S:fb pc: e8f5, reg_addr: 0000
e8f5 ea ea ea NOP  IMPL  A:ff X:ef Y:92 P:b4 S:fb pc: e8f6, reg_addr: 0000
e8f6 ea ea 20 NOP  IMPL  A:ff X:ef Y:92 P:b4 S:fb pc: e8f7, reg_addr: 0000
e8f7 ea 20 62 NOP  IMPL  A:ff X:ef Y:92 P:b4 S:fb pc: e8f8, reg_addr: 0000
e8f8 20 62 f9 JSR  ABS   A:ff X:ef Y:92 P:b4 S:fb pc: f962, reg_addr: f962
f962 b0 0b f0 BCS  REL   A:ff X:ef Y:92 P:b4 S:f9 pc: f964, reg_addr: f96f
f964 f0 09 10 BEQ  REL   A:ff X:ef Y:92 P:b4 S:f9 pc: f966, reg_addr: f96f
f966 10 07 70 BPL  REL   A:ff X:ef Y:92 P:b4 S:f9 pc: f968, reg_addr: f96f
f968 70 05 c9 BVS  REL   A:ff X:ef Y:92 P:b4 S:f9 pc: f96a, reg_addr: f96f
f96a c9 ff d0 CMP  IMM   A:ff X:ef Y:92 P:b4 S:f9 pc: f96c, reg_addr: 00ff
f96c d0 01 60 BNE  REL   A:ff X:ef Y:92 P:37 S:f9 pc: f96e, reg_addr: f96f
f96e 60 84 00 RTS  IMPL  A:ff X:ef Y:92 P:37 S:f9 pc: e8fb, reg_addr: 0000
e8fb c8 20 72 INY  IMPL  A:ff X:ef Y:92 P:37 S:fb pc: e8fc, reg_addr: 0000
e8fc 20 72 f9 JSR  ABS   A:ff X:ef Y:93 P:b5 S:fb pc: f972, reg_addr: f972
f972 18 a9 80 CLC  IMPL  A:ff X:ef Y:93 P:b5 S:f9 pc: f973, reg_addr: 0000
f973 a9 80 60 LDA  IMM   A:ff X:ef Y:93 P:b4 S:f9 pc: f975, reg_addr: 0080
f975 60 90 05 RTS  IMPL  A:80 X:ef Y:93 P:b4 S:f9 pc: e8ff, reg_addr: 0000
e8ff eb 00 ea SBC  IMM   A:80 X:ef Y:93 P:b4 S:fb pc: e901, reg_addr: 0000
e901 ea ea ea NOP  IMPL  A:7f X:ef Y:93 P:75 S:fb pc: e902, reg_addr: 0000
e902 ea ea ea NOP  IMPL  A:7f X:ef Y:93 P:75 S:fb pc: e903, reg_addr: 0000
e903 ea ea 20 NOP  IMPL  A:7f X:ef Y:93 P:75 S:fb pc: e904, reg_addr: 0000
e904 ea 20 76 NOP  IMPL  A:7f X:ef Y:93 P:75 S:fb pc: e905, reg_addr: 0000
e905 20 76 f9 JSR  ABS   A:7f X:ef Y:93 P:75 S:fb pc: f976, reg_addr: f976
f976 90 05 c9 BCC  REL   A:7f X:ef Y:93 P:75 S:f9 pc: f978, reg_addr: f97d
f978 c9 7f d0 CMP  IMM   A:7f X:ef Y:93 P:75 S:f9 pc: f97a, reg_addr: 007f
f97a d0 01 60 BNE  REL   A:7f X:ef Y:93 P:77 S:f9 pc: f97c, reg_addr: f97d
f97c 60 84 00 RTS  IMPL  A:7f X:ef Y:93 P:77 S:f9 pc: e908, reg_addr: 0000
e908 c8 20 80 INY  IMPL  A:7f X:ef Y:93 P:77 S:fb pc: e909, reg_addr: 0000
e909 20 80 f9 JSR  ABS   A:7f X:ef Y:94 P:f5 S:fb pc: f980, reg_addr: f980
f980 38 a9 81 SEC  IMPL  A:7f X:ef Y:94 P:f5 S:f9 pc: f981, reg_addr: 0000
f981 a9 81 60 LDA  IMM   A:7f X:ef Y:94 P:f5 S:f9 pc: f983, reg_addr: 0081
f983 60 50 07 RTS  IMPL  A:81 X:ef Y:94 P:f5 S:f9 pc: e90c, reg_addr: 0000
e90c eb 7f ea SBC  IMM   A:81 X:ef Y:94 P:f5 S:fb pc: e90e, reg_addr: 007f
e90e ea ea ea NOP  IMPL  A:02 X:ef Y:94 P:75 S:fb pc: e90f, reg_addr: 0000
e90f ea ea ea NOP  IMPL  A:02 X:ef Y:94 P:75 S:fb pc: e910, reg_addr: 0000
e910 ea ea 20 NOP  IMPL  A:02 X:ef Y:94 P:75 S:fb pc: e911, reg_addr: 0000
e911 ea 20 84 NOP  IMPL  A:02 X:ef Y:94 P:75 S:fb pc: e912, reg_addr: 0000
e912 20 84 f9 JSR  ABS   A:02 X:ef Y:94 P:75 S:fb pc: f984, reg_addr: f984
f984 50 07 90 BVC  REL   A:02 X:ef Y:94 P:75 S:f9 pc: f986, reg_addr: f98d
f986 90 05 c9 BCC  REL   A:02 X:ef Y:94 P:75 S:f9 pc: f988, reg_addr: f98d
f988 c9 02 d0 CMP  IMM   A:02 X:ef Y:94 P:75 S:f9 pc: f98a, reg_addr: 0002
f98a d0 01 60 BNE  REL   A:02 X:ef Y:94 P:77 S:f9 pc: f98c, reg_addr: f98d
f98c 60 84 00 RTS  IMPL  A:02 X:ef Y:94 P:77 S:f9 pc: e915, reg_addr: 0000
e915 60 a9 ff RTS  IMPL  A:02 X:ef Y:94 P:77 S:fb pc: c63b, reg_addr: 0000
c63b 20 16 e9 JSR  ABS   A:02 X:ef Y:94 P:77 S:fd pc: e916, reg_addr: e916
e916 a9 ff 85 LDA  IMM   A:02 X:ef Y:94 P:77 S:fb pc: e918, reg_addr: 00ff
e918 85 01 a0 STA  ZP    A:ff X:ef Y:94 P:f5 S:fb pc: e91a, reg_addr: 0001
e91a a0 95 a2 LDY  IMM   A:ff X:ef Y:94 P:f5 S:fb pc: e91c, reg_addr: 0095
e91c a2 02 a9 LDX  IMM   A:ff X:ef Y:95 P:f5 S:fb pc: e91e, reg_addr: 0002
e91e a9 47 85 LDA  IMM   A:ff X:02 Y:95 P:75 S:fb pc: e920, reg_addr: 0047
e920 85 47 a9 STA  ZP    A:47 X:02 Y:95 P:75 S:fb pc: e922, reg_addr: 0047
e922 a9 06 85 LDA  IMM   A:47 X:02 Y:95 P:75 S:fb pc: e924, reg_addr: 0006
e924 85 48 a9 STA  ZP    A:06 X:02 Y:95 P:75 S:fb pc: e926, reg_addr: 0048
e926 a9 eb 8d LDA  IMM   A:06 X:02 Y:95 P:75 S:fb pc: e928, reg_addr: 00eb
e928 8d 47 06 STA  ABS   A:eb X:02 Y:95 P:f5 S:fb pc: e92b, reg_addr: 0647
e92b 20 31 fa JSR  ABS   A:eb X:02 Y:95 P:f5 S:fb pc: fa31, reg_addr: fa31
fa31 24 01 18 BIT  ZP    A:eb X:02 Y:95 P:f5 S:f9 pc: fa33, reg_addr: 0001
fa33 18 a9 40 CLC  IMPL  A:eb X:02 Y:95 P:f5 S:f9 pc: fa34, reg_addr: 0000
fa34 a9 40 60 LDA  IMM   A:eb X:02 Y:95 P:f4 S:f9 pc: fa36, reg_addr: 0040
fa36 60 50 2c RTS  IMPL  A:40 X:02 Y:95 P:74 S:f9 pc: e92e, reg_addr: 0000
e92e c3 45 ea DCP  INDX  A:40 X:02 Y:95 P:74 S:fb pc: e930, reg_addr: 0647
e930 ea ea ea NOP  IMPL  A:40 X:02 Y:95 P:74 S:fb pc: e931, reg_addr: 0000
e931 ea ea ea NOP  IMPL  A:40 X:02 Y:95 P:74 S:fb pc: e932, reg_addr: 0000
e932 ea ea 20 NOP  IMPL  A:40 X:02 Y:95 P:74 S:fb pc: e933, reg_addr: 0000
e933 ea 20 37 NOP  IMPL  A:40 X:02 Y:95 P:74 S:fb pc: e934, reg_addr: 0000
e934 20 37 fa JSR  ABS   A:40 X:02 Y:95 P:74 S:fb pc: fa37, reg_addr: fa37
fa37 50 2c b0 BVC  REL   A:40 X:02 Y:95 P:74 S:f9 pc: fa39, reg_addr: fa65
fa39 b0 2a 30 BCS  REL   A:40 X:02 Y:95 P:74 S:f9 pc: fa3b, reg_addr: fa65
fa3b 30 28 c9 BMI  REL   A:40 X:02 Y:95 P:74 S:f9 pc: fa3d, reg_addr: fa65
fa3d c9 40 d0 CMP  IMM   A:40 X:02 Y:95 P:74 S:f9 pc: fa3f, reg_addr: 0040
fa3f d0 24 60 BNE  REL   A:40 X:02 Y:95 P:77 S:f9 pc: fa41, reg_addr: fa65
fa41 60 b8 38 RTS  IMPL  A:40 X:02 Y:95 P:77 S:f9 pc: e937, reg_addr: 0000
e937 ad 47 06 LDA  ABS   A:40 X:02 Y:95 P:77 S:fb pc: e93a, reg_addr: 0647
e93a c9 ea f0 CMP  IMM   A:ea X:02 Y:95 P:f5 S:fb pc: e93c, reg_addr: 00ea
e93c f0 02 84 BEQ  REL   A:ea X:02 Y:95 P:77 S:fb pc: e940, reg_addr: e940
e940 c8 a9 00 INY  IMPL  A:ea X:02 Y:95 P:77 S:fb pc: e941, reg_addr: 0000
e941 a9 00 8d LDA  IMM   A:ea X:02 Y:96 P:f5 S:fb pc: e943, reg_addr: 0000
e943 8d 47 06 STA  ABS   A:00 X:02 Y:96 P:77 S:fb pc: e946, reg_addr: 0647
e946 20 42 fa JSR  ABS   A:00 X:02 Y:96 P:77 S:fb pc: fa42, reg_addr: fa42
fa42 b8 38 a9 CLV  IMPL  A:00 X:02 Y:96 P:77 S:f9 pc: fa43, reg_addr: 0000
fa43 38 a9 ff SEC  IMPL  A:00 X:02 Y:96 P:37 S:f9 pc: fa44, reg_addr: 0000
fa44 a9 ff 60 LDA  IMM   A:00 X:02 Y:96 P:37 S:f9 pc: fa46, reg_addr: 00ff
fa46 60 70 1c RTS  IMPL  A:ff X:02 Y:96 P:b5 S:f9 pc: e949, reg_addr: 0000
e949 c3 45 ea DCP  INDX  A:ff X:02 Y:96 P:b5 S:fb pc: e94b, reg_addr: 0647
e94b ea ea ea NOP  IMPL  A:ff X:02 Y:96 P:37 S:fb pc: e94c, reg_addr: 0000
e94c ea ea ea NOP  IMPL  A:ff X:02 Y:96 P:37 S:fb pc: e94d, reg_addr: 0000
e94d ea ea 20 NOP  IMPL  A:ff X:02 Y:96 P:37 S:fb pc: e94e, reg_addr: 0000
e94e ea 20 47 NOP  IMPL  A:ff X:02 Y:96 P:37 S:fb pc: e94f, reg_addr: 0000
e94f 20 47 fa JSR  ABS   A:ff X:02 Y:96 P:37 S:fb pc: fa47, reg_addr: fa47
fa47 70 1c d0 BVS  REL   A:ff X:02 Y:96 P:37 S:f9 pc: fa49, reg_addr: fa65
fa49 d0 1a 30 BNE  REL   A:ff X:02 Y:96 P:37 S:f9 pc: fa4b, reg_addr: fa65
fa4b 30 18 90 BMI  REL   A:ff X:02 Y:96 P:37 S:f9 pc: fa4d, reg_addr: fa65
fa4d 90 16 c9 BCC  REL   A:ff X:02 Y:96 P:37 S:f9 pc: fa4f, reg_addr: fa65
fa4f c9 ff d0 CMP  IMM   A:ff X:02 Y:96 P:37 S:f9 pc: fa51, reg_addr: 00ff
fa51 d0 12 60 BNE  REL   A:ff X:02 Y:96 P:37 S:f9 pc: fa53, reg_addr: fa65
fa53 60 24 01 RTS  IMPL  A:ff X:02 Y:96 P:37 S:f9 pc: e952, reg_addr: 0000
e952 ad 47 06 LDA  ABS   A:ff X:02 Y:96 P:37 S:fb pc: e955, reg_addr: 0647
e955 c9 ff f0 CMP  IMM   A:ff X:02 Y:96 P:b5 S:fb pc: e957, reg_addr: 00ff
e957 f0 02 84 BEQ  REL   A:ff X:02 Y:96 P:37 S:fb pc: e95b, reg_addr: e95b
e95b c8 a9 37 INY  IMPL  A:ff X:02 Y:96 P:37 S:fb pc: e95c, reg_addr: 0000
e95c a9 37 8d LDA  IMM   A:ff X:02 Y:97 P:b5 S:fb pc: e95e, reg_addr: 0037
e95e 8d 47 06 STA  ABS   A:37 X:02 Y:97 P:35 S:fb pc: e961, reg_addr: 0647
e961 20 54 fa JSR  ABS   A:37 X:02 Y:97 P:35 S:fb pc: fa54, reg_addr: fa54
fa54 24 01 a9 BIT  ZP    A:37 X:02 Y:97 P:35 S:f9 pc: fa56, reg_addr: 0001
fa56 a9 f0 60 LDA  IMM   A:37 X:02 Y:97 P:f5 S:f9 pc: fa58, reg_addr: 00f0
fa58 60 50 0a RTS  IMPL  A:f0 X:02 Y:97 P:f5 S:f9 pc: e964, reg_addr: 0000
e964 c3 45 ea DCP  INDX  A:f0 X:02 Y:97 P:f5 S:fb pc: e966, reg_addr: 0647
e966 ea ea ea NOP  IMPL  A:f0 X:02 Y:97 P:f5 S:fb pc: e967, reg_addr: 0000
e967 ea ea ea NOP  IMPL  A:f0 X:02 Y:97 P:f5 S:fb pc: e968, reg_addr: 0000
e968 ea ea 20 NOP  IMPL  A:f0 X:02 Y:97 P:f5 S:fb pc: e969, reg_addr: 0000
e969 ea 20 59 NOP  IMPL  A:f0 X:02 Y:97 P:f5 S:fb pc: e96a, reg_addr: 0000
e96a 20 59 fa JSR  ABS   A:f0 X:02 Y:97 P:f5 S:fb pc: fa59, reg_addr: fa59
fa59 50 0a f0 BVC  REL   A:f0 X:02 Y:97 P:f5 S:f9 pc: fa5b, reg_addr: fa65
fa5b f0 08 10 BEQ  REL   A:f0 X:02 Y:97 P:f5 S:f9 pc: fa5d, reg_addr: fa65
fa5d 10 06 90 BPL  REL   A:f0 X:02 Y:97 P:f5 S:f9 pc: fa5f, reg_addr: fa65
fa5f 90 04 c9 BCC  REL   A:f0 X:02 Y:97 P:f5 S:f9 pc: fa61, reg_addr: fa65
fa61 c9 f0 f0 CMP  IMM   A:f0 X:02 Y:97 P:f5 S:f9 pc: fa63, reg_addr: 00f0
fa63 f0 02 84 BEQ  REL   A:f0 X:02 Y:97 P:77 S:f9 pc: fa67, reg_addr: fa67
fa67 60 24 01 RTS  IMPL  A:f0 X:02 Y:97 P:77 S:f9 pc: e96d, reg_addr: 0000
e96d ad 47 06 LDA  ABS   A:f0 X:02 Y:97 P:77 S:fb pc: e970, reg_addr: 0647
e970 c9 36 f0 CMP  IMM   A:36 X:02 Y:97 P:75 S:fb pc: e972, reg_addr: 0036
e972 f0 02 84 BEQ  REL   A:36 X:02 Y:97 P:77 S:fb pc: e976, reg_addr: e976
e976 c8 a9 eb INY  IMPL  A:36 X:02 Y:97 P:77 S:fb pc: e977, reg_addr: 0000
e977 a9 eb 85 LDA  IMM   A:36 X:02 Y:98 P:f5 S:fb pc: e979, reg_addr: 00eb
e979 85 47 20 STA  ZP    A:eb X:02 Y:98 P:f5 S:fb pc: e97b, reg_addr: 0047
e97b 20 31 fa JSR  ABS   A:eb X:02 Y:98 P:f5 S:fb pc: fa31, reg_addr: fa31
fa31 24 01 18 BIT  ZP    A:eb X:02 Y:98 P:f5 S:f9 pc: fa33, reg_addr: 0001
fa33 18 a9 40 CLC  IMPL  A:eb X:02 Y:98 P:f5 S:f9 pc: fa34, reg_addr: 0000
fa34 a9 40 60 LDA  IMM   A:eb X:02 Y:98 P:f4 S:f9 pc: fa36, reg_addr: 0040
fa36 60 50 2c RTS  IMPL  A:40 X:02 Y:98 P:74 S:f9 pc: e97e, reg_addr: 0000
e97e c7 47 ea DCP  ZP    A:40 X:02 Y:98 P:74 S:fb pc: e980, reg_addr: 0047
e980 ea ea ea NOP  IMPL  A:40 X:02 Y:98 P:74 S:fb pc: e981, reg_addr: 0000
e981 ea ea ea NOP  IMPL  A:40 X:02 Y:98 P:74 S:fb pc: e982, reg_addr: 0000
e982 ea ea 20 NOP  IMPL  A:40 X:02 Y:98 P:74 S:fb pc: e983, reg_addr: 0000
e983 ea 20 37 NOP  IMPL  A:40 X:02 Y:98 P:74 S:fb pc: e984, reg_addr: 0000
e984 20 37 fa JSR  ABS   A:40 X:02 Y:98 P:74 S:fb pc: fa37, reg_addr: fa37
fa37 50 2c b0 BVC  REL   A:40 X:02 Y:98 P:74 S:f9 pc: fa39, reg_addr: fa65
fa39 b0 2a 30 BCS  REL   A:40 X:02 Y:98 P:74 S:f9 pc: fa3b, reg_addr: fa65
fa3b 30 28 c9 BMI  REL   A:40 X:02 Y:98 P:74 S:f9 pc: fa3d, reg_addr: fa65
fa3d c9 40 d0 CMP  IMM   A:40 X:02 Y:98 P:74 S:f9 pc: fa3f, reg_addr: 0040
fa3f d0 24 60 BNE  REL   A:40 X:02 Y:98 P:77 S:f9 pc: fa41, reg_addr: fa65
fa41 60 b8 38 RTS  IMPL  A:40 X:02 Y:98 P:77 S:f9 pc: e987, reg_addr: 0000
e987 a5 47 c9 LDA  ZP    A:40 X:02 Y:98 P:77 S:fb pc: e989, reg_addr: 0047
e989 c9 ea f0 CMP  IMM   A:ea X:02 Y:98 P:f5 S:fb pc: e98b, reg_addr: 00ea
e98b f0 02 84 BEQ  REL   A:ea X:02 Y:98 P:77 S:fb pc: e98f, reg_addr: e98f
e98f c8 a9 00 INY  IMPL  A:ea X:02 Y:98 P:77 S:fb pc: e990, reg_addr: 0000
e990 a9 00 85 LDA  IMM   A:ea X:02 Y:99 P:f5 S:fb pc: e992, reg_addr: 0000
e992 85 47 20 STA  ZP    A:00 X:02 Y:99 P:77 S:fb pc: e994, reg_addr: 0047
e994 20 42 fa JSR  ABS   A:00 X:02 Y:99 P:77 S:fb pc: fa42, reg_addr: fa42
fa42 b8 38 a9 CLV  IMPL  A:00 X:02 Y:99 P:77 S:f9 pc: fa43, reg_addr: 0000
fa43 38 a9 ff SEC  IMPL  A:00 X:02 Y:99 P:37 S:f9 pc: fa44, reg_addr: 0000
fa44 a9 ff 60 LDA  IMM   A:00 X:02 Y:99 P:37 S:f9 pc: fa46, reg_addr: 00ff
fa46 60 70 1c RTS  IMPL  A:ff X:02 Y:99 P:b5 S:f9 pc: e997, reg_addr: 0000
e997 c7 47 ea DCP  ZP    A:ff X:02 Y:99 P:b5 S:fb pc: e999, reg_addr: 0047
e999 ea ea ea NOP  IMPL  A:ff X:02 Y:99 P:37 S:fb pc: e99a, reg_addr: 0000
e99a ea ea ea NOP  IMPL  A:ff X:02 Y:99 P:37 S:fb pc: e99b, reg_addr: 0000
e99b ea ea 20 NOP  IMPL  A:ff X:02 Y:99 P:37 S:fb pc: e99c, reg_addr: 0000
e99c ea 20 47 NOP  IMPL  A:ff X:02 Y:99 P:37 S:fb pc: e99d, reg_addr: 0000
e99d 20 47 fa JSR  ABS   A:ff X:02 Y:99 P:37 S:fb pc: fa47, reg_addr: fa47
fa47 70 1c d0 BVS  REL   A:ff X:02 Y:99 P:37 S:f9 pc: fa49, reg_addr: fa65
fa49 d0 1a 30 BNE  REL   A:ff X:02 Y:99 P:37 S:f9 pc: fa4b, reg_addr: fa65
fa4b 30 18 90 BMI  REL   A:ff X:02 Y:99 P:37 S:f9 pc: fa4d, reg_addr: fa65
fa4d 90 16 c9 BCC  REL   A:ff X:02 Y:99 P:37 S:f9 pc: fa4f, reg_addr: fa65
fa4f c9 ff d0 CMP  IMM   A:ff X:02 Y:99 P:37 S:f9 pc: fa51, reg_addr: 00ff
fa51 d0 12 60 BNE  REL   A:ff X:02 Y:99 P:37 S:f9 pc: fa53, reg_addr: fa65
fa53 60 24 01 RTS  IMPL  A:ff X:02 Y:99 P:37 S:f9 pc: e9a0, reg_addr: 0000
e9a0 a5 47 c9 LDA  ZP    A:ff X:02 Y:99 P:37 S:fb pc: e9a2, reg_addr: 0047
e9a2 c9 ff f0 CMP  IMM   A:ff X:02 Y:99 P:b5 S:fb pc: e9a4, reg_addr: 00ff
e9a4 f0 02 84 BEQ  REL   A:ff X:02 Y:99 P:37 S:fb pc: e9a8, reg_addr: e9a8
e9a8 c8 a9 37 INY  IMPL  A:ff X:02 Y:99 P:37 S:fb pc: e9a9, reg_addr: 0000
e9a9 a9 37 85 LDA  IMM   A:ff X:02 Y:9a P:b5 S:fb pc: e9ab, reg_addr: 0037
e9ab 85 47 20 STA  ZP    A:37 X:02 Y:9a P:35 S:fb pc: e9ad, reg_addr: 0047
e9ad 20 54 fa JSR  ABS   A:37 X:02 Y:9a P:35 S:fb pc: fa54, reg_addr: fa54
fa54 24 01 a9 BIT  ZP    A:37 X:02 Y:9a P:35 S:f9 pc: fa56, reg_addr: 0001
fa56 a9 f0 60 LDA  IMM   A:37 X:02 Y:9a P:f5 S:f9 pc: fa58, reg_addr: 00f0
fa58 60 50 0a RTS  IMPL  A:f0 X:02 Y:9a P:f5 S:f9 pc: e9b0, reg_addr: 0000
e9b0 c7 47 ea DCP  ZP    A:f0 X:02 Y:9a P:f5 S:fb pc: e9b2, reg_addr: 0047
e9b2 ea ea ea NOP  IMPL  A:f0 X:02 Y:9a P:f5 S:fb pc: e9b3, reg_addr: 0000
e9b3 ea ea ea NOP  IMPL  A:f0 X:02 Y:9a P:f5 S:fb pc: e9b4, reg_addr: 0000
e9b4 ea ea 20 NOP  IMPL  A:f0 X:02 Y:9a P:f5 S:fb pc: e9b5, reg_addr: 0000
e9b5 ea 20 59 NOP  IMPL  A:f0 X:02 Y:9a P:f5 S:fb pc: e9b6, reg_addr: 0000
e9b6 20 59 fa JSR  ABS   A:f0 X:02 Y:9a P:f5 S:fb pc: fa59, reg_addr: fa59
fa59 50 0a f0 BVC  REL   A:f0 X:02 Y:9a P:f5 S:f9 pc: fa5b, reg_addr: fa65
fa5b f0 08 10 BEQ  REL   A:f0 X:02 Y:9a P:f5 S:f9 pc: fa5d, reg_addr: fa65
fa5d 10 06 90 BPL  REL   A:f0 X:02 Y:9a P:f5 S:f9 pc: fa5f, reg_addr: fa65
fa5f 90 04 c9 BCC  REL   A:f0 X:02 Y:9a P:f5 S:f9 pc: fa61, reg_addr: fa65
fa61 c9 f0 f0 CMP  IMM   A:f0 X:02 Y:9a P:f5 S:f9 pc: fa63, reg_addr: 00f0
fa63 f0 02 84 BEQ  REL   A:f0 X:02 Y:9a P:77 S:f9 pc: fa67, reg_addr: fa67
fa67 60 24 01 RTS  IMPL  A:f0 X:02 Y:9a P:77 S:f9 pc: e9b9, reg_addr: 0000
e9b9 a5 47 c9 LDA  ZP    A:f0 X:02 Y:9a P:77 S:fb pc: e9bb, reg_addr: 0047
e9bb c9 36 f0 CMP  IMM   A:36 X:02 Y:9a P:75 S:fb pc: e9bd, reg_addr: 0036
e9bd f0 02 84 BEQ  REL   A:36 X:02 Y:9a P:77 S:fb pc: e9c1, reg_addr: e9c1
e9c1 c8 a9 eb INY  IMPL  A:36 X:02 Y:9a P:77 S:fb pc: e9c2, reg_addr: 0000
e9c2 a9 eb 8d LDA  IMM   A:36 X:02 Y:9b P:f5 S:fb pc: e9c4, reg_addr: 00eb
e9c4 8d 47 06 STA  ABS   A:eb X:02 Y:9b P:f5 S:fb pc: e9c7, reg_addr: 0647
e9c7 20 31 fa JSR  ABS   A:eb X:02 Y:9b P:f5 S:fb pc: fa31, reg_addr: fa31
fa31 24 01 18 BIT  ZP    A:eb X:02 Y:9b P:f5 S:f9 pc: fa33, reg_addr: 0001
fa33 18 a9 40 CLC  IMPL  A:eb X:02 Y:9b P:f5 S:f9 pc: fa34, reg_addr: 0000
fa34 a9 40 60 LDA  IMM   A:eb X:02 Y:9b P:f4 S:f9 pc: fa36, reg_addr: 0040
fa36 60 50 2c RTS  IMPL  A:40 X:02 Y:9b P:74 S:f9 pc: e9ca, reg_addr: 0000
e9ca cf 47 06 DCP  ABS   A:40 X:02 Y:9b P:74 S:fb pc: e9cd, reg_addr: 0647
e9cd ea ea ea NOP  IMPL  A:40 X:02 Y:9b P:74 S:fb pc: e9ce, reg_addr: 0000
e9ce ea ea ea NOP  IMPL  A:40 X:02 Y:9b P:74 S:fb pc: e9cf, reg_addr: 0000
e9cf ea ea 20 NOP  IMPL  A:40 X:02 Y:9b P:74 S:fb pc: e9d0, reg_addr: 0000
e9d0 ea 20 37 NOP  IMPL  A:40 X:02 Y:9b P:74 S:fb pc: e9d1, reg_addr: 0000
e9d1 20 37 fa JSR  ABS   A:40 X:02 Y:9b P:74 S:fb pc: fa37, reg_addr: fa37
fa37 50 2c b0 BVC  REL   A:40 X:02 Y:9b P:74 S:f9 pc: fa39, reg_addr: fa65
fa39 b0 2a 30 BCS  REL   A:40 X:02 Y:9b P:74 S:f9 pc: fa3b, reg_addr: fa65
fa3b 30 28 c9 BMI  REL   A:40 X:02 Y:9b P:74 S:f9 pc: fa3d, reg_addr: fa65
fa3d c9 40 d0 CMP  IMM   A:40 X:02 Y:9b P:74 S:f9 pc: fa3f, reg_addr: 0040
fa3f d0 24 60 BNE  REL   A:40 X:02 Y:9b P:77 S:f9 pc: fa41, reg_addr: fa65
fa41 60 b8 38 RTS  IMPL  A:40 X:02 Y:9b P:77 S:f9 pc: e9d4, reg_addr: 0000
e9d4 ad 47 06 LDA  ABS   A:40 X:02 Y:9b P:77 S:fb pc: e9d7, reg_addr: 0647
e9d7 c9 ea f0 CMP  IMM   A:ea X:02 Y:9b P:f5 S:fb pc: e9d9, reg_addr: 00ea
e9d9 f0 02 84 BEQ  REL   A:ea X:02 Y:9b P:77 S:fb pc: e9dd, reg_addr: e9dd
e9dd c8 a9 00 INY  IMPL  A:ea X:02 Y:9b P:77 S:fb pc: e9de, reg_addr: 0000
e9de a9 00 8d LDA  IMM   A:ea X:02 Y:9c P:f5 S:fb pc: e9e0, reg_addr: 0000
e9e0 8d 47 06 STA  ABS   A:00 X:02 Y:9c P:77 S:fb pc: e9e3, reg_addr: 0647
e9e3 20 42 fa JSR  ABS   A:00 X:02 Y:9c P:77 S:fb pc: fa42, reg_addr: fa42
fa42 b8 38 a9 CLV  IMPL  A:00 X:02 Y:9c P:77 S:f9 pc: fa43, reg_addr: 0000
fa43 38 a9 ff SEC  IMPL  A:00 X:02 Y:9c P:37 S:f9 pc: fa44, reg_addr: 0000
fa44 a9 ff 60 LDA  IMM   A:00 X:02 Y:9c P:37 S:f9 pc: fa46, reg_addr: 00ff
fa46 60 70 1c RTS  IMPL  A:ff X:02 Y:9c P:b5 S:f9 pc: e9e6, reg_addr: 0000
e9e6 cf 47 06 DCP  ABS   A:ff X:02 Y:9c P:b5 S:fb pc: e9e9, reg_addr: 0647
e9e9 ea ea ea NOP  IMPL  A:ff X:02 Y:9c P:37 S:fb pc: e9ea, reg_addr: 0000
e9ea ea ea ea NOP  IMPL  A:ff X:02 Y:9c P:37 S:fb pc: e9eb, reg_addr: 0000
e9eb ea ea 20 NOP  IMPL  A:ff X:02 Y:9c P:37 S:fb pc: e9ec, reg_addr: 0000
e9ec ea 20 47 NOP  IMPL  A:ff X:02 Y:9c P:37 S:fb pc: e9ed, reg_addr: 0000
e9ed 20 47 fa JSR  ABS   A:ff X:02 Y:9c P:37 S:fb pc: fa47, reg_addr: fa47
fa47 70 1c d0 BVS  REL   A:ff X:02 Y:9c P:37 S:f9 pc: fa49, reg_addr: fa65
fa49 d0 1a 30 BNE  REL   A:ff X:02 Y:9c P:37 S:f9 pc: fa4b, reg_addr: fa65
fa4b 30 18 90 BMI  REL   A:ff X:02 Y:9c P:37 S:f9 pc: fa4d, reg_addr: fa65
fa4d 90 16 c9 BCC  REL   A:ff X:02 Y:9c P:37 S:f9 pc: fa4f, reg_addr: fa65
fa4f c9 ff d0 CMP  IMM   A:ff X:02 Y:9c P:37 S:f9 pc: fa51, reg_addr: 00ff
fa51 d0 12 60 BNE  REL   A:ff X:02 Y:9c P:37 S:f9 pc: fa53, reg_addr: fa65
fa53 60 24 01 RTS  IMPL  A:ff X:02 Y:9c P:37 S:f9 pc: e9f0, reg_addr: 0000
e9f0 ad 47 06 LDA  ABS   A:ff X:02 Y:9c P:37 S:fb pc: e9f3, reg_addr: 0647
e9f3 c9 ff f0 CMP  IMM   A:ff X:02 Y:9c P:b5 S:fb pc: e9f5, reg_addr: 00ff
e9f5 f0 02 84 BEQ  REL   A:ff X:02 Y:9c P:37 S:fb pc: e9f9, reg_addr: e9f9
e9f9 c8 a9 37 INY  IMPL  A:ff X:02 Y:9c P:37 S:fb pc: e9fa, reg_addr: 0000
e9fa a9 37 8d LDA  IMM   A:ff X:02 Y:9d P:b5 S:fb pc: e9fc, reg_addr: 0037
e9fc 8d 47 06 STA  ABS   A:37 X:02 Y:9d P:35 S:fb pc: e9ff, reg_addr: 0647
e9ff 20 54 fa JSR  ABS   A:37 X:02 Y:9d P:35 S:fb pc: fa54, reg_addr: fa54
fa54 24 01 a9 BIT  ZP    A:37 X:02 Y:9d P:35 S:f9 pc: fa56, reg_addr: 0001
fa56 a9 f0 60 LDA  IMM   A:37 X:02 Y:9d P:f5 S:f9 pc: fa58, reg_addr: 00f0
fa58 60 50 0a RTS  IMPL  A:f0 X:02 Y:9d P:f5 S:f9 pc: ea02, reg_addr: 0000
ea02 cf 47 06 DCP  ABS   A:f0 X:02 Y:9d P:f5 S:fb pc: ea05, reg_addr: 0647
ea05 ea ea ea NOP  IMPL  A:f0 X:02 Y:9d P:f5 S:fb pc: ea06, reg_addr: 0000
ea06 ea ea ea NOP  IMPL  A:f0 X:02 Y:9d P:f5 S:fb pc: ea07, reg_addr: 0000
ea07 ea ea 20 NOP  IMPL  A:f0 X:02 Y:9d P:f5 S:fb pc: ea08, reg_addr: 0000
ea08 ea 20 59 NOP  IMPL  A:f0 X:02 Y:9d P:f5 S:fb pc: ea09, reg_addr: 0000
ea09 20 59 fa JSR  ABS   A:f0 X:02 Y:9d P:f5 S:fb pc: fa59, reg_addr: fa59
fa59 50 0a f0 BVC  REL   A:f0 X:02 Y:9d P:f5 S:f9 pc: fa5b, reg_addr: fa65
fa5b f0 08 10 BEQ  REL   A:f0 X:02 Y:9d P:f5 S:f9 pc: fa5d, reg_addr: fa65
fa5d 10 06 90 BPL  REL   A:f0 X:02 Y:9d P:f5 S:f9 pc: fa5f, reg_addr: fa65
fa5f 90 04 c9 BCC  REL   A:f0 X:02 Y:9d P:f5 S:f9 pc: fa61, reg_addr: fa65
fa61 c9 f0 f0 CMP  IMM   A:f0 X:02 Y:9d P:f5 S:f9 pc: fa63, reg_addr: 00f0
fa63 f0 02 84 BEQ  REL   A:f0 X:02 Y:9d P:77 S:f9 pc: fa67, reg_addr: fa67
fa67 60 24 01 RTS  IMPL  A:f0 X:02 Y:9d P:77 S:f9 pc: ea0c, reg_addr: 0000
ea0c ad 47 06 LDA  ABS   A:f0 X:02 Y:9d P:77 S:fb pc: ea0f, reg_addr: 0647
ea0f c9 36 f0 CMP  IMM   A:36 X:02 Y:9d P:75 S:fb pc: ea11, reg_addr: 0036
ea11 f0 02 84 BEQ  REL   A:36 X:02 Y:9d P:77 S:fb pc: ea15, reg_addr: ea15
ea15 a9 eb 8d LDA  IMM   A:36 X:02 Y:9d P:77 S:fb pc: ea17, reg_addr: 00eb
ea17 8d 47 06 STA  ABS   A:eb X:02 Y:9d P:f5 S:fb pc: ea1a, reg_addr: 0647
ea1a a9 48 85 LDA  IMM   A:eb X:02 Y:9d P:f5 S:fb pc: ea1c, reg_addr: 0048
ea1c 85 45 a9 STA  ZP    A:48 X:02 Y:9d P:75 S:fb pc: ea1e, reg_addr: 0045
ea1e a9 05 85 LDA  IMM   A:48 X:02 Y:9d P:75 S:fb pc: ea20, reg_addr: 0005
ea20 85 46 a0 STA  ZP    A:05 X:02 Y:9d P:75 S:fb pc: ea22, reg_addr: 0046
ea22 a0 ff 20 LDY  IMM   A:05 X:02 Y:9d P:75 S:fb pc: ea24, reg_addr: 00ff
ea24 20 31 fa JSR  ABS   A:05 X:02 Y:ff P:f5 S:fb pc: fa31, reg_addr: fa31
fa31 24 01 18 BIT  ZP    A:05 X:02 Y:ff P:f5 S:f9 pc: fa33, reg_addr: 0001
fa33 18 a9 40 CLC  IMPL  A:05 X:02 Y:ff P:f5 S:f9 pc: fa34, reg_addr: 0000
fa34 a9 40 60 LDA  IMM   A:05 X:02 Y:ff P:f4 S:f9 pc: fa36, reg_addr: 0040
fa36 60 50 2c RTS  IMPL  A:40 X:02 Y:ff P:74 S:f9 pc: ea27, reg_addr: 0000
ea27 d3 45 ea DCP  INDY  A:40 X:02 Y:ff P:74 S:fb pc: ea29, reg_addr: 0647
ea29 ea ea 08 NOP  IMPL  A:40 X:02 Y:ff P:74 S:fb pc: ea2a, reg_addr: 0000
ea2a ea 08 48 NOP  IMPL  A:40 X:02 Y:ff P:74 S:fb pc: ea2b, reg_addr: 0000
ea2b 08 48 a0 PHP  IMPL  A:40 X:02 Y:ff P:74 S:fb pc: ea2c, reg_addr: 0000
ea2c 48 a0 9e PHA  IMPL  A:40 X:02 Y:ff P:74 S:fa pc: ea2d, reg_addr: 0000
ea2d a0 9e 68 LDY  IMM   A:40 X:02 Y:ff P:74 S:f9 pc: ea2f, reg_addr: 009e
ea2f 68 28 20 PLA  IMPL  A:40 X:02 Y:9e P:f4 S:f9 pc: ea30, reg_addr: 0000
ea30 28 20 37 PLP  IMPL  A:40 X:02 Y:9e P:74 S:fa pc: ea31, reg_addr: 0000
ea31 20 37 fa JSR  ABS   A:40 X:02 Y:9e P:74 S:fb pc: fa37, reg_addr: fa37
fa37 50 2c b0 BVC  REL   A:40 X:02 Y:9e P:74 S:f9 pc: fa39, reg_addr: fa65
fa39 b0 2a 30 BCS  REL   A:40 X:02 Y:9e P:74 S:f9 pc: fa3b, reg_addr: fa65
fa3b 30 28 c9 BMI  REL   A:40 X:02 Y:9e P:74 S:f9 pc: fa3d, reg_addr: fa65
fa3d c9 40 d0 CMP  IMM   A:40 X:02 Y:9e P:74 S:f9 pc: fa3f, reg_addr: 0040
fa3f d0 24 60 BNE  REL   A:40 X:02 Y:9e P:77 S:f9 pc: fa41, reg_addr: fa65
fa41 60 b8 38 RTS  IMPL  A:40 X:02 Y:9e P:77 S:f9 pc: ea34, reg_addr: 0000
ea34 ad 47 06 LDA  ABS   A:40 X:02 Y:9e P:77 S:fb pc: ea37, reg_addr: 0647
ea37 c9 ea f0 CMP  IMM   A:ea X:02 Y:9e P:f5 S:fb pc: ea39, reg_addr: 00ea
ea39 f0 02 84 BEQ  REL   A:ea X:02 Y:9e P:77 S:fb pc: ea3d, reg_addr: ea3d
ea3d a0 ff a9 LDY  IMM   A:ea X:02 Y:9e P:77 S:fb pc: ea3f, reg_addr: 00ff
ea3f a9 00 8d LDA  IMM   A:ea X:02 Y:ff P:f5 S:fb pc: ea41, reg_addr: 0000
ea41 8d 47 06 STA  ABS   A:00 X:02 Y:ff P:77 S:fb pc: ea44, reg_addr: 0647
ea44 20 42 fa JSR  ABS   A:00 X:02 Y:ff P:77 S:fb pc: fa42, reg_addr: fa42
fa42 b8 38 a9 CLV  IMPL  A:00 X:02 Y:ff P:77 S:f9 pc: fa43, reg_addr: 0000
fa43 38 a9 ff SEC  IMPL  A:00 X:02 Y:ff P:37 S:f9 pc: fa44, reg_addr: 0000
fa44 a9 ff 60 LDA  IMM   A:00 X:02 Y:ff P:37 S:f9 pc: fa46, reg_addr: 00ff
fa46 60 70 1c RTS  IMPL  A:ff X:02 Y:ff P:b5 S:f9 pc: ea47, reg_addr: 0000
ea47 d3 45 ea DCP  INDY  A:ff X:02 Y:ff P:b5 S:fb pc: ea49, reg_addr: 0647
ea49 ea ea 08 NOP  IMPL  A:ff X:02 Y:ff P:37 S:fb pc: ea4a, reg_addr: 0000
ea4a ea 08 48 NOP  IMPL  A:ff X:02 Y:ff P:37 S:fb pc: ea4b, reg_addr: 0000
ea4b 08 48 a0 PHP  IMPL  A:ff X:02 Y:ff P:37 S:fb pc: ea4c, reg_addr: 0000
ea4c 48 a0 9f PHA  IMPL  A:ff X:02 Y:ff P:37 S:fa pc: ea4d, reg_addr: 0000
ea4d a0 9f 68 LDY  IMM   A:ff X:02 Y:ff P:37 S:f9 pc: ea4f, reg_addr: 009f
ea4f 68 28 20 PLA  IMPL  A:ff X:02 Y:9f P:b5 S:f9 pc: ea50, reg_addr: 0000
ea50 28 20 47 PLP  IMPL  A:ff X:02 Y:9f P:b5 S:fa pc: ea51, reg_addr: 0000
ea51 20 47 fa JSR  ABS   A:ff X:02 Y:9f P:37 S:fb pc: fa47, reg_addr: fa47
fa47 70 1c d0 BVS  REL   A:ff X:02 Y:9f P:37 S:f9 pc: fa49, reg_addr: fa65
fa49 d0 1a 30 BNE  REL   A:ff X:02 Y:9f P:37 S:f9 pc: fa4b, reg_addr: fa65
fa4b 30 18 90 BMI  REL   A:ff X:02 Y:9f P:37 S:f9 pc: fa4d, reg_addr: fa65
fa4d 90 16 c9 BCC  REL   A:ff X:02 Y:9f P:37 S:f9 pc: fa4f, reg_addr: fa65
fa4f c9 ff d0 CMP  IMM   A:ff X:02 Y:9f P:37 S:f9 pc: fa51, reg_addr: 00ff
fa51 d0 12 60 BNE  REL   A:ff X:02 Y:9f P:37 S:f9 pc: fa53, reg_addr: fa65
fa53 60 24 01 RTS  IMPL  A:ff X:02 Y:9f P:37 S:f9 pc: ea54, reg_addr: 0000
ea54 ad 47 06 LDA  ABS   A:ff X:02 Y:9f P:37 S:fb pc: ea57, reg_addr: 0647
ea57 c9 ff f0 CMP  IMM   A:ff X:02 Y:9f P:b5 S:fb pc: ea59, reg_addr: 00ff
ea59 f0 02 84 BEQ  REL   A:ff X:02 Y:9f P:37 S:fb pc: ea5d, reg_addr: ea5d
ea5d a0 ff a9 LDY  IMM   A:ff X:02 Y:9f P:37 S:fb pc: ea5f, reg_addr: 00ff
ea5f a9 37 8d LDA  IMM   A:ff X:02 Y:ff P:b5 S:fb pc: ea61, reg_addr: 0037
ea61 8d 47 06 STA  ABS   A:37 X:02 Y:ff P:35 S:fb pc: ea64, reg_addr: 0647
ea64 20 54 fa JSR  ABS   A:37 X:02 Y:ff P:35 S:fb pc: fa54, reg_addr: fa54
fa54 24 01 a9 BIT  ZP    A:37 X:02 Y:ff P:35 S:f9 pc: fa56, reg_addr: 0001
fa56 a9 f0 60 LDA  IMM   A:37 X:02 Y:ff P:f5 S:f9 pc: fa58, reg_addr: 00f0
fa58 60 50 0a RTS  IMPL  A:f0 X:02 Y:ff P:f5 S:f9 pc: ea67, reg_addr: 0000
ea67 d3 45 ea DCP  INDY  A:f0 X:02 Y:ff P:f5 S:fb pc: ea69, reg_addr: 0647
ea69 ea ea 08 NOP  IMPL  A:f0 X:02 Y:ff P:f5 S:fb pc: ea6a, reg_addr: 0000
ea6a ea 08 48 NOP  IMPL  A:f0 X:02 Y:ff P:f5 S:fb pc: ea6b, reg_addr: 0000
ea6b 08 48 a0 PHP  IMPL  A:f0 X:02 Y:ff P:f5 S:fb pc: ea6c, reg_addr: 0000
ea6c 48 a0 a0 PHA  IMPL  A:f0 X:02 Y:ff P:f5 S:fa pc: ea6d, reg_addr: 0000
ea6d a0 a0 68 LDY  IMM   A:f0 X:02 Y:ff P:f5 S:f9 pc: ea6f, reg_addr: 00a0
ea6f 68 28 20 PLA  IMPL  A:f0 X:02 Y:a0 P:f5 S:f9 pc: ea70, reg_addr: 0000
ea70 28 20 59 PLP  IMPL  A:f0 X:02 Y:a0 P:f5 S:fa pc: ea71, reg_addr: 0000
ea71 20 59 fa JSR  ABS   A:f0 X:02 Y:a0 P:f5 S:fb pc: fa59, reg_addr: fa59
fa59 50 0a f0 BVC  REL   A:f0 X:02 Y:a0 P:f5 S:f9 pc: fa5b, reg_addr: fa65
fa5b f0 08 10 BEQ  REL   A:f0 X:02 Y:a0 P:f5 S:f9 pc: fa5d, reg_addr: fa65
fa5d 10 06 90 BPL  REL   A:f0 X:02 Y:a0 P:f5 S:f9 pc: fa5f, reg_addr: fa65
fa5f 90 04 c9 BCC  REL   A:f0 X:02 Y:a0 P:f5 S:f9 pc: fa61, reg_addr: fa65
fa61 c9 f0 f0 CMP  IMM   A:f0 X:02 Y:a0 P:f5 S:f9 pc: fa63, reg_addr: 00f0
fa63 f0 02 84 BEQ  REL   A:f0 X:02 Y:a0 P:77 S:f9 pc: fa67, reg_addr: fa67
fa67 60 24 01 RTS  IMPL  A:f0 X:02 Y:a0 P:77 S:f9 pc: ea74, reg_addr: 0000
ea74 ad 47 06 LDA  ABS   A:f0 X:02 Y:a0 P:77 S:fb pc: ea77, reg_addr: 0647
ea77 c9 36 f0 CMP  IMM   A:36 X:02 Y:a0 P:75 S:fb pc: ea79, reg_addr: 0036
ea79 f0 02 84 BEQ  REL   A:36 X:02 Y:a0 P:77 S:fb pc: ea7d, reg_addr: ea7d
ea7d a0 a1 a2 LDY  IMM   A:36 X:02 Y:a0 P:77 S:fb pc: ea7f, reg_addr: 00a1
ea7f a2 ff a9 LDX  IMM   A:36 X:02 Y:a1 P:f5 S:fb pc: ea81, reg_addr: 00ff
ea81 a9 eb 85 LDA  IMM   A:36 X:ff Y:a1 P:f5 S:fb pc: ea83, reg_addr: 00eb
ea83 85 47 20 STA  ZP    A:eb X:ff Y:a1 P:f5 S:fb pc: ea85, reg_addr: 0047
ea85 20 31 fa JSR  ABS   A:eb X:ff Y:a1 P:f5 S:fb pc: fa31, reg_addr: fa31
fa31 24 01 18 BIT  ZP    A:eb X:ff Y:a1 P:f5 S:f9 pc: fa33, reg_addr: 0001
fa33 18 a9 40 CLC  IMPL  A:eb X:ff Y:a1 P:f5 S:f9 pc: fa34, reg_addr: 0000
fa34 a9 40 60 LDA  IMM   A:eb X:ff Y:a1 P:f4 S:f9 pc: fa36, reg_addr: 0040
fa36 60 50 2c RTS  IMPL  A:40 X:ff Y:a1 P:74 S:f9 pc: ea88, reg_addr: 0000
ea88 d7 48 ea DCP  ZPX   A:40 X:ff Y:a1 P:74 S:fb pc: ea8a, reg_addr: 0047
ea8a ea ea ea NOP  IMPL  A:40 X:ff Y:a1 P:74 S:fb pc: ea8b, reg_addr: 0000
ea8b ea ea ea NOP  IMPL  A:40 X:ff Y:a1 P:74 S:fb pc: ea8c, reg_addr: 0000
ea8c ea ea 20 NOP  IMPL  A:40 X:ff Y:a1 P:74 S:fb pc: ea8d, reg_addr: 0000
ea8d ea 20 37 NOP  IMPL  A:40 X:ff Y:a1 P:74 S:fb pc: ea8e, reg_addr: 0000
ea8e 20 37 fa JSR  ABS   A:40 X:ff Y:a1 P:74 S:fb pc: fa37, reg_addr: fa37
fa37 50 2c b0 BVC  REL   A:40 X:ff Y:a1 P:74 S:f9 pc: fa39, reg_addr: fa65
fa39 b0 2a 30 BCS  REL   A:40 X:ff Y:a1 P:74 S:f9 pc: fa3b, reg_addr: fa65
fa3b 30 28 c9 BMI  REL   A:40 X:ff Y:a1 P:74 S:f9 pc: fa3d, reg_addr: fa65
fa3d c9 40 d0 CMP  IMM   A:40 X:ff Y:a1 P:74 S:f9 pc: fa3f, reg_addr: 0040
fa3f d0 24 60 BNE  REL   A:40 X:ff Y:a1 P:77 S:f9 pc: fa41, reg_addr: fa65
fa41 60 b8 38 RTS  IMPL  A:40 X:ff Y:a1 P:77 S:f9 pc: ea91, reg_addr: 0000
ea91 a5 47 c9 LDA  ZP    A:40 X:ff Y:a1 P:77 S:fb pc: ea93, reg_addr: 0047
ea93 c9 ea f0 CMP  IMM   A:ea X:ff Y:a1 P:f5 S:fb pc: ea95, reg_addr: 00ea
ea95 f0 02 84 BEQ  REL   A:ea X:ff Y:a1 P:77 S:fb pc: ea99, reg_addr: ea99
ea99 c8 a9 00 INY  IMPL  A:ea X:ff Y:a1 P:77 S:fb pc: ea9a, reg_addr: 0000
ea9a a9 00 85 LDA  IMM   A:ea X:ff Y:a2 P:f5 S:fb pc: ea9c, reg_addr: 0000
ea9c 85 47 20 STA  ZP    A:00 X:ff Y:a2 P:77 S:fb pc: ea9e, reg_addr: 0047
ea9e 20 42 fa JSR  ABS   A:00 X:ff Y:a2 P:77 S:fb pc: fa42, reg_addr: fa42
fa42 b8 38 a9 CLV  IMPL  A:00 X:ff Y:a2 P:77 S:f9 pc: fa43, reg_addr: 0000
fa43 38 a9 ff SEC  IMPL  A:00 X:ff Y:a2 P:37 S:f9 pc: fa44, reg_addr: 0000
fa44 a9 ff 60 LDA  IMM   A:00 X:ff Y:a2 P:37 S:f9 pc: fa46, reg_addr: 00ff
fa46 60 70 1c RTS  IMPL  A:ff X:ff Y:a2 P:b5 S:f9 pc: eaa1, reg_addr: 0000
eaa1 d7 48 ea DCP  ZPX   A:ff X:ff Y:a2 P:b5 S:fb pc: eaa3, reg_addr: 0047
eaa3 ea ea ea NOP  IMPL  A:ff X:ff Y:a2 P:37 S:fb pc: eaa4, reg_addr: 0000
eaa4 ea ea ea NOP  IMPL  A:ff X:ff Y:a2 P:37 S:fb pc: eaa5, reg_addr: 0000
eaa5 ea ea 20 NOP  IMPL  A:ff X:ff Y:a2 P:37 S:fb pc: eaa6, reg_addr: 0000
eaa6 ea 20 47 NOP  IMPL  A:ff X:ff Y:a2 P:37 S:fb pc: eaa7, reg_addr: 0000
eaa7 20 47 fa JSR  ABS   A:ff X:ff Y:a2 P:37 S:fb pc: fa47, reg_addr: fa47
fa47 70 1c d0 BVS  REL   A:ff X:ff Y:a2 P:37 S:f9 pc: fa49, reg_addr: fa65
fa49 d0 1a 30 BNE  REL   A:ff X:ff Y:a2 P:37 S:f9 pc: fa4b, reg_addr: fa65
fa4b 30 18 90 BMI  REL   A:ff X:ff Y:a2 P:37 S:f9 pc: fa4d, reg_addr: fa65
fa4d 90 16 c9 BCC  REL   A:ff X:ff Y:a2 P:37 S:f9 pc: fa4f, reg_addr: fa65
fa4f c9 ff d0 CMP  IMM   A:ff X:ff Y:a2 P:37 S:f9 pc: fa51, reg_addr: 00ff
fa51 d0 12 60 BNE  REL   A:ff X:ff Y:a2 P:37 S:f9 pc: fa53, reg_addr: fa65
fa53 60 24 01 RTS  IMPL  A:ff X:ff Y:a2 P:37 S:f9 pc: eaaa, reg_addr: 0000
eaaa a5 47 c9 LDA  ZP    A:ff X:ff Y:a2 P:37 S:fb pc: eaac, reg_addr: 0047
eaac c9 ff f0 CMP  IMM   A:ff X:ff Y:a2 P:b5 S:fb pc: eaae, reg_addr: 00ff
eaae f0 02 84 BEQ  REL   A:ff X:ff Y:a2 P:37 S:fb pc: eab2, reg_addr: eab2
eab2 c8 a9 37 INY  IMPL  A:ff X:ff Y:a2 P:37 S:fb pc: eab3, reg_addr: 0000
eab3 a9 37 85 LDA  IMM   A:ff X:ff Y:a3 P:b5 S:fb pc: eab5, reg_addr: 0037
eab5 85 47 20 STA  ZP    A:37 X:ff Y:a3 P:35 S:fb pc: eab7, reg_addr: 0047
eab7 20 54 fa JSR  ABS   A:37 X:ff Y:a3 P:35 S:fb pc: fa54, reg_addr: fa54
fa54 24 01 a9 BIT  ZP    A:37 X:ff Y:a3 P:35 S:f9 pc: fa56, reg_addr: 0001
fa56 a9 f0 60 LDA  IMM   A:37 X:ff Y:a3 P:f5 S:f9 pc: fa58, reg_addr: 00f0
fa58 60 50 0a RTS  IMPL  A:f0 X:ff Y:a3 P:f5 S:f9 pc: eaba, reg_addr: 0000
eaba d7 48 ea DCP  ZPX   A:f0 X:ff Y:a3 P:f5 S:fb pc: eabc, reg_addr: 0047
eabc ea ea ea NOP  IMPL  A:f0 X:ff Y:a3 P:f5 S:fb pc: eabd, reg_addr: 0000
eabd ea ea ea NOP  IMPL  A:f0 X:ff Y:a3 P:f5 S:fb pc: eabe, reg_addr: 0000
eabe ea ea 20 NOP  IMPL  A:f0 X:ff Y:a3 P:f5 S:fb pc: eabf, reg_addr: 0000
eabf ea 20 59 NOP  IMPL  A:f0 X:ff Y:a3 P:f5 S:fb pc: eac0, reg_addr: 0000
eac0 20 59 fa JSR  ABS   A:f0 X:ff Y:a3 P:f5 S:fb pc: fa59, reg_addr: fa59
fa59 50 0a f0 BVC  REL   A:f0 X:ff Y:a3 P:f5 S:f9 pc: fa5b, reg_addr: fa65
fa5b f0 08 10 BEQ  REL   A:f0 X:ff Y:a3 P:f5 S:f9 pc: fa5d, reg_addr: fa65
fa5d 10 06 90 BPL  REL   A:f0 X:ff Y:a3 P:f5 S:f9 pc: fa5f, reg_addr: fa65
fa5f 90 04 c9 BCC  REL   A:f0 X:ff Y:a3 P:f5 S:f9 pc: fa61, reg_addr: fa65
fa61 c9 f0 f0 CMP  IMM   A:f0 X:ff Y:a3 P:f5 S:f9 pc: fa63, reg_addr: 00f0
fa63 f0 02 84 BEQ  REL   A:f0 X:ff Y:a3 P:77 S:f9 pc: fa67, reg_addr: fa67
fa67 60 24 01 RTS  IMPL  A:f0 X:ff Y:a3 P:77 S:f9 pc: eac3, reg_addr: 0000
eac3 a5 47 c9 LDA  ZP    A:f0 X:ff Y:a3 P:77 S:fb pc: eac5, reg_addr: 0047
eac5 c9 36 f0 CMP  IMM   A:36 X:ff Y:a3 P:75 S:fb pc: eac7, reg_addr: 0036
eac7 f0 02 84 BEQ  REL   A:36 X:ff Y:a3 P:77 S:fb pc: eacb, reg_addr: eacb
eacb a9 eb 8d LDA  IMM   A:36 X:ff Y:a3 P:77 S:fb pc: eacd, reg_addr: 00eb
eacd 8d 47 06 STA  ABS   A:eb X:ff Y:a3 P:f5 S:fb pc: ead0, reg_addr: 0647
ead0 a0 ff 20 LDY  IMM   A:eb X:ff Y:a3 P:f5 S:fb pc: ead2, reg_addr: 00ff
ead2 20 31 fa JSR  ABS   A:eb X:ff Y:ff P:f5 S:fb pc: fa31, reg_addr: fa31
fa31 24 01 18 BIT  ZP    A:eb X:ff Y:ff P:f5 S:f9 pc: fa33, reg_addr: 0001
fa33 18 a9 40 CLC  IMPL  A:eb X:ff Y:ff P:f5 S:f9 pc: fa34, reg_addr: 0000
fa34 a9 40 60 LDA  IMM   A:eb X:ff Y:ff P:f4 S:f9 pc: fa36, reg_addr: 0040
fa36 60 50 2c RTS  IMPL  A:40 X:ff Y:ff P:74 S:f9 pc: ead5, reg_addr: 0000
ead5 db 48 05 DCP  ABSY  A:40 X:ff Y:ff P:74 S:fb pc: ead8, reg_addr: 0647
ead8 ea ea 08 NOP  IMPL  A:40 X:ff Y:ff P:74 S:fb pc: ead9, reg_addr: 0000
ead9 ea 08 48 NOP  IMPL  A:40 X:ff Y:ff P:74 S:fb pc: eada, reg_addr: 0000
eada 08 48 a0 PHP  IMPL  A:40 X:ff Y:ff P:74 S:fb pc: eadb, reg_addr: 0000
eadb 48 a0 a4 PHA  IMPL  A:40 X:ff Y:ff P:74 S:fa pc: eadc, reg_addr: 0000
eadc a0 a4 68 LDY  IMM   A:40 X:ff Y:ff P:74 S:f9 pc: eade, reg_addr: 00a4
eade 68 28 20 PLA  IMPL  A:40 X:ff Y:a4 P:f4 S:f9 pc: eadf, reg_addr: 0000
eadf 28 20 37 PLP  IMPL  A:40 X:ff Y:a4 P:74 S:fa pc: eae0, reg_addr: 0000
eae0 20 37 fa JSR  ABS   A:40 X:ff Y:a4 P:74 S:fb pc: fa37, reg_addr: fa37
fa37 50 2c b0 BVC  REL   A:40 X:ff Y:a4 P:74 S:f9 pc: fa39, reg_addr: fa65
fa39 b0 2a 30 BCS  REL   A:40 X:ff Y:a4 P:74 S:f9 pc: fa3b, reg_addr: fa65
fa3b 30 28 c9 BMI  REL   A:40 X:ff Y:a4 P:74 S:f9 pc: fa3d, reg_addr: fa65
fa3d c9 40 d0 CMP  IMM   A:40 X:ff Y:a4 P:74 S:f9 pc: fa3f, reg_addr: 0040
fa3f d0 24 60 BNE  REL   A:40 X:ff Y:a4 P:77 S:f9 pc: fa41, reg_addr: fa65
fa41 60 b8 38 RTS  IMPL  A:40 X:ff Y:a4 P:77 S:f9 pc: eae3, reg_addr: 0000
eae3 ad 47 06 LDA  ABS   A:40 X:ff Y:a4 P:77 S:fb pc: eae6, reg_addr: 0647
eae6 c9 ea f0 CMP  IMM   A:ea X:ff Y:a4 P:f5 S:fb pc: eae8, reg_addr: 00ea
eae8 f0 02 84 BEQ  REL   A:ea X:ff Y:a4 P:77 S:fb pc: eaec, reg_addr: eaec
eaec a0 ff a9 LDY  IMM   A:ea X:ff Y:a4 P:77 S:fb pc: eaee, reg_addr: 00ff
eaee a9 00 8d LDA  IMM   A:ea X:ff Y:ff P:f5 S:fb pc: eaf0, reg_addr: 0000
eaf0 8d 47 06 STA  ABS   A:00 X:ff Y:ff P:77 S:fb pc: eaf3, reg_addr: 0647
eaf3 20 42 fa JSR  ABS   A:00 X:ff Y:ff P:77 S:fb pc: fa42, reg_addr: fa42
fa42 b8 38 a9 CLV  IMPL  A:00 X:ff Y:ff P:77 S:f9 pc: fa43, reg_addr: 0000
fa43 38 a9 ff SEC  IMPL  A:00 X:ff Y:ff P:37 S:f9 pc: fa44, reg_addr: 0000
fa44 a9 ff 60 LDA  IMM   A:00 X:ff Y:ff P:37 S:f9 pc: fa46, reg_addr: 00ff
fa46 60 70 1c RTS  IMPL  A:ff X:ff Y:ff P:b5 S:f9 pc: eaf6, reg_addr: 0000
eaf6 db 48 05 DCP  ABSY  A:ff X:ff Y:ff P:b5 S:fb pc: eaf9, reg_addr: 0647
eaf9 ea ea 08 NOP  IMPL  A:ff X:ff Y:ff P:37 S:fb pc: eafa, reg_addr: 0000
eafa ea 08 48 NOP  IMPL  A:ff X:ff Y:ff P:37 S:fb pc: eafb, reg_addr: 0000
eafb 08 48 a0 PHP  IMPL  A:ff X:ff Y:ff P:37 S:fb pc: eafc, reg_addr: 0000
eafc 48 a0 a5 PHA  IMPL  A:ff X:ff Y:ff P:37 S:fa pc: eafd, reg_addr: 0000
eafd a0 a5 68 LDY  IMM   A:ff X:ff Y:ff P:37 S:f9 pc: eaff, reg_addr: 00a5
eaff 68 28 20 PLA  IMPL  A:ff X:ff Y:a5 P:b5 S:f9 pc: eb00, reg_addr: 0000
eb00 28 20 47 PLP  IMPL  A:ff X:ff Y:a5 P:b5 S:fa pc: eb01, reg_addr: 0000
eb01 20 47 fa JSR  ABS   A:ff X:ff Y:a5 P:37 S:fb pc: fa47, reg_addr: fa47
fa47 70 1c d0 BVS  REL   A:ff X:ff Y:a5 P:37 S:f9 pc: fa49, reg_addr: fa65
fa49 d0 1a 30 BNE  REL   A:ff X:ff Y:a5 P:37 S:f9 pc: fa4b, reg_addr: fa65
fa4b 30 18 90 BMI  REL   A:ff X:ff Y:a5 P:37 S:f9 pc: fa4d, reg_addr: fa65
fa4d 90 16 c9 BCC  REL   A:ff X:ff Y:a5 P:37 S:f9 pc: fa4f, reg_addr: fa65
fa4f c9 ff d0 CMP  IMM   A:ff X:ff Y:a5 P:37 S:f9 pc: fa51, reg_addr: 00ff
fa51 d0 12 60 BNE  REL   A:ff X:ff Y:a5 P:37 S:f9 pc: fa53, reg_addr: fa65
fa53 60 24 01 RTS  IMPL  A:ff X:ff Y:a5 P:37 S:f9 pc: eb04, reg_addr: 0000
eb04 ad 47 06 LDA  ABS   A:ff X:ff Y:a5 P:37 S:fb pc: eb07, reg_addr: 0647
eb07 c9 ff f0 CMP  IMM   A:ff X:ff Y:a5 P:b5 S:fb pc: eb09, reg_addr: 00ff
eb09 f0 02 84 BEQ  REL   A:ff X:ff Y:a5 P:37 S:fb pc: eb0d, reg_addr: eb0d
eb0d a0 ff a9 LDY  IMM   A:ff X:ff Y:a5 P:37 S:fb pc: eb0f, reg_addr: 00ff
eb0f a9 37 8d LDA  IMM   A:ff X:ff Y:ff P:b5 S:fb pc: eb11, reg_addr: 0037
eb11 8d 47 06 STA  ABS   A:37 X:ff Y:ff P:35 S:fb pc: eb14, reg_addr: 0647
eb14 20 54 fa JSR  ABS   A:37 X:ff Y:ff P:35 S:fb pc: fa54, reg_addr: fa54
fa54 24 01 a9 BIT  ZP    A:37 X:ff Y:ff P:35 S:f9 pc: fa56, reg_addr: 0001
fa56 a9 f0 60 LDA  IMM   A:37 X:ff Y:ff P:f5 S:f9 pc: fa58, reg_addr: 00f0
fa58 60 50 0a RTS  IMPL  A:f0 X:ff Y:ff P:f5 S:f9 pc: eb17, reg_addr: 0000
eb17 db 48 05 DCP  ABSY  A:f0 X:ff Y:ff P:f5 S:fb pc: eb1a, reg_addr: 0647
eb1a ea ea 08 NOP  IMPL  A:f0 X:ff Y:ff P:f5 S:fb pc: eb1b, reg_addr: 0000
eb1b ea 08 48 NOP  IMPL  A:f0 X:ff Y:ff P:f5 S:fb pc: eb1c, reg_addr: 0000
eb1c 08 48 a0 PHP  IMPL  A:f0 X:ff Y:ff P:f5 S:fb pc: eb1d, reg_addr: 0000
eb1d 48 a0 a6 PHA  IMPL  A:f0 X:ff Y:ff P:f5 S:fa pc: eb1e, reg_addr: 0000
eb1e a0 a6 68 LDY  IMM   A:f0 X:ff Y:ff P:f5 S:f9 pc: eb20, reg_addr: 00a6
eb20 68 28 20 PLA  IMPL  A:f0 X:ff Y:a6 P:f5 S:f9 pc: eb21, reg_addr: 0000
eb21 28 20 59 PLP  IMPL  A:f0 X:ff Y:a6 P:f5 S:fa pc: eb22, reg_addr: 0000
eb22 20 59 fa JSR  ABS   A:f0 X:ff Y:a6 P:f5 S:fb pc: fa59, reg_addr: fa59
fa59 50 0a f0 BVC  REL   A:f0 X:ff Y:a6 P:f5 S:f9 pc: fa5b, reg_addr: fa65
fa5b f0 08 10 BEQ  REL   A:f0 X:ff Y:a6 P:f5 S:f9 pc: fa5d, reg_addr: fa65
fa5d 10 06 90 BPL  REL   A:f0 X:ff Y:a6 P:f5 S:f9 pc: fa5f, reg_addr: fa65
fa5f 90 04 c9 BCC  REL   A:f0 X:ff Y:a6 P:f5 S:f9 pc: fa61, reg_addr: fa65
fa61 c9 f0 f0 CMP  IMM   A:f0 X:ff Y:a6 P:f5 S:f9 pc: fa63, reg_addr: 00f0
fa63 f0 02 84 BEQ  REL   A:f0 X:ff Y:a6 P:77 S:f9 pc: fa67, reg_addr: fa67
fa67 60 24 01 RTS  IMPL  A:f0 X:ff Y:a6 P:77 S:f9 pc: eb25, reg_addr: 0000
eb25 ad 47 06 LDA  ABS   A:f0 X:ff Y:a6 P:77 S:fb pc: eb28, reg_addr: 0647
eb28 c9 36 f0 CMP  IMM   A:36 X:ff Y:a6 P:75 S:fb pc: eb2a, reg_addr: 0036
eb2a f0 02 84 BEQ  REL   A:36 X:ff Y:a6 P:77 S:fb pc: eb2e, reg_addr: eb2e
eb2e a0 a7 a2 LDY  IMM   A:36 X:ff Y:a6 P:77 S:fb pc: eb30, reg_addr: 00a7
eb30 a2 ff a9 LDX  IMM   A:36 X:ff Y:a7 P:f5 S:fb pc: eb32, reg_addr: 00ff
eb32 a9 eb 8d LDA  IMM   A:36 X:ff Y:a7 P:f5 S:fb pc: eb34, reg_addr: 00eb
eb34 8d 47 06 STA  ABS   A:eb X:ff Y:a7 P:f5 S:fb pc: eb37, reg_addr: 0647
eb37 20 31 fa JSR  ABS   A:eb X:ff Y:a7 P:f5 S:fb pc: fa31, reg_addr: fa31
fa31 24 01 18 BIT  ZP    A:eb X:ff Y:a7 P:f5 S:f9 pc: fa33, reg_addr: 0001
fa33 18 a9 40 CLC  IMPL  A:eb X:ff Y:a7 P:f5 S:f9 pc: fa34, reg_addr: 0000
fa34 a9 40 60 LDA  IMM   A:eb X:ff Y:a7 P:f4 S:f9 pc: fa36, reg_addr: 0040
fa36 60 50 2c RTS  IMPL  A:40 X:ff Y:a7 P:74 S:f9 pc: eb3a, reg_addr: 0000
eb3a df 48 05 DCP  ABSX  A:40 X:ff Y:a7 P:74 S:fb pc: eb3d, reg_addr: 0647
eb3d ea ea ea NOP  IMPL  A:40 X:ff Y:a7 P:74 S:fb pc: eb3e, reg_addr: 0000
eb3e ea ea ea NOP  IMPL  A:40 X:ff Y:a7 P:74 S:fb pc: eb3f, reg_addr: 0000
eb3f ea ea 20 NOP  IMPL  A:40 X:ff Y:a7 P:74 S:fb pc: eb40, reg_addr: 0000
eb40 ea 20 37 NOP  IMPL  A:40 X:ff Y:a7 P:74 S:fb pc: eb41, reg_addr: 0000
eb41 20 37 fa JSR  ABS   A:40 X:ff Y:a7 P:74 S:fb pc: fa37, reg_addr: fa37
fa37 50 2c b0 BVC  REL   A:40 X:ff Y:a7 P:74 S:f9 pc: fa39, reg_addr: fa65
fa39 b0 2a 30 BCS  REL   A:40 X:ff Y:a7 P:74 S:f9 pc: fa3b, reg_addr: fa65
fa3b 30 28 c9 BMI  REL   A:40 X:ff Y:a7 P:74 S:f9 pc: fa3d, reg_addr: fa65
fa3d c9 40 d0 CMP  IMM   A:40 X:ff Y:a7 P:74 S:f9 pc: fa3f, reg_addr: 0040
fa3f d0 24 60 BNE  REL   A:40 X:ff Y:a7 P:77 S:f9 pc: fa41, reg_addr: fa65
fa41 60 b8 38 RTS  IMPL  A:40 X:ff Y:a7 P:77 S:f9 pc: eb44, reg_addr: 0000
eb44 ad 47 06 LDA  ABS   A:40 X:ff Y:a7 P:77 S:fb pc: eb47, reg_addr: 0647
eb47 c9 ea f0 CMP  IMM   A:ea X:ff Y:a7 P:f5 S:fb pc: eb49, reg_addr: 00ea
eb49 f0 02 84 BEQ  REL   A:ea X:ff Y:a7 P:77 S:fb pc: eb4d, reg_addr: eb4d
eb4d c8 a9 00 INY  IMPL  A:ea X:ff Y:a7 P:77 S:fb pc: eb4e, reg_addr: 0000
eb4e a9 00 8d LDA  IMM   A:ea X:ff Y:a8 P:f5 S:fb pc: eb50, reg_addr: 0000
eb50 8d 47 06 STA  ABS   A:00 X:ff Y:a8 P:77 S:fb pc: eb53, reg_addr: 0647
eb53 20 42 fa JSR  ABS   A:00 X:ff Y:a8 P:77 S:fb pc: fa42, reg_addr: fa42
fa42 b8 38 a9 CLV  IMPL  A:00 X:ff Y:a8 P:77 S:f9 pc: fa43, reg_addr: 0000
fa43 38 a9 ff SEC  IMPL  A:00 X:ff Y:a8 P:37 S:f9 pc: fa44, reg_addr: 0000
fa44 a9 ff 60 LDA  IMM   A:00 X:ff Y:a8 P:37 S:f9 pc: fa46, reg_addr: 00ff
fa46 60 70 1c RTS  IMPL  A:ff X:ff Y:a8 P:b5 S:f9 pc: eb56, reg_addr: 0000
eb56 df 48 05 DCP  ABSX  A:ff X:ff Y:a8 P:b5 S:fb pc: eb59, reg_addr: 0647
eb59 ea ea ea NOP  IMPL  A:ff X:ff Y:a8 P:37 S:fb pc: eb5a, reg_addr: 0000
eb5a ea ea ea NOP  IMPL  A:ff X:ff Y:a8 P:37 S:fb pc: eb5b, reg_addr: 0000
eb5b ea ea 20 NOP  IMPL  A:ff X:ff Y:a8 P:37 S:fb pc: eb5c, reg_addr: 0000
eb5c ea 20 47 NOP  IMPL  A:ff X:ff Y:a8 P:37 S:fb pc: eb5d, reg_addr: 0000
eb5d 20 47 fa JSR  ABS   A:ff X:ff Y:a8 P:37 S:fb pc: fa47, reg_addr: fa47
fa47 70 1c d0 BVS  REL   A:ff X:ff Y:a8 P:37 S:f9 pc: fa49, reg_addr: fa65
fa49 d0 1a 30 BNE  REL   A:ff X:ff Y:a8 P:37 S:f9 pc: fa4b, reg_addr: fa65
fa4b 30 18 90 BMI  REL   A:ff X:ff Y:a8 P:37 S:f9 pc: fa4d, reg_addr: fa65
fa4d 90 16 c9 BCC  REL   A:ff X:ff Y:a8 P:37 S:f9 pc: fa4f, reg_addr: fa65
fa4f c9 ff d0 CMP  IMM   A:ff X:ff Y:a8 P:37 S:f9 pc: fa51, reg_addr: 00ff
fa51 d0 12 60 BNE  REL   A:ff X:ff Y:a8 P:37 S:f9 pc: fa53, reg_addr: fa65
fa53 60 24 01 RTS  IMPL  A:ff X:ff Y:a8 P:37 S:f9 pc: eb60, reg_addr: 0000
eb60 ad 47 06 LDA  ABS   A:ff X:ff Y:a8 P:37 S:fb pc: eb63, reg_addr: 0647
eb63 c9 ff f0 CMP  IMM   A:ff X:ff Y:a8 P:b5 S:fb pc: eb65, reg_addr: 00ff
eb65 f0 02 84 BEQ  REL   A:ff X:ff Y:a8 P:37 S:fb pc: eb69, reg_addr: eb69
eb69 c8 a9 37 INY  IMPL  A:ff X:ff Y:a8 P:37 S:fb pc: eb6a, reg_addr: 0000
eb6a a9 37 8d LDA  IMM   A:ff X:ff Y:a9 P:b5 S:fb pc: eb6c, reg_addr: 0037
eb6c 8d 47 06 STA  ABS   A:37 X:ff Y:a9 P:35 S:fb pc: eb6f, reg_addr: 0647
eb6f 20 54 fa JSR  ABS   A:37 X:ff Y:a9 P:35 S:fb pc: fa54, reg_addr: fa54
fa54 24 01 a9 BIT  ZP    A:37 X:ff Y:a9 P:35 S:f9 pc: fa56, reg_addr: 0001
fa56 a9 f0 60 LDA  IMM   A:37 X:ff Y:a9 P:f5 S:f9 pc: fa58, reg_addr: 00f0
fa58 60 50 0a RTS  IMPL  A:f0 X:ff Y:a9 P:f5 S:f9 pc: eb72, reg_addr: 0000
eb72 df 48 05 DCP  ABSX  A:f0 X:ff Y:a9 P:f5 S:fb pc: eb75, reg_addr: 0647
eb75 ea ea ea NOP  IMPL  A:f0 X:ff Y:a9 P:f5 S:fb pc: eb76, reg_addr: 0000
eb76 ea ea ea NOP  IMPL  A:f0 X:ff Y:a9 P:f5 S:fb pc: eb77, reg_addr: 0000
eb77 ea ea 20 NOP  IMPL  A:f0 X:ff Y:a9 P:f5 S:fb pc: eb78, reg_addr: 0000
eb78 ea 20 59 NOP  IMPL  A:f0 X:ff Y:a9 P:f5 S:fb pc: eb79, reg_addr: 0000
eb79 20 59 fa JSR  ABS   A:f0 X:ff Y:a9 P:f5 S:fb pc: fa59, reg_addr: fa59
fa59 50 0a f0 BVC  REL   A:f0 X:ff Y:a9 P:f5 S:f9 pc: fa5b, reg_addr: fa65
fa5b f0 08 10 BEQ  REL   A:f0 X:ff Y:a9 P:f5 S:f9 pc: fa5d, reg_addr: fa65
fa5d 10 06 90 BPL  REL   A:f0 X:ff Y:a9 P:f5 S:f9 pc: fa5f, reg_addr: fa65
fa5f 90 04 c9 BCC  REL   A:f0 X:ff Y:a9 P:f5 S:f9 pc: fa61, reg_addr: fa65
fa61 c9 f0 f0 CMP  IMM   A:f0 X:ff Y:a9 P:f5 S:f9 pc: fa63, reg_addr: 00f0
fa63 f0 02 84 BEQ  REL   A:f0 X:ff Y:a9 P:77 S:f9 pc: fa67, reg_addr: fa67
fa67 60 24 01 RTS  IMPL  A:f0 X:ff Y:a9 P:77 S:f9 pc: eb7c, reg_addr: 0000
eb7c ad 47 06 LDA  ABS   A:f0 X:ff Y:a9 P:77 S:fb pc: eb7f, reg_addr: 0647
eb7f c9 36 f0 CMP  IMM   A:36 X:ff Y:a9 P:75 S:fb pc: eb81, reg_addr: 0036
eb81 f0 02 84 BEQ  REL   A:36 X:ff Y:a9 P:77 S:fb pc: eb85, reg_addr: eb85
eb85 60 a9 ff RTS  IMPL  A:36 X:ff Y:a9 P:77 S:fb pc: c63e, reg_addr: 0000
c63e 20 86 eb JSR  ABS   A:36 X:ff Y:a9 P:77 S:fd pc: eb86, reg_addr: eb86
eb86 a9 ff 85 LDA  IMM   A:36 X:ff Y:a9 P:77 S:fb pc: eb88, reg_addr: 00ff
eb88 85 01 a0 STA  ZP    A:ff X:ff Y:a9 P:f5 S:fb pc: eb8a, reg_addr: 0001
eb8a a0 aa a2 LDY  IMM   A:ff X:ff Y:a9 P:f5 S:fb pc: eb8c, reg_addr: 00aa
eb8c a2 02 a9 LDX  IMM   A:ff X:ff Y:aa P:f5 S:fb pc: eb8e, reg_addr: 0002
eb8e a9 47 85 LDA  IMM   A:ff X:02 Y:aa P:75 S:fb pc: eb90, reg_addr: 0047
eb90 85 47 a9 STA  ZP    A:47 X:02 Y:aa P:75 S:fb pc: eb92, reg_addr: 0047
eb92 a9 06 85 LDA  IMM   A:47 X:02 Y:aa P:75 S:fb pc: eb94, reg_addr: 0006
eb94 85 48 a9 STA  ZP    A:06 X:02 Y:aa P:75 S:fb pc: eb96, reg_addr: 0048
eb96 a9 eb 8d LDA  IMM   A:06 X:02 Y:aa P:75 S:fb pc: eb98, reg_addr: 00eb
eb98 8d 47 06 STA  ABS   A:eb X:02 Y:aa P:f5 S:fb pc: eb9b, reg_addr: 0647
eb9b 20 b1 fa JSR  ABS   A:eb X:02 Y:aa P:f5 S:fb pc: fab1, reg_addr: fab1
fab1 24 01 18 BIT  ZP    A:eb X:02 Y:aa P:f5 S:f9 pc: fab3, reg_addr: 0001
fab3 18 a9 40 CLC  IMPL  A:eb X:02 Y:aa P:f5 S:f9 pc: fab4, reg_addr: 0000
fab4 a9 40 60 LDA  IMM   A:eb X:02 Y:aa P:f4 S:f9 pc: fab6, reg_addr: 0040
fab6 60 70 2d RTS  IMPL  A:40 X:02 Y:aa P:74 S:f9 pc: eb9e, reg_addr: 0000
eb9e e3 45 ea ISB  INDX  A:40 X:02 Y:aa P:74 S:fb pc: eba0, reg_addr: 0647
eba0 ea ea ea NOP  IMPL  A:53 X:02 Y:aa P:34 S:fb pc: eba1, reg_addr: 0000
eba1 ea ea ea NOP  IMPL  A:53 X:02 Y:aa P:34 S:fb pc: eba2, reg_addr: 0000
eba2 ea ea 20 NOP  IMPL  A:53 X:02 Y:aa P:34 S:fb pc: eba3, reg_addr: 0000
eba3 ea 20 b7 NOP  IMPL  A:53 X:02 Y:aa P:34 S:fb pc: eba4, reg_addr: 0000
eba4 20 b7 fa JSR  ABS   A:53 X:02 Y:aa P:34 S:fb pc: fab7, reg_addr: fab7
fab7 70 2d b0 BVS  REL   A:53 X:02 Y:aa P:34 S:f9 pc: fab9, reg_addr: fae6
fab9 b0 2b 30 BCS  REL   A:53 X:02 Y:aa P:34 S:f9 pc: fabb, reg_addr: fae6
fabb 30 29 c9 BMI  REL   A:53 X:02 Y:aa P:34 S:f9 pc: fabd, reg_addr: fae6
fabd c9 53 d0 CMP  IMM   A:53 X:02 Y:aa P:34 S:f9 pc: fabf, reg_addr: 0053
fabf d0 25 60 BNE  REL   A:53 X:02 Y:aa P:37 S:f9 pc: fac1, reg_addr: fae6
fac1 60 b8 38 RTS  IMPL  A:53 X:02 Y:aa P:37 S:f9 pc: eba7, reg_addr: 0000
eba7 ad 47 06 LDA  ABS   A:53 X:02 Y:aa P:37 S:fb pc: ebaa, reg_addr: 0647
ebaa c9 ec f0 CMP  IMM   A:ec X:02 Y:aa P:b5 S:fb pc: ebac, reg_addr: 00ec
ebac f0 02 84 BEQ  REL   A:ec X:02 Y:aa P:37 S:fb pc: ebb0, reg_addr: ebb0
ebb0 c8 a9 ff INY  IMPL  A:ec X:02 Y:aa P:37 S:fb pc: ebb1, reg_addr: 0000
ebb1 a9 ff 8d LDA  IMM   A:ec X:02 Y:ab P:b5 S:fb pc: ebb3, reg_addr: 00ff
ebb3 8d 47 06 STA  ABS   A:ff X:02 Y:ab P:b5 S:fb pc: ebb6, reg_addr: 0647
ebb6 20 c2 fa JSR  ABS   A:ff X:02 Y:ab P:b5 S:fb pc: fac2, reg_addr: fac2
fac2 b8 38 a9 CLV  IMPL  A:ff X:02 Y:ab P:b5 S:f9 pc: fac3, reg_addr: 0000
fac3 38 a9 ff SEC  IMPL  A:ff X:02 Y:ab P:b5 S:f9 pc: fac4, reg_addr: 0000
fac4 a9 ff 60 LDA  IMM   A:ff X:02 Y:ab P:b5 S:f9 pc: fac6, reg_addr: 00ff
fac6 60 70 1d RTS  IMPL  A:ff X:02 Y:ab P:b5 S:f9 pc: ebb9, reg_addr: 0000
ebb9 e3 45 ea ISB  INDX  A:ff X:02 Y:ab P:b5 S:fb pc: ebbb, reg_addr: 0647
ebbb ea ea ea NOP  IMPL  A:ff X:02 Y:ab P:b5 S:fb pc: ebbc, reg_addr: 0000
ebbc ea ea ea NOP  IMPL  A:ff X:02 Y:ab P:b5 S:fb pc: ebbd, reg_addr: 0000
ebbd ea ea 20 NOP  IMPL  A:ff X:02 Y:ab P:b5 S:fb pc: ebbe, reg_addr: 0000
ebbe ea 20 c7 NOP  IMPL  A:ff X:02 Y:ab P:b5 S:fb pc: ebbf, reg_addr: 0000
ebbf 20 c7 fa JSR  ABS   A:ff X:02 Y:ab P:b5 S:fb pc: fac7, reg_addr: fac7
fac7 70 1d f0 BVS  REL   A:ff X:02 Y:ab P:b5 S:f9 pc: fac9, reg_addr: fae6
fac9 f0 1b 10 BEQ  REL   A:ff X:02 Y:ab P:b5 S:f9 pc: facb, reg_addr: fae6
facb 10 19 90 BPL  REL   A:ff X:02 Y:ab P:b5 S:f9 pc: facd, reg_addr: fae6
facd 90 17 c9 BCC  REL   A:ff X:02 Y:ab P:b5 S:f9 pc: facf, reg_addr: fae6
facf c9 ff d0 CMP  IMM   A:ff X:02 Y:ab P:b5 S:f9 pc: fad1, reg_addr: 00ff
fad1 d0 13 60 BNE  REL   A:ff X:02 Y:ab P:37 S:f9 pc: fad3, reg_addr: fae6
fad3 60 24 01 RTS  IMPL  A:ff X:02 Y:ab P:37 S:f9 pc: ebc2, reg_addr: 0000
ebc2 ad 47 06 LDA  ABS   A:ff X:02 Y:ab P:37 S:fb pc: ebc5, reg_addr: 0647
ebc5 c9 00 f0 CMP  IMM   A:00 X:02 Y:ab P:37 S:fb pc: ebc7, reg_addr: 0000
ebc7 f0 02 84 BEQ  REL   A:00 X:02 Y:ab P:37 S:fb pc: ebcb, reg_addr: ebcb
ebcb c8 a9 37 INY  IMPL  A:00 X:02 Y:ab P:37 S:fb pc: ebcc, reg_addr: 0000
ebcc a9 37 8d LDA  IMM   A:00 X:02 Y:ac P:b5 S:fb pc: ebce, reg_addr: 0037
ebce 8d 47 06 STA  ABS   A:37 X:02 Y:ac P:35 S:fb pc: ebd1, reg_addr: 0647
ebd1 20 d4 fa JSR  ABS   A:37 X:02 Y:ac P:35 S:fb pc: fad4, reg_addr: fad4
fad4 24 01 38 BIT  ZP    A:37 X:02 Y:ac P:35 S:f9 pc: fad6, reg_addr: 0001
fad6 38 a9 f0 SEC  IMPL  A:37 X:02 Y:ac P:f5 S:f9 pc: fad7, reg_addr: 0000
fad7 a9 f0 60 LDA  IMM   A:37 X:02 Y:ac P:f5 S:f9 pc: fad9, reg_addr: 00f0
fad9 60 70 0a RTS  IMPL  A:f0 X:02 Y:ac P:f5 S:f9 pc: ebd4, reg_addr: 0000
ebd4 e3 45 ea ISB  INDX  A:f0 X:02 Y:ac P:f5 S:fb pc: ebd6, reg_addr: 0647
ebd6 ea ea ea NOP  IMPL  A:b8 X:02 Y:ac P:b5 S:fb pc: ebd7, reg_addr: 0000
ebd7 ea ea ea NOP  IMPL  A:b8 X:02 Y:ac P:b5 S:fb pc: ebd8, reg_addr: 0000
ebd8 ea ea 20 NOP  IMPL  A:b8 X:02 Y:ac P:b5 S:fb pc: ebd9, reg_addr: 0000
ebd9 ea 20 da NOP  IMPL  A:b8 X:02 Y:ac P:b5 S:fb pc: ebda, reg_addr: 0000
ebda 20 da fa JSR  ABS   A:b8 X:02 Y:ac P:b5 S:fb pc: fada, reg_addr: fada
fada 70 0a f0 BVS  REL   A:b8 X:02 Y:ac P:b5 S:f9 pc: fadc, reg_addr: fae6
fadc f0 08 10 BEQ  REL   A:b8 X:02 Y:ac P:b5 S:f9 pc: fade, reg_addr: fae6
fade 10 06 90 BPL  REL   A:b8 X:02 Y:ac P:b5 S:f9 pc: fae0, reg_addr: fae6
fae0 90 04 c9 BCC  REL   A:b8 X:02 Y:ac P:b5 S:f9 pc: fae2, reg_addr: fae6
fae2 c9 b8 f0 CMP  IMM   A:b8 X:02 Y:ac P:b5 S:f9 pc: fae4, reg_addr: 00b8
fae4 f0 02 84 BEQ  REL   A:b8 X:02 Y:ac P:37 S:f9 pc: fae8, reg_addr: fae8
fae8 60 24 01 RTS  IMPL  A:b8 X:02 Y:ac P:37 S:f9 pc: ebdd, reg_addr: 0000
ebdd ad 47 06 LDA  ABS   A:b8 X:02 Y:ac P:37 S:fb pc: ebe0, reg_addr: 0647
ebe0 c9 38 f0 CMP  IMM   A:38 X:02 Y:ac P:35 S:fb pc: ebe2, reg_addr: 0038
ebe2 f0 02 84 BEQ  REL   A:38 X:02 Y:ac P:37 S:fb pc: ebe6, reg_addr: ebe6
ebe6 c8 a9 eb INY  IMPL  A:38 X:02 Y:ac P:37 S:fb pc: ebe7, reg_addr: 0000
ebe7 a9 eb 85 LDA  IMM   A:38 X:02 Y:ad P:b5 S:fb pc: ebe9, reg_addr: 00eb
ebe9 85 47 20 STA  ZP    A:eb X:02 Y:ad P:b5 S:fb pc: ebeb, reg_addr: 0047
ebeb 20 b1 fa JSR  ABS   A:eb X:02 Y:ad P:b5 S:fb pc: fab1, reg_addr: fab1
fab1 24 01 18 BIT  ZP    A:eb X:02 Y:ad P:b5 S:f9 pc: fab3, reg_addr: 0001
fab3 18 a9 40 CLC  IMPL  A:eb X:02 Y:ad P:f5 S:f9 pc: fab4, reg_addr: 0000
fab4 a9 40 60 LDA  IMM   A:eb X:02 Y:ad P:f4 S:f9 pc: fab6, reg_addr: 0040
fab6 60 70 2d RTS  IMPL  A:40 X:02 Y:ad P:74 S:f9 pc: ebee, reg_addr: 0000
ebee e7 47 ea ISB  ZP    A:40 X:02 Y:ad P:74 S:fb pc: ebf0, reg_addr: 0047
ebf0 ea ea ea NOP  IMPL  A:53 X:02 Y:ad P:34 S:fb pc: ebf1, reg_addr: 0000
ebf1 ea ea ea NOP  IMPL  A:53 X:02 Y:ad P:34 S:fb pc: ebf2, reg_addr: 0000
ebf2 ea ea 20 NOP  IMPL  A:53 X:02 Y:ad P:34 S:fb pc: ebf3, reg_addr: 0000
ebf3 ea 20 b7 NOP  IMPL  A:53 X:02 Y:ad P:34 S:fb pc: ebf4, reg_addr: 0000
ebf4 20 b7 fa JSR  ABS   A:53 X:02 Y:ad P:34 S:fb pc: fab7, reg_addr: fab7
fab7 70 2d b0 BVS  REL   A:53 X:02 Y:ad P:34 S:f9 pc: fab9, reg_addr: fae6
fab9 b0 2b 30 BCS  REL   A:53 X:02 Y:ad P:34 S:f9 pc: fabb, reg_addr: fae6
fabb 30 29 c9 BMI  REL   A:53 X:02 Y:ad P:34 S:f9 pc: fabd, reg_addr: fae6
fabd c9 53 d0 CMP  IMM   A:53 X:02 Y:ad P:34 S:f9 pc: fabf, reg_addr: 0053
fabf d0 25 60 BNE  REL   A:53 X:02 Y:ad P:37 S:f9 pc: fac1, reg_addr: fae6
fac1 60 b8 38 RTS  IMPL  A:53 X:02 Y:ad P:37 S:f9 pc: ebf7, reg_addr: 0000
ebf7 a5 47 c9 LDA  ZP    A:53 X:02 Y:ad P:37 S:fb pc: ebf9, reg_addr: 0047
ebf9 c9 ec f0 CMP  IMM   A:ec X:02 Y:ad P:b5 S:fb pc: ebfb, reg_addr: 00ec
ebfb f0 02 84 BEQ  REL   A:ec X:02 Y:ad P:37 S:fb pc: ebff, reg_addr: ebff
ebff c8 a9 ff INY  IMPL  A:ec X:02 Y:ad P:37 S:fb pc: ec00, reg_addr: 0000
ec00 a9 ff 85 LDA  IMM   A:ec X:02 Y:ae P:b5 S:fb pc: ec02, reg_addr: 00ff
ec02 85 47 20 STA  ZP    A:ff X:02 Y:ae P:b5 S:fb pc: ec04, reg_addr: 0047
ec04 20 c2 fa JSR  ABS   A:ff X:02 Y:ae P:b5 S:fb pc: fac2, reg_addr: fac2
fac2 b8 38 a9 CLV  IMPL  A:ff X:02 Y:ae P:b5 S:f9 pc: fac3, reg_addr: 0000
fac3 38 a9 ff SEC  IMPL  A:ff X:02 Y:ae P:b5 S:f9 pc: fac4, reg_addr: 0000
fac4 a9 ff 60 LDA  IMM   A:ff X:02 Y:ae P:b5 S:f9 pc: fac6, reg_addr: 00ff
fac6 60 70 1d RTS  IMPL  A:ff X:02 Y:ae P:b5 S:f9 pc: ec07, reg_addr: 0000
ec07 e7 47 ea ISB  ZP    A:ff X:02 Y:ae P:b5 S:fb pc: ec09, reg_addr: 0047
ec09 ea ea ea NOP  IMPL  A:ff X:02 Y:ae P:b5 S:fb pc: ec0a, reg_addr: 0000
ec0a ea ea ea NOP  IMPL  A:ff X:02 Y:ae P:b5 S:fb pc: ec0b, reg_addr: 0000
ec0b ea ea 20 NOP  IMPL  A:ff X:02 Y:ae P:b5 S:fb pc: ec0c, reg_addr: 0000
ec0c ea 20 c7 NOP  IMPL  A:ff X:02 Y:ae P:b5 S:fb pc: ec0d, reg_addr: 0000
ec0d 20 c7 fa JSR  ABS   A:ff X:02 Y:ae P:b5 S:fb pc: fac7, reg_addr: fac7
fac7 70 1d f0 BVS  REL   A:ff X:02 Y:ae P:b5 S:f9 pc: fac9, reg_addr: fae6
fac9 f0 1b 10 BEQ  REL   A:ff X:02 Y:ae P:b5 S:f9 pc: facb, reg_addr: fae6
facb 10 19 90 BPL  REL   A:ff X:02 Y:ae P:b5 S:f9 pc: facd, reg_addr: fae6
facd 90 17 c9 BCC  REL   A:ff X:02 Y:ae P:b5 S:f9 pc: facf, reg_addr: fae6
facf c9 ff d0 CMP  IMM   A:ff X:02 Y:ae P:b5 S:f9 pc: fad1, reg_addr: 00ff
fad1 d0 13 60 BNE  REL   A:ff X:02 Y:ae P:37 S:f9 pc: fad3, reg_addr: fae6
fad3 60 24 01 RTS  IMPL  A:ff X:02 Y:ae P:37 S:f9 pc: ec10, reg_addr: 0000
ec10 a5 47 c9 LDA  ZP    A:ff X:02 Y:ae P:37 S:fb pc: ec12, reg_addr: 0047
ec12 c9 00 f0 CMP  IMM   A:00 X:02 Y:ae P:37 S:fb pc: ec14, reg_addr: 0000
ec14 f0 02 84 BEQ  REL   A:00 X:02 Y:ae P:37 S:fb pc: ec18, reg_addr: ec18
ec18 c8 a9 37 INY  IMPL  A:00 X:02 Y:ae P:37 S:fb pc: ec19, reg_addr: 0000
ec19 a9 37 85 LDA  IMM   A:00 X:02 Y:af P:b5 S:fb pc: ec1b, reg_addr: 0037
ec1b 85 47 20 STA  ZP    A:37 X:02 Y:af P:35 S:fb pc: ec1d, reg_addr: 0047
ec1d 20 d4 fa JSR  ABS   A:37 X:02 Y:af P:35 S:fb pc: fad4, reg_addr: fad4
fad4 24 01 38 BIT  ZP    A:37 X:02 Y:af P:35 S:f9 pc: fad6, reg_addr: 0001
fad6 38 a9 f0 SEC  IMPL  A:37 X:02 Y:af P:f5 S:f9 pc: fad7, reg_addr: 0000
fad7 a9 f0 60 LDA  IMM   A:37 X:02 Y:af P:f5 S:f9 pc: fad9, reg_addr: 00f0
fad9 60 70 0a RTS  IMPL  A:f0 X:02 Y:af P:f5 S:f9 pc: ec20, reg_addr: 0000
ec20 e7 47 ea ISB  ZP    A:f0 X:02 Y:af P:f5 S:fb pc: ec22, reg_addr: 0047
ec22 ea ea ea NOP  IMPL  A:b8 X:02 Y:af P:b5 S:fb pc: ec23, reg_addr: 0000
ec23 ea ea ea NOP  IMPL  A:b8 X:02 Y:af P:b5 S:fb pc: ec24, reg_addr: 0000
ec24 ea ea 20 NOP  IMPL  A:b8 X:02 Y:af P:b5 S:fb pc: ec25, reg_addr: 0000
ec25 ea 20 da NOP  IMPL  A:b8 X:02 Y:af P:b5 S:fb pc: ec26, reg_addr: 0000
ec26 20 da fa JSR  ABS   A:b8 X:02 Y:af P:b5 S:fb pc: fada, reg_addr: fada
fada 70 0a f0 BVS  REL   A:b8 X:02 Y:af P:b5 S:f9 pc: fadc, reg_addr: fae6
fadc f0 08 10 BEQ  REL   A:b8 X:02 Y:af P:b5 S:f9 pc: fade, reg_addr: fae6
fade 10 06 90 BPL  REL   A:b8 X:02 Y:af P:b5 S:f9 pc: fae0, reg_addr: fae6
fae0 90 04 c9 BCC  REL   A:b8 X:02 Y:af P:b5 S:f9 pc: fae2, reg_addr: fae6
fae2 c9 b8 f0 CMP  IMM   A:b8 X:02 Y:af P:b5 S:f9 pc: fae4, reg_addr: 00b8
fae4 f0 02 84 BEQ  REL   A:b8 X:02 Y:af P:37 S:f9 pc: fae8, reg_addr: fae8
fae8 60 24 01 RTS  IMPL  A:b8 X:02 Y:af P:37 S:f9 pc: ec29, reg_addr: 0000
ec29 a5 47 c9 LDA  ZP    A:b8 X:02 Y:af P:37 S:fb pc: ec2b, reg_addr: 0047
ec2b c9 38 f0 CMP  IMM   A:38 X:02 Y:af P:35 S:fb pc: ec2d, reg_addr: 0038
ec2d f0 02 84 BEQ  REL   A:38 X:02 Y:af P:37 S:fb pc: ec31, reg_addr: ec31
ec31 c8 a9 eb INY  IMPL  A:38 X:02 Y:af P:37 S:fb pc: ec32, reg_addr: 0000
ec32 a9 eb 8d LDA  IMM   A:38 X:02 Y:b0 P:b5 S:fb pc: ec34, reg_addr: 00eb
ec34 8d 47 06 STA  ABS   A:eb X:02 Y:b0 P:b5 S:fb pc: ec37, reg_addr: 0647
ec37 20 b1 fa JSR  ABS   A:eb X:02 Y:b0 P:b5 S:fb pc: fab1, reg_addr: fab1
fab1 24 01 18 BIT  ZP    A:eb X:02 Y:b0 P:b5 S:f9 pc: fab3, reg_addr: 0001
fab3 18 a9 40 CLC  IMPL  A:eb X:02 Y:b0 P:f5 S:f9 pc: fab4, reg_addr: 0000
fab4 a9 40 60 LDA  IMM   A:eb X:02 Y:b0 P:f4 S:f9 pc: fab6, reg_addr: 0040
fab6 60 70 2d RTS  IMPL  A:40 X:02 Y:b0 P:74 S:f9 pc: ec3a, reg_addr: 0000
ec3a ef 47 06 ISB  ABS   A:40 X:02 Y:b0 P:74 S:fb pc: ec3d, reg_addr: 0647
ec3d ea ea ea NOP  IMPL  A:53 X:02 Y:b0 P:34 S:fb pc: ec3e, reg_addr: 0000
ec3e ea ea ea NOP  IMPL  A:53 X:02 Y:b0 P:34 S:fb pc: ec3f, reg_addr: 0000
ec3f ea ea 20 NOP  IMPL  A:53 X:02 Y:b0 P:34 S:fb pc: ec40, reg_addr: 0000
ec40 ea 20 b7 NOP  IMPL  A:53 X:02 Y:b0 P:34 S:fb pc: ec41, reg_addr: 0000
ec41 20 b7 fa JSR  ABS   A:53 X:02 Y:b0 P:34 S:fb pc: fab7, reg_addr: fab7
fab7 70 2d b0 BVS  REL   A:53 X:02 Y:b0 P:34 S:f9 pc: fab9, reg_addr: fae6
fab9 b0 2b 30 BCS  REL   A:53 X:02 Y:b0 P:34 S:f9 pc: fabb, reg_addr: fae6
fabb 30 29 c9 BMI  REL   A:53 X:02 Y:b0 P:34 S:f9 pc: fabd, reg_addr: fae6
fabd c9 53 d0 CMP  IMM   A:53 X:02 Y:b0 P:34 S:f9 pc: fabf, reg_addr: 0053
fabf d0 25 60 BNE  REL   A:53 X:02 Y:b0 P:37 S:f9 pc: fac1, reg_addr: fae6
fac1 60 b8 38 RTS  IMPL  A:53 X:02 Y:b0 P:37 S:f9 pc: ec44, reg_addr: 0000
ec44 ad 47 06 LDA  ABS   A:53 X:02 Y:b0 P:37 S:fb pc: ec47, reg_addr: 0647
ec47 c9 ec f0 CMP  IMM   A:ec X:02 Y:b0 P:b5 S:fb pc: ec49, reg_addr: 00ec
ec49 f0 02 84 BEQ  REL   A:ec X:02 Y:b0 P:37 S:fb pc: ec4d, reg_addr: ec4d
ec4d c8 a9 ff INY  IMPL  A:ec X:02 Y:b0 P:37 S:fb pc: ec4e, reg_addr: 0000
ec4e a9 ff 8d LDA  IMM   A:ec X:02 Y:b1 P:b5 S:fb pc: ec50, reg_addr: 00ff
ec50 8d 47 06 STA  ABS   A:ff X:02 Y:b1 P:b5 S:fb pc: ec53, reg_addr: 0647
ec53 20 c2 fa JSR  ABS   A:ff X:02 Y:b1 P:b5 S:fb pc: fac2, reg_addr: fac2
fac2 b8 38 a9 CLV  IMPL  A:ff X:02 Y:b1 P:b5 S:f9 pc: fac3, reg_addr: 0000
fac3 38 a9 ff SEC  IMPL  A:ff X:02 Y:b1 P:b5 S:f9 pc: fac4, reg_addr: 0000
fac4 a9 ff 60 LDA  IMM   A:ff X:02 Y:b1 P:b5 S:f9 pc: fac6, reg_addr: 00ff
fac6 60 70 1d RTS  IMPL  A:ff X:02 Y:b1 P:b5 S:f9 pc: ec56, reg_addr: 0000
ec56 ef 47 06 ISB  ABS   A:ff X:02 Y:b1 P:b5 S:fb pc: ec59, reg_addr: 0647
ec59 ea ea ea NOP  IMPL  A:ff X:02 Y:b1 P:b5 S:fb pc: ec5a, reg_addr: 0000
ec5a ea ea ea NOP  IMPL  A:ff X:02 Y:b1 P:b5 S:fb pc: ec5b, reg_addr: 0000
ec5b ea ea 20 NOP  IMPL  A:ff X:02 Y:b1 P:b5 S:fb pc: ec5c, reg_addr: 0000
ec5c ea 20 c7 NOP  IMPL  A:ff X:02 Y:b1 P:b5 S:fb pc: ec5d, reg_addr: 0000
ec5d 20 c7 fa JSR  ABS   A:ff X:02 Y:b1 P:b5 S:fb pc: fac7, reg_addr: fac7
fac7 70 1d f0 BVS  REL   A:ff X:02 Y:b1 P:b5 S:f9 pc: fac9, reg_addr: fae6
fac9 f0 1b 10 BEQ  REL   A:ff X:02 Y:b1 P:b5 S:f9 pc: facb, reg_addr: fae6
facb 10 19 90 BPL  REL   A:ff X:02 Y:b1 P:b5 S:f9 pc: facd, reg_addr: fae6
facd 90 17 c9 BCC  REL   A:ff X:02 Y:b1 P:b5 S:f9 pc: facf, reg_addr: fae6
facf c9 ff d0 CMP  IMM   A:ff X:02 Y:b1 P:b5 S:f9 pc: fad1, reg_addr: 00ff
fad1 d0 13 60 BNE  REL   A:ff X:02 Y:b1 P:37 S:f9 pc: fad3, reg_addr: fae6
fad3 60 24 01 RTS  IMPL  A:ff X:02 Y:b1 P:37 S:f9 pc: ec60, reg_addr: 0000
ec60 ad 47 06 LDA  ABS   A:ff X:02 Y:b1 P:37 S:fb pc: ec63, reg_addr: 0647
ec63 c9 00 f0 CMP  IMM   A:00 X:02 Y:b1 P:37 S:fb pc: ec65, reg_addr: 0000
ec65 f0 02 84 BEQ  REL   A:00 X:02 Y:b1 P:37 S:fb pc: ec69, reg_addr: ec69
ec69 c8 a9 37 INY  IMPL  A:00 X:02 Y:b1 P:37 S:fb pc: ec6a, reg_addr: 0000
ec6a a9 37 8d LDA  IMM   A:00 X:02 Y:b2 P:b5 S:fb pc: ec6c, reg_addr: 0037
ec6c 8d 47 06 STA  ABS   A:37 X:02 Y:b2 P:35 S:fb pc: ec6f, reg_addr: 0647
ec6f 20 d4 fa JSR  ABS   A:37 X:02 Y:b2 P:35 S:fb pc: fad4, reg_addr: fad4
fad4 24 01 38 BIT  ZP    A:37 X:02 Y:b2 P:35 S:f9 pc: fad6, reg_addr: 0001
fad6 38 a9 f0 SEC  IMPL  A:37 X:02 Y:b2 P:f5 S:f9 pc: fad7, reg_addr: 0000
fad7 a9 f0 60 LDA  IMM   A:37 X:02 Y:b2 P:f5 S:f9 pc: fad9, reg_addr: 00f0
fad9 60 70 0a RTS  IMPL  A:f0 X:02 Y:b2 P:f5 S:f9 pc: ec72, reg_addr: 0000
ec72 ef 47 06 ISB  ABS   A:f0 X:02 Y:b2 P:f5 S:fb pc: ec75, reg_addr: 0647
ec75 ea ea ea NOP  IMPL  A:b8 X:02 Y:b2 P:b5 S:fb pc: ec76, reg_addr: 0000
ec76 ea ea ea NOP  IMPL  A:b8 X:02 Y:b2 P:b5 S:fb pc: ec77, reg_addr: 0000
ec77 ea ea 20 NOP  IMPL  A:b8 X:02 Y:b2 P:b5 S:fb pc: ec78, reg_addr: 0000
ec78 ea 20 da NOP  IMPL  A:b8 X:02 Y:b2 P:b5 S:fb pc: ec79, reg_addr: 0000
ec79 20 da fa JSR  ABS   A:b8 X:02 Y:b2 P:b5 S:fb pc: fada, reg_addr: fada
fada 70 0a f0 BVS  REL   A:b8 X:02 Y:b2 P:b5 S:f9 pc: fadc, reg_addr: fae6
fadc f0 08 10 BEQ  REL   A:b8 X:02 Y:b2 P:b5 S:f9 pc: fade, reg_addr: fae6
fade 10 06 90 BPL  REL   A:b8 X:02 Y:b2 P:b5 S:f9 pc: fae0, reg_addr: fae6
fae0 90 04 c9 BCC  REL   A:b8 X:02 Y:b2 P:b5 S:f9 pc: fae2, reg_addr: fae6
fae2 c9 b8 f0 CMP  IMM   A:b8 X:02 Y:b2 P:b5 S:f9 pc: fae4, reg_addr: 00b8
fae4 f0 02 84 BEQ  REL   A:b8 X:02 Y:b2 P:37 S:f9 pc: fae8, reg_addr: fae8
fae8 60 24 01 RTS  IMPL  A:b8 X:02 Y:b2 P:37 S:f9 pc: ec7c, reg_addr: 0000
ec7c ad 47 06 LDA  ABS   A:b8 X:02 Y:b2 P:37 S:fb pc: ec7f, reg_addr: 0647
ec7f c9 38 f0 CMP  IMM   A:38 X:02 Y:b2 P:35 S:fb pc: ec81, reg_addr: 0038
ec81 f0 02 84 BEQ  REL   A:38 X:02 Y:b2 P:37 S:fb pc: ec85, reg_addr: ec85
ec85 a9 eb 8d LDA  IMM   A:38 X:02 Y:b2 P:37 S:fb pc: ec87, reg_addr: 00eb
ec87 8d 47 06 STA  ABS   A:eb X:02 Y:b2 P:b5 S:fb pc: ec8a, reg_addr: 0647
ec8a a9 48 85 LDA  IMM   A:eb X:02 Y:b2 P:b5 S:fb pc: ec8c, reg_addr: 0048
ec8c 85 45 a9 STA  ZP    A:48 X:02 Y:b2 P:35 S:fb pc: ec8e, reg_addr: 0045
ec8e a9 05 85 LDA  IMM   A:48 X:02 Y:b2 P:35 S:fb pc: ec90, reg_addr: 0005
ec90 85 46 a0 STA  ZP    A:05 X:02 Y:b2 P:35 S:fb pc: ec92, reg_addr: 0046
ec92 a0 ff 20 LDY  IMM   A:05 X:02 Y:b2 P:35 S:fb pc: ec94, reg_addr: 00ff
ec94 20 b1 fa JSR  ABS   A:05 X:02 Y:ff P:b5 S:fb pc: fab1, reg_addr: fab1
fab1 24 01 18 BIT  ZP    A:05 X:02 Y:ff P:b5 S:f9 pc: fab3, reg_addr: 0001
fab3 18 a9 40 CLC  IMPL  A:05 X:02 Y:ff P:f5 S:f9 pc: fab4, reg_addr: 0000
fab4 a9 40 60 LDA  IMM   A:05 X:02 Y:ff P:f4 S:f9 pc: fab6, reg_addr: 0040
fab6 60 70 2d RTS  IMPL  A:40 X:02 Y:ff P:74 S:f9 pc: ec97, reg_addr: 0000
ec97 f3 45 ea ISB  INDY  A:40 X:02 Y:ff P:74 S:fb pc: ec99, reg_addr: 0647
ec99 ea ea 08 NOP  IMPL  A:53 X:02 Y:ff P:34 S:fb pc: ec9a, reg_addr: 0000
ec9a ea 08 48 NOP  IMPL  A:53 X:02 Y:ff P:34 S:fb pc: ec9b, reg_addr: 0000
ec9b 08 48 a0 PHP  IMPL  A:53 X:02 Y:ff P:34 S:fb pc: ec9c, reg_addr: 0000
ec9c 48 a0 b3 PHA  IMPL  A:53 X:02 Y:ff P:34 S:fa pc: ec9d, reg_addr: 0000
ec9d a0 b3 68 LDY  IMM   A:53 X:02 Y:ff P:34 S:f9 pc: ec9f, reg_addr: 00b3
ec9f 68 28 20 PLA  IMPL  A:53 X:02 Y:b3 P:b4 S:f9 pc: eca0, reg_addr: 0000
eca0 28 20 b7 PLP  IMPL  A:53 X:02 Y:b3 P:34 S:fa pc: eca1, reg_addr: 0000
eca1 20 b7 fa JSR  ABS   A:53 X:02 Y:b3 P:34 S:fb pc: fab7, reg_addr: fab7
fab7 70 2d b0 BVS  REL   A:53 X:02 Y:b3 P:34 S:f9 pc: fab9, reg_addr: fae6
fab9 b0 2b 30 BCS  REL   A:53 X:02 Y:b3 P:34 S:f9 pc: fabb, reg_addr: fae6
fabb 30 29 c9 BMI  REL   A:53 X:02 Y:b3 P:34 S:f9 pc: fabd, reg_addr: fae6
fabd c9 53 d0 CMP  IMM   A:53 X:02 Y:b3 P:34 S:f9 pc: fabf, reg_addr: 0053
fabf d0 25 60 BNE  REL   A:53 X:02 Y:b3 P:37 S:f9 pc: fac1, reg_addr: fae6
fac1 60 b8 38 RTS  IMPL  A:53 X:02 Y:b3 P:37 S:f9 pc: eca4, reg_addr: 0000
eca4 ad 47 06 LDA  ABS   A:53 X:02 Y:b3 P:37 S:fb pc: eca7, reg_addr: 0647
eca7 c9 ec f0 CMP  IMM   A:ec X:02 Y:b3 P:b5 S:fb pc: eca9, reg_addr: 00ec
eca9 f0 02 84 BEQ  REL   A:ec X:02 Y:b3 P:37 S:fb pc: ecad, reg_addr: ecad
ecad a0 ff a9 LDY  IMM   A:ec X:02 Y:b3 P:37 S:fb pc: ecaf, reg_addr: 00ff
ecaf a9 ff 8d LDA  IMM   A:ec X:02 Y:ff P:b5 S:fb pc: ecb1, reg_addr: 00ff
ecb1 8d 47 06 STA  ABS   A:ff X:02 Y:ff P:b5 S:fb pc: ecb4, reg_addr: 0647
ecb4 20 c2 fa JSR  ABS   A:ff X:02 Y:ff P:b5 S:fb pc: fac2, reg_addr: fac2
fac2 b8 38 a9 CLV  IMPL  A:ff X:02 Y:ff P:b5 S:f9 pc: fac3, reg_addr: 0000
fac3 38 a9 ff SEC  IMPL  A:ff X:02 Y:ff P:b5 S:f9 pc: fac4, reg_addr: 0000
fac4 a9 ff 60 LDA  IMM   A:ff X:02 Y:ff P:b5 S:f9 pc: fac6, reg_addr: 00ff
fac6 60 70 1d RTS  IMPL  A:ff X:02 Y:ff P:b5 S:f9 pc: ecb7, reg_addr: 0000
ecb7 f3 45 ea ISB  INDY  A:ff X:02 Y:ff P:b5 S:fb pc: ecb9, reg_addr: 0647
ecb9 ea ea 08 NOP  IMPL  A:ff X:02 Y:ff P:b5 S:fb pc: ecba, reg_addr: 0000
ecba ea 08 48 NOP  IMPL  A:ff X:02 Y:ff P:b5 S:fb pc: ecbb, reg_addr: 0000
ecbb 08 48 a0 PHP  IMPL  A:ff X:02 Y:ff P:b5 S:fb pc: ecbc, reg_addr: 0000
ecbc 48 a0 b4 PHA  IMPL  A:ff X:02 Y:ff P:b5 S:fa pc: ecbd, reg_addr: 0000
ecbd a0 b4 68 LDY  IMM   A:ff X:02 Y:ff P:b5 S:f9 pc: ecbf, reg_addr: 00b4
ecbf 68 28 20 PLA  IMPL  A:ff X:02 Y:b4 P:b5 S:f9 pc: ecc0, reg_addr: 0000
ecc0 28 20 c7 PLP  IMPL  A:ff X:02 Y:b4 P:b5 S:fa pc: ecc1, reg_addr: 0000
ecc1 20 c7 fa JSR  ABS   A:ff X:02 Y:b4 P:b5 S:fb pc: fac7, reg_addr: fac7
fac7 70 1d f0 BVS  REL   A:ff X:02 Y:b4 P:b5 S:f9 pc: fac9, reg_addr: fae6
fac9 f0 1b 10 BEQ  REL   A:ff X:02 Y:b4 P:b5 S:f9 pc: facb, reg_addr: fae6
facb 10 19 90 BPL  REL   A:ff X:02 Y:b4 P:b5 S:f9 pc: facd, reg_addr: fae6
facd 90 17 c9 BCC  REL   A:ff X:02 Y:b4 P:b5 S:f9 pc: facf, reg_addr: fae6
facf c9 ff d0 CMP  IMM   A:ff X:02 Y:b4 P:b5 S:f9 pc: fad1, reg_addr: 00ff
fad1 d0 13 60 BNE  REL   A:ff X:02 Y:b4 P:37 S:f9 pc: fad3, reg_addr: fae6
fad3 60 24 01 RTS  IMPL  A:ff X:02 Y:b4 P:37 S:f9 pc: ecc4, reg_addr: 0000
ecc4 ad 47 06 LDA  ABS   A:ff X:02 Y:b4 P:37 S:fb pc: ecc7, reg_addr: 0647
ecc7 c9 00 f0 CMP  IMM   A:00 X:02 Y:b4 P:37 S:fb pc: ecc9, reg_addr: 0000
ecc9 f0 02 84 BEQ  REL   A:00 X:02 Y:b4 P:37 S:fb pc: eccd, reg_addr: eccd
eccd a0 ff a9 LDY  IMM   A:00 X:02 Y:b4 P:37 S:fb pc: eccf, reg_addr: 00ff
eccf a9 37 8d LDA  IMM   A:00 X:02 Y:ff P:b5 S:fb pc: ecd1, reg_addr: 0037
ecd1 8d 47 06 STA  ABS   A:37 X:02 Y:ff P:35 S:fb pc: ecd4, reg_addr: 0647
ecd4 20 d4 fa JSR  ABS   A:37 X:02 Y:ff P:35 S:fb pc: fad4, reg_addr: fad4
fad4 24 01 38 BIT  ZP    A:37 X:02 Y:ff P:35 S:f9 pc: fad6, reg_addr: 0001
fad6 38 a9 f0 SEC  IMPL  A:37 X:02 Y:ff P:f5 S:f9 pc: fad7, reg_addr: 0000
fad7 a9 f0 60 LDA  IMM   A:37 X:02 Y:ff P:f5 S:f9 pc: fad9, reg_addr: 00f0
fad9 60 70 0a RTS  IMPL  A:f0 X:02 Y:ff P:f5 S:f9 pc: ecd7, reg_addr: 0000
ecd7 f3 45 ea ISB  INDY  A:f0 X:02 Y:ff P:f5 S:fb pc: ecd9, reg_addr: 0647
ecd9 ea ea 08 NOP  IMPL  A:b8 X:02 Y:ff P:b5 S:fb pc: ecda, reg_addr: 0000
ecda ea 08 48 NOP  IMPL  A:b8 X:02 Y:ff P:b5 S:fb pc: ecdb, reg_addr: 0000
ecdb 08 48 a0 PHP  IMPL  A:b8 X:02 Y:ff P:b5 S:fb pc: ecdc, reg_addr: 0000
ecdc 48 a0 b5 PHA  IMPL  A:b8 X:02 Y:ff P:b5 S:fa pc: ecdd, reg_addr: 0000
ecdd a0 b5 68 LDY  IMM   A:b8 X:02 Y:ff P:b5 S:f9 pc: ecdf, reg_addr: 00b5
ecdf 68 28 20 PLA  IMPL  A:b8 X:02 Y:b5 P:b5 S:f9 pc: ece0, reg_addr: 0000
ece0 28 20 da PLP  IMPL  A:b8 X:02 Y:b5 P:b5 S:fa pc: ece1, reg_addr: 0000
ece1 20 da fa JSR  ABS   A:b8 X:02 Y:b5 P:b5 S:fb pc: fada, reg_addr: fada
fada 70 0a f0 BVS  REL   A:b8 X:02 Y:b5 P:b5 S:f9 pc: fadc, reg_addr: fae6
fadc f0 08 10 BEQ  REL   A:b8 X:02 Y:b5 P:b5 S:f9 pc: fade, reg_addr: fae6
fade 10 06 90 BPL  REL   A:b8 X:02 Y:b5 P:b5 S:f9 pc: fae0, reg_addr: fae6
fae0 90 04 c9 BCC  REL   A:b8 X:02 Y:b5 P:b5 S:f9 pc: fae2, reg_addr: fae6
fae2 c9 b8 f0 CMP  IMM   A:b8 X:02 Y:b5 P:b5 S:f9 pc: fae4, reg_addr: 00b8
fae4 f0 02 84 BEQ  REL   A:b8 X:02 Y:b5 P:37 S:f9 pc: fae8, reg_addr: fae8
fae8 60 24 01 RTS  IMPL  A:b8 X:02 Y:b5 P:37 S:f9 pc: ece4, reg_addr: 0000
ece4 ad 47 06 LDA  ABS   A:b8 X:02 Y:b5 P:37 S:fb pc: ece7, reg_addr: 0647
ece7 c9 38 f0 CMP  IMM   A:38 X:02 Y:b5 P:35 S:fb pc: ece9, reg_addr: 0038
ece9 f0 02 84 BEQ  REL   A:38 X:02 Y:b5 P:37 S:fb pc: eced, reg_addr: eced
eced a0 b6 a2 LDY  IMM   A:38 X:02 Y:b5 P:37 S:fb pc: ecef, reg_addr: 00b6
ecef a2 ff a9 LDX  IMM   A:38 X:02 Y:b6 P:b5 S:fb pc: ecf1, reg_addr: 00ff
ecf1 a9 eb 85 LDA  IMM   A:38 X:ff Y:b6 P:b5 S:fb pc: ecf3, reg_addr: 00eb
ecf3 85 47 20 STA  ZP    A:eb X:ff Y:b6 P:b5 S:fb pc: ecf5, reg_addr: 0047
ecf5 20 b1 fa JSR  ABS   A:eb X:ff Y:b6 P:b5 S:fb pc: fab1, reg_addr: fab1
fab1 24 01 18 BIT  ZP    A:eb X:ff Y:b6 P:b5 S:f9 pc: fab3, reg_addr: 0001
fab3 18 a9 40 CLC  IMPL  A:eb X:ff Y:b6 P:f5 S:f9 pc: fab4, reg_addr: 0000
fab4 a9 40 60 LDA  IMM   A:eb X:ff Y:b6 P:f4 S:f9 pc: fab6, reg_addr: 0040
fab6 60 70 2d RTS  IMPL  A:40 X:ff Y:b6 P:74 S:f9 pc: ecf8, reg_addr: 0000
ecf8 f7 48 ea ISB  ZPX   A:40 X:ff Y:b6 P:74 S:fb pc: ecfa, reg_addr: 0047
ecfa ea ea ea NOP  IMPL  A:53 X:ff Y:b6 P:34 S:fb pc: ecfb, reg_addr: 0000
ecfb ea ea ea NOP  IMPL  A:53 X:ff Y:b6 P:34 S:fb pc: ecfc, reg_addr: 0000
ecfc ea ea 20 NOP  IMPL  A:53 X:ff Y:b6 P:34 S:fb pc: ecfd, reg_addr: 0000
ecfd ea 20 b7 NOP  IMPL  A:53 X:ff Y:b6 P:34 S:fb pc: ecfe, reg_addr: 0000
ecfe 20 b7 fa JSR  ABS   A:53 X:ff Y:b6 P:34 S:fb pc: fab7, reg_addr: fab7
fab7 70 2d b0 BVS  REL   A:53 X:ff Y:b6 P:34 S:f9 pc: fab9, reg_addr: fae6
fab9 b0 2b 30 BCS  REL   A:53 X:ff Y:b6 P:34 S:f9 pc: fabb, reg_addr: fae6
fabb 30 29 c9 BMI  REL   A:53 X:ff Y:b6 P:34 S:f9 pc: fabd, reg_addr: fae6
fabd c9 53 d0 CMP  IMM   A:53 X:ff Y:b6 P:34 S:f9 pc: fabf, reg_addr: 0053
fabf d0 25 60 BNE  REL   A:53 X:ff Y:b6 P:37 S:f9 pc: fac1, reg_addr: fae6
fac1 60 b8 38 RTS  IMPL  A:53 X:ff Y:b6 P:37 S:f9 pc: ed01, reg_addr: 0000
ed01 a5 47 c9 LDA  ZP    A:53 X:ff Y:b6 P:37 S:fb pc: ed03, reg_addr: 0047
ed03 c9 ec f0 CMP  IMM   A:ec X:ff Y:b6 P:b5 S:fb pc: ed05, reg_addr: 00ec
ed05 f0 02 84 BEQ  REL   A:ec X:ff Y:b6 P:37 S:fb pc: ed09, reg_addr: ed09
ed09 c8 a9 ff INY  IMPL  A:ec X:ff Y:b6 P:37 S:fb pc: ed0a, reg_addr: 0000
ed0a a9 ff 85 LDA  IMM   A:ec X:ff Y:b7 P:b5 S:fb pc: ed0c, reg_addr: 00ff
ed0c 85 47 20 STA  ZP    A:ff X:ff Y:b7 P:b5 S:fb pc: ed0e, reg_addr: 0047
ed0e 20 c2 fa JSR  ABS   A:ff X:ff Y:b7 P:b5 S:fb pc: fac2, reg_addr: fac2
fac2 b8 38 a9 CLV  IMPL  A:ff X:ff Y:b7 P:b5 S:f9 pc: fac3, reg_addr: 0000
fac3 38 a9 ff SEC  IMPL  A:ff X:ff Y:b7 P:b5 S:f9 pc: fac4, reg_addr: 0000
fac4 a9 ff 60 LDA  IMM   A:ff X:ff Y:b7 P:b5 S:f9 pc: fac6, reg_addr: 00ff
fac6 60 70 1d RTS  IMPL  A:ff X:ff Y:b7 P:b5 S:f9 pc: ed11, reg_addr: 0000
ed11 f7 48 ea ISB  ZPX   A:ff X:ff Y:b7 P:b5 S:fb pc: ed13, reg_addr: 0047
ed13 ea ea ea NOP  IMPL  A:ff X:ff Y:b7 P:b5 S:fb pc: ed14, reg_addr: 0000
ed14 ea ea ea NOP  IMPL  A:ff X:ff Y:b7 P:b5 S:fb pc: ed15, reg_addr: 0000
ed15 ea ea 20 NOP  IMPL  A:ff X:ff Y:b7 P:b5 S:fb pc: ed16, reg_addr: 0000
ed16 ea 20 c7 NOP  IMPL  A:ff X:ff Y:b7 P:b5 S:fb pc: ed17, reg_addr: 0000
ed17 20 c7 fa JSR  ABS   A:ff X:ff Y:b7 P:b5 S:fb pc: fac7, reg_addr: fac7
fac7 70 1d f0 BVS  REL   A:ff X:ff Y:b7 P:b5 S:f9 pc: fac9, reg_addr: fae6
fac9 f0 1b 10 BEQ  REL   A:ff X:ff Y:b7 P:b5 S:f9 pc: facb, reg_addr: fae6
facb 10 19 90 BPL  REL   A:ff X:ff Y:b7 P:b5 S:f9 pc: facd, reg_addr: fae6
facd 90 17 c9 BCC  REL   A:ff X:ff Y:b7 P:b5 S:f9 pc: facf, reg_addr: fae6
facf c9 ff d0 CMP  IMM   A:ff X:ff Y:b7 P:b5 S:f9 pc: fad1, reg_addr: 00ff
fad1 d0 13 60 BNE  REL   A:ff X:ff Y:b7 P:37 S:f9 pc: fad3, reg_addr: fae6
fad3 60 24 01 RTS  IMPL  A:ff X:ff Y:b7 P:37 S:f9 pc: ed1a, reg_addr: 0000
ed1a a5 47 c9 LDA  ZP    A:ff X:ff Y:b7 P:37 S:fb pc: ed1c, reg_addr: 0047
ed1c c9 00 f0 CMP  IMM   A:00 X:ff Y:b7 P:37 S:fb pc: ed1e, reg_addr: 0000
ed1e f0 02 84 BEQ  REL   A:00 X:ff Y:b7 P:37 S:fb pc: ed22, reg_addr: ed22
ed22 c8 a9 37 INY  IMPL  A:00 X:ff Y:b7 P:37 S:fb pc: ed23, reg_addr: 0000
ed23 a9 37 85 LDA  IMM   A:00 X:ff Y:b8 P:b5 S:fb pc: ed25, reg_addr: 0037
ed25 85 47 20 STA  ZP    A:37 X:ff Y:b8 P:35 S:fb pc: ed27, reg_addr: 0047
ed27 20 d4 fa JSR  ABS   A:37 X:ff Y:b8 P:35 S:fb pc: fad4, reg_addr: fad4
fad4 24 01 38 BIT  ZP    A:37 X:ff Y:b8 P:35 S:f9 pc: fad6, reg_addr: 0001
fad6 38 a9 f0 SEC  IMPL  A:37 X:ff Y:b8 P:f5 S:f9 pc: fad7, reg_addr: 0000
fad7 a9 f0 60 LDA  IMM   A:37 X:ff Y:b8 P:f5 S:f9 pc: fad9, reg_addr: 00f0
fad9 60 70 0a RTS  IMPL  A:f0 X:ff Y:b8 P:f5 S:f9 pc: ed2a, reg_addr: 0000
ed2a f7 48 ea ISB  ZPX   A:f0 X:ff Y:b8 P:f5 S:fb pc: ed2c, reg_addr: 0047
ed2c ea ea ea NOP  IMPL  A:b8 X:ff Y:b8 P:b5 S:fb pc: ed2d, reg_addr: 0000
ed2d ea ea ea NOP  IMPL  A:b8 X:ff Y:b8 P:b5 S:fb pc: ed2e, reg_addr: 0000
ed2e ea ea 20 NOP  IMPL  A:b8 X:ff Y:b8 P:b5 S:fb pc: ed2f, reg_addr: 0000
ed2f ea 20 da NOP  IMPL  A:b8 X:ff Y:b8 P:b5 S:fb pc: ed30, reg_addr: 0000
ed30 20 da fa JSR  ABS   A:b8 X:ff Y:b8 P:b5 S:fb pc: fada, reg_addr: fada
fada 70 0a f0 BVS  REL   A:b8 X:ff Y:b8 P:b5 S:f9 pc: fadc, reg_addr: fae6
fadc f0 08 10 BEQ  REL   A:b8 X:ff Y:b8 P:b5 S:f9 pc: fade, reg_addr: fae6
fade 10 06 90 BPL  REL   A:b8 X:ff Y:b8 P:b5 S:f9 pc: fae0, reg_addr: fae6
fae0 90 04 c9 BCC  REL   A:b8 X:ff Y:b8 P:b5 S:f9 pc: fae2, reg_addr: fae6
fae2 c9 b8 f0 CMP  IMM   A:b8 X:ff Y:b8 P:b5 S:f9 pc: fae4, reg_addr: 00b8
fae4 f0 02 84 BEQ  REL   A:b8 X:ff Y:b8 P:37 S:f9 pc: fae8, reg_addr: fae8
fae8 60 24 01 RTS  IMPL  A:b8 X:ff Y:b8 P:37 S:f9 pc: ed33, reg_addr: 0000
ed33 a5 47 c9 LDA  ZP    A:b8 X:ff Y:b8 P:37 S:fb pc: ed35, reg_addr: 0047
ed35 c9 38 f0 CMP  IMM   A:38 X:ff Y:b8 P:35 S:fb pc: ed37, reg_addr: 0038
ed37 f0 02 84 BEQ  REL   A:38 X:ff Y:b8 P:37 S:fb pc: ed3b, reg_addr: ed3b
ed3b a9 eb 8d LDA  IMM   A:38 X:ff Y:b8 P:37 S:fb pc: ed3d, reg_addr: 00eb
ed3d 8d 47 06 STA  ABS   A:eb X:ff Y:b8 P:b5 S:fb pc: ed40, reg_addr: 0647
ed40 a0 ff 20 LDY  IMM   A:eb X:ff Y:b8 P:b5 S:fb pc: ed42, reg_addr: 00ff
ed42 20 b1 fa JSR  ABS   A:eb X:ff Y:ff P:b5 S:fb pc: fab1, reg_addr: fab1
fab1 24 01 18 BIT  ZP    A:eb X:ff Y:ff P:b5 S:f9 pc: fab3, reg_addr: 0001
fab3 18 a9 40 CLC  IMPL  A:eb X:ff Y:ff P:f5 S:f9 pc: fab4, reg_addr: 0000
fab4 a9 40 60 LDA  IMM   A:eb X:ff Y:ff P:f4 S:f9 pc: fab6, reg_addr: 0040
fab6 60 70 2d RTS  IMPL  A:40 X:ff Y:ff P:74 S:f9 pc: ed45, reg_addr: 0000
ed45 fb 48 05 ISB  ABSY  A:40 X:ff Y:ff P:74 S:fb pc: ed48, reg_addr: 0647
ed48 ea ea 08 NOP  IMPL  A:53 X:ff Y:ff P:34 S:fb pc: ed49, reg_addr: 0000
ed49 ea 08 48 NOP  IMPL  A:53 X:ff Y:ff P:34 S:fb pc: ed4a, reg_addr: 0000
ed4a 08 48 a0 PHP  IMPL  A:53 X:ff Y:ff P:34 S:fb pc: ed4b, reg_addr: 0000
ed4b 48 a0 b9 PHA  IMPL  A:53 X:ff Y:ff P:34 S:fa pc: ed4c, reg_addr: 0000
ed4c a0 b9 68 LDY  IMM   A:53 X:ff Y:ff P:34 S:f9 pc: ed4e, reg_addr: 00b9
ed4e 68 28 20 PLA  IMPL  A:53 X:ff Y:b9 P:b4 S:f9 pc: ed4f, reg_addr: 0000
ed4f 28 20 b7 PLP  IMPL  A:53 X:ff Y:b9 P:34 S:fa pc: ed50, reg_addr: 0000
ed50 20 b7 fa JSR  ABS   A:53 X:ff Y:b9 P:34 S:fb pc: fab7, reg_addr: fab7
fab7 70 2d b0 BVS  REL   A:53 X:ff Y:b9 P:34 S:f9 pc: fab9, reg_addr: fae6
fab9 b0 2b 30 BCS  REL   A:53 X:ff Y:b9 P:34 S:f9 pc: fabb, reg_addr: fae6
fabb 30 29 c9 BMI  REL   A:53 X:ff Y:b9 P:34 S:f9 pc: fabd, reg_addr: fae6
fabd c9 53 d0 CMP  IMM   A:53 X:ff Y:b9 P:34 S:f9 pc: fabf, reg_addr: 0053
fabf d0 25 60 BNE  REL   A:53 X:ff Y:b9 P:37 S:f9 pc: fac1, reg_addr: fae6
fac1 60 b8 38 RTS  IMPL  A:53 X:ff Y:b9 P:37 S:f9 pc: ed53, reg_addr: 0000
ed53 ad 47 06 LDA  ABS   A:53 X:ff Y:b9 P:37 S:fb pc: ed56, reg_addr: 0647
ed56 c9 ec f0 CMP  IMM   A:ec X:ff Y:b9 P:b5 S:fb pc: ed58, reg_addr: 00ec
ed58 f0 02 84 BEQ  REL   A:ec X:ff Y:b9 P:37 S:fb pc: ed5c, reg_addr: ed5c
ed5c a0 ff a9 LDY  IMM   A:ec X:ff Y:b9 P:37 S:fb pc: ed5e, reg_addr: 00ff
ed5e a9 ff 8d LDA  IMM   A:ec X:ff Y:ff P:b5 S:fb pc: ed60, reg_addr: 00ff
ed60 8d 47 06 STA  ABS   A:ff X:ff Y:ff P:b5 S:fb pc: ed63, reg_addr: 0647
ed63 20 c2 fa JSR  ABS   A:ff X:ff Y:ff P:b5 S:fb pc: fac2, reg_addr: fac2
fac2 b8 38 a9 CLV  IMPL  A:ff X:ff Y:ff P:b5 S:f9 pc: fac3, reg_addr: 0000
fac3 38 a9 ff SEC  IMPL  A:ff X:ff Y:ff P:b5 S:f9 pc: fac4, reg_addr: 0000
fac4 a9 ff 60 LDA  IMM   A:ff X:ff Y:ff P:b5 S:f9 pc: fac6, reg_addr: 00ff
fac6 60 70 1d RTS  IMPL  A:ff X:ff Y:ff P:b5 S:f9 pc: ed66, reg_addr: 0000
ed66 fb 48 05 ISB  ABSY  A:ff X:ff Y:ff P:b5 S:fb pc: ed69, reg_addr: 0647
ed69 ea ea 08 NOP  IMPL  A:ff X:ff Y:ff P:b5 S:fb pc: ed6a, reg_addr: 0000
ed6a ea 08 48 NOP  IMPL  A:ff X:ff Y:ff P:b5 S:fb pc: ed6b, reg_addr: 0000
ed6b 08 48 a0 PHP  IMPL  A:ff X:ff Y:ff P:b5 S:fb pc: ed6c, reg_addr: 0000
ed6c 48 a0 ba PHA  IMPL  A:ff X:ff Y:ff P:b5 S:fa pc: ed6d, reg_addr: 0000
ed6d a0 ba 68 LDY  IMM   A:ff X:ff Y:ff P:b5 S:f9 pc: ed6f, reg_addr: 00ba
ed6f 68 28 20 PLA  IMPL  A:ff X:ff Y:ba P:b5 S:f9 pc: ed70, reg_addr: 0000
ed70 28 20 c7 PLP  IMPL  A:ff X:ff Y:ba P:b5 S:fa pc: ed71, reg_addr: 0000
ed71 20 c7 fa JSR  ABS   A:ff X:ff Y:ba P:b5 S:fb pc: fac7, reg_addr: fac7
fac7 70 1d f0 BVS  REL   A:ff X:ff Y:ba P:b5 S:f9 pc: fac9, reg_addr: fae6
fac9 f0 1b 10 BEQ  REL   A:ff X:ff Y:ba P:b5 S:f9 pc: facb, reg_addr: fae6
facb 10 19 90 BPL  REL   A:ff X:ff Y:ba P:b5 S:f9 pc: facd, reg_addr: fae6
facd 90 17 c9 BCC  REL   A:ff X:ff Y:ba P:b5 S:f9 pc: facf, reg_addr: fae6
facf c9 ff d0 CMP  IMM   A:ff X:ff Y:ba P:b5 S:f9 pc: fad1, reg_addr: 00ff
fad1 d0 13 60 BNE  REL   A:ff X:ff Y:ba P:37 S:f9 pc: fad3, reg_addr: fae6
fad3 60 24 01 RTS  IMPL  A:ff X:ff Y:ba P:37 S:f9 pc: ed74, reg_addr: 0000
ed74 ad 47 06 LDA  ABS   A:ff X:ff Y:ba P:37 S:fb pc: ed77, reg_addr: 0647
ed77 c9 00 f0 CMP  IMM   A:00 X:ff Y:ba P:37 S:fb pc: ed79, reg_addr: 0000
ed79 f0 02 84 BEQ  REL   A:00 X:ff Y:ba P:37 S:fb pc: ed7d, reg_addr: ed7d
ed7d a0 ff a9 LDY  IMM   A:00 X:ff Y:ba P:37 S:fb pc: ed7f, reg_addr: 00ff
ed7f a9 37 8d LDA  IMM   A:00 X:ff Y:ff P:b5 S:fb pc: ed81, reg_addr: 0037
ed81 8d 47 06 STA  ABS   A:37 X:ff Y:ff P:35 S:fb pc: ed84, reg_addr: 0647
ed84 20 d4 fa JSR  ABS   A:37 X:ff Y:ff P:35 S:fb pc: fad4, reg_addr: fad4
fad4 24 01 38 BIT  ZP    A:37 X:ff Y:ff P:35 S:f9 pc: fad6, reg_addr: 0001
fad6 38 a9 f0 SEC  IMPL  A:37 X:ff Y:ff P:f5 S:f9 pc: fad7, reg_addr: 0000
fad7 a9 f0 60 LDA  IMM   A:37 X:ff Y:ff P:f5 S:f9 pc: fad9, reg_addr: 00f0
fad9 60 70 0a RTS  IMPL  A:f0 X:ff Y:ff P:f5 S:f9 pc: ed87, reg_addr: 0000
ed87 fb 48 05 ISB  ABSY  A:f0 X:ff Y:ff P:f5 S:fb pc: ed8a, reg_addr: 0647
ed8a ea ea 08 NOP  IMPL  A:b8 X:ff Y:ff P:b5 S:fb pc: ed8b, reg_addr: 0000
ed8b ea 08 48 NOP  IMPL  A:b8 X:ff Y:ff P:b5 S:fb pc: ed8c, reg_addr: 0000
ed8c 08 48 a0 PHP  IMPL  A:b8 X:ff Y:ff P:b5 S:fb pc: ed8d, reg_addr: 0000
ed8d 48 a0 bb PHA  IMPL  A:b8 X:ff Y:ff P:b5 S:fa pc: ed8e, reg_addr: 0000
ed8e a0 bb 68 LDY  IMM   A:b8 X:ff Y:ff P:b5 S:f9 pc: ed90, reg_addr: 00bb
ed90 68 28 20 PLA  IMPL  A:b8 X:ff Y:bb P:b5 S:f9 pc: ed91, reg_addr: 0000
ed91 28 20 da PLP  IMPL  A:b8 X:ff Y:bb P:b5 S:fa pc: ed92, reg_addr: 0000
ed92 20 da fa JSR  ABS   A:b8 X:ff Y:bb P:b5 S:fb pc: fada, reg_addr: fada
fada 70 0a f0 BVS  REL   A:b8 X:ff Y:bb P:b5 S:f9 pc: fadc, reg_addr: fae6
fadc f0 08 10 BEQ  REL   A:b8 X:ff Y:bb P:b5 S:f9 pc: fade, reg_addr: fae6
fade 10 06 90 BPL  REL   A:b8 X:ff Y:bb P:b5 S:f9 pc: fae0, reg_addr: fae6
fae0 90 04 c9 BCC  REL   A:b8 X:ff Y:bb P:b5 S:f9 pc: fae2, reg_addr: fae6
fae2 c9 b8 f0 CMP  IMM   A:b8 X:ff Y:bb P:b5 S:f9 pc: fae4, reg_addr: 00b8
fae4 f0 02 84 BEQ  REL   A:b8 X:ff Y:bb P:37 S:f9 pc: fae8, reg_addr: fae8
fae8 60 24 01 RTS  IMPL  A:b8 X:ff Y:bb P:37 S:f9 pc: ed95, reg_addr: 0000
ed95 ad 47 06 LDA  ABS   A:b8 X:ff Y:bb P:37 S:fb pc: ed98, reg_addr: 0647
ed98 c9 38 f0 CMP  IMM   A:38 X:ff Y:bb P:35 S:fb pc: ed9a, reg_addr: 0038
ed9a f0 02 84 BEQ  REL   A:38 X:ff Y:bb P:37 S:fb pc: ed9e, reg_addr: ed9e
ed9e a0 bc a2 LDY  IMM   A:38 X:ff Y:bb P:37 S:fb pc: eda0, reg_addr: 00bc
eda0 a2 ff a9 LDX  IMM   A:38 X:ff Y:bc P:b5 S:fb pc: eda2, reg_addr: 00ff
eda2 a9 eb 8d LDA  IMM   A:38 X:ff Y:bc P:b5 S:fb pc: eda4, reg_addr: 00eb
eda4 8d 47 06 STA  ABS   A:eb X:ff Y:bc P:b5 S:fb pc: eda7, reg_addr: 0647
eda7 20 b1 fa JSR  ABS   A:eb X:ff Y:bc P:b5 S:fb pc: fab1, reg_addr: fab1
fab1 24 01 18 BIT  ZP    A:eb X:ff Y:bc P:b5 S:f9 pc: fab3, reg_addr: 0001
fab3 18 a9 40 CLC  IMPL  A:eb X:ff Y:bc P:f5 S:f9 pc: fab4, reg_addr: 0000
fab4 a9 40 60 LDA  IMM   A:eb X:ff Y:bc P:f4 S:f9 pc: fab6, reg_addr: 0040
fab6 60 70 2d RTS  IMPL  A:40 X:ff Y:bc P:74 S:f9 pc: edaa, reg_addr: 0000
edaa ff 48 05 ISB  ABSX  A:40 X:ff Y:bc P:74 S:fb pc: edad, reg_addr: 0647
edad ea ea ea NOP  IMPL  A:53 X:ff Y:bc P:34 S:fb pc: edae, reg_addr: 0000
edae ea ea ea NOP  IMPL  A:53 X:ff Y:bc P:34 S:fb pc: edaf, reg_addr: 0000
edaf ea ea 20 NOP  IMPL  A:53 X:ff Y:bc P:34 S:fb pc: edb0, reg_addr: 0000
edb0 ea 20 b7 NOP  IMPL  A:53 X:ff Y:bc P:34 S:fb pc: edb1, reg_addr: 0000
edb1 20 b7 fa JSR  ABS   A:53 X:ff Y:bc P:34 S:fb pc: fab7, reg_addr: fab7
fab7 70 2d b0 BVS  REL   A:53 X:ff Y:bc P:34 S:f9 pc: fab9, reg_addr: fae6
fab9 b0 2b 30 BCS  REL   A:53 X:ff Y:bc P:34 S:f9 pc: fabb, reg_addr: fae6
fabb 30 29 c9 BMI  REL   A:53 X:ff Y:bc P:34 S:f9 pc: fabd, reg_addr: fae6
fabd c9 53 d0 CMP  IMM   A:53 X:ff Y:bc P:34 S:f9 pc: fabf, reg_addr: 0053
fabf d0 25 60 BNE  REL   A:53 X:ff Y:bc P:37 S:f9 pc: fac1, reg_addr: fae6
fac1 60 b8 38 RTS  IMPL  A:53 X:ff Y:bc P:37 S:f9 pc: edb4, reg_addr: 0000
edb4 ad 47 06 LDA  ABS   A:53 X:ff Y:bc P:37 S:fb pc: edb7, reg_addr: 0647
edb7 c9 ec f0 CMP  IMM   A:ec X:ff Y:bc P:b5 S:fb pc: edb9, reg_addr: 00ec
edb9 f0 02 84 BEQ  REL   A:ec X:ff Y:bc P:37 S:fb pc: edbd, reg_addr: edbd
edbd c8 a9 ff INY  IMPL  A:ec X:ff Y:bc P:37 S:fb pc: edbe, reg_addr: 0000
edbe a9 ff 8d LDA  IMM   A:ec X:ff Y:bd P:b5 S:fb pc: edc0, reg_addr: 00ff
edc0 8d 47 06 STA  ABS   A:ff X:ff Y:bd P:b5 S:fb pc: edc3, reg_addr: 0647
edc3 20 c2 fa JSR  ABS   A:ff X:ff Y:bd P:b5 S:fb pc: fac2, reg_addr: fac2
fac2 b8 38 a9 CLV  IMPL  A:ff X:ff Y:bd P:b5 S:f9 pc: fac3, reg_addr: 0000
fac3 38 a9 ff SEC  IMPL  A:ff X:ff Y:bd P:b5 S:f9 pc: fac4, reg_addr: 0000
fac4 a9 ff 60 LDA  IMM   A:ff X:ff Y:bd P:b5 S:f9 pc: fac6, reg_addr: 00ff
fac6 60 70 1d RTS  IMPL  A:ff X:ff Y:bd P:b5 S:f9 pc: edc6, reg_addr: 0000
edc6 ff 48 05 ISB  ABSX  A:ff X:ff Y:bd P:b5 S:fb pc: edc9, reg_addr: 0647
edc9 ea ea ea NOP  IMPL  A:ff X:ff Y:bd P:b5 S:fb pc: edca, reg_addr: 0000
edca ea ea ea NOP  IMPL  A:ff X:ff Y:bd P:b5 S:fb pc: edcb, reg_addr: 0000
edcb ea ea 20 NOP  IMPL  A:ff X:ff Y:bd P:b5 S:fb pc: edcc, reg_addr: 0000
edcc ea 20 c7 NOP  IMPL  A:ff X:ff Y:bd P:b5 S:fb pc: edcd, reg_addr: 0000
edcd 20 c7 fa JSR  ABS   A:ff X:ff Y:bd P:b5 S:fb pc: fac7, reg_addr: fac7
fac7 70 1d f0 BVS  REL   A:ff X:ff Y:bd P:b5 S:f9 pc: fac9, reg_addr: fae6
fac9 f0 1b 10 BEQ  REL   A:ff X:ff Y:bd P:b5 S:f9 pc: facb, reg_addr: fae6
facb 10 19 90 BPL  REL   A:ff X:ff Y:bd P:b5 S:f9 pc: facd, reg_addr: fae6
facd 90 17 c9 BCC  REL   A:ff X:ff Y:bd P:b5 S:f9 pc: facf, reg_addr: fae6
facf c9 ff d0 CMP  IMM   A:ff X:ff Y:bd P:b5 S:f9 pc: fad1, reg_addr: 00ff
fad1 d0 13 60 BNE  REL   A:ff X:ff Y:bd P:37 S:f9 pc: fad3, reg_addr: fae6
fad3 60 24 01 RTS  IMPL  A:ff X:ff Y:bd P:37 S:f9 pc: edd0, reg_addr: 0000
edd0 ad 47 06 LDA  ABS   A:ff X:ff Y:bd P:37 S:fb pc: edd3, reg_addr: 0647
edd3 c9 00 f0 CMP  IMM   A:00 X:ff Y:bd P:37 S:fb pc: edd5, reg_addr: 0000
edd5 f0 02 84 BEQ  REL   A:00 X:ff Y:bd P:37 S:fb pc: edd9, reg_addr: edd9
edd9 c8 a9 37 INY  IMPL  A:00 X:ff Y:bd P:37 S:fb pc: edda, reg_addr: 0000
edda a9 37 8d LDA  IMM   A:00 X:ff Y:be P:b5 S:fb pc: eddc, reg_addr: 0037
eddc 8d 47 06 STA  ABS   A:37 X:ff Y:be P:35 S:fb pc: eddf, reg_addr: 0647
eddf 20 d4 fa JSR  ABS   A:37 X:ff Y:be P:35 S:fb pc: fad4, reg_addr: fad4
fad4 24 01 38 BIT  ZP    A:37 X:ff Y:be P:35 S:f9 pc: fad6, reg_addr: 0001
fad6 38 a9 f0 SEC  IMPL  A:37 X:ff Y:be P:f5 S:f9 pc: fad7, reg_addr: 0000
fad7 a9 f0 60 LDA  IMM   A:37 X:ff Y:be P:f5 S:f9 pc: fad9, reg_addr: 00f0
fad9 60 70 0a RTS  IMPL  A:f0 X:ff Y:be P:f5 S:f9 pc: ede2, reg_addr: 0000
ede2 ff 48 05 ISB  ABSX  A:f0 X:ff Y:be P:f5 S:fb pc: ede5, reg_addr: 0647
ede5 ea ea ea NOP  IMPL  A:b8 X:ff Y:be P:b5 S:fb pc: ede6, reg_addr: 0000
ede6 ea ea ea NOP  IMPL  A:b8 X:ff Y:be P:b5 S:fb pc: ede7, reg_addr: 0000
ede7 ea ea 20 NOP  IMPL  A:b8 X:ff Y:be P:b5 S:fb pc: ede8, reg_addr: 0000
ede8 ea 20 da NOP  IMPL  A:b8 X:ff Y:be P:b5 S:fb pc: ede9, reg_addr: 0000
ede9 20 da fa JSR  ABS   A:b8 X:ff Y:be P:b5 S:fb pc: fada, reg_addr: fada
fada 70 0a f0 BVS  REL   A:b8 X:ff Y:be P:b5 S:f9 pc: fadc, reg_addr: fae6
fadc f0 08 10 BEQ  REL   A:b8 X:ff Y:be P:b5 S:f9 pc: fade, reg_addr: fae6
fade 10 06 90 BPL  REL   A:b8 X:ff Y:be P:b5 S:f9 pc: fae0, reg_addr: fae6
fae0 90 04 c9 BCC  REL   A:b8 X:ff Y:be P:b5 S:f9 pc: fae2, reg_addr: fae6
fae2 c9 b8 f0 CMP  IMM   A:b8 X:ff Y:be P:b5 S:f9 pc: fae4, reg_addr: 00b8
fae4 f0 02 84 BEQ  REL   A:b8 X:ff Y:be P:37 S:f9 pc: fae8, reg_addr: fae8
fae8 60 24 01 RTS  IMPL  A:b8 X:ff Y:be P:37 S:f9 pc: edec, reg_addr: 0000
edec ad 47 06 LDA  ABS   A:b8 X:ff Y:be P:37 S:fb pc: edef, reg_addr: 0647
edef c9 38 f0 CMP  IMM   A:38 X:ff Y:be P:35 S:fb pc: edf1, reg_addr: 0038
edf1 f0 02 84 BEQ  REL   A:38 X:ff Y:be P:37 S:fb pc: edf5, reg_addr: edf5
edf5 60 a9 ff RTS  IMPL  A:38 X:ff Y:be P:37 S:fb pc: c641, reg_addr: 0000
c641 20 f6 ed JSR  ABS   A:38 X:ff Y:be P:37 S:fd pc: edf6, reg_addr: edf6
edf6 a9 ff 85 LDA  IMM   A:38 X:ff Y:be P:37 S:fb pc: edf8, reg_addr: 00ff
edf8 85 01 a0 STA  ZP    A:ff X:ff Y:be P:b5 S:fb pc: edfa, reg_addr: 0001
edfa a0 bf a2 LDY  IMM   A:ff X:ff Y:be P:b5 S:fb pc: edfc, reg_addr: 00bf
edfc a2 02 a9 LDX  IMM   A:ff X:ff Y:bf P:b5 S:fb pc: edfe, reg_addr: 0002
edfe a9 47 85 LDA  IMM   A:ff X:02 Y:bf P:35 S:fb pc: ee00, reg_addr: 0047
ee00 85 47 a9 STA  ZP    A:47 X:02 Y:bf P:35 S:fb pc: ee02, reg_addr: 0047
ee02 a9 06 85 LDA  IMM   A:47 X:02 Y:bf P:35 S:fb pc: ee04, reg_addr: 0006
ee04 85 48 a9 STA  ZP    A:06 X:02 Y:bf P:35 S:fb pc: ee06, reg_addr: 0048
ee06 a9 a5 8d LDA  IMM   A:06 X:02 Y:bf P:35 S:fb pc: ee08, reg_addr: 00a5
ee08 8d 47 06 STA  ABS   A:a5 X:02 Y:bf P:b5 S:fb pc: ee0b, reg_addr: 0647
ee0b 20 7b fa JSR  ABS   A:a5 X:02 Y:bf P:b5 S:fb pc: fa7b, reg_addr: fa7b
fa7b 24 01 18 BIT  ZP    A:a5 X:02 Y:bf P:b5 S:f9 pc: fa7d, reg_addr: 0001
fa7d 18 a9 b3 CLC  IMPL  A:a5 X:02 Y:bf P:f5 S:f9 pc: fa7e, reg_addr: 0000
fa7e a9 b3 60 LDA  IMM   A:a5 X:02 Y:bf P:f4 S:f9 pc: fa80, reg_addr: 00b3
fa80 60 50 63 RTS  IMPL  A:b3 X:02 Y:bf P:f4 S:f9 pc: ee0e, reg_addr: 0000
ee0e 03 45 ea SLO  INDX  A:b3 X:02 Y:bf P:f4 S:fb pc: ee10, reg_addr: 0647
ee10 ea ea ea NOP  IMPL  A:fb X:02 Y:bf P:f5 S:fb pc: ee11, reg_addr: 0000
ee11 ea ea ea NOP  IMPL  A:fb X:02 Y:bf P:f5 S:fb pc: ee12, reg_addr: 0000
ee12 ea ea 20 NOP  IMPL  A:fb X:02 Y:bf P:f5 S:fb pc: ee13, reg_addr: 0000
ee13 ea 20 81 NOP  IMPL  A:fb X:02 Y:bf P:f5 S:fb pc: ee14, reg_addr: 0000
ee14 20 81 fa JSR  ABS   A:fb X:02 Y:bf P:f5 S:fb pc: fa81, reg_addr: fa81
fa81 50 63 90 BVC  REL   A:fb X:02 Y:bf P:f5 S:f9 pc: fa83, reg_addr: fae6
fa83 90 61 10 BCC  REL   A:fb X:02 Y:bf P:f5 S:f9 pc: fa85, reg_addr: fae6
fa85 10 5f c9 BPL  REL   A:fb X:02 Y:bf P:f5 S:f9 pc: fa87, reg_addr: fae6
fa87 c9 fb d0 CMP  IMM   A:fb X:02 Y:bf P:f5 S:f9 pc: fa89, reg_addr: 00fb
fa89 d0 5b 60 BNE  REL   A:fb X:02 Y:bf P:77 S:f9 pc: fa8b, reg_addr: fae6
fa8b 60 b8 18 RTS  IMPL  A:fb X:02 Y:bf P:77 S:f9 pc: ee17, reg_addr: 0000
ee17 ad 47 06 LDA  ABS   A:fb X:02 Y:bf P:77 S:fb pc: ee1a, reg_addr: 0647
ee1a c9 4a f0 CMP  IMM   A:4a X:02 Y:bf P:75 S:fb pc: ee1c, reg_addr: 004a
ee1c f0 02 84 BEQ  REL   A:4a X:02 Y:bf P:77 S:fb pc: ee20, reg_addr: ee20
ee20 c8 a9 29 INY  IMPL  A:4a X:02 Y:bf P:77 S:fb pc: ee21, reg_addr: 0000
ee21 a9 29 8d LDA  IMM   A:4a X:02 Y:c0 P:f5 S:fb pc: ee23, reg_addr: 0029
ee23 8d 47 06 STA  ABS   A:29 X:02 Y:c0 P:75 S:fb pc: ee26, reg_addr: 0647
ee26 20 8c fa JSR  ABS   A:29 X:02 Y:c0 P:75 S:fb pc: fa8c, reg_addr: fa8c
fa8c b8 18 a9 CLV  IMPL  A:29 X:02 Y:c0 P:75 S:f9 pc: fa8d, reg_addr: 0000
fa8d 18 a9 c3 CLC  IMPL  A:29 X:02 Y:c0 P:35 S:f9 pc: fa8e, reg_addr: 0000
fa8e a9 c3 60 LDA  IMM   A:29 X:02 Y:c0 P:34 S:f9 pc: fa90, reg_addr: 00c3
fa90 60 70 53 RTS  IMPL  A:c3 X:02 Y:c0 P:b4 S:f9 pc: ee29, reg_addr: 0000
ee29 03 45 ea SLO  INDX  A:c3 X:02 Y:c0 P:b4 S:fb pc: ee2b, reg_addr: 0647
ee2b ea ea ea NOP  IMPL  A:d3 X:02 Y:c0 P:b4 S:fb pc: ee2c, reg_addr: 0000
ee2c ea ea ea NOP  IMPL  A:d3 X:02 Y:c0 P:b4 S:fb pc: ee2d, reg_addr: 0000
ee2d ea ea 20 NOP  IMPL  A:d3 X:02 Y:c0 P:b4 S:fb pc: ee2e, reg_addr: 0000
ee2e ea 20 91 NOP  IMPL  A:d3 X:02 Y:c0 P:b4 S:fb pc: ee2f, reg_addr: 0000
ee2f 20 91 fa JSR  ABS   A:d3 X:02 Y:c0 P:b4 S:fb pc: fa91, reg_addr: fa91
fa91 70 53 f0 BVS  REL   A:d3 X:02 Y:c0 P:b4 S:f9 pc: fa93, reg_addr: fae6
fa93 f0 51 10 BEQ  REL   A:d3 X:02 Y:c0 P:b4 S:f9 pc: fa95, reg_addr: fae6
fa95 10 4f b0 BPL  REL   A:d3 X:02 Y:c0 P:b4 S:f9 pc: fa97, reg_addr: fae6
fa97 b0 4d c9 BCS  REL   A:d3 X:02 Y:c0 P:b4 S:f9 pc: fa99, reg_addr: fae6
fa99 c9 d3 d0 CMP  IMM   A:d3 X:02 Y:c0 P:b4 S:f9 pc: fa9b, reg_addr: 00d3
fa9b d0 49 60 BNE  REL   A:d3 X:02 Y:c0 P:37 S:f9 pc: fa9d, reg_addr: fae6
fa9d 60 24 01 RTS  IMPL  A:d3 X:02 Y:c0 P:37 S:f9 pc: ee32, reg_addr: 0000
ee32 ad 47 06 LDA  ABS   A:d3 X:02 Y:c0 P:37 S:fb pc: ee35, reg_addr: 0647
ee35 c9 52 f0 CMP  IMM   A:52 X:02 Y:c0 P:35 S:fb pc: ee37, reg_addr: 0052
ee37 f0 02 84 BEQ  REL   A:52 X:02 Y:c0 P:37 S:fb pc: ee3b, reg_addr: ee3b
ee3b c8 a9 37 INY  IMPL  A:52 X:02 Y:c0 P:37 S:fb pc: ee3c, reg_addr: 0000
ee3c a9 37 8d LDA  IMM   A:52 X:02 Y:c1 P:b5 S:fb pc: ee3e, reg_addr: 0037
ee3e 8d 47 06 STA  ABS   A:37 X:02 Y:c1 P:35 S:fb pc: ee41, reg_addr: 0647
ee41 20 9e fa JSR  ABS   A:37 X:02 Y:c1 P:35 S:fb pc: fa9e, reg_addr: fa9e
fa9e 24 01 38 BIT  ZP    A:37 X:02 Y:c1 P:35 S:f9 pc: faa0, reg_addr: 0001
faa0 38 a9 10 SEC  IMPL  A:37 X:02 Y:c1 P:f5 S:f9 pc: faa1, reg_addr: 0000
faa1 a9 10 60 LDA  IMM   A:37 X:02 Y:c1 P:f5 S:f9 pc: faa3, reg_addr: 0010
faa3 60 50 40 RTS  IMPL  A:10 X:02 Y:c1 P:75 S:f9 pc: ee44, reg_addr: 0000
ee44 03 45 ea SLO  INDX  A:10 X:02 Y:c1 P:75 S:fb pc: ee46, reg_addr: 0647
ee46 ea ea ea NOP  IMPL  A:7e X:02 Y:c1 P:74 S:fb pc: ee47, reg_addr: 0000
ee47 ea ea ea NOP  IMPL  A:7e X:02 Y:c1 P:74 S:fb pc: ee48, reg_addr: 0000
ee48 ea ea 20 NOP  IMPL  A:7e X:02 Y:c1 P:74 S:fb pc: ee49, reg_addr: 0000
ee49 ea 20 a4 NOP  IMPL  A:7e X:02 Y:c1 P:74 S:fb pc: ee4a, reg_addr: 0000
ee4a 20 a4 fa JSR  ABS   A:7e X:02 Y:c1 P:74 S:fb pc: faa4, reg_addr: faa4
faa4 50 40 f0 BVC  REL   A:7e X:02 Y:c1 P:74 S:f9 pc: faa6, reg_addr: fae6
faa6 f0 3e 30 BEQ  REL   A:7e X:02 Y:c1 P:74 S:f9 pc: faa8, reg_addr: fae6
faa8 30 3c b0 BMI  REL   A:7e X:02 Y:c1 P:74 S:f9 pc: faaa, reg_addr: fae6
faaa b0 3a c9 BCS  REL   A:7e X:02 Y:c1 P:74 S:f9 pc: faac, reg_addr: fae6
faac c9 7e d0 CMP  IMM   A:7e X:02 Y:c1 P:74 S:f9 pc: faae, reg_addr: 007e
faae d0 36 60 BNE  REL   A:7e X:02 Y:c1 P:77 S:f9 pc: fab0, reg_addr: fae6
fab0 60 24 01 RTS  IMPL  A:7e X:02 Y:c1 P:77 S:f9 pc: ee4d, reg_addr: 0000
ee4d ad 47 06 LDA  ABS   A:7e X:02 Y:c1 P:77 S:fb pc: ee50, reg_addr: 0647
ee50 c9 6e f0 CMP  IMM   A:6e X:02 Y:c1 P:75 S:fb pc: ee52, reg_addr: 006e
ee52 f0 02 84 BEQ  REL   A:6e X:02 Y:c1 P:77 S:fb pc: ee56, reg_addr: ee56
ee56 c8 a9 a5 INY  IMPL  A:6e X:02 Y:c1 P:77 S:fb pc: ee57, reg_addr: 0000
ee57 a9 a5 85 LDA  IMM   A:6e X:02 Y:c2 P:f5 S:fb pc: ee59, reg_addr: 00a5
ee59 85 47 20 STA  ZP    A:a5 X:02 Y:c2 P:f5 S:fb pc: ee5b, reg_addr: 0047
ee5b 20 7b fa JSR  ABS   A:a5 X:02 Y:c2 P:f5 S:fb pc: fa7b, reg_addr: fa7b
fa7b 24 01 18 BIT  ZP    A:a5 X:02 Y:c2 P:f5 S:f9 pc: fa7d, reg_addr: 0001
fa7d 18 a9 b3 CLC  IMPL  A:a5 X:02 Y:c2 P:f5 S:f9 pc: fa7e, reg_addr: 0000
fa7e a9 b3 60 LDA  IMM   A:a5 X:02 Y:c2 P:f4 S:f9 pc: fa80, reg_addr: 00b3
fa80 60 50 63 RTS  IMPL  A:b3 X:02 Y:c2 P:f4 S:f9 pc: ee5e, reg_addr: 0000
ee5e 07 47 ea SLO  ZP    A:b3 X:02 Y:c2 P:f4 S:fb pc: ee60, reg_addr: 0047
ee60 ea ea ea NOP  IMPL  A:fb X:02 Y:c2 P:f5 S:fb pc: ee61, reg_addr: 0000
ee61 ea ea ea NOP  IMPL  A:fb X:02 Y:c2 P:f5 S:fb pc: ee62, reg_addr: 0000
ee62 ea ea 20 NOP  IMPL  A:fb X:02 Y:c2 P:f5 S:fb pc: ee63, reg_addr: 0000
ee63 ea 20 81 NOP  IMPL  A:fb X:02 Y:c2 P:f5 S:fb pc: ee64, reg_addr: 0000
ee64 20 81 fa JSR  ABS   A:fb X:02 Y:c2 P:f5 S:fb pc: fa81, reg_addr: fa81
fa81 50 63 90 BVC  REL   A:fb X:02 Y:c2 P:f5 S:f9 pc: fa83, reg_addr: fae6
fa83 90 61 10 BCC  REL   A:fb X:02 Y:c2 P:f5 S:f9 pc: fa85, reg_addr: fae6
fa85 10 5f c9 BPL  REL   A:fb X:02 Y:c2 P:f5 S:f9 pc: fa87, reg_addr: fae6
fa87 c9 fb d0 CMP  IMM   A:fb X:02 Y:c2 P:f5 S:f9 pc: fa89, reg_addr: 00fb
fa89 d0 5b 60 BNE  REL   A:fb X:02 Y:c2 P:77 S:f9 pc: fa8b, reg_addr: fae6
fa8b 60 b8 18 RTS  IMPL  A:fb X:02 Y:c2 P:77 S:f9 pc: ee67, reg_addr: 0000
ee67 a5 47 c9 LDA  ZP    A:fb X:02 Y:c2 P:77 S:fb pc: ee69, reg_addr: 0047
ee69 c9 4a f0 CMP  IMM   A:4a X:02 Y:c2 P:75 S:fb pc: ee6b, reg_addr: 004a
ee6b f0 02 84 BEQ  REL   A:4a X:02 Y:c2 P:77 S:fb pc: ee6f, reg_addr: ee6f
ee6f c8 a9 29 INY  IMPL  A:4a X:02 Y:c2 P:77 S:fb pc: ee70, reg_addr: 0000
ee70 a9 29 85 LDA  IMM   A:4a X:02 Y:c3 P:f5 S:fb pc: ee72, reg_addr: 0029
ee72 85 47 20 STA  ZP    A:29 X:02 Y:c3 P:75 S:fb pc: ee74, reg_addr: 0047
ee74 20 8c fa JSR  ABS   A:29 X:02 Y:c3 P:75 S:fb pc: fa8c, reg_addr: fa8c
fa8c b8 18 a9 CLV  IMPL  A:29 X:02 Y:c3 P:75 S:f9 pc: fa8d, reg_addr: 0000
fa8d 18 a9 c3 CLC  IMPL  A:29 X:02 Y:c3 P:35 S:f9 pc: fa8e, reg_addr: 0000
fa8e a9 c3 60 LDA  IMM   A:29 X:02 Y:c3 P:34 S:f9 pc: fa90, reg_addr: 00c3
fa90 60 70 53 RTS  IMPL  A:c3 X:02 Y:c3 P:b4 S:f9 pc: ee77, reg_addr: 0000
ee77 07 47 ea SLO  ZP    A:c3 X:02 Y:c3 P:b4 S:fb pc: ee79, reg_addr: 0047
ee79 ea ea ea NOP  IMPL  A:d3 X:02 Y:c3 P:b4 S:fb pc: ee7a, reg_addr: 0000
ee7a ea ea ea NOP  IMPL  A:d3 X:02 Y:c3 P:b4 S:fb pc: ee7b, reg_addr: 0000
ee7b ea ea 20 NOP  IMPL  A:d3 X:02 Y:c3 P:b4 S:fb pc: ee7c, reg_addr: 0000
ee7c ea 20 91 NOP  IMPL  A:d3 X:02 Y:c3 P:b4 S:fb pc: ee7d, reg_addr: 0000
ee7d 20 91 fa JSR  ABS   A:d3 X:02 Y:c3 P:b4 S:fb pc: fa91, reg_addr: fa91
fa91 70 53 f0 BVS  REL   A:d3 X:02 Y:c3 P:b4 S:f9 pc: fa93, reg_addr: fae6
fa93 f0 51 10 BEQ  REL   A:d3 X:02 Y:c3 P:b4 S:f9 pc: fa95, reg_addr: fae6
fa95 10 4f b0 BPL  REL   A:d3 X:02 Y:c3 P:b4 S:f9 pc: fa97, reg_addr: fae6
fa97 b0 4d c9 BCS  REL   A:d3 X:02 Y:c3 P:b4 S:f9 pc: fa99, reg_addr: fae6
fa99 c9 d3 d0 CMP  IMM   A:d3 X:02 Y:c3 P:b4 S:f9 pc: fa9b, reg_addr: 00d3
fa9b d0 49 60 BNE  REL   A:d3 X:02 Y:c3 P:37 S:f9 pc: fa9d, reg_addr: fae6
fa9d 60 24 01 RTS  IMPL  A:d3 X:02 Y:c3 P:37 S:f9 pc: ee80, reg_addr: 0000
ee80 a5 47 c9 LDA  ZP    A:d3 X:02 Y:c3 P:37 S:fb pc: ee82, reg_addr: 0047
ee82 c9 52 f0 CMP  IMM   A:52 X:02 Y:c3 P:35 S:fb pc: ee84, reg_addr: 0052
ee84 f0 02 84 BEQ  REL   A:52 X:02 Y:c3 P:37 S:fb pc: ee88, reg_addr: ee88
ee88 c8 a9 37 INY  IMPL  A:52 X:02 Y:c3 P:37 S:fb pc: ee89, reg_addr: 0000
ee89 a9 37 85 LDA  IMM   A:52 X:02 Y:c4 P:b5 S:fb pc: ee8b, reg_addr: 0037
ee8b 85 47 20 STA  ZP    A:37 X:02 Y:c4 P:35 S:fb pc: ee8d, reg_addr: 0047
ee8d 20 9e fa JSR  ABS   A:37 X:02 Y:c4 P:35 S:fb pc: fa9e, reg_addr: fa9e
fa9e 24 01 38 BIT  ZP    A:37 X:02 Y:c4 P:35 S:f9 pc: faa0, reg_addr: 0001
faa0 38 a9 10 SEC  IMPL  A:37 X:02 Y:c4 P:f5 S:f9 pc: faa1, reg_addr: 0000
faa1 a9 10 60 LDA  IMM   A:37 X:02 Y:c4 P:f5 S:f9 pc: faa3, reg_addr: 0010
faa3 60 50 40 RTS  IMPL  A:10 X:02 Y:c4 P:75 S:f9 pc: ee90, reg_addr: 0000
ee90 07 47 ea SLO  ZP    A:10 X:02 Y:c4 P:75 S:fb pc: ee92, reg_addr: 0047
ee92 ea ea ea NOP  IMPL  A:7e X:02 Y:c4 P:74 S:fb pc: ee93, reg_addr: 0000
ee93 ea ea ea NOP  IMPL  A:7e X:02 Y:c4 P:74 S:fb pc: ee94, reg_addr: 0000
ee94 ea ea 20 NOP  IMPL  A:7e X:02 Y:c4 P:74 S:fb pc: ee95, reg_addr: 0000
ee95 ea 20 a4 NOP  IMPL  A:7e X:02 Y:c4 P:74 S:fb pc: ee96, reg_addr: 0000
ee96 20 a4 fa JSR  ABS   A:7e X:02 Y:c4 P:74 S:fb pc: faa4, reg_addr: faa4
faa4 50 40 f0 BVC  REL   A:7e X:02 Y:c4 P:74 S:f9 pc: faa6, reg_addr: fae6
faa6 f0 3e 30 BEQ  REL   A:7e X:02 Y:c4 P:74 S:f9 pc: faa8, reg_addr: fae6
faa8 30 3c b0 BMI  REL   A:7e X:02 Y:c4 P:74 S:f9 pc: faaa, reg_addr: fae6
faaa b0 3a c9 BCS  REL   A:7e X:02 Y:c4 P:74 S:f9 pc: faac, reg_addr: fae6
faac c9 7e d0 CMP  IMM   A:7e X:02 Y:c4 P:74 S:f9 pc: faae, reg_addr: 007e
faae d0 36 60 BNE  REL   A:7e X:02 Y:c4 P:77 S:f9 pc: fab0, reg_addr: fae6
fab0 60 24 01 RTS  IMPL  A:7e X:02 Y:c4 P:77 S:f9 pc: ee99, reg_addr: 0000
ee99 a5 47 c9 LDA  ZP    A:7e X:02 Y:c4 P:77 S:fb pc: ee9b, reg_addr: 0047
ee9b c9 6e f0 CMP  IMM   A:6e X:02 Y:c4 P:75 S:fb pc: ee9d, reg_addr: 006e
ee9d f0 02 84 BEQ  REL   A:6e X:02 Y:c4 P:77 S:fb pc: eea1, reg_addr: eea1
eea1 c8 a9 a5 INY  IMPL  A:6e X:02 Y:c4 P:77 S:fb pc: eea2, reg_addr: 0000
eea2 a9 a5 8d LDA  IMM   A:6e X:02 Y:c5 P:f5 S:fb pc: eea4, reg_addr: 00a5
eea4 8d 47 06 STA  ABS   A:a5 X:02 Y:c5 P:f5 S:fb pc: eea7, reg_addr: 0647
eea7 20 7b fa JSR  ABS   A:a5 X:02 Y:c5 P:f5 S:fb pc: fa7b, reg_addr: fa7b
fa7b 24 01 18 BIT  ZP    A:a5 X:02 Y:c5 P:f5 S:f9 pc: fa7d, reg_addr: 0001
fa7d 18 a9 b3 CLC  IMPL  A:a5 X:02 Y:c5 P:f5 S:f9 pc: fa7e, reg_addr: 0000
fa7e a9 b3 60 LDA  IMM   A:a5 X:02 Y:c5 P:f4 S:f9 pc: fa80, reg_addr: 00b3
fa80 60 50 63 RTS  IMPL  A:b3 X:02 Y:c5 P:f4 S:f9 pc: eeaa, reg_addr: 0000
eeaa 0f 47 06 SLO  ABS   A:b3 X:02 Y:c5 P:f4 S:fb pc: eead, reg_addr: 0647
eead ea ea ea NOP  IMPL  A:fb X:02 Y:c5 P:f5 S:fb pc: eeae, reg_addr: 0000
eeae ea ea ea NOP  IMPL  A:fb X:02 Y:c5 P:f5 S:fb pc: eeaf, reg_addr: 0000
eeaf ea ea 20 NOP  IMPL  A:fb X:02 Y:c5 P:f5 S:fb pc: eeb0, reg_addr: 0000
eeb0 ea 20 81 NOP  IMPL  A:fb X:02 Y:c5 P:f5 S:fb pc: eeb1, reg_addr: 0000
eeb1 20 81 fa JSR  ABS   A:fb X:02 Y:c5 P:f5 S:fb pc: fa81, reg_addr: fa81
fa81 50 63 90 BVC  REL   A:fb X:02 Y:c5 P:f5 S:f9 pc: fa83, reg_addr: fae6
fa83 90 61 10 BCC  REL   A:fb X:02 Y:c5 P:f5 S:f9 pc: fa85, reg_addr: fae6
fa85 10 5f c9 BPL  REL   A:fb X:02 Y:c5 P:f5 S:f9 pc: fa87, reg_addr: fae6
fa87 c9 fb d0 CMP  IMM   A:fb X:02 Y:c5 P:f5 S:f9 pc: fa89, reg_addr: 00fb
fa89 d0 5b 60 BNE  REL   A:fb X:02 Y:c5 P:77 S:f9 pc: fa8b, reg_addr: fae6
fa8b 60 b8 18 RTS  IMPL  A:fb X:02 Y:c5 P:77 S:f9 pc: eeb4, reg_addr: 0000
eeb4 ad 47 06 LDA  ABS   A:fb X:02 Y:c5 P:77 S:fb pc: eeb7, reg_addr: 0647
eeb7 c9 4a f0 CMP  IMM   A:4a X:02 Y:c5 P:75 S:fb pc: eeb9, reg_addr: 004a
eeb9 f0 02 84 BEQ  REL   A:4a X:02 Y:c5 P:77 S:fb pc: eebd, reg_addr: eebd
eebd c8 a9 29 INY  IMPL  A:4a X:02 Y:c5 P:77 S:fb pc: eebe, reg_addr: 0000
eebe a9 29 8d LDA  IMM   A:4a X:02 Y:c6 P:f5 S:fb pc: eec0, reg_addr: 0029
eec0 8d 47 06 STA  ABS   A:29 X:02 Y:c6 P:75 S:fb pc: eec3, reg_addr: 0647
eec3 20 8c fa JSR  ABS   A:29 X:02 Y:c6 P:75 S:fb pc: fa8c, reg_addr: fa8c
fa8c b8 18 a9 CLV  IMPL  A:29 X:02 Y:c6 P:75 S:f9 pc: fa8d, reg_addr: 0000
fa8d 18 a9 c3 CLC  IMPL  A:29 X:02 Y:c6 P:35 S:f9 pc: fa8e, reg_addr: 0000
fa8e a9 c3 60 LDA  IMM   A:29 X:02 Y:c6 P:34 S:f9 pc: fa90, reg_addr: 00c3
fa90 60 70 53 RTS  IMPL  A:c3 X:02 Y:c6 P:b4 S:f9 pc: eec6, reg_addr: 0000
eec6 0f 47 06 SLO  ABS   A:c3 X:02 Y:c6 P:b4 S:fb pc: eec9, reg_addr: 0647
eec9 ea ea ea NOP  IMPL  A:d3 X:02 Y:c6 P:b4 S:fb pc: eeca, reg_addr: 0000
eeca ea ea ea NOP  IMPL  A:d3 X:02 Y:c6 P:b4 S:fb pc: eecb, reg_addr: 0000
eecb ea ea 20 NOP  IMPL  A:d3 X:02 Y:c6 P:b4 S:fb pc: eecc, reg_addr: 0000
eecc ea 20 91 NOP  IMPL  A:d3 X:02 Y:c6 P:b4 S:fb pc: eecd, reg_addr: 0000
eecd 20 91 fa JSR  ABS   A:d3 X:02 Y:c6 P:b4 S:fb pc: fa91, reg_addr: fa91
fa91 70 53 f0 BVS  REL   A:d3 X:02 Y:c6 P:b4 S:f9 pc: fa93, reg_addr: fae6
fa93 f0 51 10 BEQ  REL   A:d3 X:02 Y:c6 P:b4 S:f9 pc: fa95, reg_addr: fae6
fa95 10 4f b0 BPL  REL   A:d3 X:02 Y:c6 P:b4 S:f9 pc: fa97, reg_addr: fae6
fa97 b0 4d c9 BCS  REL   A:d3 X:02 Y:c6 P:b4 S:f9 pc: fa99, reg_addr: fae6
fa99 c9 d3 d0 CMP  IMM   A:d3 X:02 Y:c6 P:b4 S:f9 pc: fa9b, reg_addr: 00d3
fa9b d0 49 60 BNE  REL   A:d3 X:02 Y:c6 P:37 S:f9 pc: fa9d, reg_addr: fae6
fa9d 60 24 01 RTS  IMPL  A:d3 X:02 Y:c6 P:37 S:f9 pc: eed0, reg_addr: 0000
eed0 ad 47 06 LDA  ABS   A:d3 X:02 Y:c6 P:37 S:fb pc: eed3, reg_addr: 0647
eed3 c9 52 f0 CMP  IMM   A:52 X:02 Y:c6 P:35 S:fb pc: eed5, reg_addr: 0052
eed5 f0 02 84 BEQ  REL   A:52 X:02 Y:c6 P:37 S:fb pc: eed9, reg_addr: eed9
eed9 c8 a9 37 INY  IMPL  A:52 X:02 Y:c6 P:37 S:fb pc: eeda, reg_addr: 0000
eeda a9 37 8d LDA  IMM   A:52 X:02 Y:c7 P:b5 S:fb pc: eedc, reg_addr: 0037
eedc 8d 47 06 STA  ABS   A:37 X:02 Y:c7 P:35 S:fb pc: eedf, reg_addr: 0647
eedf 20 9e fa JSR  ABS   A:37 X:02 Y:c7 P:35 S:fb pc: fa9e, reg_addr: fa9e
fa9e 24 01 38 BIT  ZP    A:37 X:02 Y:c7 P:35 S:f9 pc: faa0, reg_addr: 0001
faa0 38 a9 10 SEC  IMPL  A:37 X:02 Y:c7 P:f5 S:f9 pc: faa1, reg_addr: 0000
faa1 a9 10 60 LDA  IMM   A:37 X:02 Y:c7 P:f5 S:f9 pc: faa3, reg_addr: 0010
faa3 60 50 40 RTS  IMPL  A:10 X:02 Y:c7 P:75 S:f9 pc: eee2, reg_addr: 0000
eee2 0f 47 06 SLO  ABS   A:10 X:02 Y:c7 P:75 S:fb pc: eee5, reg_addr: 0647
eee5 ea ea ea NOP  IMPL  A:7e X:02 Y:c7 P:74 S:fb pc: eee6, reg_addr: 0000
eee6 ea ea ea NOP  IMPL  A:7e X:02 Y:c7 P:74 S:fb pc: eee7, reg_addr: 0000
eee7 ea ea 20 NOP  IMPL  A:7e X:02 Y:c7 P:74 S:fb pc: eee8, reg_addr: 0000
eee8 ea 20 a4 NOP  IMPL  A:7e X:02 Y:c7 P:74 S:fb pc: eee9, reg_addr: 0000
eee9 20 a4 fa JSR  ABS   A:7e X:02 Y:c7 P:74 S:fb pc: faa4, reg_addr: faa4
faa4 50 40 f0 BVC  REL   A:7e X:02 Y:c7 P:74 S:f9 pc: faa6, reg_addr: fae6
faa6 f0 3e 30 BEQ  REL   A:7e X:02 Y:c7 P:74 S:f9 pc: faa8, reg_addr: fae6
faa8 30 3c b0 BMI  REL   A:7e X:02 Y:c7 P:74 S:f9 pc: faaa, reg_addr: fae6
faaa b0 3a c9 BCS  REL   A:7e X:02 Y:c7 P:74 S:f9 pc: faac, reg_addr: fae6
faac c9 7e d0 CMP  IMM   A:7e X:02 Y:c7 P:74 S:f9 pc: faae, reg_addr: 007e
faae d0 36 60 BNE  REL   A:7e X:02 Y:c7 P:77 S:f9 pc: fab0, reg_addr: fae6
fab0 60 24 01 RTS  IMPL  A:7e X:02 Y:c7 P:77 S:f9 pc: eeec, reg_addr: 0000
eeec ad 47 06 LDA  ABS   A:7e X:02 Y:c7 P:77 S:fb pc: eeef, reg_addr: 0647
eeef c9 6e f0 CMP  IMM   A:6e X:02 Y:c7 P:75 S:fb pc: eef1, reg_addr: 006e
eef1 f0 02 84 BEQ  REL   A:6e X:02 Y:c7 P:77 S:fb pc: eef5, reg_addr: eef5
eef5 a9 a5 8d LDA  IMM   A:6e X:02 Y:c7 P:77 S:fb pc: eef7, reg_addr: 00a5
eef7 8d 47 06 STA  ABS   A:a5 X:02 Y:c7 P:f5 S:fb pc: eefa, reg_addr: 0647
eefa a9 48 85 LDA  IMM   A:a5 X:02 Y:c7 P:f5 S:fb pc: eefc, reg_addr: 0048
eefc 85 45 a9 STA  ZP    A:48 X:02 Y:c7 P:75 S:fb pc: eefe, reg_addr: 0045
eefe a9 05 85 LDA  IMM   A:48 X:02 Y:c7 P:75 S:fb pc: ef00, reg_addr: 0005
ef00 85 46 a0 STA  ZP    A:05 X:02 Y:c7 P:75 S:fb pc: ef02, reg_addr: 0046
ef02 a0 ff 20 LDY  IMM   A:05 X:02 Y:c7 P:75 S:fb pc: ef04, reg_addr: 00ff
ef04 20 7b fa JSR  ABS   A:05 X:02 Y:ff P:f5 S:fb pc: fa7b, reg_addr: fa7b
fa7b 24 01 18 BIT  ZP    A:05 X:02 Y:ff P:f5 S:f9 pc: fa7d, reg_addr: 0001
fa7d 18 a9 b3 CLC  IMPL  A:05 X:02 Y:ff P:f5 S:f9 pc: fa7e, reg_addr: 0000
fa7e a9 b3 60 LDA  IMM   A:05 X:02 Y:ff P:f4 S:f9 pc: fa80, reg_addr: 00b3
fa80 60 50 63 RTS  IMPL  A:b3 X:02 Y:ff P:f4 S:f9 pc: ef07, reg_addr: 0000
ef07 13 45 ea SLO  INDY  A:b3 X:02 Y:ff P:f4 S:fb pc: ef09, reg_addr: 0647
ef09 ea ea 08 NOP  IMPL  A:fb X:02 Y:ff P:f5 S:fb pc: ef0a, reg_addr: 0000
ef0a ea 08 48 NOP  IMPL  A:fb X:02 Y:ff P:f5 S:fb pc: ef0b, reg_addr: 0000
ef0b 08 48 a0 PHP  IMPL  A:fb X:02 Y:ff P:f5 S:fb pc: ef0c, reg_addr: 0000
ef0c 48 a0 c8 PHA  IMPL  A:fb X:02 Y:ff P:f5 S:fa pc: ef0d, reg_addr: 0000
ef0d a0 c8 68 LDY  IMM   A:fb X:02 Y:ff P:f5 S:f9 pc: ef0f, reg_addr: 00c8
ef0f 68 28 20 PLA  IMPL  A:fb X:02 Y:c8 P:f5 S:f9 pc: ef10, reg_addr: 0000
ef10 28 20 81 PLP  IMPL  A:fb X:02 Y:c8 P:f5 S:fa pc: ef11, reg_addr: 0000
ef11 20 81 fa JSR  ABS   A:fb X:02 Y:c8 P:f5 S:fb pc: fa81, reg_addr: fa81
fa81 50 63 90 BVC  REL   A:fb X:02 Y:c8 P:f5 S:f9 pc: fa83, reg_addr: fae6
fa83 90 61 10 BCC  REL   A:fb X:02 Y:c8 P:f5 S:f9 pc: fa85, reg_addr: fae6
fa85 10 5f c9 BPL  REL   A:fb X:02 Y:c8 P:f5 S:f9 pc: fa87, reg_addr: fae6
fa87 c9 fb d0 CMP  IMM   A:fb X:02 Y:c8 P:f5 S:f9 pc: fa89, reg_addr: 00fb
fa89 d0 5b 60 BNE  REL   A:fb X:02 Y:c8 P:77 S:f9 pc: fa8b, reg_addr: fae6
fa8b 60 b8 18 RTS  IMPL  A:fb X:02 Y:c8 P:77 S:f9 pc: ef14, reg_addr: 0000
ef14 ad 47 06 LDA  ABS   A:fb X:02 Y:c8 P:77 S:fb pc: ef17, reg_addr: 0647
ef17 c9 4a f0 CMP  IMM   A:4a X:02 Y:c8 P:75 S:fb pc: ef19, reg_addr: 004a
ef19 f0 02 84 BEQ  REL   A:4a X:02 Y:c8 P:77 S:fb pc: ef1d, reg_addr: ef1d
ef1d a0 ff a9 LDY  IMM   A:4a X:02 Y:c8 P:77 S:fb pc: ef1f, reg_addr: 00ff
ef1f a9 29 8d LDA  IMM   A:4a X:02 Y:ff P:f5 S:fb pc: ef21, reg_addr: 0029
ef21 8d 47 06 STA  ABS   A:29 X:02 Y:ff P:75 S:fb pc: ef24, reg_addr: 0647
ef24 20 8c fa JSR  ABS   A:29 X:02 Y:ff P:75 S:fb pc: fa8c, reg_addr: fa8c
fa8c b8 18 a9 CLV  IMPL  A:29 X:02 Y:ff P:75 S:f9 pc: fa8d, reg_addr: 0000
fa8d 18 a9 c3 CLC  IMPL  A:29 X:02 Y:ff P:35 S:f9 pc: fa8e, reg_addr: 0000
fa8e a9 c3 60 LDA  IMM   A:29 X:02 Y:ff P:34 S:f9 pc: fa90, reg_addr: 00c3
fa90 60 70 53 RTS  IMPL  A:c3 X:02 Y:ff P:b4 S:f9 pc: ef27, reg_addr: 0000
ef27 13 45 ea SLO  INDY  A:c3 X:02 Y:ff P:b4 S:fb pc: ef29, reg_addr: 0647
ef29 ea ea 08 NOP  IMPL  A:d3 X:02 Y:ff P:b4 S:fb pc: ef2a, reg_addr: 0000
ef2a ea 08 48 NOP  IMPL  A:d3 X:02 Y:ff P:b4 S:fb pc: ef2b, reg_addr: 0000
ef2b 08 48 a0 PHP  IMPL  A:d3 X:02 Y:ff P:b4 S:fb pc: ef2c, reg_addr: 0000
ef2c 48 a0 c9 PHA  IMPL  A:d3 X:02 Y:ff P:b4 S:fa pc: ef2d, reg_addr: 0000
ef2d a0 c9 68 LDY  IMM   A:d3 X:02 Y:ff P:b4 S:f9 pc: ef2f, reg_addr: 00c9
ef2f 68 28 20 PLA  IMPL  A:d3 X:02 Y:c9 P:b4 S:f9 pc: ef30, reg_addr: 0000
ef30 28 20 91 PLP  IMPL  A:d3 X:02 Y:c9 P:b4 S:fa pc: ef31, reg_addr: 0000
ef31 20 91 fa JSR  ABS   A:d3 X:02 Y:c9 P:b4 S:fb pc: fa91, reg_addr: fa91
fa91 70 53 f0 BVS  REL   A:d3 X:02 Y:c9 P:b4 S:f9 pc: fa93, reg_addr: fae6
fa93 f0 51 10 BEQ  REL   A:d3 X:02 Y:c9 P:b4 S:f9 pc: fa95, reg_addr: fae6
fa95 10 4f b0 BPL  REL   A:d3 X:02 Y:c9 P:b4 S:f9 pc: fa97, reg_addr: fae6
fa97 b0 4d c9 BCS  REL   A:d3 X:02 Y:c9 P:b4 S:f9 pc: fa99, reg_addr: fae6
fa99 c9 d3 d0 CMP  IMM   A:d3 X:02 Y:c9 P:b4 S:f9 pc: fa9b, reg_addr: 00d3
fa9b d0 49 60 BNE  REL   A:d3 X:02 Y:c9 P:37 S:f9 pc: fa9d, reg_addr: fae6
fa9d 60 24 01 RTS  IMPL  A:d3 X:02 Y:c9 P:37 S:f9 pc: ef34, reg_addr: 0000
ef34 ad 47 06 LDA  ABS   A:d3 X:02 Y:c9 P:37 S:fb pc: ef37, reg_addr: 0647
ef37 c9 52 f0 CMP  IMM   A:52 X:02 Y:c9 P:35 S:fb pc: ef39, reg_addr: 0052
ef39 f0 02 84 BEQ  REL   A:52 X:02 Y:c9 P:37 S:fb pc: ef3d, reg_addr: ef3d
ef3d a0 ff a9 LDY  IMM   A:52 X:02 Y:c9 P:37 S:fb pc: ef3f, reg_addr: 00ff
ef3f a9 37 8d LDA  IMM   A:52 X:02 Y:ff P:b5 S:fb pc: ef41, reg_addr: 0037
ef41 8d 47 06 STA  ABS   A:37 X:02 Y:ff P:35 S:fb pc: ef44, reg_addr: 0647
ef44 20 9e fa JSR  ABS   A:37 X:02 Y:ff P:35 S:fb pc: fa9e, reg_addr: fa9e
fa9e 24 01 38 BIT  ZP    A:37 X:02 Y:ff P:35 S:f9 pc: faa0, reg_addr: 0001
faa0 38 a9 10 SEC  IMPL  A:37 X:02 Y:ff P:f5 S:f9 pc: faa1, reg_addr: 0000
faa1 a9 10 60 LDA  IMM   A:37 X:02 Y:ff P:f5 S:f9 pc: faa3, reg_addr: 0010
faa3 60 50 40 RTS  IMPL  A:10 X:02 Y:ff P:75 S:f9 pc: ef47, reg_addr: 0000
ef47 13 45 ea SLO  INDY  A:10 X:02 Y:ff P:75 S:fb pc: ef49, reg_addr: 0647
ef49 ea ea 08 NOP  IMPL  A:7e X:02 Y:ff P:74 S:fb pc: ef4a, reg_addr: 0000
ef4a ea 08 48 NOP  IMPL  A:7e X:02 Y:ff P:74 S:fb pc: ef4b, reg_addr: 0000
ef4b 08 48 a0 PHP  IMPL  A:7e X:02 Y:ff P:74 S:fb pc: ef4c, reg_addr: 0000
ef4c 48 a0 ca PHA  IMPL  A:7e X:02 Y:ff P:74 S:fa pc: ef4d, reg_addr: 0000
ef4d a0 ca 68 LDY  IMM   A:7e X:02 Y:ff P:74 S:f9 pc: ef4f, reg_addr: 00ca
ef4f 68 28 20 PLA  IMPL  A:7e X:02 Y:ca P:f4 S:f9 pc: ef50, reg_addr: 0000
ef50 28 20 a4 PLP  IMPL  A:7e X:02 Y:ca P:74 S:fa pc: ef51, reg_addr: 0000
ef51 20 a4 fa JSR  ABS   A:7e X:02 Y:ca P:74 S:fb pc: faa4, reg_addr: faa4
faa4 50 40 f0 BVC  REL   A:7e X:02 Y:ca P:74 S:f9 pc: faa6, reg_addr: fae6
faa6 f0 3e 30 BEQ  REL   A:7e X:02 Y:ca P:74 S:f9 pc: faa8, reg_addr: fae6
faa8 30 3c b0 BMI  REL   A:7e X:02 Y:ca P:74 S:f9 pc: faaa, reg_addr: fae6
faaa b0 3a c9 BCS  REL   A:7e X:02 Y:ca P:74 S:f9 pc: faac, reg_addr: fae6
faac c9 7e d0 CMP  IMM   A:7e X:02 Y:ca P:74 S:f9 pc: faae, reg_addr: 007e
faae d0 36 60 BNE  REL   A:7e X:02 Y:ca P:77 S:f9 pc: fab0, reg_addr: fae6
fab0 60 24 01 RTS  IMPL  A:7e X:02 Y:ca P:77 S:f9 pc: ef54, reg_addr: 0000
ef54 ad 47 06 LDA  ABS   A:7e X:02 Y:ca P:77 S:fb pc: ef57, reg_addr: 0647
ef57 c9 6e f0 CMP  IMM   A:6e X:02 Y:ca P:75 S:fb pc: ef59, reg_addr: 006e
ef59 f0 02 84 BEQ  REL   A:6e X:02 Y:ca P:77 S:fb pc: ef5d, reg_addr: ef5d
ef5d a0 cb a2 LDY  IMM   A:6e X:02 Y:ca P:77 S:fb pc: ef5f, reg_addr: 00cb
ef5f a2 ff a9 LDX  IMM   A:6e X:02 Y:cb P:f5 S:fb pc: ef61, reg_addr: 00ff
ef61 a9 a5 85 LDA  IMM   A:6e X:ff Y:cb P:f5 S:fb pc: ef63, reg_addr: 00a5
ef63 85 47 20 STA  ZP    A:a5 X:ff Y:cb P:f5 S:fb pc: ef65, reg_addr: 0047
ef65 20 7b fa JSR  ABS   A:a5 X:ff Y:cb P:f5 S:fb pc: fa7b, reg_addr: fa7b
fa7b 24 01 18 BIT  ZP    A:a5 X:ff Y:cb P:f5 S:f9 pc: fa7d, reg_addr: 0001
fa7d 18 a9 b3 CLC  IMPL  A:a5 X:ff Y:cb P:f5 S:f9 pc: fa7e, reg_addr: 0000
fa7e a9 b3 60 LDA  IMM   A:a5 X:ff Y:cb P:f4 S:f9 pc: fa80, reg_addr: 00b3
fa80 60 50 63 RTS  IMPL  A:b3 X:ff Y:cb P:f4 S:f9 pc: ef68, reg_addr: 0000
ef68 17 48 ea SLO  ZPX   A:b3 X:ff Y:cb P:f4 S:fb pc: ef6a, reg_addr: 0047
ef6a ea ea ea NOP  IMPL  A:fb X:ff Y:cb P:f5 S:fb pc: ef6b, reg_addr: 0000
ef6b ea ea ea NOP  IMPL  A:fb X:ff Y:cb P:f5 S:fb pc: ef6c, reg_addr: 0000
ef6c ea ea 20 NOP  IMPL  A:fb X:ff Y:cb P:f5 S:fb pc: ef6d, reg_addr: 0000
ef6d ea 20 81 NOP  IMPL  A:fb X:ff Y:cb P:f5 S:fb pc: ef6e, reg_addr: 0000
ef6e 20 81 fa JSR  ABS   A:fb X:ff Y:cb P:f5 S:fb pc: fa81, reg_addr: fa81
fa81 50 63 90 BVC  REL   A:fb X:ff Y:cb P:f5 S:f9 pc: fa83, reg_addr: fae6
fa83 90 61 10 BCC  REL   A:fb X:ff Y:cb P:f5 S:f9 pc: fa85, reg_addr: fae6
fa85 10 5f c9 BPL  REL   A:fb X:ff Y:cb P:f5 S:f9 pc: fa87, reg_addr: fae6
fa87 c9 fb d0 CMP  IMM   A:fb X:ff Y:cb P:f5 S:f9 pc: fa89, reg_addr: 00fb
fa89 d0 5b 60 BNE  REL   A:fb X:ff Y:cb P:77 S:f9 pc: fa8b, reg_addr: fae6
fa8b 60 b8 18 RTS  IMPL  A:fb X:ff Y:cb P:77 S:f9 pc: ef71, reg_addr: 0000
ef71 a5 47 c9 LDA  ZP    A:fb X:ff Y:cb P:77 S:fb pc: ef73, reg_addr: 0047
ef73 c9 4a f0 CMP  IMM   A:4a X:ff Y:cb P:75 S:fb pc: ef75, reg_addr: 004a
ef75 f0 02 84 BEQ  REL   A:4a X:ff Y:cb P:77 S:fb pc: ef79, reg_addr: ef79
ef79 c8 a9 29 INY  IMPL  A:4a X:ff Y:cb P:77 S:fb pc: ef7a, reg_addr: 0000
ef7a a9 29 85 LDA  IMM   A:4a X:ff Y:cc P:f5 S:fb pc: ef7c, reg_addr: 0029
ef7c 85 47 20 STA  ZP    A:29 X:ff Y:cc P:75 S:fb pc: ef7e, reg_addr: 0047
ef7e 20 8c fa JSR  ABS   A:29 X:ff Y:cc P:75 S:fb pc: fa8c, reg_addr: fa8c
fa8c b8 18 a9 CLV  IMPL  A:29 X:ff Y:cc P:75 S:f9 pc: fa8d, reg_addr: 0000
fa8d 18 a9 c3 CLC  IMPL  A:29 X:ff Y:cc P:35 S:f9 pc: fa8e, reg_addr: 0000
fa8e a9 c3 60 LDA  IMM   A:29 X:ff Y:cc P:34 S:f9 pc: fa90, reg_addr: 00c3
fa90 60 70 53 RTS  IMPL  A:c3 X:ff Y:cc P:b4 S:f9 pc: ef81, reg_addr: 0000
ef81 17 48 ea SLO  ZPX   A:c3 X:ff Y:cc P:b4 S:fb pc: ef83, reg_addr: 0047
ef83 ea ea ea NOP  IMPL  A:d3 X:ff Y:cc P:b4 S:fb pc: ef84, reg_addr: 0000
ef84 ea ea ea NOP  IMPL  A:d3 X:ff Y:cc P:b4 S:fb pc: ef85, reg_addr: 0000
ef85 ea ea 20 NOP  IMPL  A:d3 X:ff Y:cc P:b4 S:fb pc: ef86, reg_addr: 0000
ef86 ea 20 91 NOP  IMPL  A:d3 X:ff Y:cc P:b4 S:fb pc: ef87, reg_addr: 0000
ef87 20 91 fa JSR  ABS   A:d3 X:ff Y:cc P:b4 S:fb pc: fa91, reg_addr: fa91
fa91 70 53 f0 BVS  REL   A:d3 X:ff Y:cc P:b4 S:f9 pc: fa93, reg_addr: fae6
fa93 f0 51 10 BEQ  REL   A:d3 X:ff Y:cc P:b4 S:f9 pc: fa95, reg_addr: fae6
fa95 10 4f b0 BPL  REL   A:d3 X:ff Y:cc P:b4 S:f9 pc: fa97, reg_addr: fae6
fa97 b0 4d c9 BCS  REL   A:d3 X:ff Y:cc P:b4 S:f9 pc: fa99, reg_addr: fae6
fa99 c9 d3 d0 CMP  IMM   A:d3 X:ff Y:cc P:b4 S:f9 pc: fa9b, reg_addr: 00d3
fa9b d0 49 60 BNE  REL   A:d3 X:ff Y:cc P:37 S:f9 pc: fa9d, reg_addr: fae6
fa9d 60 24 01 RTS  IMPL  A:d3 X:ff Y:cc P:37 S:f9 pc: ef8a, reg_addr: 0000
ef8a a5 47 c9 LDA  ZP    A:d3 X:ff Y:cc P:37 S:fb pc: ef8c, reg_addr: 0047
ef8c c9 52 f0 CMP  IMM   A:52 X:ff Y:cc P:35 S:fb pc: ef8e, reg_addr: 0052
ef8e f0 02 84 BEQ  REL   A:52 X:ff Y:cc P:37 S:fb pc: ef92, reg_addr: ef92
ef92 c8 a9 37 INY  IMPL  A:52 X:ff Y:cc P:37 S:fb pc: ef93, reg_addr: 0000
ef93 a9 37 85 LDA  IMM   A:52 X:ff Y:cd P:b5 S:fb pc: ef95, reg_addr: 0037
ef95 85 47 20 STA  ZP    A:37 X:ff Y:cd P:35 S:fb pc: ef97, reg_addr: 0047
ef97 20 9e fa JSR  ABS   A:37 X:ff Y:cd P:35 S:fb pc: fa9e, reg_addr: fa9e
fa9e 24 01 38 BIT  ZP    A:37 X:ff Y:cd P:35 S:f9 pc: faa0, reg_addr: 0001
faa0 38 a9 10 SEC  IMPL  A:37 X:ff Y:cd P:f5 S:f9 pc: faa1, reg_addr: 0000
faa1 a9 10 60 LDA  IMM   A:37 X:ff Y:cd P:f5 S:f9 pc: faa3, reg_addr: 0010
faa3 60 50 40 RTS  IMPL  A:10 X:ff Y:cd P:75 S:f9 pc: ef9a, reg_addr: 0000
ef9a 17 48 ea SLO  ZPX   A:10 X:ff Y:cd P:75 S:fb pc: ef9c, reg_addr: 0047
ef9c ea ea ea NOP  IMPL  A:7e X:ff Y:cd P:74 S:fb pc: ef9d, reg_addr: 0000
ef9d ea ea ea NOP  IMPL  A:7e X:ff Y:cd P:74 S:fb pc: ef9e, reg_addr: 0000
ef9e ea ea 20 NOP  IMPL  A:7e X:ff Y:cd P:74 S:fb pc: ef9f, reg_addr: 0000
ef9f ea 20 a4 NOP  IMPL  A:7e X:ff Y:cd P:74 S:fb pc: efa0, reg_addr: 0000
efa0 20 a4 fa JSR  ABS   A:7e X:ff Y:cd P:74 S:fb pc: faa4, reg_addr: faa4
faa4 50 40 f0 BVC  REL   A:7e X:ff Y:cd P:74 S:f9 pc: faa6, reg_addr: fae6
faa6 f0 3e 30 BEQ  REL   A:7e X:ff Y:cd P:74 S:f9 pc: faa8, reg_addr: fae6
faa8 30 3c b0 BMI  REL   A:7e X:ff Y:cd P:74 S:f9 pc: faaa, reg_addr: fae6
faaa b0 3a c9 BCS  REL   A:7e X:ff Y:cd P:74 S:f9 pc: faac, reg_addr: fae6
faac c9 7e d0 CMP  IMM   A:7e X:ff Y:cd P:74 S:f9 pc: faae, reg_addr: 007e
faae d0 36 60 BNE  REL   A:7e X:ff Y:cd P:77 S:f9 pc: fab0, reg_addr: fae6
fab0 60 24 01 RTS  IMPL  A:7e X:ff Y:cd P:77 S:f9 pc: efa3, reg_addr: 0000
efa3 a5 47 c9 LDA  ZP    A:7e X:ff Y:cd P:77 S:fb pc: efa5, reg_addr: 0047
efa5 c9 6e f0 CMP  IMM   A:6e X:ff Y:cd P:75 S:fb pc: efa7, reg_addr: 006e
efa7 f0 02 84 BEQ  REL   A:6e X:ff Y:cd P:77 S:fb pc: efab, reg_addr: efab
efab a9 a5 8d LDA  IMM   A:6e X:ff Y:cd P:77 S:fb pc: efad, reg_addr: 00a5
efad 8d 47 06 STA  ABS   A:a5 X:ff Y:cd P:f5 S:fb pc: efb0, reg_addr: 0647
efb0 a0 ff 20 LDY  IMM   A:a5 X:ff Y:cd P:f5 S:fb pc: efb2, reg_addr: 00ff
efb2 20 7b fa JSR  ABS   A:a5 X:ff Y:ff P:f5 S:fb pc: fa7b, reg_addr: fa7b
fa7b 24 01 18 BIT  ZP    A:a5 X:ff Y:ff P:f5 S:f9 pc: fa7d, reg_addr: 0001
fa7d 18 a9 b3 CLC  IMPL  A:a5 X:ff Y:ff P:f5 S:f9 pc: fa7e, reg_addr: 0000
fa7e a9 b3 60 LDA  IMM   A:a5 X:ff Y:ff P:f4 S:f9 pc: fa80, reg_addr: 00b3
fa80 60 50 63 RTS  IMPL  A:b3 X:ff Y:ff P:f4 S:f9 pc: efb5, reg_addr: 0000
efb5 1b 48 05 SLO  ABSY  A:b3 X:ff Y:ff P:f4 S:fb pc: efb8, reg_addr: 0647
efb8 ea ea 08 NOP  IMPL  A:fb X:ff Y:ff P:f5 S:fb pc: efb9, reg_addr: 0000
efb9 ea 08 48 NOP  IMPL  A:fb X:ff Y:ff P:f5 S:fb pc: efba, reg_addr: 0000
efba 08 48 a0 PHP  IMPL  A:fb X:ff Y:ff P:f5 S:fb pc: efbb, reg_addr: 0000
efbb 48 a0 ce PHA  IMPL  A:fb X:ff Y:ff P:f5 S:fa pc: efbc, reg_addr: 0000
efbc a0 ce 68 LDY  IMM   A:fb X:ff Y:ff P:f5 S:f9 pc: efbe, reg_addr: 00ce
efbe 68 28 20 PLA  IMPL  A:fb X:ff Y:ce P:f5 S:f9 pc: efbf, reg_addr: 0000
efbf 28 20 81 PLP  IMPL  A:fb X:ff Y:ce P:f5 S:fa pc: efc0, reg_addr: 0000
efc0 20 81 fa JSR  ABS   A:fb X:ff Y:ce P:f5 S:fb pc: fa81, reg_addr: fa81
fa81 50 63 90 BVC  REL   A:fb X:ff Y:ce P:f5 S:f9 pc: fa83, reg_addr: fae6
fa83 90 61 10 BCC  REL   A:fb X:ff Y:ce P:f5 S:f9 pc: fa85, reg_addr: fae6
fa85 10 5f c9 BPL  REL   A:fb X:ff Y:ce P:f5 S:f9 pc: fa87, reg_addr: fae6
fa87 c9 fb d0 CMP  IMM   A:fb X:ff Y:ce P:f5 S:f9 pc: fa89, reg_addr: 00fb
fa89 d0 5b 60 BNE  REL   A:fb X:ff Y:ce P:77 S:f9 pc: fa8b, reg_addr: fae6
fa8b 60 b8 18 RTS  IMPL  A:fb X:ff Y:ce P:77 S:f9 pc: efc3, reg_addr: 0000
efc3 ad 47 06 LDA  ABS   A:fb X:ff Y:ce P:77 S:fb pc: efc6, reg_addr: 0647
efc6 c9 4a f0 CMP  IMM   A:4a X:ff Y:ce P:75 S:fb pc: efc8, reg_addr: 004a
efc8 f0 02 84 BEQ  REL   A:4a X:ff Y:ce P:77 S:fb pc: efcc, reg_addr: efcc
efcc a0 ff a9 LDY  IMM   A:4a X:ff Y:ce P:77 S:fb pc: efce, reg_addr: 00ff
efce a9 29 8d LDA  IMM   A:4a X:ff Y:ff P:f5 S:fb pc: efd0, reg_addr: 0029
efd0 8d 47 06 STA  ABS   A:29 X:ff Y:ff P:75 S:fb pc: efd3, reg_addr: 0647
efd3 20 8c fa JSR  ABS   A:29 X:ff Y:ff P:75 S:fb pc: fa8c, reg_addr: fa8c
fa8c b8 18 a9 CLV  IMPL  A:29 X:ff Y:ff P:75 S:f9 pc: fa8d, reg_addr: 0000
fa8d 18 a9 c3 CLC  IMPL  A:29 X:ff Y:ff P:35 S:f9 pc: fa8e, reg_addr: 0000
fa8e a9 c3 60 LDA  IMM   A:29 X:ff Y:ff P:34 S:f9 pc: fa90, reg_addr: 00c3
fa90 60 70 53 RTS  IMPL  A:c3 X:ff Y:ff P:b4 S:f9 pc: efd6, reg_addr: 0000
efd6 1b 48 05 SLO  ABSY  A:c3 X:ff Y:ff P:b4 S:fb pc: efd9, reg_addr: 0647
efd9 ea ea 08 NOP  IMPL  A:d3 X:ff Y:ff P:b4 S:fb pc: efda, reg_addr: 0000
efda ea 08 48 NOP  IMPL  A:d3 X:ff Y:ff P:b4 S:fb pc: efdb, reg_addr: 0000
efdb 08 48 a0 PHP  IMPL  A:d3 X:ff Y:ff P:b4 S:fb pc: efdc, reg_addr: 0000
efdc 48 a0 cf PHA  IMPL  A:d3 X:ff Y:ff P:b4 S:fa pc: efdd, reg_addr: 0000
efdd a0 cf 68 LDY  IMM   A:d3 X:ff Y:ff P:b4 S:f9 pc: efdf, reg_addr: 00cf
efdf 68 28 20 PLA  IMPL  A:d3 X:ff Y:cf P:b4 S:f9 pc: efe0, reg_addr: 0000
efe0 28 20 91 PLP  IMPL  A:d3 X:ff Y:cf P:b4 S:fa pc: efe1, reg_addr: 0000
efe1 20 91 fa JSR  ABS   A:d3 X:ff Y:cf P:b4 S:fb pc: fa91, reg_addr: fa91
fa91 70 53 f0 BVS  REL   A:d3 X:ff Y:cf P:b4 S:f9 pc: fa93, reg_addr: fae6
fa93 f0 51 10 BEQ  REL   A:d3 X:ff Y:cf P:b4 S:f9 pc: fa95, reg_addr: fae6
fa95 10 4f b0 BPL  REL   A:d3 X:ff Y:cf P:b4 S:f9 pc: fa97, reg_addr: fae6
fa97 b0 4d c9 BCS  REL   A:d3 X:ff Y:cf P:b4 S:f9 pc: fa99, reg_addr: fae6
fa99 c9 d3 d0 CMP  IMM   A:d3 X:ff Y:cf P:b4 S:f9 pc: fa9b, reg_addr: 00d3
fa9b d0 49 60 BNE  REL   A:d3 X:ff Y:cf P:37 S:f9 pc: fa9d, reg_addr: fae6
fa9d 60 24 01 RTS  IMPL  A:d3 X:ff Y:cf P:37 S:f9 pc: efe4, reg_addr: 0000
efe4 ad 47 06 LDA  ABS   A:d3 X:ff Y:cf P:37 S:fb pc: efe7, reg_addr: 0647
efe7 c9 52 f0 CMP  IMM   A:52 X:ff Y:cf P:35 S:fb pc: efe9, reg_addr: 0052
efe9 f0 02 84 BEQ  REL   A:52 X:ff Y:cf P:37 S:fb pc: efed, reg_addr: efed
efed a0 ff a9 LDY  IMM   A:52 X:ff Y:cf P:37 S:fb pc: efef, reg_addr: 00ff
efef a9 37 8d LDA  IMM   A:52 X:ff Y:ff P:b5 S:fb pc: eff1, reg_addr: 0037
eff1 8d 47 06 STA  ABS   A:37 X:ff Y:ff P:35 S:fb pc: eff4, reg_addr: 0647
eff4 20 9e fa JSR  ABS   A:37 X:ff Y:ff P:35 S:fb pc: fa9e, reg_addr: fa9e
fa9e 24 01 38 BIT  ZP    A:37 X:ff Y:ff P:35 S:f9 pc: faa0, reg_addr: 0001
faa0 38 a9 10 SEC  IMPL  A:37 X:ff Y:ff P:f5 S:f9 pc: faa1, reg_addr: 0000
faa1 a9 10 60 LDA  IMM   A:37 X:ff Y:ff P:f5 S:f9 pc: faa3, reg_addr: 0010
faa3 60 50 40 RTS  IMPL  A:10 X:ff Y:ff P:75 S:f9 pc: eff7, reg_addr: 0000
eff7 1b 48 05 SLO  ABSY  A:10 X:ff Y:ff P:75 S:fb pc: effa, reg_addr: 0647
effa ea ea 08 NOP  IMPL  A:7e X:ff Y:ff P:74 S:fb pc: effb, reg_addr: 0000
effb ea 08 48 NOP  IMPL  A:7e X:ff Y:ff P:74 S:fb pc: effc, reg_addr: 0000
effc 08 48 a0 PHP  IMPL  A:7e X:ff Y:ff P:74 S:fb pc: effd, reg_addr: 0000
effd 48 a0 d0 PHA  IMPL  A:7e X:ff Y:ff P:74 S:fa pc: effe, reg_addr: 0000
effe a0 d0 68 LDY  IMM   A:7e X:ff Y:ff P:74 S:f9 pc: f000, reg_addr: 00d0
f000 68 28 20 PLA  IMPL  A:7e X:ff Y:d0 P:f4 S:f9 pc: f001, reg_addr: 0000
f001 28 20 a4 PLP  IMPL  A:7e X:ff Y:d0 P:74 S:fa pc: f002, reg_addr: 0000
f002 20 a4 fa JSR  ABS   A:7e X:ff Y:d0 P:74 S:fb pc: faa4, reg_addr: faa4
faa4 50 40 f0 BVC  REL   A:7e X:ff Y:d0 P:74 S:f9 pc: faa6, reg_addr: fae6
faa6 f0 3e 30 BEQ  REL   A:7e X:ff Y:d0 P:74 S:f9 pc: faa8, reg_addr: fae6
faa8 30 3c b0 BMI  REL   A:7e X:ff Y:d0 P:74 S:f9 pc: faaa, reg_addr: fae6
faaa b0 3a c9 BCS  REL   A:7e X:ff Y:d0 P:74 S:f9 pc: faac, reg_addr: fae6
faac c9 7e d0 CMP  IMM   A:7e X:ff Y:d0 P:74 S:f9 pc: faae, reg_addr: 007e
faae d0 36 60 BNE  REL   A:7e X:ff Y:d0 P:77 S:f9 pc: fab0, reg_addr: fae6
fab0 60 24 01 RTS  IMPL  A:7e X:ff Y:d0 P:77 S:f9 pc: f005, reg_addr: 0000
f005 ad 47 06 LDA  ABS   A:7e X:ff Y:d0 P:77 S:fb pc: f008, reg_addr: 0647
f008 c9 6e f0 CMP  IMM   A:6e X:ff Y:d0 P:75 S:fb pc: f00a, reg_addr: 006e
f00a f0 02 84 BEQ  REL   A:6e X:ff Y:d0 P:77 S:fb pc: f00e, reg_addr: f00e
f00e a0 d1 a2 LDY  IMM   A:6e X:ff Y:d0 P:77 S:fb pc: f010, reg_addr: 00d1
f010 a2 ff a9 LDX  IMM   A:6e X:ff Y:d1 P:f5 S:fb pc: f012, reg_addr: 00ff
f012 a9 a5 8d LDA  IMM   A:6e X:ff Y:d1 P:f5 S:fb pc: f014, reg_addr: 00a5
f014 8d 47 06 STA  ABS   A:a5 X:ff Y:d1 P:f5 S:fb pc: f017, reg_addr: 0647
f017 20 7b fa JSR  ABS   A:a5 X:ff Y:d1 P:f5 S:fb pc: fa7b, reg_addr: fa7b
fa7b 24 01 18 BIT  ZP    A:a5 X:ff Y:d1 P:f5 S:f9 pc: fa7d, reg_addr: 0001
fa7d 18 a9 b3 CLC  IMPL  A:a5 X:ff Y:d1 P:f5 S:f9 pc: fa7e, reg_addr: 0000
fa7e a9 b3 60 LDA  IMM   A:a5 X:ff Y:d1 P:f4 S:f9 pc: fa80, reg_addr: 00b3
fa80 60 50 63 RTS  IMPL  A:b3 X:ff Y:d1 P:f4 S:f9 pc: f01a, reg_addr: 0000
f01a 1f 48 05 SLO  ABSX  A:b3 X:ff Y:d1 P:f4 S:fb pc: f01d, reg_addr: 0647
f01d ea ea ea NOP  IMPL  A:fb X:ff Y:d1 P:f5 S:fb pc: f01e, reg_addr: 0000
f01e ea ea ea NOP  IMPL  A:fb X:ff Y:d1 P:f5 S:fb pc: f01f, reg_addr: 0000
f01f ea ea 20 NOP  IMPL  A:fb X:ff Y:d1 P:f5 S:fb pc: f020, reg_addr: 0000
f020 ea 20 81 NOP  IMPL  A:fb X:ff Y:d1 P:f5 S:fb pc: f021, reg_addr: 0000
f021 20 81 fa JSR  ABS   A:fb X:ff Y:d1 P:f5 S:fb pc: fa81, reg_addr: fa81
fa81 50 63 90 BVC  REL   A:fb X:ff Y:d1 P:f5 S:f9 pc: fa83, reg_addr: fae6
fa83 90 61 10 BCC  REL   A:fb X:ff Y:d1 P:f5 S:f9 pc: fa85, reg_addr: fae6
fa85 10 5f c9 BPL  REL   A:fb X:ff Y:d1 P:f5 S:f9 pc: fa87, reg_addr: fae6
fa87 c9 fb d0 CMP  IMM   A:fb X:ff Y:d1 P:f5 S:f9 pc: fa89, reg_addr: 00fb
fa89 d0 5b 60 BNE  REL   A:fb X:ff Y:d1 P:77 S:f9 pc: fa8b, reg_addr: fae6
fa8b 60 b8 18 RTS  IMPL  A:fb X:ff Y:d1 P:77 S:f9 pc: f024, reg_addr: 0000
f024 ad 47 06 LDA  ABS   A:fb X:ff Y:d1 P:77 S:fb pc: f027, reg_addr: 0647
f027 c9 4a f0 CMP  IMM   A:4a X:ff Y:d1 P:75 S:fb pc: f029, reg_addr: 004a
f029 f0 02 84 BEQ  REL   A:4a X:ff Y:d1 P:77 S:fb pc: f02d, reg_addr: f02d
f02d c8 a9 29 INY  IMPL  A:4a X:ff Y:d1 P:77 S:fb pc: f02e, reg_addr: 0000
f02e a9 29 8d LDA  IMM   A:4a X:ff Y:d2 P:f5 S:fb pc: f030, reg_addr: 0029
f030 8d 47 06 STA  ABS   A:29 X:ff Y:d2 P:75 S:fb pc: f033, reg_addr: 0647
f033 20 8c fa JSR  ABS   A:29 X:ff Y:d2 P:75 S:fb pc: fa8c, reg_addr: fa8c
fa8c b8 18 a9 CLV  IMPL  A:29 X:ff Y:d2 P:75 S:f9 pc: fa8d, reg_addr: 0000
fa8d 18 a9 c3 CLC  IMPL  A:29 X:ff Y:d2 P:35 S:f9 pc: fa8e, reg_addr: 0000
fa8e a9 c3 60 LDA  IMM   A:29 X:ff Y:d2 P:34 S:f9 pc: fa90, reg_addr: 00c3
fa90 60 70 53 RTS  IMPL  A:c3 X:ff Y:d2 P:b4 S:f9 pc: f036, reg_addr: 0000
f036 1f 48 05 SLO  ABSX  A:c3 X:ff Y:d2 P:b4 S:fb pc: f039, reg_addr: 0647
f039 ea ea ea NOP  IMPL  A:d3 X:ff Y:d2 P:b4 S:fb pc: f03a, reg_addr: 0000
f03a ea ea ea NOP  IMPL  A:d3 X:ff Y:d2 P:b4 S:fb pc: f03b, reg_addr: 0000
f03b ea ea 20 NOP  IMPL  A:d3 X:ff Y:d2 P:b4 S:fb pc: f03c, reg_addr: 0000
f03c ea 20 91 NOP  IMPL  A:d3 X:ff Y:d2 P:b4 S:fb pc: f03d, reg_addr: 0000
f03d 20 91 fa JSR  ABS   A:d3 X:ff Y:d2 P:b4 S:fb pc: fa91, reg_addr: fa91
fa91 70 53 f0 BVS  REL   A:d3 X:ff Y:d2 P:b4 S:f9 pc: fa93, reg_addr: fae6
fa93 f0 51 10 BEQ  REL   A:d3 X:ff Y:d2 P:b4 S:f9 pc: fa95, reg_addr: fae6
fa95 10 4f b0 BPL  REL   A:d3 X:ff Y:d2 P:b4 S:f9 pc: fa97, reg_addr: fae6
fa97 b0 4d c9 BCS  REL   A:d3 X:ff Y:d2 P:b4 S:f9 pc: fa99, reg_addr: fae6
fa99 c9 d3 d0 CMP  IMM   A:d3 X:ff Y:d2 P:b4 S:f9 pc: fa9b, reg_addr: 00d3
fa9b d0 49 60 BNE  REL   A:d3 X:ff Y:d2 P:37 S:f9 pc: fa9d, reg_addr: fae6
fa9d 60 24 01 RTS  IMPL  A:d3 X:ff Y:d2 P:37 S:f9 pc: f040, reg_addr: 0000
f040 ad 47 06 LDA  ABS   A:d3 X:ff Y:d2 P:37 S:fb pc: f043, reg_addr: 0647
f043 c9 52 f0 CMP  IMM   A:52 X:ff Y:d2 P:35 S:fb pc: f045, reg_addr: 0052
f045 f0 02 84 BEQ  REL   A:52 X:ff Y:d2 P:37 S:fb pc: f049, reg_addr: f049
f049 c8 a9 37 INY  IMPL  A:52 X:ff Y:d2 P:37 S:fb pc: f04a, reg_addr: 0000
f04a a9 37 8d LDA  IMM   A:52 X:ff Y:d3 P:b5 S:fb pc: f04c, reg_addr: 0037
f04c 8d 47 06 STA  ABS   A:37 X:ff Y:d3 P:35 S:fb pc: f04f, reg_addr: 0647
f04f 20 9e fa JSR  ABS   A:37 X:ff Y:d3 P:35 S:fb pc: fa9e, reg_addr: fa9e
fa9e 24 01 38 BIT  ZP    A:37 X:ff Y:d3 P:35 S:f9 pc: faa0, reg_addr: 0001
faa0 38 a9 10 SEC  IMPL  A:37 X:ff Y:d3 P:f5 S:f9 pc: faa1, reg_addr: 0000
faa1 a9 10 60 LDA  IMM   A:37 X:ff Y:d3 P:f5 S:f9 pc: faa3, reg_addr: 0010
faa3 60 50 40 RTS  IMPL  A:10 X:ff Y:d3 P:75 S:f9 pc: f052, reg_addr: 0000
f052 1f 48 05 SLO  ABSX  A:10 X:ff Y:d3 P:75 S:fb pc: f055, reg_addr: 0647
f055 ea ea ea NOP  IMPL  A:7e X:ff Y:d3 P:74 S:fb pc: f056, reg_addr: 0000
f056 ea ea ea NOP  IMPL  A:7e X:ff Y:d3 P:74 S:fb pc: f057, reg_addr: 0000
f057 ea ea 20 NOP  IMPL  A:7e X:ff Y:d3 P:74 S:fb pc: f058, reg_addr: 0000
f058 ea 20 a4 NOP  IMPL  A:7e X:ff Y:d3 P:74 S:fb pc: f059, reg_addr: 0000
f059 20 a4 fa JSR  ABS   A:7e X:ff Y:d3 P:74 S:fb pc: faa4, reg_addr: faa4
faa4 50 40 f0 BVC  REL   A:7e X:ff Y:d3 P:74 S:f9 pc: faa6, reg_addr: fae6
faa6 f0 3e 30 BEQ  REL   A:7e X:ff Y:d3 P:74 S:f9 pc: faa8, reg_addr: fae6
faa8 30 3c b0 BMI  REL   A:7e X:ff Y:d3 P:74 S:f9 pc: faaa, reg_addr: fae6
faaa b0 3a c9 BCS  REL   A:7e X:ff Y:d3 P:74 S:f9 pc: faac, reg_addr: fae6
faac c9 7e d0 CMP  IMM   A:7e X:ff Y:d3 P:74 S:f9 pc: faae, reg_addr: 007e
faae d0 36 60 BNE  REL   A:7e X:ff Y:d3 P:77 S:f9 pc: fab0, reg_addr: fae6
fab0 60 24 01 RTS  IMPL  A:7e X:ff Y:d3 P:77 S:f9 pc: f05c, reg_addr: 0000
f05c ad 47 06 LDA  ABS   A:7e X:ff Y:d3 P:77 S:fb pc: f05f, reg_addr: 0647
f05f c9 6e f0 CMP  IMM   A:6e X:ff Y:d3 P:75 S:fb pc: f061, reg_addr: 006e
f061 f0 02 84 BEQ  REL   A:6e X:ff Y:d3 P:77 S:fb pc: f065, reg_addr: f065
f065 60 a9 ff RTS  IMPL  A:6e X:ff Y:d3 P:77 S:fb pc: c644, reg_addr: 0000
c644 20 66 f0 JSR  ABS   A:6e X:ff Y:d3 P:77 S:fd pc: f066, reg_addr: f066
f066 a9 ff 85 LDA  IMM   A:6e X:ff Y:d3 P:77 S:fb pc: f068, reg_addr: 00ff
f068 85 01 a0 STA  ZP    A:ff X:ff Y:d3 P:f5 S:fb pc: f06a, reg_addr: 0001
f06a a0 d4 a2 LDY  IMM   A:ff X:ff Y:d3 P:f5 S:fb pc: f06c, reg_addr: 00d4
f06c a2 02 a9 LDX  IMM   A:ff X:ff Y:d4 P:f5 S:fb pc: f06e, reg_addr: 0002
f06e a9 47 85 LDA  IMM   A:ff X:02 Y:d4 P:75 S:fb pc: f070, reg_addr: 0047
f070 85 47 a9 STA  ZP    A:47 X:02 Y:d4 P:75 S:fb pc: f072, reg_addr: 0047
f072 a9 06 85 LDA  IMM   A:47 X:02 Y:d4 P:75 S:fb pc: f074, reg_addr: 0006
f074 85 48 a9 STA  ZP    A:06 X:02 Y:d4 P:75 S:fb pc: f076, reg_addr: 0048
f076 a9 a5 8d LDA  IMM   A:06 X:02 Y:d4 P:75 S:fb pc: f078, reg_addr: 00a5
f078 8d 47 06 STA  ABS   A:a5 X:02 Y:d4 P:f5 S:fb pc: f07b, reg_addr: 0647
f07b 20 53 fb JSR  ABS   A:a5 X:02 Y:d4 P:f5 S:fb pc: fb53, reg_addr: fb53
fb53 24 01 18 BIT  ZP    A:a5 X:02 Y:d4 P:f5 S:f9 pc: fb55, reg_addr: 0001
fb55 18 a9 b3 CLC  IMPL  A:a5 X:02 Y:d4 P:f5 S:f9 pc: fb56, reg_addr: 0000
fb56 a9 b3 60 LDA  IMM   A:a5 X:02 Y:d4 P:f4 S:f9 pc: fb58, reg_addr: 00b3
fb58 60 50 1a RTS  IMPL  A:b3 X:02 Y:d4 P:f4 S:f9 pc: f07e, reg_addr: 0000
f07e 23 45 ea RLA  INDX  A:b3 X:02 Y:d4 P:f4 S:fb pc: f080, reg_addr: 0647
f080 ea ea ea NOP  IMPL  A:02 X:02 Y:d4 P:75 S:fb pc: f081, reg_addr: 0000
f081 ea ea ea NOP  IMPL  A:02 X:02 Y:d4 P:75 S:fb pc: f082, reg_addr: 0000
f082 ea ea 20 NOP  IMPL  A:02 X:02 Y:d4 P:75 S:fb pc: f083, reg_addr: 0000
f083 ea 20 59 NOP  IMPL  A:02 X:02 Y:d4 P:75 S:fb pc: f084, reg_addr: 0000
f084 20 59 fb JSR  ABS   A:02 X:02 Y:d4 P:75 S:fb pc: fb59, reg_addr: fb59
fb59 50 1a 90 BVC  REL   A:02 X:02 Y:d4 P:75 S:f9 pc: fb5b, reg_addr: fb75
fb5b 90 18 30 BCC  REL   A:02 X:02 Y:d4 P:75 S:f9 pc: fb5d, reg_addr: fb75
fb5d 30 16 c9 BMI  REL   A:02 X:02 Y:d4 P:75 S:f9 pc: fb5f, reg_addr: fb75
fb5f c9 02 d0 CMP  IMM   A:02 X:02 Y:d4 P:75 S:f9 pc: fb61, reg_addr: 0002
fb61 d0 12 60 BNE  REL   A:02 X:02 Y:d4 P:77 S:f9 pc: fb63, reg_addr: fb75
fb63 60 b8 18 RTS  IMPL  A:02 X:02 Y:d4 P:77 S:f9 pc: f087, reg_addr: 0000
f087 ad 47 06 LDA  ABS   A:02 X:02 Y:d4 P:77 S:fb pc: f08a, reg_addr: 0647
f08a c9 4a f0 CMP  IMM   A:4a X:02 Y:d4 P:75 S:fb pc: f08c, reg_addr: 004a
f08c f0 02 84 BEQ  REL   A:4a X:02 Y:d4 P:77 S:fb pc: f090, reg_addr: f090
f090 c8 a9 29 INY  IMPL  A:4a X:02 Y:d4 P:77 S:fb pc: f091, reg_addr: 0000
f091 a9 29 8d LDA  IMM   A:4a X:02 Y:d5 P:f5 S:fb pc: f093, reg_addr: 0029
f093 8d 47 06 STA  ABS   A:29 X:02 Y:d5 P:75 S:fb pc: f096, reg_addr: 0647
f096 20 64 fb JSR  ABS   A:29 X:02 Y:d5 P:75 S:fb pc: fb64, reg_addr: fb64
fb64 b8 18 a9 CLV  IMPL  A:29 X:02 Y:d5 P:75 S:f9 pc: fb65, reg_addr: 0000
fb65 18 a9 42 CLC  IMPL  A:29 X:02 Y:d5 P:35 S:f9 pc: fb66, reg_addr: 0000
fb66 a9 42 60 LDA  IMM   A:29 X:02 Y:d5 P:34 S:f9 pc: fb68, reg_addr: 0042
fb68 60 70 0a RTS  IMPL  A:42 X:02 Y:d5 P:34 S:f9 pc: f099, reg_addr: 0000
f099 23 45 ea RLA  INDX  A:42 X:02 Y:d5 P:34 S:fb pc: f09b, reg_addr: 0647
f09b ea ea ea NOP  IMPL  A:42 X:02 Y:d5 P:34 S:fb pc: f09c, reg_addr: 0000
f09c ea ea ea NOP  IMPL  A:42 X:02 Y:d5 P:34 S:fb pc: f09d, reg_addr: 0000
f09d ea ea 20 NOP  IMPL  A:42 X:02 Y:d5 P:34 S:fb pc: f09e, reg_addr: 0000
f09e ea 20 69 NOP  IMPL  A:42 X:02 Y:d5 P:34 S:fb pc: f09f, reg_addr: 0000
f09f 20 69 fb JSR  ABS   A:42 X:02 Y:d5 P:34 S:fb pc: fb69, reg_addr: fb69
fb69 70 0a f0 BVS  REL   A:42 X:02 Y:d5 P:34 S:f9 pc: fb6b, reg_addr: fb75
fb6b f0 08 30 BEQ  REL   A:42 X:02 Y:d5 P:34 S:f9 pc: fb6d, reg_addr: fb75
fb6d 30 06 b0 BMI  REL   A:42 X:02 Y:d5 P:34 S:f9 pc: fb6f, reg_addr: fb75
fb6f b0 04 c9 BCS  REL   A:42 X:02 Y:d5 P:34 S:f9 pc: fb71, reg_addr: fb75
fb71 c9 42 f0 CMP  IMM   A:42 X:02 Y:d5 P:34 S:f9 pc: fb73, reg_addr: 0042
fb73 f0 02 84 BEQ  REL   A:42 X:02 Y:d5 P:37 S:f9 pc: fb77, reg_addr: fb77
fb77 60 00 00 RTS  IMPL  A:42 X:02 Y:d5 P:37 S:f9 pc: f0a2, reg_addr: 0000
f0a2 ad 47 06 LDA  ABS   A:42 X:02 Y:d5 P:37 S:fb pc: f0a5, reg_addr: 0647
f0a5 c9 52 f0 CMP  IMM   A:52 X:02 Y:d5 P:35 S:fb pc: f0a7, reg_addr: 0052
f0a7 f0 02 84 BEQ  REL   A:52 X:02 Y:d5 P:37 S:fb pc: f0ab, reg_addr: f0ab
f0ab c8 a9 37 INY  IMPL  A:52 X:02 Y:d5 P:37 S:fb pc: f0ac, reg_addr: 0000
f0ac a9 37 8d LDA  IMM   A:52 X:02 Y:d6 P:b5 S:fb pc: f0ae, reg_addr: 0037
f0ae 8d 47 06 STA  ABS   A:37 X:02 Y:d6 P:35 S:fb pc: f0b1, reg_addr: 0647
f0b1 20 68 fa JSR  ABS   A:37 X:02 Y:d6 P:35 S:fb pc: fa68, reg_addr: fa68
fa68 24 01 38 BIT  ZP    A:37 X:02 Y:d6 P:35 S:f9 pc: fa6a, reg_addr: 0001
fa6a 38 a9 75 SEC  IMPL  A:37 X:02 Y:d6 P:f5 S:f9 pc: fa6b, reg_addr: 0000
fa6b a9 75 60 LDA  IMM   A:37 X:02 Y:d6 P:f5 S:f9 pc: fa6d, reg_addr: 0075
fa6d 60 50 76 RTS  IMPL  A:75 X:02 Y:d6 P:75 S:f9 pc: f0b4, reg_addr: 0000
f0b4 23 45 ea RLA  INDX  A:75 X:02 Y:d6 P:75 S:fb pc: f0b6, reg_addr: 0647
f0b6 ea ea ea NOP  IMPL  A:65 X:02 Y:d6 P:74 S:fb pc: f0b7, reg_addr: 0000
f0b7 ea ea ea NOP  IMPL  A:65 X:02 Y:d6 P:74 S:fb pc: f0b8, reg_addr: 0000
f0b8 ea ea 20 NOP  IMPL  A:65 X:02 Y:d6 P:74 S:fb pc: f0b9, reg_addr: 0000
f0b9 ea 20 6e NOP  IMPL  A:65 X:02 Y:d6 P:74 S:fb pc: f0ba, reg_addr: 0000
f0ba 20 6e fa JSR  ABS   A:65 X:02 Y:d6 P:74 S:fb pc: fa6e, reg_addr: fa6e
fa6e 50 76 f0 BVC  REL   A:65 X:02 Y:d6 P:74 S:f9 pc: fa70, reg_addr: fae6
fa70 f0 74 30 BEQ  REL   A:65 X:02 Y:d6 P:74 S:f9 pc: fa72, reg_addr: fae6
fa72 30 72 b0 BMI  REL   A:65 X:02 Y:d6 P:74 S:f9 pc: fa74, reg_addr: fae6
fa74 b0 70 c9 BCS  REL   A:65 X:02 Y:d6 P:74 S:f9 pc: fa76, reg_addr: fae6
fa76 c9 65 d0 CMP  IMM   A:65 X:02 Y:d6 P:74 S:f9 pc: fa78, reg_addr: 0065
fa78 d0 6c 60 BNE  REL   A:65 X:02 Y:d6 P:77 S:f9 pc: fa7a, reg_addr: fae6
fa7a 60 24 01 RTS  IMPL  A:65 X:02 Y:d6 P:77 S:f9 pc: f0bd, reg_addr: 0000
f0bd ad 47 06 LDA  ABS   A:65 X:02 Y:d6 P:77 S:fb pc: f0c0, reg_addr: 0647
f0c0 c9 6f f0 CMP  IMM   A:6f X:02 Y:d6 P:75 S:fb pc: f0c2, reg_addr: 006f
f0c2 f0 02 84 BEQ  REL   A:6f X:02 Y:d6 P:77 S:fb pc: f0c6, reg_addr: f0c6
f0c6 c8 a9 a5 INY  IMPL  A:6f X:02 Y:d6 P:77 S:fb pc: f0c7, reg_addr: 0000
f0c7 a9 a5 85 LDA  IMM   A:6f X:02 Y:d7 P:f5 S:fb pc: f0c9, reg_addr: 00a5
f0c9 85 47 20 STA  ZP    A:a5 X:02 Y:d7 P:f5 S:fb pc: f0cb, reg_addr: 0047
f0cb 20 53 fb JSR  ABS   A:a5 X:02 Y:d7 P:f5 S:fb pc: fb53, reg_addr: fb53
fb53 24 01 18 BIT  ZP    A:a5 X:02 Y:d7 P:f5 S:f9 pc: fb55, reg_addr: 0001
fb55 18 a9 b3 CLC  IMPL  A:a5 X:02 Y:d7 P:f5 S:f9 pc: fb56, reg_addr: 0000
fb56 a9 b3 60 LDA  IMM   A:a5 X:02 Y:d7 P:f4 S:f9 pc: fb58, reg_addr: 00b3
fb58 60 50 1a RTS  IMPL  A:b3 X:02 Y:d7 P:f4 S:f9 pc: f0ce, reg_addr: 0000
f0ce 27 47 ea RLA  ZP    A:b3 X:02 Y:d7 P:f4 S:fb pc: f0d0, reg_addr: 0047
f0d0 ea ea ea NOP  IMPL  A:02 X:02 Y:d7 P:75 S:fb pc: f0d1, reg_addr: 0000
f0d1 ea ea ea NOP  IMPL  A:02 X:02 Y:d7 P:75 S:fb pc: f0d2, reg_addr: 0000
f0d2 ea ea 20 NOP  IMPL  A:02 X:02 Y:d7 P:75 S:fb pc: f0d3, reg_addr: 0000
f0d3 ea 20 59 NOP  IMPL  A:02 X:02 Y:d7 P:75 S:fb pc: f0d4, reg_addr: 0000
f0d4 20 59 fb JSR  ABS   A:02 X:02 Y:d7 P:75 S:fb pc: fb59, reg_addr: fb59
fb59 50 1a 90 BVC  REL   A:02 X:02 Y:d7 P:75 S:f9 pc: fb5b, reg_addr: fb75
fb5b 90 18 30 BCC  REL   A:02 X:02 Y:d7 P:75 S:f9 pc: fb5d, reg_addr: fb75
fb5d 30 16 c9 BMI  REL   A:02 X:02 Y:d7 P:75 S:f9 pc: fb5f, reg_addr: fb75
fb5f c9 02 d0 CMP  IMM   A:02 X:02 Y:d7 P:75 S:f9 pc: fb61, reg_addr: 0002
fb61 d0 12 60 BNE  REL   A:02 X:02 Y:d7 P:77 S:f9 pc: fb63, reg_addr: fb75
fb63 60 b8 18 RTS  IMPL  A:02 X:02 Y:d7 P:77 S:f9 pc: f0d7, reg_addr: 0000
f0d7 a5 47 c9 LDA  ZP    A:02 X:02 Y:d7 P:77 S:fb pc: f0d9, reg_addr: 0047
f0d9 c9 4a f0 CMP  IMM   A:4a X:02 Y:d7 P:75 S:fb pc: f0db, reg_addr: 004a
f0db f0 02 84 BEQ  REL   A:4a X:02 Y:d7 P:77 S:fb pc: f0df, reg_addr: f0df
f0df c8 a9 29 INY  IMPL  A:4a X:02 Y:d7 P:77 S:fb pc: f0e0, reg_addr: 0000
f0e0 a9 29 85 LDA  IMM   A:4a X:02 Y:d8 P:f5 S:fb pc: f0e2, reg_addr: 0029
f0e2 85 47 20 STA  ZP    A:29 X:02 Y:d8 P:75 S:fb pc: f0e4, reg_addr: 0047
f0e4 20 64 fb JSR  ABS   A:29 X:02 Y:d8 P:75 S:fb pc: fb64, reg_addr: fb64
fb64 b8 18 a9 CLV  IMPL  A:29 X:02 Y:d8 P:75 S:f9 pc: fb65, reg_addr: 0000
fb65 18 a9 42 CLC  IMPL  A:29 X:02 Y:d8 P:35 S:f9 pc: fb66, reg_addr: 0000
fb66 a9 42 60 LDA  IMM   A:29 X:02 Y:d8 P:34 S:f9 pc: fb68, reg_addr: 0042
fb68 60 70 0a RTS  IMPL  A:42 X:02 Y:d8 P:34 S:f9 pc: f0e7, reg_addr: 0000
f0e7 27 47 ea RLA  ZP    A:42 X:02 Y:d8 P:34 S:fb pc: f0e9, reg_addr: 0047
f0e9 ea ea ea NOP  IMPL  A:42 X:02 Y:d8 P:34 S:fb pc: f0ea, reg_addr: 0000
f0ea ea ea ea NOP  IMPL  A:42 X:02 Y:d8 P:34 S:fb pc: f0eb, reg_addr: 0000
f0eb ea ea 20 NOP  IMPL  A:42 X:02 Y:d8 P:34 S:fb pc: f0ec, reg_addr: 0000
f0ec ea 20 69 NOP  IMPL  A:42 X:02 Y:d8 P:34 S:fb pc: f0ed, reg_addr: 0000
f0ed 20 69 fb JSR  ABS   A:42 X:02 Y:d8 P:34 S:fb pc: fb69, reg_addr: fb69
fb69 70 0a f0 BVS  REL   A:42 X:02 Y:d8 P:34 S:f9 pc: fb6b, reg_addr: fb75
fb6b f0 08 30 BEQ  REL   A:42 X:02 Y:d8 P:34 S:f9 pc: fb6d, reg_addr: fb75
fb6d 30 06 b0 BMI  REL   A:42 X:02 Y:d8 P:34 S:f9 pc: fb6f, reg_addr: fb75
fb6f b0 04 c9 BCS  REL   A:42 X:02 Y:d8 P:34 S:f9 pc: fb71, reg_addr: fb75
fb71 c9 42 f0 CMP  IMM   A:42 X:02 Y:d8 P:34 S:f9 pc: fb73, reg_addr: 0042
fb73 f0 02 84 BEQ  REL   A:42 X:02 Y:d8 P:37 S:f9 pc: fb77, reg_addr: fb77
fb77 60 00 00 RTS  IMPL  A:42 X:02 Y:d8 P:37 S:f9 pc: f0f0, reg_addr: 0000
f0f0 a5 47 c9 LDA  ZP    A:42 X:02 Y:d8 P:37 S:fb pc: f0f2, reg_addr: 0047
f0f2 c9 52 f0 CMP  IMM   A:52 X:02 Y:d8 P:35 S:fb pc: f0f4, reg_addr: 0052
f0f4 f0 02 84 BEQ  REL   A:52 X:02 Y:d8 P:37 S:fb pc: f0f8, reg_addr: f0f8
f0f8 c8 a9 37 INY  IMPL  A:52 X:02 Y:d8 P:37 S:fb pc: f0f9, reg_addr: 0000
f0f9 a9 37 85 LDA  IMM   A:52 X:02 Y:d9 P:b5 S:fb pc: f0fb, reg_addr: 0037
f0fb 85 47 20 STA  ZP    A:37 X:02 Y:d9 P:35 S:fb pc: f0fd, reg_addr: 0047
f0fd 20 68 fa JSR  ABS   A:37 X:02 Y:d9 P:35 S:fb pc: fa68, reg_addr: fa68
fa68 24 01 38 BIT  ZP    A:37 X:02 Y:d9 P:35 S:f9 pc: fa6a, reg_addr: 0001
fa6a 38 a9 75 SEC  IMPL  A:37 X:02 Y:d9 P:f5 S:f9 pc: fa6b, reg_addr: 0000
fa6b a9 75 60 LDA  IMM   A:37 X:02 Y:d9 P:f5 S:f9 pc: fa6d, reg_addr: 0075
fa6d 60 50 76 RTS  IMPL  A:75 X:02 Y:d9 P:75 S:f9 pc: f100, reg_addr: 0000
f100 27 47 ea RLA  ZP    A:75 X:02 Y:d9 P:75 S:fb pc: f102, reg_addr: 0047
f102 ea ea ea NOP  IMPL  A:65 X:02 Y:d9 P:74 S:fb pc: f103, reg_addr: 0000
f103 ea ea ea NOP  IMPL  A:65 X:02 Y:d9 P:74 S:fb pc: f104, reg_addr: 0000
f104 ea ea 20 NOP  IMPL  A:65 X:02 Y:d9 P:74 S:fb pc: f105, reg_addr: 0000
f105 ea 20 6e NOP  IMPL  A:65 X:02 Y:d9 P:74 S:fb pc: f106, reg_addr: 0000
f106 20 6e fa JSR  ABS   A:65 X:02 Y:d9 P:74 S:fb pc: fa6e, reg_addr: fa6e
fa6e 50 76 f0 BVC  REL   A:65 X:02 Y:d9 P:74 S:f9 pc: fa70, reg_addr: fae6
fa70 f0 74 30 BEQ  REL   A:65 X:02 Y:d9 P:74 S:f9 pc: fa72, reg_addr: fae6
fa72 30 72 b0 BMI  REL   A:65 X:02 Y:d9 P:74 S:f9 pc: fa74, reg_addr: fae6
fa74 b0 70 c9 BCS  REL   A:65 X:02 Y:d9 P:74 S:f9 pc: fa76, reg_addr: fae6
fa76 c9 65 d0 CMP  IMM   A:65 X:02 Y:d9 P:74 S:f9 pc: fa78, reg_addr: 0065
fa78 d0 6c 60 BNE  REL   A:65 X:02 Y:d9 P:77 S:f9 pc: fa7a, reg_addr: fae6
fa7a 60 24 01 RTS  IMPL  A:65 X:02 Y:d9 P:77 S:f9 pc: f109, reg_addr: 0000
f109 a5 47 c9 LDA  ZP    A:65 X:02 Y:d9 P:77 S:fb pc: f10b, reg_addr: 0047
f10b c9 6f f0 CMP  IMM   A:6f X:02 Y:d9 P:75 S:fb pc: f10d, reg_addr: 006f
f10d f0 02 84 BEQ  REL   A:6f X:02 Y:d9 P:77 S:fb pc: f111, reg_addr: f111
f111 c8 a9 a5 INY  IMPL  A:6f X:02 Y:d9 P:77 S:fb pc: f112, reg_addr: 0000
f112 a9 a5 8d LDA  IMM   A:6f X:02 Y:da P:f5 S:fb pc: f114, reg_addr: 00a5
f114 8d 47 06 STA  ABS   A:a5 X:02 Y:da P:f5 S:fb pc: f117, reg_addr: 0647
f117 20 53 fb JSR  ABS   A:a5 X:02 Y:da P:f5 S:fb pc: fb53, reg_addr: fb53
fb53 24 01 18 BIT  ZP    A:a5 X:02 Y:da P:f5 S:f9 pc: fb55, reg_addr: 0001
fb55 18 a9 b3 CLC  IMPL  A:a5 X:02 Y:da P:f5 S:f9 pc: fb56, reg_addr: 0000
fb56 a9 b3 60 LDA  IMM   A:a5 X:02 Y:da P:f4 S:f9 pc: fb58, reg_addr: 00b3
fb58 60 50 1a RTS  IMPL  A:b3 X:02 Y:da P:f4 S:f9 pc: f11a, reg_addr: 0000
f11a 2f 47 06 RLA  ABS   A:b3 X:02 Y:da P:f4 S:fb pc: f11d, reg_addr: 0647
f11d ea ea ea NOP  IMPL  A:02 X:02 Y:da P:75 S:fb pc: f11e, reg_addr: 0000
f11e ea ea ea NOP  IMPL  A:02 X:02 Y:da P:75 S:fb pc: f11f, reg_addr: 0000
f11f ea ea 20 NOP  IMPL  A:02 X:02 Y:da P:75 S:fb pc: f120, reg_addr: 0000
f120 ea 20 59 NOP  IMPL  A:02 X:02 Y:da P:75 S:fb pc: f121, reg_addr: 0000
f121 20 59 fb JSR  ABS   A:02 X:02 Y:da P:75 S:fb pc: fb59, reg_addr: fb59
fb59 50 1a 90 BVC  REL   A:02 X:02 Y:da P:75 S:f9 pc: fb5b, reg_addr: fb75
fb5b 90 18 30 BCC  REL   A:02 X:02 Y:da P:75 S:f9 pc: fb5d, reg_addr: fb75
fb5d 30 16 c9 BMI  REL   A:02 X:02 Y:da P:75 S:f9 pc: fb5f, reg_addr: fb75
fb5f c9 02 d0 CMP  IMM   A:02 X:02 Y:da P:75 S:f9 pc: fb61, reg_addr: 0002
fb61 d0 12 60 BNE  REL   A:02 X:02 Y:da P:77 S:f9 pc: fb63, reg_addr: fb75
fb63 60 b8 18 RTS  IMPL  A:02 X:02 Y:da P:77 S:f9 pc: f124, reg_addr: 0000
f124 ad 47 06 LDA  ABS   A:02 X:02 Y:da P:77 S:fb pc: f127, reg_addr: 0647
f127 c9 4a f0 CMP  IMM   A:4a X:02 Y:da P:75 S:fb pc: f129, reg_addr: 004a
f129 f0 02 84 BEQ  REL   A:4a X:02 Y:da P:77 S:fb pc: f12d, reg_addr: f12d
f12d c8 a9 29 INY  IMPL  A:4a X:02 Y:da P:77 S:fb pc: f12e, reg_addr: 0000
f12e a9 29 8d LDA  IMM   A:4a X:02 Y:db P:f5 S:fb pc: f130, reg_addr: 0029
f130 8d 47 06 STA  ABS   A:29 X:02 Y:db P:75 S:fb pc: f133, reg_addr: 0647
f133 20 64 fb JSR  ABS   A:29 X:02 Y:db P:75 S:fb pc: fb64, reg_addr: fb64
fb64 b8 18 a9 CLV  IMPL  A:29 X:02 Y:db P:75 S:f9 pc: fb65, reg_addr: 0000
fb65 18 a9 42 CLC  IMPL  A:29 X:02 Y:db P:35 S:f9 pc: fb66, reg_addr: 0000
fb66 a9 42 60 LDA  IMM   A:29 X:02 Y:db P:34 S:f9 pc: fb68, reg_addr: 0042
fb68 60 70 0a RTS  IMPL  A:42 X:02 Y:db P:34 S:f9 pc: f136, reg_addr: 0000
f136 2f 47 06 RLA  ABS   A:42 X:02 Y:db P:34 S:fb pc: f139, reg_addr: 0647
f139 ea ea ea NOP  IMPL  A:42 X:02 Y:db P:34 S:fb pc: f13a, reg_addr: 0000
f13a ea ea ea NOP  IMPL  A:42 X:02 Y:db P:34 S:fb pc: f13b, reg_addr: 0000
f13b ea ea 20 NOP  IMPL  A:42 X:02 Y:db P:34 S:fb pc: f13c, reg_addr: 0000
f13c ea 20 69 NOP  IMPL  A:42 X:02 Y:db P:34 S:fb pc: f13d, reg_addr: 0000
f13d 20 69 fb JSR  ABS   A:42 X:02 Y:db P:34 S:fb pc: fb69, reg_addr: fb69
fb69 70 0a f0 BVS  REL   A:42 X:02 Y:db P:34 S:f9 pc: fb6b, reg_addr: fb75
fb6b f0 08 30 BEQ  REL   A:42 X:02 Y:db P:34 S:f9 pc: fb6d, reg_addr: fb75
fb6d 30 06 b0 BMI  REL   A:42 X:02 Y:db P:34 S:f9 pc: fb6f, reg_addr: fb75
fb6f b0 04 c9 BCS  REL   A:42 X:02 Y:db P:34 S:f9 pc: fb71, reg_addr: fb75
fb71 c9 42 f0 CMP  IMM   A:42 X:02 Y:db P:34 S:f9 pc: fb73, reg_addr: 0042
fb73 f0 02 84 BEQ  REL   A:42 X:02 Y:db P:37 S:f9 pc: fb77, reg_addr: fb77
fb77 60 00 00 RTS  IMPL  A:42 X:02 Y:db P:37 S:f9 pc: f140, reg_addr: 0000
f140 ad 47 06 LDA  ABS   A:42 X:02 Y:db P:37 S:fb pc: f143, reg_addr: 0647
f143 c9 52 f0 CMP  IMM   A:52 X:02 Y:db P:35 S:fb pc: f145, reg_addr: 0052
f145 f0 02 84 BEQ  REL   A:52 X:02 Y:db P:37 S:fb pc: f149, reg_addr: f149
f149 c8 a9 37 INY  IMPL  A:52 X:02 Y:db P:37 S:fb pc: f14a, reg_addr: 0000
f14a a9 37 8d LDA  IMM   A:52 X:02 Y:dc P:b5 S:fb pc: f14c, reg_addr: 0037
f14c 8d 47 06 STA  ABS   A:37 X:02 Y:dc P:35 S:fb pc: f14f, reg_addr: 0647
f14f 20 68 fa JSR  ABS   A:37 X:02 Y:dc P:35 S:fb pc: fa68, reg_addr: fa68
fa68 24 01 38 BIT  ZP    A:37 X:02 Y:dc P:35 S:f9 pc: fa6a, reg_addr: 0001
fa6a 38 a9 75 SEC  IMPL  A:37 X:02 Y:dc P:f5 S:f9 pc: fa6b, reg_addr: 0000
fa6b a9 75 60 LDA  IMM   A:37 X:02 Y:dc P:f5 S:f9 pc: fa6d, reg_addr: 0075
fa6d 60 50 76 RTS  IMPL  A:75 X:02 Y:dc P:75 S:f9 pc: f152, reg_addr: 0000
f152 2f 47 06 RLA  ABS   A:75 X:02 Y:dc P:75 S:fb pc: f155, reg_addr: 0647
f155 ea ea ea NOP  IMPL  A:65 X:02 Y:dc P:74 S:fb pc: f156, reg_addr: 0000
f156 ea ea ea NOP  IMPL  A:65 X:02 Y:dc P:74 S:fb pc: f157, reg_addr: 0000
f157 ea ea 20 NOP  IMPL  A:65 X:02 Y:dc P:74 S:fb pc: f158, reg_addr: 0000
f158 ea 20 6e NOP  IMPL  A:65 X:02 Y:dc P:74 S:fb pc: f159, reg_addr: 0000
f159 20 6e fa JSR  ABS   A:65 X:02 Y:dc P:74 S:fb pc: fa6e, reg_addr: fa6e
fa6e 50 76 f0 BVC  REL   A:65 X:02 Y:dc P:74 S:f9 pc: fa70, reg_addr: fae6
fa70 f0 74 30 BEQ  REL   A:65 X:02 Y:dc P:74 S:f9 pc: fa72, reg_addr: fae6
fa72 30 72 b0 BMI  REL   A:65 X:02 Y:dc P:74 S:f9 pc: fa74, reg_addr: fae6
fa74 b0 70 c9 BCS  REL   A:65 X:02 Y:dc P:74 S:f9 pc: fa76, reg_addr: fae6
fa76 c9 65 d0 CMP  IMM   A:65 X:02 Y:dc P:74 S:f9 pc: fa78, reg_addr: 0065
fa78 d0 6c 60 BNE  REL   A:65 X:02 Y:dc P:77 S:f9 pc: fa7a, reg_addr: fae6
fa7a 60 24 01 RTS  IMPL  A:65 X:02 Y:dc P:77 S:f9 pc: f15c, reg_addr: 0000
f15c ad 47 06 LDA  ABS   A:65 X:02 Y:dc P:77 S:fb pc: f15f, reg_addr: 0647
f15f c9 6f f0 CMP  IMM   A:6f X:02 Y:dc P:75 S:fb pc: f161, reg_addr: 006f
f161 f0 02 84 BEQ  REL   A:6f X:02 Y:dc P:77 S:fb pc: f165, reg_addr: f165
f165 a9 a5 8d LDA  IMM   A:6f X:02 Y:dc P:77 S:fb pc: f167, reg_addr: 00a5
f167 8d 47 06 STA  ABS   A:a5 X:02 Y:dc P:f5 S:fb pc: f16a, reg_addr: 0647
f16a a9 48 85 LDA  IMM   A:a5 X:02 Y:dc P:f5 S:fb pc: f16c, reg_addr: 0048
f16c 85 45 a9 STA  ZP    A:48 X:02 Y:dc P:75 S:fb pc: f16e, reg_addr: 0045
f16e a9 05 85 LDA  IMM   A:48 X:02 Y:dc P:75 S:fb pc: f170, reg_addr: 0005
f170 85 46 a0 STA  ZP    A:05 X:02 Y:dc P:75 S:fb pc: f172, reg_addr: 0046
f172 a0 ff 20 LDY  IMM   A:05 X:02 Y:dc P:75 S:fb pc: f174, reg_addr: 00ff
f174 20 53 fb JSR  ABS   A:05 X:02 Y:ff P:f5 S:fb pc: fb53, reg_addr: fb53
fb53 24 01 18 BIT  ZP    A:05 X:02 Y:ff P:f5 S:f9 pc: fb55, reg_addr: 0001
fb55 18 a9 b3 CLC  IMPL  A:05 X:02 Y:ff P:f5 S:f9 pc: fb56, reg_addr: 0000
fb56 a9 b3 60 LDA  IMM   A:05 X:02 Y:ff P:f4 S:f9 pc: fb58, reg_addr: 00b3
fb58 60 50 1a RTS  IMPL  A:b3 X:02 Y:ff P:f4 S:f9 pc: f177, reg_addr: 0000
f177 33 45 ea RLA  INDY  A:b3 X:02 Y:ff P:f4 S:fb pc: f179, reg_addr: 0647
f179 ea ea 08 NOP  IMPL  A:02 X:02 Y:ff P:75 S:fb pc: f17a, reg_addr: 0000
f17a ea 08 48 NOP  IMPL  A:02 X:02 Y:ff P:75 S:fb pc: f17b, reg_addr: 0000
f17b 08 48 a0 PHP  IMPL  A:02 X:02 Y:ff P:75 S:fb pc: f17c, reg_addr: 0000
f17c 48 a0 dd PHA  IMPL  A:02 X:02 Y:ff P:75 S:fa pc: f17d, reg_addr: 0000
f17d a0 dd 68 LDY  IMM   A:02 X:02 Y:ff P:75 S:f9 pc: f17f, reg_addr: 00dd
f17f 68 28 20 PLA  IMPL  A:02 X:02 Y:dd P:f5 S:f9 pc: f180, reg_addr: 0000
f180 28 20 59 PLP  IMPL  A:02 X:02 Y:dd P:75 S:fa pc: f181, reg_addr: 0000
f181 20 59 fb JSR  ABS   A:02 X:02 Y:dd P:75 S:fb pc: fb59, reg_addr: fb59
fb59 50 1a 90 BVC  REL   A:02 X:02 Y:dd P:75 S:f9 pc: fb5b, reg_addr: fb75
fb5b 90 18 30 BCC  REL   A:02 X:02 Y:dd P:75 S:f9 pc: fb5d, reg_addr: fb75
fb5d 30 16 c9 BMI  REL   A:02 X:02 Y:dd P:75 S:f9 pc: fb5f, reg_addr: fb75
fb5f c9 02 d0 CMP  IMM   A:02 X:02 Y:dd P:75 S:f9 pc: fb61, reg_addr: 0002
fb61 d0 12 60 BNE  REL   A:02 X:02 Y:dd P:77 S:f9 pc: fb63, reg_addr: fb75
fb63 60 b8 18 RTS  IMPL  A:02 X:02 Y:dd P:77 S:f9 pc: f184, reg_addr: 0000
f184 ad 47 06 LDA  ABS   A:02 X:02 Y:dd P:77 S:fb pc: f187, reg_addr: 0647
f187 c9 4a f0 CMP  IMM   A:4a X:02 Y:dd P:75 S:fb pc: f189, reg_addr: 004a
f189 f0 02 84 BEQ  REL   A:4a X:02 Y:dd P:77 S:fb pc: f18d, reg_addr: f18d
f18d a0 ff a9 LDY  IMM   A:4a X:02 Y:dd P:77 S:fb pc: f18f, reg_addr: 00ff
f18f a9 29 8d LDA  IMM   A:4a X:02 Y:ff P:f5 S:fb pc: f191, reg_addr: 0029
f191 8d 47 06 STA  ABS   A:29 X:02 Y:ff P:75 S:fb pc: f194, reg_addr: 0647
f194 20 64 fb JSR  ABS   A:29 X:02 Y:ff P:75 S:fb pc: fb64, reg_addr: fb64
fb64 b8 18 a9 CLV  IMPL  A:29 X:02 Y:ff P:75 S:f9 pc: fb65, reg_addr: 0000
fb65 18 a9 42 CLC  IMPL  A:29 X:02 Y:ff P:35 S:f9 pc: fb66, reg_addr: 0000
fb66 a9 42 60 LDA  IMM   A:29 X:02 Y:ff P:34 S:f9 pc: fb68, reg_addr: 0042
fb68 60 70 0a RTS  IMPL  A:42 X:02 Y:ff P:34 S:f9 pc: f197, reg_addr: 0000
f197 33 45 ea RLA  INDY  A:42 X:02 Y:ff P:34 S:fb pc: f199, reg_addr: 0647
f199 ea ea 08 NOP  IMPL  A:42 X:02 Y:ff P:34 S:fb pc: f19a, reg_addr: 0000
f19a ea 08 48 NOP  IMPL  A:42 X:02 Y:ff P:34 S:fb pc: f19b, reg_addr: 0000
f19b 08 48 a0 PHP  IMPL  A:42 X:02 Y:ff P:34 S:fb pc: f19c, reg_addr: 0000
f19c 48 a0 de PHA  IMPL  A:42 X:02 Y:ff P:34 S:fa pc: f19d, reg_addr: 0000
f19d a0 de 68 LDY  IMM   A:42 X:02 Y:ff P:34 S:f9 pc: f19f, reg_addr: 00de
f19f 68 28 20 PLA  IMPL  A:42 X:02 Y:de P:b4 S:f9 pc: f1a0, reg_addr: 0000
f1a0 28 20 69 PLP  IMPL  A:42 X:02 Y:de P:34 S:fa pc: f1a1, reg_addr: 0000
f1a1 20 69 fb JSR  ABS   A:42 X:02 Y:de P:34 S:fb pc: fb69, reg_addr: fb69
fb69 70 0a f0 BVS  REL   A:42 X:02 Y:de P:34 S:f9 pc: fb6b, reg_addr: fb75
fb6b f0 08 30 BEQ  REL   A:42 X:02 Y:de P:34 S:f9 pc: fb6d, reg_addr: fb75
fb6d 30 06 b0 BMI  REL   A:42 X:02 Y:de P:34 S:f9 pc: fb6f, reg_addr: fb75
fb6f b0 04 c9 BCS  REL   A:42 X:02 Y:de P:34 S:f9 pc: fb71, reg_addr: fb75
fb71 c9 42 f0 CMP  IMM   A:42 X:02 Y:de P:34 S:f9 pc: fb73, reg_addr: 0042
fb73 f0 02 84 BEQ  REL   A:42 X:02 Y:de P:37 S:f9 pc: fb77, reg_addr: fb77
fb77 60 00 00 RTS  IMPL  A:42 X:02 Y:de P:37 S:f9 pc: f1a4, reg_addr: 0000
f1a4 ad 47 06 LDA  ABS   A:42 X:02 Y:de P:37 S:fb pc: f1a7, reg_addr: 0647
f1a7 c9 52 f0 CMP  IMM   A:52 X:02 Y:de P:35 S:fb pc: f1a9, reg_addr: 0052
f1a9 f0 02 84 BEQ  REL   A:52 X:02 Y:de P:37 S:fb pc: f1ad, reg_addr: f1ad
f1ad a0 ff a9 LDY  IMM   A:52 X:02 Y:de P:37 S:fb pc: f1af, reg_addr: 00ff
f1af a9 37 8d LDA  IMM   A:52 X:02 Y:ff P:b5 S:fb pc: f1b1, reg_addr: 0037
f1b1 8d 47 06 STA  ABS   A:37 X:02 Y:ff P:35 S:fb pc: f1b4, reg_addr: 0647
f1b4 20 68 fa JSR  ABS   A:37 X:02 Y:ff P:35 S:fb pc: fa68, reg_addr: fa68
fa68 24 01 38 BIT  ZP    A:37 X:02 Y:ff P:35 S:f9 pc: fa6a, reg_addr: 0001
fa6a 38 a9 75 SEC  IMPL  A:37 X:02 Y:ff P:f5 S:f9 pc: fa6b, reg_addr: 0000
fa6b a9 75 60 LDA  IMM   A:37 X:02 Y:ff P:f5 S:f9 pc: fa6d, reg_addr: 0075
fa6d 60 50 76 RTS  IMPL  A:75 X:02 Y:ff P:75 S:f9 pc: f1b7, reg_addr: 0000
f1b7 33 45 ea RLA  INDY  A:75 X:02 Y:ff P:75 S:fb pc: f1b9, reg_addr: 0647
f1b9 ea ea 08 NOP  IMPL  A:65 X:02 Y:ff P:74 S:fb pc: f1ba, reg_addr: 0000
f1ba ea 08 48 NOP  IMPL  A:65 X:02 Y:ff P:74 S:fb pc: f1bb, reg_addr: 0000
f1bb 08 48 a0 PHP  IMPL  A:65 X:02 Y:ff P:74 S:fb pc: f1bc, reg_addr: 0000
f1bc 48 a0 df PHA  IMPL  A:65 X:02 Y:ff P:74 S:fa pc: f1bd, reg_addr: 0000
f1bd a0 df 68 LDY  IMM   A:65 X:02 Y:ff P:74 S:f9 pc: f1bf, reg_addr: 00df
f1bf 68 28 20 PLA  IMPL  A:65 X:02 Y:df P:f4 S:f9 pc: f1c0, reg_addr: 0000
f1c0 28 20 6e PLP  IMPL  A:65 X:02 Y:df P:74 S:fa pc: f1c1, reg_addr: 0000
f1c1 20 6e fa JSR  ABS   A:65 X:02 Y:df P:74 S:fb pc: fa6e, reg_addr: fa6e
fa6e 50 76 f0 BVC  REL   A:65 X:02 Y:df P:74 S:f9 pc: fa70, reg_addr: fae6
fa70 f0 74 30 BEQ  REL   A:65 X:02 Y:df P:74 S:f9 pc: fa72, reg_addr: fae6
fa72 30 72 b0 BMI  REL   A:65 X:02 Y:df P:74 S:f9 pc: fa74, reg_addr: fae6
fa74 b0 70 c9 BCS  REL   A:65 X:02 Y:df P:74 S:f9 pc: fa76, reg_addr: fae6
fa76 c9 65 d0 CMP  IMM   A:65 X:02 Y:df P:74 S:f9 pc: fa78, reg_addr: 0065
fa78 d0 6c 60 BNE  REL   A:65 X:02 Y:df P:77 S:f9 pc: fa7a, reg_addr: fae6
fa7a 60 24 01 RTS  IMPL  A:65 X:02 Y:df P:77 S:f9 pc: f1c4, reg_addr: 0000
f1c4 ad 47 06 LDA  ABS   A:65 X:02 Y:df P:77 S:fb pc: f1c7, reg_addr: 0647
f1c7 c9 6f f0 CMP  IMM   A:6f X:02 Y:df P:75 S:fb pc: f1c9, reg_addr: 006f
f1c9 f0 02 84 BEQ  REL   A:6f X:02 Y:df P:77 S:fb pc: f1cd, reg_addr: f1cd
f1cd a0 e0 a2 LDY  IMM   A:6f X:02 Y:df P:77 S:fb pc: f1cf, reg_addr: 00e0
f1cf a2 ff a9 LDX  IMM   A:6f X:02 Y:e0 P:f5 S:fb pc: f1d1, reg_addr: 00ff
f1d1 a9 a5 85 LDA  IMM   A:6f X:ff Y:e0 P:f5 S:fb pc: f1d3, reg_addr: 00a5
f1d3 85 47 20 STA  ZP    A:a5 X:ff Y:e0 P:f5 S:fb pc: f1d5, reg_addr: 0047
f1d5 20 53 fb JSR  ABS   A:a5 X:ff Y:e0 P:f5 S:fb pc: fb53, reg_addr: fb53
fb53 24 01 18 BIT  ZP    A:a5 X:ff Y:e0 P:f5 S:f9 pc: fb55, reg_addr: 0001
fb55 18 a9 b3 CLC  IMPL  A:a5 X:ff Y:e0 P:f5 S:f9 pc: fb56, reg_addr: 0000
fb56 a9 b3 60 LDA  IMM   A:a5 X:ff Y:e0 P:f4 S:f9 pc: fb58, reg_addr: 00b3
fb58 60 50 1a RTS  IMPL  A:b3 X:ff Y:e0 P:f4 S:f9 pc: f1d8, reg_addr: 0000
f1d8 37 48 ea RLA  ZPX   A:b3 X:ff Y:e0 P:f4 S:fb pc: f1da, reg_addr: 0047
f1da ea ea ea NOP  IMPL  A:02 X:ff Y:e0 P:75 S:fb pc: f1db, reg_addr: 0000
f1db ea ea ea NOP  IMPL  A:02 X:ff Y:e0 P:75 S:fb pc: f1dc, reg_addr: 0000
f1dc ea ea 20 NOP  IMPL  A:02 X:ff Y:e0 P:75 S:fb pc: f1dd, reg_addr: 0000
f1dd ea 20 59 NOP  IMPL  A:02 X:ff Y:e0 P:75 S:fb pc: f1de, reg_addr: 0000
f1de 20 59 fb JSR  ABS   A:02 X:ff Y:e0 P:75 S:fb pc: fb59, reg_addr: fb59
fb59 50 1a 90 BVC  REL   A:02 X:ff Y:e0 P:75 S:f9 pc: fb5b, reg_addr: fb75
fb5b 90 18 30 BCC  REL   A:02 X:ff Y:e0 P:75 S:f9 pc: fb5d, reg_addr: fb75
fb5d 30 16 c9 BMI  REL   A:02 X:ff Y:e0 P:75 S:f9 pc: fb5f, reg_addr: fb75
fb5f c9 02 d0 CMP  IMM   A:02 X:ff Y:e0 P:75 S:f9 pc: fb61, reg_addr: 0002
fb61 d0 12 60 BNE  REL   A:02 X:ff Y:e0 P:77 S:f9 pc: fb63, reg_addr: fb75
fb63 60 b8 18 RTS  IMPL  A:02 X:ff Y:e0 P:77 S:f9 pc: f1e1, reg_addr: 0000
f1e1 a5 47 c9 LDA  ZP    A:02 X:ff Y:e0 P:77 S:fb pc: f1e3, reg_addr: 0047
f1e3 c9 4a f0 CMP  IMM   A:4a X:ff Y:e0 P:75 S:fb pc: f1e5, reg_addr: 004a
f1e5 f0 02 84 BEQ  REL   A:4a X:ff Y:e0 P:77 S:fb pc: f1e9, reg_addr: f1e9
f1e9 c8 a9 29 INY  IMPL  A:4a X:ff Y:e0 P:77 S:fb pc: f1ea, reg_addr: 0000
f1ea a9 29 85 LDA  IMM   A:4a X:ff Y:e1 P:f5 S:fb pc: f1ec, reg_addr: 0029
f1ec 85 47 20 STA  ZP    A:29 X:ff Y:e1 P:75 S:fb pc: f1ee, reg_addr: 0047
f1ee 20 64 fb JSR  ABS   A:29 X:ff Y:e1 P:75 S:fb pc: fb64, reg_addr: fb64
fb64 b8 18 a9 CLV  IMPL  A:29 X:ff Y:e1 P:75 S:f9 pc: fb65, reg_addr: 0000
fb65 18 a9 42 CLC  IMPL  A:29 X:ff Y:e1 P:35 S:f9 pc: fb66, reg_addr: 0000
fb66 a9 42 60 LDA  IMM   A:29 X:ff Y:e1 P:34 S:f9 pc: fb68, reg_addr: 0042
fb68 60 70 0a RTS  IMPL  A:42 X:ff Y:e1 P:34 S:f9 pc: f1f1, reg_addr: 0000
f1f1 37 48 ea RLA  ZPX   A:42 X:ff Y:e1 P:34 S:fb pc: f1f3, reg_addr: 0047
f1f3 ea ea ea NOP  IMPL  A:42 X:ff Y:e1 P:34 S:fb pc: f1f4, reg_addr: 0000
f1f4 ea ea ea NOP  IMPL  A:42 X:ff Y:e1 P:34 S:fb pc: f1f5, reg_addr: 0000
f1f5 ea ea 20 NOP  IMPL  A:42 X:ff Y:e1 P:34 S:fb pc: f1f6, reg_addr: 0000
f1f6 ea 20 69 NOP  IMPL  A:42 X:ff Y:e1 P:34 S:fb pc: f1f7, reg_addr: 0000
f1f7 20 69 fb JSR  ABS   A:42 X:ff Y:e1 P:34 S:fb pc: fb69, reg_addr: fb69
fb69 70 0a f0 BVS  REL   A:42 X:ff Y:e1 P:34 S:f9 pc: fb6b, reg_addr: fb75
fb6b f0 08 30 BEQ  REL   A:42 X:ff Y:e1 P:34 S:f9 pc: fb6d, reg_addr: fb75
fb6d 30 06 b0 BMI  REL   A:42 X:ff Y:e1 P:34 S:f9 pc: fb6f, reg_addr: fb75
fb6f b0 04 c9 BCS  REL   A:42 X:ff Y:e1 P:34 S:f9 pc: fb71, reg_addr: fb75
fb71 c9 42 f0 CMP  IMM   A:42 X:ff Y:e1 P:34 S:f9 pc: fb73, reg_addr: 0042
fb73 f0 02 84 BEQ  REL   A:42 X:ff Y:e1 P:37 S:f9 pc: fb77, reg_addr: fb77
fb77 60 00 00 RTS  IMPL  A:42 X:ff Y:e1 P:37 S:f9 pc: f1fa, reg_addr: 0000
f1fa a5 47 c9 LDA  ZP    A:42 X:ff Y:e1 P:37 S:fb pc: f1fc, reg_addr: 0047
f1fc c9 52 f0 CMP  IMM   A:52 X:ff Y:e1 P:35 S:fb pc: f1fe, reg_addr: 0052
f1fe f0 02 84 BEQ  REL   A:52 X:ff Y:e1 P:37 S:fb pc: f202, reg_addr: f202
f202 c8 a9 37 INY  IMPL  A:52 X:ff Y:e1 P:37 S:fb pc: f203, reg_addr: 0000
f203 a9 37 85 LDA  IMM   A:52 X:ff Y:e2 P:b5 S:fb pc: f205, reg_addr: 0037
f205 85 47 20 STA  ZP    A:37 X:ff Y:e2 P:35 S:fb pc: f207, reg_addr: 0047
f207 20 68 fa JSR  ABS   A:37 X:ff Y:e2 P:35 S:fb pc: fa68, reg_addr: fa68
fa68 24 01 38 BIT  ZP    A:37 X:ff Y:e2 P:35 S:f9 pc: fa6a, reg_addr: 0001
fa6a 38 a9 75 SEC  IMPL  A:37 X:ff Y:e2 P:f5 S:f9 pc: fa6b, reg_addr: 0000
fa6b a9 75 60 LDA  IMM   A:37 X:ff Y:e2 P:f5 S:f9 pc: fa6d, reg_addr: 0075
fa6d 60 50 76 RTS  IMPL  A:75 X:ff Y:e2 P:75 S:f9 pc: f20a, reg_addr: 0000
f20a 37 48 ea RLA  ZPX   A:75 X:ff Y:e2 P:75 S:fb pc: f20c, reg_addr: 0047
f20c ea ea ea NOP  IMPL  A:65 X:ff Y:e2 P:74 S:fb pc: f20d, reg_addr: 0000
f20d ea ea ea NOP  IMPL  A:65 X:ff Y:e2 P:74 S:fb pc: f20e, reg_addr: 0000
f20e ea ea 20 NOP  IMPL  A:65 X:ff Y:e2 P:74 S:fb pc: f20f, reg_addr: 0000
f20f ea 20 6e NOP  IMPL  A:65 X:ff Y:e2 P:74 S:fb pc: f210, reg_addr: 0000
f210 20 6e fa JSR  ABS   A:65 X:ff Y:e2 P:74 S:fb pc: fa6e, reg_addr: fa6e
fa6e 50 76 f0 BVC  REL   A:65 X:ff Y:e2 P:74 S:f9 pc: fa70, reg_addr: fae6
fa70 f0 74 30 BEQ  REL   A:65 X:ff Y:e2 P:74 S:f9 pc: fa72, reg_addr: fae6
fa72 30 72 b0 BMI  REL   A:65 X:ff Y:e2 P:74 S:f9 pc: fa74, reg_addr: fae6
fa74 b0 70 c9 BCS  REL   A:65 X:ff Y:e2 P:74 S:f9 pc: fa76, reg_addr: fae6
fa76 c9 65 d0 CMP  IMM   A:65 X:ff Y:e2 P:74 S:f9 pc: fa78, reg_addr: 0065
fa78 d0 6c 60 BNE  REL   A:65 X:ff Y:e2 P:77 S:f9 pc: fa7a, reg_addr: fae6
fa7a 60 24 01 RTS  IMPL  A:65 X:ff Y:e2 P:77 S:f9 pc: f213, reg_addr: 0000
f213 a5 47 c9 LDA  ZP    A:65 X:ff Y:e2 P:77 S:fb pc: f215, reg_addr: 0047
f215 c9 6f f0 CMP  IMM   A:6f X:ff Y:e2 P:75 S:fb pc: f217, reg_addr: 006f
f217 f0 02 84 BEQ  REL   A:6f X:ff Y:e2 P:77 S:fb pc: f21b, reg_addr: f21b
f21b a9 a5 8d LDA  IMM   A:6f X:ff Y:e2 P:77 S:fb pc: f21d, reg_addr: 00a5
f21d 8d 47 06 STA  ABS   A:a5 X:ff Y:e2 P:f5 S:fb pc: f220, reg_addr: 0647
f220 a0 ff 20 LDY  IMM   A:a5 X:ff Y:e2 P:f5 S:fb pc: f222, reg_addr: 00ff
f222 20 53 fb JSR  ABS   A:a5 X:ff Y:ff P:f5 S:fb pc: fb53, reg_addr: fb53
fb53 24 01 18 BIT  ZP    A:a5 X:ff Y:ff P:f5 S:f9 pc: fb55, reg_addr: 0001
fb55 18 a9 b3 CLC  IMPL  A:a5 X:ff Y:ff P:f5 S:f9 pc: fb56, reg_addr: 0000
fb56 a9 b3 60 LDA  IMM   A:a5 X:ff Y:ff P:f4 S:f9 pc: fb58, reg_addr: 00b3
fb58 60 50 1a RTS  IMPL  A:b3 X:ff Y:ff P:f4 S:f9 pc: f225, reg_addr: 0000
f225 3b 48 05 RLA  ABSY  A:b3 X:ff Y:ff P:f4 S:fb pc: f228, reg_addr: 0647
f228 ea ea 08 NOP  IMPL  A:02 X:ff Y:ff P:75 S:fb pc: f229, reg_addr: 0000
f229 ea 08 48 NOP  IMPL  A:02 X:ff Y:ff P:75 S:fb pc: f22a, reg_addr: 0000
f22a 08 48 a0 PHP  IMPL  A:02 X:ff Y:ff P:75 S:fb pc: f22b, reg_addr: 0000
f22b 48 a0 e3 PHA  IMPL  A:02 X:ff Y:ff P:75 S:fa pc: f22c, reg_addr: 0000
f22c a0 e3 68 LDY  IMM   A:02 X:ff Y:ff P:75 S:f9 pc: f22e, reg_addr: 00e3
f22e 68 28 20 PLA  IMPL  A:02 X:ff Y:e3 P:f5 S:f9 pc: f22f, reg_addr: 0000
f22f 28 20 59 PLP  IMPL  A:02 X:ff Y:e3 P:75 S:fa pc: f230, reg_addr: 0000
f230 20 59 fb JSR  ABS   A:02 X:ff Y:e3 P:75 S:fb pc: fb59, reg_addr: fb59
fb59 50 1a 90 BVC  REL   A:02 X:ff Y:e3 P:75 S:f9 pc: fb5b, reg_addr: fb75
fb5b 90 18 30 BCC  REL   A:02 X:ff Y:e3 P:75 S:f9 pc: fb5d, reg_addr: fb75
fb5d 30 16 c9 BMI  REL   A:02 X:ff Y:e3 P:75 S:f9 pc: fb5f, reg_addr: fb75
fb5f c9 02 d0 CMP  IMM   A:02 X:ff Y:e3 P:75 S:f9 pc: fb61, reg_addr: 0002
fb61 d0 12 60 BNE  REL   A:02 X:ff Y:e3 P:77 S:f9 pc: fb63, reg_addr: fb75
fb63 60 b8 18 RTS  IMPL  A:02 X:ff Y:e3 P:77 S:f9 pc: f233, reg_addr: 0000
f233 ad 47 06 LDA  ABS   A:02 X:ff Y:e3 P:77 S:fb pc: f236, reg_addr: 0647
f236 c9 4a f0 CMP  IMM   A:4a X:ff Y:e3 P:75 S:fb pc: f238, reg_addr: 004a
f238 f0 02 84 BEQ  REL   A:4a X:ff Y:e3 P:77 S:fb pc: f23c, reg_addr: f23c
f23c a0 ff a9 LDY  IMM   A:4a X:ff Y:e3 P:77 S:fb pc: f23e, reg_addr: 00ff
f23e a9 29 8d LDA  IMM   A:4a X:ff Y:ff P:f5 S:fb pc: f240, reg_addr: 0029
f240 8d 47 06 STA  ABS   A:29 X:ff Y:ff P:75 S:fb pc: f243, reg_addr: 0647
f243 20 64 fb JSR  ABS   A:29 X:ff Y:ff P:75 S:fb pc: fb64, reg_addr: fb64
fb64 b8 18 a9 CLV  IMPL  A:29 X:ff Y:ff P:75 S:f9 pc: fb65, reg_addr: 0000
fb65 18 a9 42 CLC  IMPL  A:29 X:ff Y:ff P:35 S:f9 pc: fb66, reg_addr: 0000
fb66 a9 42 60 LDA  IMM   A:29 X:ff Y:ff P:34 S:f9 pc: fb68, reg_addr: 0042
fb68 60 70 0a RTS  IMPL  A:42 X:ff Y:ff P:34 S:f9 pc: f246, reg_addr: 0000
f246 3b 48 05 RLA  ABSY  A:42 X:ff Y:ff P:34 S:fb pc: f249, reg_addr: 0647
f249 ea ea 08 NOP  IMPL  A:42 X:ff Y:ff P:34 S:fb pc: f24a, reg_addr: 0000
f24a ea 08 48 NOP  IMPL  A:42 X:ff Y:ff P:34 S:fb pc: f24b, reg_addr: 0000
f24b 08 48 a0 PHP  IMPL  A:42 X:ff Y:ff P:34 S:fb pc: f24c, reg_addr: 0000
f24c 48 a0 e4 PHA  IMPL  A:42 X:ff Y:ff P:34 S:fa pc: f24d, reg_addr: 0000
f24d a0 e4 68 LDY  IMM   A:42 X:ff Y:ff P:34 S:f9 pc: f24f, reg_addr: 00e4
f24f 68 28 20 PLA  IMPL  A:42 X:ff Y:e4 P:b4 S:f9 pc: f250, reg_addr: 0000
f250 28 20 69 PLP  IMPL  A:42 X:ff Y:e4 P:34 S:fa pc: f251, reg_addr: 0000
f251 20 69 fb JSR  ABS   A:42 X:ff Y:e4 P:34 S:fb pc: fb69, reg_addr: fb69
fb69 70 0a f0 BVS  REL   A:42 X:ff Y:e4 P:34 S:f9 pc: fb6b, reg_addr: fb75
fb6b f0 08 30 BEQ  REL   A:42 X:ff Y:e4 P:34 S:f9 pc: fb6d, reg_addr: fb75
fb6d 30 06 b0 BMI  REL   A:42 X:ff Y:e4 P:34 S:f9 pc: fb6f, reg_addr: fb75
fb6f b0 04 c9 BCS  REL   A:42 X:ff Y:e4 P:34 S:f9 pc: fb71, reg_addr: fb75
fb71 c9 42 f0 CMP  IMM   A:42 X:ff Y:e4 P:34 S:f9 pc: fb73, reg_addr: 0042
fb73 f0 02 84 BEQ  REL   A:42 X:ff Y:e4 P:37 S:f9 pc: fb77, reg_addr: fb77
fb77 60 00 00 RTS  IMPL  A:42 X:ff Y:e4 P:37 S:f9 pc: f254, reg_addr: 0000
f254 ad 47 06 LDA  ABS   A:42 X:ff Y:e4 P:37 S:fb pc: f257, reg_addr: 0647
f257 c9 52 f0 CMP  IMM   A:52 X:ff Y:e4 P:35 S:fb pc: f259, reg_addr: 0052
f259 f0 02 84 BEQ  REL   A:52 X:ff Y:e4 P:37 S:fb pc: f25d, reg_addr: f25d
f25d a0 ff a9 LDY  IMM   A:52 X:ff Y:e4 P:37 S:fb pc: f25f, reg_addr: 00ff
f25f a9 37 8d LDA  IMM   A:52 X:ff Y:ff P:b5 S:fb pc: f261, reg_addr: 0037
f261 8d 47 06 STA  ABS   A:37 X:ff Y:ff P:35 S:fb pc: f264, reg_addr: 0647
f264 20 68 fa JSR  ABS   A:37 X:ff Y:ff P:35 S:fb pc: fa68, reg_addr: fa68
fa68 24 01 38 BIT  ZP    A:37 X:ff Y:ff P:35 S:f9 pc: fa6a, reg_addr: 0001
fa6a 38 a9 75 SEC  IMPL  A:37 X:ff Y:ff P:f5 S:f9 pc: fa6b, reg_addr: 0000
fa6b a9 75 60 LDA  IMM   A:37 X:ff Y:ff P:f5 S:f9 pc: fa6d, reg_addr: 0075
fa6d 60 50 76 RTS  IMPL  A:75 X:ff Y:ff P:75 S:f9 pc: f267, reg_addr: 0000
f267 3b 48 05 RLA  ABSY  A:75 X:ff Y:ff P:75 S:fb pc: f26a, reg_addr: 0647
f26a ea ea 08 NOP  IMPL  A:65 X:ff Y:ff P:74 S:fb pc: f26b, reg_addr: 0000
f26b ea 08 48 NOP  IMPL  A:65 X:ff Y:ff P:74 S:fb pc: f26c, reg_addr: 0000
f26c 08 48 a0 PHP  IMPL  A:65 X:ff Y:ff P:74 S:fb pc: f26d, reg_addr: 0000
f26d 48 a0 e5 PHA  IMPL  A:65 X:ff Y:ff P:74 S:fa pc: f26e, reg_addr: 0000
f26e a0 e5 68 LDY  IMM   A:65 X:ff Y:ff P:74 S:f9 pc: f270, reg_addr: 00e5
f270 68 28 20 PLA  IMPL  A:65 X:ff Y:e5 P:f4 S:f9 pc: f271, reg_addr: 0000
f271 28 20 6e PLP  IMPL  A:65 X:ff Y:e5 P:74 S:fa pc: f272, reg_addr: 0000
f272 20 6e fa JSR  ABS   A:65 X:ff Y:e5 P:74 S:fb pc: fa6e, reg_addr: fa6e
fa6e 50 76 f0 BVC  REL   A:65 X:ff Y:e5 P:74 S:f9 pc: fa70, reg_addr: fae6
fa70 f0 74 30 BEQ  REL   A:65 X:ff Y:e5 P:74 S:f9 pc: fa72, reg_addr: fae6
fa72 30 72 b0 BMI  REL   A:65 X:ff Y:e5 P:74 S:f9 pc: fa74, reg_addr: fae6
fa74 b0 70 c9 BCS  REL   A:65 X:ff Y:e5 P:74 S:f9 pc: fa76, reg_addr: fae6
fa76 c9 65 d0 CMP  IMM   A:65 X:ff Y:e5 P:74 S:f9 pc: fa78, reg_addr: 0065
fa78 d0 6c 60 BNE  REL   A:65 X:ff Y:e5 P:77 S:f9 pc: fa7a, reg_addr: fae6
fa7a 60 24 01 RTS  IMPL  A:65 X:ff Y:e5 P:77 S:f9 pc: f275, reg_addr: 0000
f275 ad 47 06 LDA  ABS   A:65 X:ff Y:e5 P:77 S:fb pc: f278, reg_addr: 0647
f278 c9 6f f0 CMP  IMM   A:6f X:ff Y:e5 P:75 S:fb pc: f27a, reg_addr: 006f
f27a f0 02 84 BEQ  REL   A:6f X:ff Y:e5 P:77 S:fb pc: f27e, reg_addr: f27e
f27e a0 e6 a2 LDY  IMM   A:6f X:ff Y:e5 P:77 S:fb pc: f280, reg_addr: 00e6
f280 a2 ff a9 LDX  IMM   A:6f X:ff Y:e6 P:f5 S:fb pc: f282, reg_addr: 00ff
f282 a9 a5 8d LDA  IMM   A:6f X:ff Y:e6 P:f5 S:fb pc: f284, reg_addr: 00a5
f284 8d 47 06 STA  ABS   A:a5 X:ff Y:e6 P:f5 S:fb pc: f287, reg_addr: 0647
f287 20 53 fb JSR  ABS   A:a5 X:ff Y:e6 P:f5 S:fb pc: fb53, reg_addr: fb53
fb53 24 01 18 BIT  ZP    A:a5 X:ff Y:e6 P:f5 S:f9 pc: fb55, reg_addr: 0001
fb55 18 a9 b3 CLC  IMPL  A:a5 X:ff Y:e6 P:f5 S:f9 pc: fb56, reg_addr: 0000
fb56 a9 b3 60 LDA  IMM   A:a5 X:ff Y:e6 P:f4 S:f9 pc: fb58, reg_addr: 00b3
fb58 60 50 1a RTS  IMPL  A:b3 X:ff Y:e6 P:f4 S:f9 pc: f28a, reg_addr: 0000
f28a 3f 48 05 RLA  ABSX  A:b3 X:ff Y:e6 P:f4 S:fb pc: f28d, reg_addr: 0647
f28d ea ea ea NOP  IMPL  A:02 X:ff Y:e6 P:75 S:fb pc: f28e, reg_addr: 0000
f28e ea ea ea NOP  IMPL  A:02 X:ff Y:e6 P:75 S:fb pc: f28f, reg_addr: 0000
f28f ea ea 20 NOP  IMPL  A:02 X:ff Y:e6 P:75 S:fb pc: f290, reg_addr: 0000
f290 ea 20 59 NOP  IMPL  A:02 X:ff Y:e6 P:75 S:fb pc: f291, reg_addr: 0000
f291 20 59 fb JSR  ABS   A:02 X:ff Y:e6 P:75 S:fb pc: fb59, reg_addr: fb59
fb59 50 1a 90 BVC  REL   A:02 X:ff Y:e6 P:75 S:f9 pc: fb5b, reg_addr: fb75
fb5b 90 18 30 BCC  REL   A:02 X:ff Y:e6 P:75 S:f9 pc: fb5d, reg_addr: fb75
fb5d 30 16 c9 BMI  REL   A:02 X:ff Y:e6 P:75 S:f9 pc: fb5f, reg_addr: fb75
fb5f c9 02 d0 CMP  IMM   A:02 X:ff Y:e6 P:75 S:f9 pc: fb61, reg_addr: 0002
fb61 d0 12 60 BNE  REL   A:02 X:ff Y:e6 P:77 S:f9 pc: fb63, reg_addr: fb75
fb63 60 b8 18 RTS  IMPL  A:02 X:ff Y:e6 P:77 S:f9 pc: f294, reg_addr: 0000
f294 ad 47 06 LDA  ABS   A:02 X:ff Y:e6 P:77 S:fb pc: f297, reg_addr: 0647
f297 c9 4a f0 CMP  IMM   A:4a X:ff Y:e6 P:75 S:fb pc: f299, reg_addr: 004a
f299 f0 02 84 BEQ  REL   A:4a X:ff Y:e6 P:77 S:fb pc: f29d, reg_addr: f29d
f29d c8 a9 29 INY  IMPL  A:4a X:ff Y:e6 P:77 S:fb pc: f29e, reg_addr: 0000
f29e a9 29 8d LDA  IMM   A:4a X:ff Y:e7 P:f5 S:fb pc: f2a0, reg_addr: 0029
f2a0 8d 47 06 STA  ABS   A:29 X:ff Y:e7 P:75 S:fb pc: f2a3, reg_addr: 0647
f2a3 20 64 fb JSR  ABS   A:29 X:ff Y:e7 P:75 S:fb pc: fb64, reg_addr: fb64
fb64 b8 18 a9 CLV  IMPL  A:29 X:ff Y:e7 P:75 S:f9 pc: fb65, reg_addr: 0000
fb65 18 a9 42 CLC  IMPL  A:29 X:ff Y:e7 P:35 S:f9 pc: fb66, reg_addr: 0000
fb66 a9 42 60 LDA  IMM   A:29 X:ff Y:e7 P:34 S:f9 pc: fb68, reg_addr: 0042
fb68 60 70 0a RTS  IMPL  A:42 X:ff Y:e7 P:34 S:f9 pc: f2a6, reg_addr: 0000
f2a6 3f 48 05 RLA  ABSX  A:42 X:ff Y:e7 P:34 S:fb pc: f2a9, reg_addr: 0647
f2a9 ea ea ea NOP  IMPL  A:42 X:ff Y:e7 P:34 S:fb pc: f2aa, reg_addr: 0000
f2aa ea ea ea NOP  IMPL  A:42 X:ff Y:e7 P:34 S:fb pc: f2ab, reg_addr: 0000
f2ab ea ea 20 NOP  IMPL  A:42 X:ff Y:e7 P:34 S:fb pc: f2ac, reg_addr: 0000
f2ac ea 20 69 NOP  IMPL  A:42 X:ff Y:e7 P:34 S:fb pc: f2ad, reg_addr: 0000
f2ad 20 69 fb JSR  ABS   A:42 X:ff Y:e7 P:34 S:fb pc: fb69, reg_addr: fb69
fb69 70 0a f0 BVS  REL   A:42 X:ff Y:e7 P:34 S:f9 pc: fb6b, reg_addr: fb75
fb6b f0 08 30 BEQ  REL   A:42 X:ff Y:e7 P:34 S:f9 pc: fb6d, reg_addr: fb75
fb6d 30 06 b0 BMI  REL   A:42 X:ff Y:e7 P:34 S:f9 pc: fb6f, reg_addr: fb75
fb6f b0 04 c9 BCS  REL   A:42 X:ff Y:e7 P:34 S:f9 pc: fb71, reg_addr: fb75
fb71 c9 42 f0 CMP  IMM   A:42 X:ff Y:e7 P:34 S:f9 pc: fb73, reg_addr: 0042
fb73 f0 02 84 BEQ  REL   A:42 X:ff Y:e7 P:37 S:f9 pc: fb77, reg_addr: fb77
fb77 60 00 00 RTS  IMPL  A:42 X:ff Y:e7 P:37 S:f9 pc: f2b0, reg_addr: 0000
f2b0 ad 47 06 LDA  ABS   A:42 X:ff Y:e7 P:37 S:fb pc: f2b3, reg_addr: 0647
f2b3 c9 52 f0 CMP  IMM   A:52 X:ff Y:e7 P:35 S:fb pc: f2b5, reg_addr: 0052
f2b5 f0 02 84 BEQ  REL   A:52 X:ff Y:e7 P:37 S:fb pc: f2b9, reg_addr: f2b9
f2b9 c8 a9 37 INY  IMPL  A:52 X:ff Y:e7 P:37 S:fb pc: f2ba, reg_addr: 0000
f2ba a9 37 8d LDA  IMM   A:52 X:ff Y:e8 P:b5 S:fb pc: f2bc, reg_addr: 0037
f2bc 8d 47 06 STA  ABS   A:37 X:ff Y:e8 P:35 S:fb pc: f2bf, reg_addr: 0647
f2bf 20 68 fa JSR  ABS   A:37 X:ff Y:e8 P:35 S:fb pc: fa68, reg_addr: fa68
fa68 24 01 38 BIT  ZP    A:37 X:ff Y:e8 P:35 S:f9 pc: fa6a, reg_addr: 0001
fa6a 38 a9 75 SEC  IMPL  A:37 X:ff Y:e8 P:f5 S:f9 pc: fa6b, reg_addr: 0000
fa6b a9 75 60 LDA  IMM   A:37 X:ff Y:e8 P:f5 S:f9 pc: fa6d, reg_addr: 0075
fa6d 60 50 76 RTS  IMPL  A:75 X:ff Y:e8 P:75 S:f9 pc: f2c2, reg_addr: 0000
f2c2 3f 48 05 RLA  ABSX  A:75 X:ff Y:e8 P:75 S:fb pc: f2c5, reg_addr: 0647
f2c5 ea ea ea NOP  IMPL  A:65 X:ff Y:e8 P:74 S:fb pc: f2c6, reg_addr: 0000
f2c6 ea ea ea NOP  IMPL  A:65 X:ff Y:e8 P:74 S:fb pc: f2c7, reg_addr: 0000
f2c7 ea ea 20 NOP  IMPL  A:65 X:ff Y:e8 P:74 S:fb pc: f2c8, reg_addr: 0000
f2c8 ea 20 6e NOP  IMPL  A:65 X:ff Y:e8 P:74 S:fb pc: f2c9, reg_addr: 0000
f2c9 20 6e fa JSR  ABS   A:65 X:ff Y:e8 P:74 S:fb pc: fa6e, reg_addr: fa6e
fa6e 50 76 f0 BVC  REL   A:65 X:ff Y:e8 P:74 S:f9 pc: fa70, reg_addr: fae6
fa70 f0 74 30 BEQ  REL   A:65 X:ff Y:e8 P:74 S:f9 pc: fa72, reg_addr: fae6
fa72 30 72 b0 BMI  REL   A:65 X:ff Y:e8 P:74 S:f9 pc: fa74, reg_addr: fae6
fa74 b0 70 c9 BCS  REL   A:65 X:ff Y:e8 P:74 S:f9 pc: fa76, reg_addr: fae6
fa76 c9 65 d0 CMP  IMM   A:65 X:ff Y:e8 P:74 S:f9 pc: fa78, reg_addr: 0065
fa78 d0 6c 60 BNE  REL   A:65 X:ff Y:e8 P:77 S:f9 pc: fa7a, reg_addr: fae6
fa7a 60 24 01 RTS  IMPL  A:65 X:ff Y:e8 P:77 S:f9 pc: f2cc, reg_addr: 0000
f2cc ad 47 06 LDA  ABS   A:65 X:ff Y:e8 P:77 S:fb pc: f2cf, reg_addr: 0647
f2cf c9 6f f0 CMP  IMM   A:6f X:ff Y:e8 P:75 S:fb pc: f2d1, reg_addr: 006f
f2d1 f0 02 84 BEQ  REL   A:6f X:ff Y:e8 P:77 S:fb pc: f2d5, reg_addr: f2d5
f2d5 60 a9 ff RTS  IMPL  A:6f X:ff Y:e8 P:77 S:fb pc: c647, reg_addr: 0000
c647 20 d6 f2 JSR  ABS   A:6f X:ff Y:e8 P:77 S:fd pc: f2d6, reg_addr: f2d6
f2d6 a9 ff 85 LDA  IMM   A:6f X:ff Y:e8 P:77 S:fb pc: f2d8, reg_addr: 00ff
f2d8 85 01 a0 STA  ZP    A:ff X:ff Y:e8 P:f5 S:fb pc: f2da, reg_addr: 0001
f2da a0 e9 a2 LDY  IMM   A:ff X:ff Y:e8 P:f5 S:fb pc: f2dc, reg_addr: 00e9
f2dc a2 02 a9 LDX  IMM   A:ff X:ff Y:e9 P:f5 S:fb pc: f2de, reg_addr: 0002
f2de a9 47 85 LDA  IMM   A:ff X:02 Y:e9 P:75 S:fb pc: f2e0, reg_addr: 0047
f2e0 85 47 a9 STA  ZP    A:47 X:02 Y:e9 P:75 S:fb pc: f2e2, reg_addr: 0047
f2e2 a9 06 85 LDA  IMM   A:47 X:02 Y:e9 P:75 S:fb pc: f2e4, reg_addr: 0006
f2e4 85 48 a9 STA  ZP    A:06 X:02 Y:e9 P:75 S:fb pc: f2e6, reg_addr: 0048
f2e6 a9 a5 8d LDA  IMM   A:06 X:02 Y:e9 P:75 S:fb pc: f2e8, reg_addr: 00a5
f2e8 8d 47 06 STA  ABS   A:a5 X:02 Y:e9 P:f5 S:fb pc: f2eb, reg_addr: 0647
f2eb 20 1d fb JSR  ABS   A:a5 X:02 Y:e9 P:f5 S:fb pc: fb1d, reg_addr: fb1d
fb1d 24 01 18 BIT  ZP    A:a5 X:02 Y:e9 P:f5 S:f9 pc: fb1f, reg_addr: 0001
fb1f 18 a9 b3 CLC  IMPL  A:a5 X:02 Y:e9 P:f5 S:f9 pc: fb20, reg_addr: 0000
fb20 a9 b3 60 LDA  IMM   A:a5 X:02 Y:e9 P:f4 S:f9 pc: fb22, reg_addr: 00b3
fb22 60 50 50 RTS  IMPL  A:b3 X:02 Y:e9 P:f4 S:f9 pc: f2ee, reg_addr: 0000
f2ee 43 45 ea SRE  INDX  A:b3 X:02 Y:e9 P:f4 S:fb pc: f2f0, reg_addr: 0647
f2f0 ea ea ea NOP  IMPL  A:e1 X:02 Y:e9 P:f5 S:fb pc: f2f1, reg_addr: 0000
f2f1 ea ea ea NOP  IMPL  A:e1 X:02 Y:e9 P:f5 S:fb pc: f2f2, reg_addr: 0000
f2f2 ea ea 20 NOP  IMPL  A:e1 X:02 Y:e9 P:f5 S:fb pc: f2f3, reg_addr: 0000
f2f3 ea 20 23 NOP  IMPL  A:e1 X:02 Y:e9 P:f5 S:fb pc: f2f4, reg_addr: 0000
f2f4 20 23 fb JSR  ABS   A:e1 X:02 Y:e9 P:f5 S:fb pc: fb23, reg_addr: fb23
fb23 50 50 90 BVC  REL   A:e1 X:02 Y:e9 P:f5 S:f9 pc: fb25, reg_addr: fb75
fb25 90 4e 10 BCC  REL   A:e1 X:02 Y:e9 P:f5 S:f9 pc: fb27, reg_addr: fb75
fb27 10 4c c9 BPL  REL   A:e1 X:02 Y:e9 P:f5 S:f9 pc: fb29, reg_addr: fb75
fb29 c9 e1 d0 CMP  IMM   A:e1 X:02 Y:e9 P:f5 S:f9 pc: fb2b, reg_addr: 00e1
fb2b d0 48 60 BNE  REL   A:e1 X:02 Y:e9 P:77 S:f9 pc: fb2d, reg_addr: fb75
fb2d 60 b8 18 RTS  IMPL  A:e1 X:02 Y:e9 P:77 S:f9 pc: f2f7, reg_addr: 0000
f2f7 ad 47 06 LDA  ABS   A:e1 X:02 Y:e9 P:77 S:fb pc: f2fa, reg_addr: 0647
f2fa c9 52 f0 CMP  IMM   A:52 X:02 Y:e9 P:75 S:fb pc: f2fc, reg_addr: 0052
f2fc f0 02 84 BEQ  REL   A:52 X:02 Y:e9 P:77 S:fb pc: f300, reg_addr: f300
f300 c8 a9 29 INY  IMPL  A:52 X:02 Y:e9 P:77 S:fb pc: f301, reg_addr: 0000
f301 a9 29 8d LDA  IMM   A:52 X:02 Y:ea P:f5 S:fb pc: f303, reg_addr: 0029
f303 8d 47 06 STA  ABS   A:29 X:02 Y:ea P:75 S:fb pc: f306, reg_addr: 0647
f306 20 2e fb JSR  ABS   A:29 X:02 Y:ea P:75 S:fb pc: fb2e, reg_addr: fb2e
fb2e b8 18 a9 CLV  IMPL  A:29 X:02 Y:ea P:75 S:f9 pc: fb2f, reg_addr: 0000
fb2f 18 a9 42 CLC  IMPL  A:29 X:02 Y:ea P:35 S:f9 pc: fb30, reg_addr: 0000
fb30 a9 42 60 LDA  IMM   A:29 X:02 Y:ea P:34 S:f9 pc: fb32, reg_addr: 0042
fb32 60 70 40 RTS  IMPL  A:42 X:02 Y:ea P:34 S:f9 pc: f309, reg_addr: 0000
f309 43 45 ea SRE  INDX  A:42 X:02 Y:ea P:34 S:fb pc: f30b, reg_addr: 0647
f30b ea ea ea NOP  IMPL  A:56 X:02 Y:ea P:35 S:fb pc: f30c, reg_addr: 0000
f30c ea ea ea NOP  IMPL  A:56 X:02 Y:ea P:35 S:fb pc: f30d, reg_addr: 0000
f30d ea ea 20 NOP  IMPL  A:56 X:02 Y:ea P:35 S:fb pc: f30e, reg_addr: 0000
f30e ea 20 33 NOP  IMPL  A:56 X:02 Y:ea P:35 S:fb pc: f30f, reg_addr: 0000
f30f 20 33 fb JSR  ABS   A:56 X:02 Y:ea P:35 S:fb pc: fb33, reg_addr: fb33
fb33 70 40 f0 BVS  REL   A:56 X:02 Y:ea P:35 S:f9 pc: fb35, reg_addr: fb75
fb35 f0 3e 30 BEQ  REL   A:56 X:02 Y:ea P:35 S:f9 pc: fb37, reg_addr: fb75
fb37 30 3c 90 BMI  REL   A:56 X:02 Y:ea P:35 S:f9 pc: fb39, reg_addr: fb75
fb39 90 3a c9 BCC  REL   A:56 X:02 Y:ea P:35 S:f9 pc: fb3b, reg_addr: fb75
fb3b c9 56 d0 CMP  IMM   A:56 X:02 Y:ea P:35 S:f9 pc: fb3d, reg_addr: 0056
fb3d d0 36 60 BNE  REL   A:56 X:02 Y:ea P:37 S:f9 pc: fb3f, reg_addr: fb75
fb3f 60 24 01 RTS  IMPL  A:56 X:02 Y:ea P:37 S:f9 pc: f312, reg_addr: 0000
f312 ad 47 06 LDA  ABS   A:56 X:02 Y:ea P:37 S:fb pc: f315, reg_addr: 0647
f315 c9 14 f0 CMP  IMM   A:14 X:02 Y:ea P:35 S:fb pc: f317, reg_addr: 0014
f317 f0 02 84 BEQ  REL   A:14 X:02 Y:ea P:37 S:fb pc: f31b, reg_addr: f31b
f31b c8 a9 37 INY  IMPL  A:14 X:02 Y:ea P:37 S:fb pc: f31c, reg_addr: 0000
f31c a9 37 8d LDA  IMM   A:14 X:02 Y:eb P:b5 S:fb pc: f31e, reg_addr: 0037
f31e 8d 47 06 STA  ABS   A:37 X:02 Y:eb P:35 S:fb pc: f321, reg_addr: 0647
f321 20 40 fb JSR  ABS   A:37 X:02 Y:eb P:35 S:fb pc: fb40, reg_addr: fb40
fb40 24 01 38 BIT  ZP    A:37 X:02 Y:eb P:35 S:f9 pc: fb42, reg_addr: 0001
fb42 38 a9 75 SEC  IMPL  A:37 X:02 Y:eb P:f5 S:f9 pc: fb43, reg_addr: 0000
fb43 a9 75 60 LDA  IMM   A:37 X:02 Y:eb P:f5 S:f9 pc: fb45, reg_addr: 0075
fb45 60 50 2d RTS  IMPL  A:75 X:02 Y:eb P:75 S:f9 pc: f324, reg_addr: 0000
f324 43 45 ea SRE  INDX  A:75 X:02 Y:eb P:75 S:fb pc: f326, reg_addr: 0647
f326 ea ea ea NOP  IMPL  A:6e X:02 Y:eb P:75 S:fb pc: f327, reg_addr: 0000
f327 ea ea ea NOP  IMPL  A:6e X:02 Y:eb P:75 S:fb pc: f328, reg_addr: 0000
f328 ea ea 20 NOP  IMPL  A:6e X:02 Y:eb P:75 S:fb pc: f329, reg_addr: 0000
f329 ea 20 46 NOP  IMPL  A:6e X:02 Y:eb P:75 S:fb pc: f32a, reg_addr: 0000
f32a 20 46 fb JSR  ABS   A:6e X:02 Y:eb P:75 S:fb pc: fb46, reg_addr: fb46
fb46 50 2d f0 BVC  REL   A:6e X:02 Y:eb P:75 S:f9 pc: fb48, reg_addr: fb75
fb48 f0 2b 30 BEQ  REL   A:6e X:02 Y:eb P:75 S:f9 pc: fb4a, reg_addr: fb75
fb4a 30 29 90 BMI  REL   A:6e X:02 Y:eb P:75 S:f9 pc: fb4c, reg_addr: fb75
fb4c 90 27 c9 BCC  REL   A:6e X:02 Y:eb P:75 S:f9 pc: fb4e, reg_addr: fb75
fb4e c9 6e d0 CMP  IMM   A:6e X:02 Y:eb P:75 S:f9 pc: fb50, reg_addr: 006e
fb50 d0 23 60 BNE  REL   A:6e X:02 Y:eb P:77 S:f9 pc: fb52, reg_addr: fb75
fb52 60 24 01 RTS  IMPL  A:6e X:02 Y:eb P:77 S:f9 pc: f32d, reg_addr: 0000
f32d ad 47 06 LDA  ABS   A:6e X:02 Y:eb P:77 S:fb pc: f330, reg_addr: 0647
f330 c9 1b f0 CMP  IMM   A:1b X:02 Y:eb P:75 S:fb pc: f332, reg_addr: 001b
f332 f0 02 84 BEQ  REL   A:1b X:02 Y:eb P:77 S:fb pc: f336, reg_addr: f336
f336 c8 a9 a5 INY  IMPL  A:1b X:02 Y:eb P:77 S:fb pc: f337, reg_addr: 0000
f337 a9 a5 85 LDA  IMM   A:1b X:02 Y:ec P:f5 S:fb pc: f339, reg_addr: 00a5
f339 85 47 20 STA  ZP    A:a5 X:02 Y:ec P:f5 S:fb pc: f33b, reg_addr: 0047
f33b 20 1d fb JSR  ABS   A:a5 X:02 Y:ec P:f5 S:fb pc: fb1d, reg_addr: fb1d
fb1d 24 01 18 BIT  ZP    A:a5 X:02 Y:ec P:f5 S:f9 pc: fb1f, reg_addr: 0001
fb1f 18 a9 b3 CLC  IMPL  A:a5 X:02 Y:ec P:f5 S:f9 pc: fb20, reg_addr: 0000
fb20 a9 b3 60 LDA  IMM   A:a5 X:02 Y:ec P:f4 S:f9 pc: fb22, reg_addr: 00b3
fb22 60 50 50 RTS  IMPL  A:b3 X:02 Y:ec P:f4 S:f9 pc: f33e, reg_addr: 0000
f33e 47 47 ea SRE  ZP    A:b3 X:02 Y:ec P:f4 S:fb pc: f340, reg_addr: 0047
f340 ea ea ea NOP  IMPL  A:e1 X:02 Y:ec P:f5 S:fb pc: f341, reg_addr: 0000
f341 ea ea ea NOP  IMPL  A:e1 X:02 Y:ec P:f5 S:fb pc: f342, reg_addr: 0000
f342 ea ea 20 NOP  IMPL  A:e1 X:02 Y:ec P:f5 S:fb pc: f343, reg_addr: 0000
f343 ea 20 23 NOP  IMPL  A:e1 X:02 Y:ec P:f5 S:fb pc: f344, reg_addr: 0000
f344 20 23 fb JSR  ABS   A:e1 X:02 Y:ec P:f5 S:fb pc: fb23, reg_addr: fb23
fb23 50 50 90 BVC  REL   A:e1 X:02 Y:ec P:f5 S:f9 pc: fb25, reg_addr: fb75
fb25 90 4e 10 BCC  REL   A:e1 X:02 Y:ec P:f5 S:f9 pc: fb27, reg_addr: fb75
fb27 10 4c c9 BPL  REL   A:e1 X:02 Y:ec P:f5 S:f9 pc: fb29, reg_addr: fb75
fb29 c9 e1 d0 CMP  IMM   A:e1 X:02 Y:ec P:f5 S:f9 pc: fb2b, reg_addr: 00e1
fb2b d0 48 60 BNE  REL   A:e1 X:02 Y:ec P:77 S:f9 pc: fb2d, reg_addr: fb75
fb2d 60 b8 18 RTS  IMPL  A:e1 X:02 Y:ec P:77 S:f9 pc: f347, reg_addr: 0000
f347 a5 47 c9 LDA  ZP    A:e1 X:02 Y:ec P:77 S:fb pc: f349, reg_addr: 0047
f349 c9 52 f0 CMP  IMM   A:52 X:02 Y:ec P:75 S:fb pc: f34b, reg_addr: 0052
f34b f0 02 84 BEQ  REL   A:52 X:02 Y:ec P:77 S:fb pc: f34f, reg_addr: f34f
f34f c8 a9 29 INY  IMPL  A:52 X:02 Y:ec P:77 S:fb pc: f350, reg_addr: 0000
f350 a9 29 85 LDA  IMM   A:52 X:02 Y:ed P:f5 S:fb pc: f352, reg_addr: 0029
f352 85 47 20 STA  ZP    A:29 X:02 Y:ed P:75 S:fb pc: f354, reg_addr: 0047
f354 20 2e fb JSR  ABS   A:29 X:02 Y:ed P:75 S:fb pc: fb2e, reg_addr: fb2e
fb2e b8 18 a9 CLV  IMPL  A:29 X:02 Y:ed P:75 S:f9 pc: fb2f, reg_addr: 0000
fb2f 18 a9 42 CLC  IMPL  A:29 X:02 Y:ed P:35 S:f9 pc: fb30, reg_addr: 0000
fb30 a9 42 60 LDA  IMM   A:29 X:02 Y:ed P:34 S:f9 pc: fb32, reg_addr: 0042
fb32 60 70 40 RTS  IMPL  A:42 X:02 Y:ed P:34 S:f9 pc: f357, reg_addr: 0000
f357 47 47 ea SRE  ZP    A:42 X:02 Y:ed P:34 S:fb pc: f359, reg_addr: 0047
f359 ea ea ea NOP  IMPL  A:56 X:02 Y:ed P:35 S:fb pc: f35a, reg_addr: 0000
f35a ea ea ea NOP  IMPL  A:56 X:02 Y:ed P:35 S:fb pc: f35b, reg_addr: 0000
f35b ea ea 20 NOP  IMPL  A:56 X:02 Y:ed P:35 S:fb pc: f35c, reg_addr: 0000
f35c ea 20 33 NOP  IMPL  A:56 X:02 Y:ed P:35 S:fb pc: f35d, reg_addr: 0000
f35d 20 33 fb JSR  ABS   A:56 X:02 Y:ed P:35 S:fb pc: fb33, reg_addr: fb33
fb33 70 40 f0 BVS  REL   A:56 X:02 Y:ed P:35 S:f9 pc: fb35, reg_addr: fb75
fb35 f0 3e 30 BEQ  REL   A:56 X:02 Y:ed P:35 S:f9 pc: fb37, reg_addr: fb75
fb37 30 3c 90 BMI  REL   A:56 X:02 Y:ed P:35 S:f9 pc: fb39, reg_addr: fb75
fb39 90 3a c9 BCC  REL   A:56 X:02 Y:ed P:35 S:f9 pc: fb3b, reg_addr: fb75
fb3b c9 56 d0 CMP  IMM   A:56 X:02 Y:ed P:35 S:f9 pc: fb3d, reg_addr: 0056
fb3d d0 36 60 BNE  REL   A:56 X:02 Y:ed P:37 S:f9 pc: fb3f, reg_addr: fb75
fb3f 60 24 01 RTS  IMPL  A:56 X:02 Y:ed P:37 S:f9 pc: f360, reg_addr: 0000
f360 a5 47 c9 LDA  ZP    A:56 X:02 Y:ed P:37 S:fb pc: f362, reg_addr: 0047
f362 c9 14 f0 CMP  IMM   A:14 X:02 Y:ed P:35 S:fb pc: f364, reg_addr: 0014
f364 f0 02 84 BEQ  REL   A:14 X:02 Y:ed P:37 S:fb pc: f368, reg_addr: f368
f368 c8 a9 37 INY  IMPL  A:14 X:02 Y:ed P:37 S:fb pc: f369, reg_addr: 0000
f369 a9 37 85 LDA  IMM   A:14 X:02 Y:ee P:b5 S:fb pc: f36b, reg_addr: 0037
f36b 85 47 20 STA  ZP    A:37 X:02 Y:ee P:35 S:fb pc: f36d, reg_addr: 0047
f36d 20 40 fb JSR  ABS   A:37 X:02 Y:ee P:35 S:fb pc: fb40, reg_addr: fb40
fb40 24 01 38 BIT  ZP    A:37 X:02 Y:ee P:35 S:f9 pc: fb42, reg_addr: 0001
fb42 38 a9 75 SEC  IMPL  A:37 X:02 Y:ee P:f5 S:f9 pc: fb43, reg_addr: 0000
fb43 a9 75 60 LDA  IMM   A:37 X:02 Y:ee P:f5 S:f9 pc: fb45, reg_addr: 0075
fb45 60 50 2d RTS  IMPL  A:75 X:02 Y:ee P:75 S:f9 pc: f370, reg_addr: 0000
f370 47 47 ea SRE  ZP    A:75 X:02 Y:ee P:75 S:fb pc: f372, reg_addr: 0047
f372 ea ea ea NOP  IMPL  A:6e X:02 Y:ee P:75 S:fb pc: f373, reg_addr: 0000
f373 ea ea ea NOP  IMPL  A:6e X:02 Y:ee P:75 S:fb pc: f374, reg_addr: 0000
f374 ea ea 20 NOP  IMPL  A:6e X:02 Y:ee P:75 S:fb pc: f375, reg_addr: 0000
f375 ea 20 46 NOP  IMPL  A:6e X:02 Y:ee P:75 S:fb pc: f376, reg_addr: 0000
f376 20 46 fb JSR  ABS   A:6e X:02 Y:ee P:75 S:fb pc: fb46, reg_addr: fb46
fb46 50 2d f0 BVC  REL   A:6e X:02 Y:ee P:75 S:f9 pc: fb48, reg_addr: fb75
fb48 f0 2b 30 BEQ  REL   A:6e X:02 Y:ee P:75 S:f9 pc: fb4a, reg_addr: fb75
fb4a 30 29 90 BMI  REL   A:6e X:02 Y:ee P:75 S:f9 pc: fb4c, reg_addr: fb75
fb4c 90 27 c9 BCC  REL   A:6e X:02 Y:ee P:75 S:f9 pc: fb4e, reg_addr: fb75
fb4e c9 6e d0 CMP  IMM   A:6e X:02 Y:ee P:75 S:f9 pc: fb50, reg_addr: 006e
fb50 d0 23 60 BNE  REL   A:6e X:02 Y:ee P:77 S:f9 pc: fb52, reg_addr: fb75
fb52 60 24 01 RTS  IMPL  A:6e X:02 Y:ee P:77 S:f9 pc: f379, reg_addr: 0000
f379 a5 47 c9 LDA  ZP    A:6e X:02 Y:ee P:77 S:fb pc: f37b, reg_addr: 0047
f37b c9 1b f0 CMP  IMM   A:1b X:02 Y:ee P:75 S:fb pc: f37d, reg_addr: 001b
f37d f0 02 84 BEQ  REL   A:1b X:02 Y:ee P:77 S:fb pc: f381, reg_addr: f381
f381 c8 a9 a5 INY  IMPL  A:1b X:02 Y:ee P:77 S:fb pc: f382, reg_addr: 0000
f382 a9 a5 8d LDA  IMM   A:1b X:02 Y:ef P:f5 S:fb pc: f384, reg_addr: 00a5
f384 8d 47 06 STA  ABS   A:a5 X:02 Y:ef P:f5 S:fb pc: f387, reg_addr: 0647
f387 20 1d fb JSR  ABS   A:a5 X:02 Y:ef P:f5 S:fb pc: fb1d, reg_addr: fb1d
fb1d 24 01 18 BIT  ZP    A:a5 X:02 Y:ef P:f5 S:f9 pc: fb1f, reg_addr: 0001
fb1f 18 a9 b3 CLC  IMPL  A:a5 X:02 Y:ef P:f5 S:f9 pc: fb20, reg_addr: 0000
fb20 a9 b3 60 LDA  IMM   A:a5 X:02 Y:ef P:f4 S:f9 pc: fb22, reg_addr: 00b3
fb22 60 50 50 RTS  IMPL  A:b3 X:02 Y:ef P:f4 S:f9 pc: f38a, reg_addr: 0000
f38a 4f 47 06 SRE  ABS   A:b3 X:02 Y:ef P:f4 S:fb pc: f38d, reg_addr: 0647
f38d ea ea ea NOP  IMPL  A:e1 X:02 Y:ef P:f5 S:fb pc: f38e, reg_addr: 0000
f38e ea ea ea NOP  IMPL  A:e1 X:02 Y:ef P:f5 S:fb pc: f38f, reg_addr: 0000
f38f ea ea 20 NOP  IMPL  A:e1 X:02 Y:ef P:f5 S:fb pc: f390, reg_addr: 0000
f390 ea 20 23 NOP  IMPL  A:e1 X:02 Y:ef P:f5 S:fb pc: f391, reg_addr: 0000
f391 20 23 fb JSR  ABS   A:e1 X:02 Y:ef P:f5 S:fb pc: fb23, reg_addr: fb23
fb23 50 50 90 BVC  REL   A:e1 X:02 Y:ef P:f5 S:f9 pc: fb25, reg_addr: fb75
fb25 90 4e 10 BCC  REL   A:e1 X:02 Y:ef P:f5 S:f9 pc: fb27, reg_addr: fb75
fb27 10 4c c9 BPL  REL   A:e1 X:02 Y:ef P:f5 S:f9 pc: fb29, reg_addr: fb75
fb29 c9 e1 d0 CMP  IMM   A:e1 X:02 Y:ef P:f5 S:f9 pc: fb2b, reg_addr: 00e1
fb2b d0 48 60 BNE  REL   A:e1 X:02 Y:ef P:77 S:f9 pc: fb2d, reg_addr: fb75
fb2d 60 b8 18 RTS  IMPL  A:e1 X:02 Y:ef P:77 S:f9 pc: f394, reg_addr: 0000
f394 ad 47 06 LDA  ABS   A:e1 X:02 Y:ef P:77 S:fb pc: f397, reg_addr: 0647
f397 c9 52 f0 CMP  IMM   A:52 X:02 Y:ef P:75 S:fb pc: f399, reg_addr: 0052
f399 f0 02 84 BEQ  REL   A:52 X:02 Y:ef P:77 S:fb pc: f39d, reg_addr: f39d
f39d c8 a9 29 INY  IMPL  A:52 X:02 Y:ef P:77 S:fb pc: f39e, reg_addr: 0000
f39e a9 29 8d LDA  IMM   A:52 X:02 Y:f0 P:f5 S:fb pc: f3a0, reg_addr: 0029
f3a0 8d 47 06 STA  ABS   A:29 X:02 Y:f0 P:75 S:fb pc: f3a3, reg_addr: 0647
f3a3 20 2e fb JSR  ABS   A:29 X:02 Y:f0 P:75 S:fb pc: fb2e, reg_addr: fb2e
fb2e b8 18 a9 CLV  IMPL  A:29 X:02 Y:f0 P:75 S:f9 pc: fb2f, reg_addr: 0000
fb2f 18 a9 42 CLC  IMPL  A:29 X:02 Y:f0 P:35 S:f9 pc: fb30, reg_addr: 0000
fb30 a9 42 60 LDA  IMM   A:29 X:02 Y:f0 P:34 S:f9 pc: fb32, reg_addr: 0042
fb32 60 70 40 RTS  IMPL  A:42 X:02 Y:f0 P:34 S:f9 pc: f3a6, reg_addr: 0000
f3a6 4f 47 06 SRE  ABS   A:42 X:02 Y:f0 P:34 S:fb pc: f3a9, reg_addr: 0647
f3a9 ea ea ea NOP  IMPL  A:56 X:02 Y:f0 P:35 S:fb pc: f3aa, reg_addr: 0000
f3aa ea ea ea NOP  IMPL  A:56 X:02 Y:f0 P:35 S:fb pc: f3ab, reg_addr: 0000
f3ab ea ea 20 NOP  IMPL  A:56 X:02 Y:f0 P:35 S:fb pc: f3ac, reg_addr: 0000
f3ac ea 20 33 NOP  IMPL  A:56 X:02 Y:f0 P:35 S:fb pc: f3ad, reg_addr: 0000
f3ad 20 33 fb JSR  ABS   A:56 X:02 Y:f0 P:35 S:fb pc: fb33, reg_addr: fb33
fb33 70 40 f0 BVS  REL   A:56 X:02 Y:f0 P:35 S:f9 pc: fb35, reg_addr: fb75
fb35 f0 3e 30 BEQ  REL   A:56 X:02 Y:f0 P:35 S:f9 pc: fb37, reg_addr: fb75
fb37 30 3c 90 BMI  REL   A:56 X:02 Y:f0 P:35 S:f9 pc: fb39, reg_addr: fb75
fb39 90 3a c9 BCC  REL   A:56 X:02 Y:f0 P:35 S:f9 pc: fb3b, reg_addr: fb75
fb3b c9 56 d0 CMP  IMM   A:56 X:02 Y:f0 P:35 S:f9 pc: fb3d, reg_addr: 0056
fb3d d0 36 60 BNE  REL   A:56 X:02 Y:f0 P:37 S:f9 pc: fb3f, reg_addr: fb75
fb3f 60 24 01 RTS  IMPL  A:56 X:02 Y:f0 P:37 S:f9 pc: f3b0, reg_addr: 0000
f3b0 ad 47 06 LDA  ABS   A:56 X:02 Y:f0 P:37 S:fb pc: f3b3, reg_addr: 0647
f3b3 c9 14 f0 CMP  IMM   A:14 X:02 Y:f0 P:35 S:fb pc: f3b5, reg_addr: 0014
f3b5 f0 02 84 BEQ  REL   A:14 X:02 Y:f0 P:37 S:fb pc: f3b9, reg_addr: f3b9
f3b9 c8 a9 37 INY  IMPL  A:14 X:02 Y:f0 P:37 S:fb pc: f3ba, reg_addr: 0000
f3ba a9 37 8d LDA  IMM   A:14 X:02 Y:f1 P:b5 S:fb pc: f3bc, reg_addr: 0037
f3bc 8d 47 06 STA  ABS   A:37 X:02 Y:f1 P:35 S:fb pc: f3bf, reg_addr: 0647
f3bf 20 40 fb JSR  ABS   A:37 X:02 Y:f1 P:35 S:fb pc: fb40, reg_addr: fb40
fb40 24 01 38 BIT  ZP    A:37 X:02 Y:f1 P:35 S:f9 pc: fb42, reg_addr: 0001
fb42 38 a9 75 SEC  IMPL  A:37 X:02 Y:f1 P:f5 S:f9 pc: fb43, reg_addr: 0000
fb43 a9 75 60 LDA  IMM   A:37 X:02 Y:f1 P:f5 S:f9 pc: fb45, reg_addr: 0075
fb45 60 50 2d RTS  IMPL  A:75 X:02 Y:f1 P:75 S:f9 pc: f3c2, reg_addr: 0000
f3c2 4f 47 06 SRE  ABS   A:75 X:02 Y:f1 P:75 S:fb pc: f3c5, reg_addr: 0647
f3c5 ea ea ea NOP  IMPL  A:6e X:02 Y:f1 P:75 S:fb pc: f3c6, reg_addr: 0000
f3c6 ea ea ea NOP  IMPL  A:6e X:02 Y:f1 P:75 S:fb pc: f3c7, reg_addr: 0000
f3c7 ea ea 20 NOP  IMPL  A:6e X:02 Y:f1 P:75 S:fb pc: f3c8, reg_addr: 0000
f3c8 ea 20 46 NOP  IMPL  A:6e X:02 Y:f1 P:75 S:fb pc: f3c9, reg_addr: 0000
f3c9 20 46 fb JSR  ABS   A:6e X:02 Y:f1 P:75 S:fb pc: fb46, reg_addr: fb46
fb46 50 2d f0 BVC  REL   A:6e X:02 Y:f1 P:75 S:f9 pc: fb48, reg_addr: fb75
fb48 f0 2b 30 BEQ  REL   A:6e X:02 Y:f1 P:75 S:f9 pc: fb4a, reg_addr: fb75
fb4a 30 29 90 BMI  REL   A:6e X:02 Y:f1 P:75 S:f9 pc: fb4c, reg_addr: fb75
fb4c 90 27 c9 BCC  REL   A:6e X:02 Y:f1 P:75 S:f9 pc: fb4e, reg_addr: fb75
fb4e c9 6e d0 CMP  IMM   A:6e X:02 Y:f1 P:75 S:f9 pc: fb50, reg_addr: 006e
fb50 d0 23 60 BNE  REL   A:6e X:02 Y:f1 P:77 S:f9 pc: fb52, reg_addr: fb75
fb52 60 24 01 RTS  IMPL  A:6e X:02 Y:f1 P:77 S:f9 pc: f3cc, reg_addr: 0000
f3cc ad 47 06 LDA  ABS   A:6e X:02 Y:f1 P:77 S:fb pc: f3cf, reg_addr: 0647
f3cf c9 1b f0 CMP  IMM   A:1b X:02 Y:f1 P:75 S:fb pc: f3d1, reg_addr: 001b
f3d1 f0 02 84 BEQ  REL   A:1b X:02 Y:f1 P:77 S:fb pc: f3d5, reg_addr: f3d5
f3d5 a9 a5 8d LDA  IMM   A:1b X:02 Y:f1 P:77 S:fb pc: f3d7, reg_addr: 00a5
f3d7 8d 47 06 STA  ABS   A:a5 X:02 Y:f1 P:f5 S:fb pc: f3da, reg_addr: 0647
f3da a9 48 85 LDA  IMM   A:a5 X:02 Y:f1 P:f5 S:fb pc: f3dc, reg_addr: 0048
f3dc 85 45 a9 STA  ZP    A:48 X:02 Y:f1 P:75 S:fb pc: f3de, reg_addr: 0045
f3de a9 05 85 LDA  IMM   A:48 X:02 Y:f1 P:75 S:fb pc: f3e0, reg_addr: 0005
f3e0 85 46 a0 STA  ZP    A:05 X:02 Y:f1 P:75 S:fb pc: f3e2, reg_addr: 0046
f3e2 a0 ff 20 LDY  IMM   A:05 X:02 Y:f1 P:75 S:fb pc: f3e4, reg_addr: 00ff
f3e4 20 1d fb JSR  ABS   A:05 X:02 Y:ff P:f5 S:fb pc: fb1d, reg_addr: fb1d
fb1d 24 01 18 BIT  ZP    A:05 X:02 Y:ff P:f5 S:f9 pc: fb1f, reg_addr: 0001
fb1f 18 a9 b3 CLC  IMPL  A:05 X:02 Y:ff P:f5 S:f9 pc: fb20, reg_addr: 0000
fb20 a9 b3 60 LDA  IMM   A:05 X:02 Y:ff P:f4 S:f9 pc: fb22, reg_addr: 00b3
fb22 60 50 50 RTS  IMPL  A:b3 X:02 Y:ff P:f4 S:f9 pc: f3e7, reg_addr: 0000
f3e7 53 45 ea SRE  INDY  A:b3 X:02 Y:ff P:f4 S:fb pc: f3e9, reg_addr: 0647
f3e9 ea ea 08 NOP  IMPL  A:e1 X:02 Y:ff P:f5 S:fb pc: f3ea, reg_addr: 0000
f3ea ea 08 48 NOP  IMPL  A:e1 X:02 Y:ff P:f5 S:fb pc: f3eb, reg_addr: 0000
f3eb 08 48 a0 PHP  IMPL  A:e1 X:02 Y:ff P:f5 S:fb pc: f3ec, reg_addr: 0000
f3ec 48 a0 f2 PHA  IMPL  A:e1 X:02 Y:ff P:f5 S:fa pc: f3ed, reg_addr: 0000
f3ed a0 f2 68 LDY  IMM   A:e1 X:02 Y:ff P:f5 S:f9 pc: f3ef, reg_addr: 00f2
f3ef 68 28 20 PLA  IMPL  A:e1 X:02 Y:f2 P:f5 S:f9 pc: f3f0, reg_addr: 0000
f3f0 28 20 23 PLP  IMPL  A:e1 X:02 Y:f2 P:f5 S:fa pc: f3f1, reg_addr: 0000
f3f1 20 23 fb JSR  ABS   A:e1 X:02 Y:f2 P:f5 S:fb pc: fb23, reg_addr: fb23
fb23 50 50 90 BVC  REL   A:e1 X:02 Y:f2 P:f5 S:f9 pc: fb25, reg_addr: fb75
fb25 90 4e 10 BCC  REL   A:e1 X:02 Y:f2 P:f5 S:f9 pc: fb27, reg_addr: fb75
fb27 10 4c c9 BPL  REL   A:e1 X:02 Y:f2 P:f5 S:f9 pc: fb29, reg_addr: fb75
fb29 c9 e1 d0 CMP  IMM   A:e1 X:02 Y:f2 P:f5 S:f9 pc: fb2b, reg_addr: 00e1
fb2b d0 48 60 BNE  REL   A:e1 X:02 Y:f2 P:77 S:f9 pc: fb2d, reg_addr: fb75
fb2d 60 b8 18 RTS  IMPL  A:e1 X:02 Y:f2 P:77 S:f9 pc: f3f4, reg_addr: 0000
f3f4 ad 47 06 LDA  ABS   A:e1 X:02 Y:f2 P:77 S:fb pc: f3f7, reg_addr: 0647
f3f7 c9 52 f0 CMP  IMM   A:52 X:02 Y:f2 P:75 S:fb pc: f3f9, reg_addr: 0052
f3f9 f0 02 84 BEQ  REL   A:52 X:02 Y:f2 P:77 S:fb pc: f3fd, reg_addr: f3fd
f3fd a0 ff a9 LDY  IMM   A:52 X:02 Y:f2 P:77 S:fb pc: f3ff, reg_addr: 00ff
f3ff a9 29 8d LDA  IMM   A:52 X:02 Y:ff P:f5 S:fb pc: f401, reg_addr: 0029
f401 8d 47 06 STA  ABS   A:29 X:02 Y:ff P:75 S:fb pc: f404, reg_addr: 0647
f404 20 2e fb JSR  ABS   A:29 X:02 Y:ff P:75 S:fb pc: fb2e, reg_addr: fb2e
fb2e b8 18 a9 CLV  IMPL  A:29 X:02 Y:ff P:75 S:f9 pc: fb2f, reg_addr: 0000
fb2f 18 a9 42 CLC  IMPL  A:29 X:02 Y:ff P:35 S:f9 pc: fb30, reg_addr: 0000
fb30 a9 42 60 LDA  IMM   A:29 X:02 Y:ff P:34 S:f9 pc: fb32, reg_addr: 0042
fb32 60 70 40 RTS  IMPL  A:42 X:02 Y:ff P:34 S:f9 pc: f407, reg_addr: 0000
f407 53 45 ea SRE  INDY  A:42 X:02 Y:ff P:34 S:fb pc: f409, reg_addr: 0647
f409 ea ea 08 NOP  IMPL  A:56 X:02 Y:ff P:35 S:fb pc: f40a, reg_addr: 0000
f40a ea 08 48 NOP  IMPL  A:56 X:02 Y:ff P:35 S:fb pc: f40b, reg_addr: 0000
f40b 08 48 a0 PHP  IMPL  A:56 X:02 Y:ff P:35 S:fb pc: f40c, reg_addr: 0000
f40c 48 a0 f3 PHA  IMPL  A:56 X:02 Y:ff P:35 S:fa pc: f40d, reg_addr: 0000
f40d a0 f3 68 LDY  IMM   A:56 X:02 Y:ff P:35 S:f9 pc: f40f, reg_addr: 00f3
f40f 68 28 20 PLA  IMPL  A:56 X:02 Y:f3 P:b5 S:f9 pc: f410, reg_addr: 0000
f410 28 20 33 PLP  IMPL  A:56 X:02 Y:f3 P:35 S:fa pc: f411, reg_addr: 0000
f411 20 33 fb JSR  ABS   A:56 X:02 Y:f3 P:35 S:fb pc: fb33, reg_addr: fb33
fb33 70 40 f0 BVS  REL   A:56 X:02 Y:f3 P:35 S:f9 pc: fb35, reg_addr: fb75
fb35 f0 3e 30 BEQ  REL   A:56 X:02 Y:f3 P:35 S:f9 pc: fb37, reg_addr: fb75
fb37 30 3c 90 BMI  REL   A:56 X:02 Y:f3 P:35 S:f9 pc: fb39, reg_addr: fb75
fb39 90 3a c9 BCC  REL   A:56 X:02 Y:f3 P:35 S:f9 pc: fb3b, reg_addr: fb75
fb3b c9 56 d0 CMP  IMM   A:56 X:02 Y:f3 P:35 S:f9 pc: fb3d, reg_addr: 0056
fb3d d0 36 60 BNE  REL   A:56 X:02 Y:f3 P:37 S:f9 pc: fb3f, reg_addr: fb75
fb3f 60 24 01 RTS  IMPL  A:56 X:02 Y:f3 P:37 S:f9 pc: f414, reg_addr: 0000
f414 ad 47 06 LDA  ABS   A:56 X:02 Y:f3 P:37 S:fb pc: f417, reg_addr: 0647
f417 c9 14 f0 CMP  IMM   A:14 X:02 Y:f3 P:35 S:fb pc: f419, reg_addr: 0014
f419 f0 02 84 BEQ  REL   A:14 X:02 Y:f3 P:37 S:fb pc: f41d, reg_addr: f41d
f41d a0 ff a9 LDY  IMM   A:14 X:02 Y:f3 P:37 S:fb pc: f41f, reg_addr: 00ff
f41f a9 37 8d LDA  IMM   A:14 X:02 Y:ff P:b5 S:fb pc: f421, reg_addr: 0037
f421 8d 47 06 STA  ABS   A:37 X:02 Y:ff P:35 S:fb pc: f424, reg_addr: 0647
f424 20 40 fb JSR  ABS   A:37 X:02 Y:ff P:35 S:fb pc: fb40, reg_addr: fb40
fb40 24 01 38 BIT  ZP    A:37 X:02 Y:ff P:35 S:f9 pc: fb42, reg_addr: 0001
fb42 38 a9 75 SEC  IMPL  A:37 X:02 Y:ff P:f5 S:f9 pc: fb43, reg_addr: 0000
fb43 a9 75 60 LDA  IMM   A:37 X:02 Y:ff P:f5 S:f9 pc: fb45, reg_addr: 0075
fb45 60 50 2d RTS  IMPL  A:75 X:02 Y:ff P:75 S:f9 pc: f427, reg_addr: 0000
f427 53 45 ea SRE  INDY  A:75 X:02 Y:ff P:75 S:fb pc: f429, reg_addr: 0647
f429 ea ea 08 NOP  IMPL  A:6e X:02 Y:ff P:75 S:fb pc: f42a, reg_addr: 0000
f42a ea 08 48 NOP  IMPL  A:6e X:02 Y:ff P:75 S:fb pc: f42b, reg_addr: 0000
f42b 08 48 a0 PHP  IMPL  A:6e X:02 Y:ff P:75 S:fb pc: f42c, reg_addr: 0000
f42c 48 a0 f4 PHA  IMPL  A:6e X:02 Y:ff P:75 S:fa pc: f42d, reg_addr: 0000
f42d a0 f4 68 LDY  IMM   A:6e X:02 Y:ff P:75 S:f9 pc: f42f, reg_addr: 00f4
f42f 68 28 20 PLA  IMPL  A:6e X:02 Y:f4 P:f5 S:f9 pc: f430, reg_addr: 0000
f430 28 20 46 PLP  IMPL  A:6e X:02 Y:f4 P:75 S:fa pc: f431, reg_addr: 0000
f431 20 46 fb JSR  ABS   A:6e X:02 Y:f4 P:75 S:fb pc: fb46, reg_addr: fb46
fb46 50 2d f0 BVC  REL   A:6e X:02 Y:f4 P:75 S:f9 pc: fb48, reg_addr: fb75
fb48 f0 2b 30 BEQ  REL   A:6e X:02 Y:f4 P:75 S:f9 pc: fb4a, reg_addr: fb75
fb4a 30 29 90 BMI  REL   A:6e X:02 Y:f4 P:75 S:f9 pc: fb4c, reg_addr: fb75
fb4c 90 27 c9 BCC  REL   A:6e X:02 Y:f4 P:75 S:f9 pc: fb4e, reg_addr: fb75
fb4e c9 6e d0 CMP  IMM   A:6e X:02 Y:f4 P:75 S:f9 pc: fb50, reg_addr: 006e
fb50 d0 23 60 BNE  REL   A:6e X:02 Y:f4 P:77 S:f9 pc: fb52, reg_addr: fb75
fb52 60 24 01 RTS  IMPL  A:6e X:02 Y:f4 P:77 S:f9 pc: f434, reg_addr: 0000
f434 ad 47 06 LDA  ABS   A:6e X:02 Y:f4 P:77 S:fb pc: f437, reg_addr: 0647
f437 c9 1b f0 CMP  IMM   A:1b X:02 Y:f4 P:75 S:fb pc: f439, reg_addr: 001b
f439 f0 02 84 BEQ  REL   A:1b X:02 Y:f4 P:77 S:fb pc: f43d, reg_addr: f43d
f43d a0 f5 a2 LDY  IMM   A:1b X:02 Y:f4 P:77 S:fb pc: f43f, reg_addr: 00f5
f43f a2 ff a9 LDX  IMM   A:1b X:02 Y:f5 P:f5 S:fb pc: f441, reg_addr: 00ff
f441 a9 a5 85 LDA  IMM   A:1b X:ff Y:f5 P:f5 S:fb pc: f443, reg_addr: 00a5
f443 85 47 20 STA  ZP    A:a5 X:ff Y:f5 P:f5 S:fb pc: f445, reg_addr: 0047
f445 20 1d fb JSR  ABS   A:a5 X:ff Y:f5 P:f5 S:fb pc: fb1d, reg_addr: fb1d
fb1d 24 01 18 BIT  ZP    A:a5 X:ff Y:f5 P:f5 S:f9 pc: fb1f, reg_addr: 0001
fb1f 18 a9 b3 CLC  IMPL  A:a5 X:ff Y:f5 P:f5 S:f9 pc: fb20, reg_addr: 0000
fb20 a9 b3 60 LDA  IMM   A:a5 X:ff Y:f5 P:f4 S:f9 pc: fb22, reg_addr: 00b3
fb22 60 50 50 RTS  IMPL  A:b3 X:ff Y:f5 P:f4 S:f9 pc: f448, reg_addr: 0000
f448 57 48 ea SRE  ZPX   A:b3 X:ff Y:f5 P:f4 S:fb pc: f44a, reg_addr: 0047
f44a ea ea ea NOP  IMPL  A:e1 X:ff Y:f5 P:f5 S:fb pc: f44b, reg_addr: 0000
f44b ea ea ea NOP  IMPL  A:e1 X:ff Y:f5 P:f5 S:fb pc: f44c, reg_addr: 0000
f44c ea ea 20 NOP  IMPL  A:e1 X:ff Y:f5 P:f5 S:fb pc: f44d, reg_addr: 0000
f44d ea 20 23 NOP  IMPL  A:e1 X:ff Y:f5 P:f5 S:fb pc: f44e, reg_addr: 0000
f44e 20 23 fb JSR  ABS   A:e1 X:ff Y:f5 P:f5 S:fb pc: fb23, reg_addr: fb23
fb23 50 50 90 BVC  REL   A:e1 X:ff Y:f5 P:f5 S:f9 pc: fb25, reg_addr: fb75
fb25 90 4e 10 BCC  REL   A:e1 X:ff Y:f5 P:f5 S:f9 pc: fb27, reg_addr: fb75
fb27 10 4c c9 BPL  REL   A:e1 X:ff Y:f5 P:f5 S:f9 pc: fb29, reg_addr: fb75
fb29 c9 e1 d0 CMP  IMM   A:e1 X:ff Y:f5 P:f5 S:f9 pc: fb2b, reg_addr: 00e1
fb2b d0 48 60 BNE  REL   A:e1 X:ff Y:f5 P:77 S:f9 pc: fb2d, reg_addr: fb75
fb2d 60 b8 18 RTS  IMPL  A:e1 X:ff Y:f5 P:77 S:f9 pc: f451, reg_addr: 0000
f451 a5 47 c9 LDA  ZP    A:e1 X:ff Y:f5 P:77 S:fb pc: f453, reg_addr: 0047
f453 c9 52 f0 CMP  IMM   A:52 X:ff Y:f5 P:75 S:fb pc: f455, reg_addr: 0052
f455 f0 02 84 BEQ  REL   A:52 X:ff Y:f5 P:77 S:fb pc: f459, reg_addr: f459
f459 c8 a9 29 INY  IMPL  A:52 X:ff Y:f5 P:77 S:fb pc: f45a, reg_addr: 0000
f45a a9 29 85 LDA  IMM   A:52 X:ff Y:f6 P:f5 S:fb pc: f45c, reg_addr: 0029
f45c 85 47 20 STA  ZP    A:29 X:ff Y:f6 P:75 S:fb pc: f45e, reg_addr: 0047
f45e 20 2e fb JSR  ABS   A:29 X:ff Y:f6 P:75 S:fb pc: fb2e, reg_addr: fb2e
fb2e b8 18 a9 CLV  IMPL  A:29 X:ff Y:f6 P:75 S:f9 pc: fb2f, reg_addr: 0000
fb2f 18 a9 42 CLC  IMPL  A:29 X:ff Y:f6 P:35 S:f9 pc: fb30, reg_addr: 0000
fb30 a9 42 60 LDA  IMM   A:29 X:ff Y:f6 P:34 S:f9 pc: fb32, reg_addr: 0042
fb32 60 70 40 RTS  IMPL  A:42 X:ff Y:f6 P:34 S:f9 pc: f461, reg_addr: 0000
f461 57 48 ea SRE  ZPX   A:42 X:ff Y:f6 P:34 S:fb pc: f463, reg_addr: 0047
f463 ea ea ea NOP  IMPL  A:56 X:ff Y:f6 P:35 S:fb pc: f464, reg_addr: 0000
f464 ea ea ea NOP  IMPL  A:56 X:ff Y:f6 P:35 S:fb pc: f465, reg_addr: 0000
f465 ea ea 20 NOP  IMPL  A:56 X:ff Y:f6 P:35 S:fb pc: f466, reg_addr: 0000
f466 ea 20 33 NOP  IMPL  A:56 X:ff Y:f6 P:35 S:fb pc: f467, reg_addr: 0000
f467 20 33 fb JSR  ABS   A:56 X:ff Y:f6 P:35 S:fb pc: fb33, reg_addr: fb33
fb33 70 40 f0 BVS  REL   A:56 X:ff Y:f6 P:35 S:f9 pc: fb35, reg_addr: fb75
fb35 f0 3e 30 BEQ  REL   A:56 X:ff Y:f6 P:35 S:f9 pc: fb37, reg_addr: fb75
fb37 30 3c 90 BMI  REL   A:56 X:ff Y:f6 P:35 S:f9 pc: fb39, reg_addr: fb75
fb39 90 3a c9 BCC  REL   A:56 X:ff Y:f6 P:35 S:f9 pc: fb3b, reg_addr: fb75
fb3b c9 56 d0 CMP  IMM   A:56 X:ff Y:f6 P:35 S:f9 pc: fb3d, reg_addr: 0056
fb3d d0 36 60 BNE  REL   A:56 X:ff Y:f6 P:37 S:f9 pc: fb3f, reg_addr: fb75
fb3f 60 24 01 RTS  IMPL  A:56 X:ff Y:f6 P:37 S:f9 pc: f46a, reg_addr: 0000
f46a a5 47 c9 LDA  ZP    A:56 X:ff Y:f6 P:37 S:fb pc: f46c, reg_addr: 0047
f46c c9 14 f0 CMP  IMM   A:14 X:ff Y:f6 P:35 S:fb pc: f46e, reg_addr: 0014
f46e f0 02 84 BEQ  REL   A:14 X:ff Y:f6 P:37 S:fb pc: f472, reg_addr: f472
f472 c8 a9 37 INY  IMPL  A:14 X:ff Y:f6 P:37 S:fb pc: f473, reg_addr: 0000
f473 a9 37 85 LDA  IMM   A:14 X:ff Y:f7 P:b5 S:fb pc: f475, reg_addr: 0037
f475 85 47 20 STA  ZP    A:37 X:ff Y:f7 P:35 S:fb pc: f477, reg_addr: 0047
f477 20 40 fb JSR  ABS   A:37 X:ff Y:f7 P:35 S:fb pc: fb40, reg_addr: fb40
fb40 24 01 38 BIT  ZP    A:37 X:ff Y:f7 P:35 S:f9 pc: fb42, reg_addr: 0001
fb42 38 a9 75 SEC  IMPL  A:37 X:ff Y:f7 P:f5 S:f9 pc: fb43, reg_addr: 0000
fb43 a9 75 60 LDA  IMM   A:37 X:ff Y:f7 P:f5 S:f9 pc: fb45, reg_addr: 0075
fb45 60 50 2d RTS  IMPL  A:75 X:ff Y:f7 P:75 S:f9 pc: f47a, reg_addr: 0000
f47a 57 48 ea SRE  ZPX   A:75 X:ff Y:f7 P:75 S:fb pc: f47c, reg_addr: 0047
f47c ea ea ea NOP  IMPL  A:6e X:ff Y:f7 P:75 S:fb pc: f47d, reg_addr: 0000
f47d ea ea ea NOP  IMPL  A:6e X:ff Y:f7 P:75 S:fb pc: f47e, reg_addr: 0000
f47e ea ea 20 NOP  IMPL  A:6e X:ff Y:f7 P:75 S:fb pc: f47f, reg_addr: 0000
f47f ea 20 46 NOP  IMPL  A:6e X:ff Y:f7 P:75 S:fb pc: f480, reg_addr: 0000
f480 20 46 fb JSR  ABS   A:6e X:ff Y:f7 P:75 S:fb pc: fb46, reg_addr: fb46
fb46 50 2d f0 BVC  REL   A:6e X:ff Y:f7 P:75 S:f9 pc: fb48, reg_addr: fb75
fb48 f0 2b 30 BEQ  REL   A:6e X:ff Y:f7 P:75 S:f9 pc: fb4a, reg_addr: fb75
fb4a 30 29 90 BMI  REL   A:6e X:ff Y:f7 P:75 S:f9 pc: fb4c, reg_addr: fb75
fb4c 90 27 c9 BCC  REL   A:6e X:ff Y:f7 P:75 S:f9 pc: fb4e, reg_addr: fb75
fb4e c9 6e d0 CMP  IMM   A:6e X:ff Y:f7 P:75 S:f9 pc: fb50, reg_addr: 006e
fb50 d0 23 60 BNE  REL   A:6e X:ff Y:f7 P:77 S:f9 pc: fb52, reg_addr: fb75
fb52 60 24 01 RTS  IMPL  A:6e X:ff Y:f7 P:77 S:f9 pc: f483, reg_addr: 0000
f483 a5 47 c9 LDA  ZP    A:6e X:ff Y:f7 P:77 S:fb pc: f485, reg_addr: 0047
f485 c9 1b f0 CMP  IMM   A:1b X:ff Y:f7 P:75 S:fb pc: f487, reg_addr: 001b
f487 f0 02 84 BEQ  REL   A:1b X:ff Y:f7 P:77 S:fb pc: f48b, reg_addr: f48b
f48b a9 a5 8d LDA  IMM   A:1b X:ff Y:f7 P:77 S:fb pc: f48d, reg_addr: 00a5
f48d 8d 47 06 STA  ABS   A:a5 X:ff Y:f7 P:f5 S:fb pc: f490, reg_addr: 0647
f490 a0 ff 20 LDY  IMM   A:a5 X:ff Y:f7 P:f5 S:fb pc: f492, reg_addr: 00ff
f492 20 1d fb JSR  ABS   A:a5 X:ff Y:ff P:f5 S:fb pc: fb1d, reg_addr: fb1d
fb1d 24 01 18 BIT  ZP    A:a5 X:ff Y:ff P:f5 S:f9 pc: fb1f, reg_addr: 0001
fb1f 18 a9 b3 CLC  IMPL  A:a5 X:ff Y:ff P:f5 S:f9 pc: fb20, reg_addr: 0000
fb20 a9 b3 60 LDA  IMM   A:a5 X:ff Y:ff P:f4 S:f9 pc: fb22, reg_addr: 00b3
fb22 60 50 50 RTS  IMPL  A:b3 X:ff Y:ff P:f4 S:f9 pc: f495, reg_addr: 0000
f495 5b 48 05 SRE  ABSY  A:b3 X:ff Y:ff P:f4 S:fb pc: f498, reg_addr: 0647
f498 ea ea 08 NOP  IMPL  A:e1 X:ff Y:ff P:f5 S:fb pc: f499, reg_addr: 0000
f499 ea 08 48 NOP  IMPL  A:e1 X:ff Y:ff P:f5 S:fb pc: f49a, reg_addr: 0000
f49a 08 48 a0 PHP  IMPL  A:e1 X:ff Y:ff P:f5 S:fb pc: f49b, reg_addr: 0000
f49b 48 a0 f8 PHA  IMPL  A:e1 X:ff Y:ff P:f5 S:fa pc: f49c, reg_addr: 0000
f49c a0 f8 68 LDY  IMM   A:e1 X:ff Y:ff P:f5 S:f9 pc: f49e, reg_addr: 00f8
f49e 68 28 20 PLA  IMPL  A:e1 X:ff Y:f8 P:f5 S:f9 pc: f49f, reg_addr: 0000
f49f 28 20 23 PLP  IMPL  A:e1 X:ff Y:f8 P:f5 S:fa pc: f4a0, reg_addr: 0000
f4a0 20 23 fb JSR  ABS   A:e1 X:ff Y:f8 P:f5 S:fb pc: fb23, reg_addr: fb23
fb23 50 50 90 BVC  REL   A:e1 X:ff Y:f8 P:f5 S:f9 pc: fb25, reg_addr: fb75
fb25 90 4e 10 BCC  REL   A:e1 X:ff Y:f8 P:f5 S:f9 pc: fb27, reg_addr: fb75
fb27 10 4c c9 BPL  REL   A:e1 X:ff Y:f8 P:f5 S:f9 pc: fb29, reg_addr: fb75
fb29 c9 e1 d0 CMP  IMM   A:e1 X:ff Y:f8 P:f5 S:f9 pc: fb2b, reg_addr: 00e1
fb2b d0 48 60 BNE  REL   A:e1 X:ff Y:f8 P:77 S:f9 pc: fb2d, reg_addr: fb75
fb2d 60 b8 18 RTS  IMPL  A:e1 X:ff Y:f8 P:77 S:f9 pc: f4a3, reg_addr: 0000
f4a3 ad 47 06 LDA  ABS   A:e1 X:ff Y:f8 P:77 S:fb pc: f4a6, reg_addr: 0647
f4a6 c9 52 f0 CMP  IMM   A:52 X:ff Y:f8 P:75 S:fb pc: f4a8, reg_addr: 0052
f4a8 f0 02 84 BEQ  REL   A:52 X:ff Y:f8 P:77 S:fb pc: f4ac, reg_addr: f4ac
f4ac a0 ff a9 LDY  IMM   A:52 X:ff Y:f8 P:77 S:fb pc: f4ae, reg_addr: 00ff
f4ae a9 29 8d LDA  IMM   A:52 X:ff Y:ff P:f5 S:fb pc: f4b0, reg_addr: 0029
f4b0 8d 47 06 STA  ABS   A:29 X:ff Y:ff P:75 S:fb pc: f4b3, reg_addr: 0647
f4b3 20 2e fb JSR  ABS   A:29 X:ff Y:ff P:75 S:fb pc: fb2e, reg_addr: fb2e
fb2e b8 18 a9 CLV  IMPL  A:29 X:ff Y:ff P:75 S:f9 pc: fb2f, reg_addr: 0000
fb2f 18 a9 42 CLC  IMPL  A:29 X:ff Y:ff P:35 S:f9 pc: fb30, reg_addr: 0000
fb30 a9 42 60 LDA  IMM   A:29 X:ff Y:ff P:34 S:f9 pc: fb32, reg_addr: 0042
fb32 60 70 40 RTS  IMPL  A:42 X:ff Y:ff P:34 S:f9 pc: f4b6, reg_addr: 0000
f4b6 5b 48 05 SRE  ABSY  A:42 X:ff Y:ff P:34 S:fb pc: f4b9, reg_addr: 0647
f4b9 ea ea 08 NOP  IMPL  A:56 X:ff Y:ff P:35 S:fb pc: f4ba, reg_addr: 0000
f4ba ea 08 48 NOP  IMPL  A:56 X:ff Y:ff P:35 S:fb pc: f4bb, reg_addr: 0000
f4bb 08 48 a0 PHP  IMPL  A:56 X:ff Y:ff P:35 S:fb pc: f4bc, reg_addr: 0000
f4bc 48 a0 f9 PHA  IMPL  A:56 X:ff Y:ff P:35 S:fa pc: f4bd, reg_addr: 0000
f4bd a0 f9 68 LDY  IMM   A:56 X:ff Y:ff P:35 S:f9 pc: f4bf, reg_addr: 00f9
f4bf 68 28 20 PLA  IMPL  A:56 X:ff Y:f9 P:b5 S:f9 pc: f4c0, reg_addr: 0000
f4c0 28 20 33 PLP  IMPL  A:56 X:ff Y:f9 P:35 S:fa pc: f4c1, reg_addr: 0000
f4c1 20 33 fb JSR  ABS   A:56 X:ff Y:f9 P:35 S:fb pc: fb33, reg_addr: fb33
fb33 70 40 f0 BVS  REL   A:56 X:ff Y:f9 P:35 S:f9 pc: fb35, reg_addr: fb75
fb35 f0 3e 30 BEQ  REL   A:56 X:ff Y:f9 P:35 S:f9 pc: fb37, reg_addr: fb75
fb37 30 3c 90 BMI  REL   A:56 X:ff Y:f9 P:35 S:f9 pc: fb39, reg_addr: fb75
fb39 90 3a c9 BCC  REL   A:56 X:ff Y:f9 P:35 S:f9 pc: fb3b, reg_addr: fb75
fb3b c9 56 d0 CMP  IMM   A:56 X:ff Y:f9 P:35 S:f9 pc: fb3d, reg_addr: 0056
fb3d d0 36 60 BNE  REL   A:56 X:ff Y:f9 P:37 S:f9 pc: fb3f, reg_addr: fb75
fb3f 60 24 01 RTS  IMPL  A:56 X:ff Y:f9 P:37 S:f9 pc: f4c4, reg_addr: 0000
f4c4 ad 47 06 LDA  ABS   A:56 X:ff Y:f9 P:37 S:fb pc: f4c7, reg_addr: 0647
f4c7 c9 14 f0 CMP  IMM   A:14 X:ff Y:f9 P:35 S:fb pc: f4c9, reg_addr: 0014
f4c9 f0 02 84 BEQ  REL   A:14 X:ff Y:f9 P:37 S:fb pc: f4cd, reg_addr: f4cd
f4cd a0 ff a9 LDY  IMM   A:14 X:ff Y:f9 P:37 S:fb pc: f4cf, reg_addr: 00ff
f4cf a9 37 8d LDA  IMM   A:14 X:ff Y:ff P:b5 S:fb pc: f4d1, reg_addr: 0037
f4d1 8d 47 06 STA  ABS   A:37 X:ff Y:ff P:35 S:fb pc: f4d4, reg_addr: 0647
f4d4 20 40 fb JSR  ABS   A:37 X:ff Y:ff P:35 S:fb pc: fb40, reg_addr: fb40
fb40 24 01 38 BIT  ZP    A:37 X:ff Y:ff P:35 S:f9 pc: fb42, reg_addr: 0001
fb42 38 a9 75 SEC  IMPL  A:37 X:ff Y:ff P:f5 S:f9 pc: fb43, reg_addr: 0000
fb43 a9 75 60 LDA  IMM   A:37 X:ff Y:ff P:f5 S:f9 pc: fb45, reg_addr: 0075
fb45 60 50 2d RTS  IMPL  A:75 X:ff Y:ff P:75 S:f9 pc: f4d7, reg_addr: 0000
f4d7 5b 48 05 SRE  ABSY  A:75 X:ff Y:ff P:75 S:fb pc: f4da, reg_addr: 0647
f4da ea ea 08 NOP  IMPL  A:6e X:ff Y:ff P:75 S:fb pc: f4db, reg_addr: 0000
f4db ea 08 48 NOP  IMPL  A:6e X:ff Y:ff P:75 S:fb pc: f4dc, reg_addr: 0000
f4dc 08 48 a0 PHP  IMPL  A:6e X:ff Y:ff P:75 S:fb pc: f4dd, reg_addr: 0000
f4dd 48 a0 fa PHA  IMPL  A:6e X:ff Y:ff P:75 S:fa pc: f4de, reg_addr: 0000
f4de a0 fa 68 LDY  IMM   A:6e X:ff Y:ff P:75 S:f9 pc: f4e0, reg_addr: 00fa
f4e0 68 28 20 PLA  IMPL  A:6e X:ff Y:fa P:f5 S:f9 pc: f4e1, reg_addr: 0000
f4e1 28 20 46 PLP  IMPL  A:6e X:ff Y:fa P:75 S:fa pc: f4e2, reg_addr: 0000
f4e2 20 46 fb JSR  ABS   A:6e X:ff Y:fa P:75 S:fb pc: fb46, reg_addr: fb46
fb46 50 2d f0 BVC  REL   A:6e X:ff Y:fa P:75 S:f9 pc: fb48, reg_addr: fb75
fb48 f0 2b 30 BEQ  REL   A:6e X:ff Y:fa P:75 S:f9 pc: fb4a, reg_addr: fb75
fb4a 30 29 90 BMI  REL   A:6e X:ff Y:fa P:75 S:f9 pc: fb4c, reg_addr: fb75
fb4c 90 27 c9 BCC  REL   A:6e X:ff Y:fa P:75 S:f9 pc: fb4e, reg_addr: fb75
fb4e c9 6e d0 CMP  IMM   A:6e X:ff Y:fa P:75 S:f9 pc: fb50, reg_addr: 006e
fb50 d0 23 60 BNE  REL   A:6e X:ff Y:fa P:77 S:f9 pc: fb52, reg_addr: fb75
fb52 60 24 01 RTS  IMPL  A:6e X:ff Y:fa P:77 S:f9 pc: f4e5, reg_addr: 0000
f4e5 ad 47 06 LDA  ABS   A:6e X:ff Y:fa P:77 S:fb pc: f4e8, reg_addr: 0647
f4e8 c9 1b f0 CMP  IMM   A:1b X:ff Y:fa P:75 S:fb pc: f4ea, reg_addr: 001b
f4ea f0 02 84 BEQ  REL   A:1b X:ff Y:fa P:77 S:fb pc: f4ee, reg_addr: f4ee
f4ee a0 fb a2 LDY  IMM   A:1b X:ff Y:fa P:77 S:fb pc: f4f0, reg_addr: 00fb
f4f0 a2 ff a9 LDX  IMM   A:1b X:ff Y:fb P:f5 S:fb pc: f4f2, reg_addr: 00ff
f4f2 a9 a5 8d LDA  IMM   A:1b X:ff Y:fb P:f5 S:fb pc: f4f4, reg_addr: 00a5
f4f4 8d 47 06 STA  ABS   A:a5 X:ff Y:fb P:f5 S:fb pc: f4f7, reg_addr: 0647
f4f7 20 1d fb JSR  ABS   A:a5 X:ff Y:fb P:f5 S:fb pc: fb1d, reg_addr: fb1d
fb1d 24 01 18 BIT  ZP    A:a5 X:ff Y:fb P:f5 S:f9 pc: fb1f, reg_addr: 0001
fb1f 18 a9 b3 CLC  IMPL  A:a5 X:ff Y:fb P:f5 S:f9 pc: fb20, reg_addr: 0000
fb20 a9 b3 60 LDA  IMM   A:a5 X:ff Y:fb P:f4 S:f9 pc: fb22, reg_addr: 00b3
fb22 60 50 50 RTS  IMPL  A:b3 X:ff Y:fb P:f4 S:f9 pc: f4fa, reg_addr: 0000
f4fa 5f 48 05 SRE  ABSX  A:b3 X:ff Y:fb P:f4 S:fb pc: f4fd, reg_addr: 0647
f4fd ea ea ea NOP  IMPL  A:e1 X:ff Y:fb P:f5 S:fb pc: f4fe, reg_addr: 0000
f4fe ea ea ea NOP  IMPL  A:e1 X:ff Y:fb P:f5 S:fb pc: f4ff, reg_addr: 0000
f4ff ea ea 20 NOP  IMPL  A:e1 X:ff Y:fb P:f5 S:fb pc: f500, reg_addr: 0000
f500 ea 20 23 NOP  IMPL  A:e1 X:ff Y:fb P:f5 S:fb pc: f501, reg_addr: 0000
f501 20 23 fb JSR  ABS   A:e1 X:ff Y:fb P:f5 S:fb pc: fb23, reg_addr: fb23
fb23 50 50 90 BVC  REL   A:e1 X:ff Y:fb P:f5 S:f9 pc: fb25, reg_addr: fb75
fb25 90 4e 10 BCC  REL   A:e1 X:ff Y:fb P:f5 S:f9 pc: fb27, reg_addr: fb75
fb27 10 4c c9 BPL  REL   A:e1 X:ff Y:fb P:f5 S:f9 pc: fb29, reg_addr: fb75
fb29 c9 e1 d0 CMP  IMM   A:e1 X:ff Y:fb P:f5 S:f9 pc: fb2b, reg_addr: 00e1
fb2b d0 48 60 BNE  REL   A:e1 X:ff Y:fb P:77 S:f9 pc: fb2d, reg_addr: fb75
fb2d 60 b8 18 RTS  IMPL  A:e1 X:ff Y:fb P:77 S:f9 pc: f504, reg_addr: 0000
f504 ad 47 06 LDA  ABS   A:e1 X:ff Y:fb P:77 S:fb pc: f507, reg_addr: 0647
f507 c9 52 f0 CMP  IMM   A:52 X:ff Y:fb P:75 S:fb pc: f509, reg_addr: 0052
f509 f0 02 84 BEQ  REL   A:52 X:ff Y:fb P:77 S:fb pc: f50d, reg_addr: f50d
f50d c8 a9 29 INY  IMPL  A:52 X:ff Y:fb P:77 S:fb pc: f50e, reg_addr: 0000
f50e a9 29 8d LDA  IMM   A:52 X:ff Y:fc P:f5 S:fb pc: f510, reg_addr: 0029
f510 8d 47 06 STA  ABS   A:29 X:ff Y:fc P:75 S:fb pc: f513, reg_addr: 0647
f513 20 2e fb JSR  ABS   A:29 X:ff Y:fc P:75 S:fb pc: fb2e, reg_addr: fb2e
fb2e b8 18 a9 CLV  IMPL  A:29 X:ff Y:fc P:75 S:f9 pc: fb2f, reg_addr: 0000
fb2f 18 a9 42 CLC  IMPL  A:29 X:ff Y:fc P:35 S:f9 pc: fb30, reg_addr: 0000
fb30 a9 42 60 LDA  IMM   A:29 X:ff Y:fc P:34 S:f9 pc: fb32, reg_addr: 0042
fb32 60 70 40 RTS  IMPL  A:42 X:ff Y:fc P:34 S:f9 pc: f516, reg_addr: 0000
f516 5f 48 05 SRE  ABSX  A:42 X:ff Y:fc P:34 S:fb pc: f519, reg_addr: 0647
f519 ea ea ea NOP  IMPL  A:56 X:ff Y:fc P:35 S:fb pc: f51a, reg_addr: 0000
f51a ea ea ea NOP  IMPL  A:56 X:ff Y:fc P:35 S:fb pc: f51b, reg_addr: 0000
f51b ea ea 20 NOP  IMPL  A:56 X:ff Y:fc P:35 S:fb pc: f51c, reg_addr: 0000
f51c ea 20 33 NOP  IMPL  A:56 X:ff Y:fc P:35 S:fb pc: f51d, reg_addr: 0000
f51d 20 33 fb JSR  ABS   A:56 X:ff Y:fc P:35 S:fb pc: fb33, reg_addr: fb33
fb33 70 40 f0 BVS  REL   A:56 X:ff Y:fc P:35 S:f9 pc: fb35, reg_addr: fb75
fb35 f0 3e 30 BEQ  REL   A:56 X:ff Y:fc P:35 S:f9 pc: fb37, reg_addr: fb75
fb37 30 3c 90 BMI  REL   A:56 X:ff Y:fc P:35 S:f9 pc: fb39, reg_addr: fb75
fb39 90 3a c9 BCC  REL   A:56 X:ff Y:fc P:35 S:f9 pc: fb3b, reg_addr: fb75
fb3b c9 56 d0 CMP  IMM   A:56 X:ff Y:fc P:35 S:f9 pc: fb3d, reg_addr: 0056
fb3d d0 36 60 BNE  REL   A:56 X:ff Y:fc P:37 S:f9 pc: fb3f, reg_addr: fb75
fb3f 60 24 01 RTS  IMPL  A:56 X:ff Y:fc P:37 S:f9 pc: f520, reg_addr: 0000
f520 ad 47 06 LDA  ABS   A:56 X:ff Y:fc P:37 S:fb pc: f523, reg_addr: 0647
f523 c9 14 f0 CMP  IMM   A:14 X:ff Y:fc P:35 S:fb pc: f525, reg_addr: 0014
f525 f0 02 84 BEQ  REL   A:14 X:ff Y:fc P:37 S:fb pc: f529, reg_addr: f529
f529 c8 a9 37 INY  IMPL  A:14 X:ff Y:fc P:37 S:fb pc: f52a, reg_addr: 0000
f52a a9 37 8d LDA  IMM   A:14 X:ff Y:fd P:b5 S:fb pc: f52c, reg_addr: 0037
f52c 8d 47 06 STA  ABS   A:37 X:ff Y:fd P:35 S:fb pc: f52f, reg_addr: 0647
f52f 20 40 fb JSR  ABS   A:37 X:ff Y:fd P:35 S:fb pc: fb40, reg_addr: fb40
fb40 24 01 38 BIT  ZP    A:37 X:ff Y:fd P:35 S:f9 pc: fb42, reg_addr: 0001
fb42 38 a9 75 SEC  IMPL  A:37 X:ff Y:fd P:f5 S:f9 pc: fb43, reg_addr: 0000
fb43 a9 75 60 LDA  IMM   A:37 X:ff Y:fd P:f5 S:f9 pc: fb45, reg_addr: 0075
fb45 60 50 2d RTS  IMPL  A:75 X:ff Y:fd P:75 S:f9 pc: f532, reg_addr: 0000
f532 5f 48 05 SRE  ABSX  A:75 X:ff Y:fd P:75 S:fb pc: f535, reg_addr: 0647
f535 ea ea ea NOP  IMPL  A:6e X:ff Y:fd P:75 S:fb pc: f536, reg_addr: 0000
f536 ea ea ea NOP  IMPL  A:6e X:ff Y:fd P:75 S:fb pc: f537, reg_addr: 0000
f537 ea ea 20 NOP  IMPL  A:6e X:ff Y:fd P:75 S:fb pc: f538, reg_addr: 0000
f538 ea 20 46 NOP  IMPL  A:6e X:ff Y:fd P:75 S:fb pc: f539, reg_addr: 0000
f539 20 46 fb JSR  ABS   A:6e X:ff Y:fd P:75 S:fb pc: fb46, reg_addr: fb46
fb46 50 2d f0 BVC  REL   A:6e X:ff Y:fd P:75 S:f9 pc: fb48, reg_addr: fb75
fb48 f0 2b 30 BEQ  REL   A:6e X:ff Y:fd P:75 S:f9 pc: fb4a, reg_addr: fb75
fb4a 30 29 90 BMI  REL   A:6e X:ff Y:fd P:75 S:f9 pc: fb4c, reg_addr: fb75
fb4c 90 27 c9 BCC  REL   A:6e X:ff Y:fd P:75 S:f9 pc: fb4e, reg_addr: fb75
fb4e c9 6e d0 CMP  IMM   A:6e X:ff Y:fd P:75 S:f9 pc: fb50, reg_addr: 006e
fb50 d0 23 60 BNE  REL   A:6e X:ff Y:fd P:77 S:f9 pc: fb52, reg_addr: fb75
fb52 60 24 01 RTS  IMPL  A:6e X:ff Y:fd P:77 S:f9 pc: f53c, reg_addr: 0000
f53c ad 47 06 LDA  ABS   A:6e X:ff Y:fd P:77 S:fb pc: f53f, reg_addr: 0647
f53f c9 1b f0 CMP  IMM   A:1b X:ff Y:fd P:75 S:fb pc: f541, reg_addr: 001b
f541 f0 02 84 BEQ  REL   A:1b X:ff Y:fd P:77 S:fb pc: f545, reg_addr: f545
f545 60 a9 ff RTS  IMPL  A:1b X:ff Y:fd P:77 S:fb pc: c64a, reg_addr: 0000
c64a a5 00 85 LDA  ZP    A:1b X:ff Y:fd P:77 S:fd pc: c64c, reg_addr: 0000
c64c 85 11 a9 STA  ZP    A:00 X:ff Y:fd P:77 S:fd pc: c64e, reg_addr: 0011
c64e a9 00 85 LDA  IMM   A:00 X:ff Y:fd P:77 S:fd pc: c650, reg_addr: 0000
c650 85 00 20 STA  ZP    A:00 X:ff Y:fd P:77 S:fd pc: c652, reg_addr: 0000
c652 20 46 f5 JSR  ABS   A:00 X:ff Y:fd P:77 S:fd pc: f546, reg_addr: f546
f546 a9 ff 85 LDA  IMM   A:00 X:ff Y:fd P:77 S:fb pc: f548, reg_addr: 00ff
f548 85 01 a0 STA  ZP    A:ff X:ff Y:fd P:f5 S:fb pc: f54a, reg_addr: 0001
f54a a0 01 a2 LDY  IMM   A:ff X:ff Y:fd P:f5 S:fb pc: f54c, reg_addr: 0001
f54c a2 02 a9 LDX  IMM   A:ff X:ff Y:01 P:75 S:fb pc: f54e, reg_addr: 0002
f54e a9 47 85 LDA  IMM   A:ff X:02 Y:01 P:75 S:fb pc: f550, reg_addr: 0047
f550 85 47 a9 STA  ZP    A:47 X:02 Y:01 P:75 S:fb pc: f552, reg_addr: 0047
f552 a9 06 85 LDA  IMM   A:47 X:02 Y:01 P:75 S:fb pc: f554, reg_addr: 0006
f554 85 48 a9 STA  ZP    A:06 X:02 Y:01 P:75 S:fb pc: f556, reg_addr: 0048
f556 a9 a5 8d LDA  IMM   A:06 X:02 Y:01 P:75 S:fb pc: f558, reg_addr: 00a5
f558 8d 47 06 STA  ABS   A:a5 X:02 Y:01 P:f5 S:fb pc: f55b, reg_addr: 0647
f55b 20 e9 fa JSR  ABS   A:a5 X:02 Y:01 P:f5 S:fb pc: fae9, reg_addr: fae9
fae9 24 01 18 BIT  ZP    A:a5 X:02 Y:01 P:f5 S:f9 pc: faeb, reg_addr: 0001
faeb 18 a9 b2 CLC  IMPL  A:a5 X:02 Y:01 P:f5 S:f9 pc: faec, reg_addr: 0000
faec a9 b2 60 LDA  IMM   A:a5 X:02 Y:01 P:f4 S:f9 pc: faee, reg_addr: 00b2
faee 60 70 2a RTS  IMPL  A:b2 X:02 Y:01 P:f4 S:f9 pc: f55e, reg_addr: 0000
f55e 63 45 ea RRA  INDX  A:b2 X:02 Y:01 P:f4 S:fb pc: f560, reg_addr: 0647
f560 ea ea ea NOP  IMPL  A:05 X:02 Y:01 P:35 S:fb pc: f561, reg_addr: 0000
f561 ea ea ea NOP  IMPL  A:05 X:02 Y:01 P:35 S:fb pc: f562, reg_addr: 0000
f562 ea ea 20 NOP  IMPL  A:05 X:02 Y:01 P:35 S:fb pc: f563, reg_addr: 0000
f563 ea 20 ef NOP  IMPL  A:05 X:02 Y:01 P:35 S:fb pc: f564, reg_addr: 0000
f564 20 ef fa JSR  ABS   A:05 X:02 Y:01 P:35 S:fb pc: faef, reg_addr: faef
faef 70 2a 90 BVS  REL   A:05 X:02 Y:01 P:35 S:f9 pc: faf1, reg_addr: fb1b
faf1 90 28 30 BCC  REL   A:05 X:02 Y:01 P:35 S:f9 pc: faf3, reg_addr: fb1b
faf3 30 26 c9 BMI  REL   A:05 X:02 Y:01 P:35 S:f9 pc: faf5, reg_addr: fb1b
faf5 c9 05 d0 CMP  IMM   A:05 X:02 Y:01 P:35 S:f9 pc: faf7, reg_addr: 0005
faf7 d0 22 60 BNE  REL   A:05 X:02 Y:01 P:37 S:f9 pc: faf9, reg_addr: fb1b
faf9 60 b8 18 RTS  IMPL  A:05 X:02 Y:01 P:37 S:f9 pc: f567, reg_addr: 0000
f567 ad 47 06 LDA  ABS   A:05 X:02 Y:01 P:37 S:fb pc: f56a, reg_addr: 0647
f56a c9 52 f0 CMP  IMM   A:52 X:02 Y:01 P:35 S:fb pc: f56c, reg_addr: 0052
f56c f0 02 84 BEQ  REL   A:52 X:02 Y:01 P:37 S:fb pc: f570, reg_addr: f570
f570 c8 a9 29 INY  IMPL  A:52 X:02 Y:01 P:37 S:fb pc: f571, reg_addr: 0000
f571 a9 29 8d LDA  IMM   A:52 X:02 Y:02 P:35 S:fb pc: f573, reg_addr: 0029
f573 8d 47 06 STA  ABS   A:29 X:02 Y:02 P:35 S:fb pc: f576, reg_addr: 0647
f576 20 fa fa JSR  ABS   A:29 X:02 Y:02 P:35 S:fb pc: fafa, reg_addr: fafa
fafa b8 18 a9 CLV  IMPL  A:29 X:02 Y:02 P:35 S:f9 pc: fafb, reg_addr: 0000
fafb 18 a9 42 CLC  IMPL  A:29 X:02 Y:02 P:35 S:f9 pc: fafc, reg_addr: 0000
fafc a9 42 60 LDA  IMM   A:29 X:02 Y:02 P:34 S:f9 pc: fafe, reg_addr: 0042
fafe 60 70 1a RTS  IMPL  A:42 X:02 Y:02 P:34 S:f9 pc: f579, reg_addr: 0000
f579 63 45 ea RRA  INDX  A:42 X:02 Y:02 P:34 S:fb pc: f57b, reg_addr: 0647
f57b ea ea ea NOP  IMPL  A:57 X:02 Y:02 P:34 S:fb pc: f57c, reg_addr: 0000
f57c ea ea ea NOP  IMPL  A:57 X:02 Y:02 P:34 S:fb pc: f57d, reg_addr: 0000
f57d ea ea 20 NOP  IMPL  A:57 X:02 Y:02 P:34 S:fb pc: f57e, reg_addr: 0000
f57e ea 20 ff NOP  IMPL  A:57 X:02 Y:02 P:34 S:fb pc: f57f, reg_addr: 0000
f57f 20 ff fa JSR  ABS   A:57 X:02 Y:02 P:34 S:fb pc: faff, reg_addr: faff
faff 70 1a 30 BVS  REL   A:57 X:02 Y:02 P:34 S:f9 pc: fb01, reg_addr: fb1b
fb01 30 18 b0 BMI  REL   A:57 X:02 Y:02 P:34 S:f9 pc: fb03, reg_addr: fb1b
fb03 b0 16 c9 BCS  REL   A:57 X:02 Y:02 P:34 S:f9 pc: fb05, reg_addr: fb1b
fb05 c9 57 d0 CMP  IMM   A:57 X:02 Y:02 P:34 S:f9 pc: fb07, reg_addr: 0057
fb07 d0 12 60 BNE  REL   A:57 X:02 Y:02 P:37 S:f9 pc: fb09, reg_addr: fb1b
fb09 60 24 01 RTS  IMPL  A:57 X:02 Y:02 P:37 S:f9 pc: f582, reg_addr: 0000
f582 ad 47 06 LDA  ABS   A:57 X:02 Y:02 P:37 S:fb pc: f585, reg_addr: 0647
f585 c9 14 f0 CMP  IMM   A:14 X:02 Y:02 P:35 S:fb pc: f587, reg_addr: 0014
f587 f0 02 84 BEQ  REL   A:14 X:02 Y:02 P:37 S:fb pc: f58b, reg_addr: f58b
f58b c8 a9 37 INY  IMPL  A:14 X:02 Y:02 P:37 S:fb pc: f58c, reg_addr: 0000
f58c a9 37 8d LDA  IMM   A:14 X:02 Y:03 P:35 S:fb pc: f58e, reg_addr: 0037
f58e 8d 47 06 STA  ABS   A:37 X:02 Y:03 P:35 S:fb pc: f591, reg_addr: 0647
f591 20 0a fb JSR  ABS   A:37 X:02 Y:03 P:35 S:fb pc: fb0a, reg_addr: fb0a
fb0a 24 01 38 BIT  ZP    A:37 X:02 Y:03 P:35 S:f9 pc: fb0c, reg_addr: 0001
fb0c 38 a9 75 SEC  IMPL  A:37 X:02 Y:03 P:f5 S:f9 pc: fb0d, reg_addr: 0000
fb0d a9 75 60 LDA  IMM   A:37 X:02 Y:03 P:f5 S:f9 pc: fb0f, reg_addr: 0075
fb0f 60 70 09 RTS  IMPL  A:75 X:02 Y:03 P:75 S:f9 pc: f594, reg_addr: 0000
f594 63 45 ea RRA  INDX  A:75 X:02 Y:03 P:75 S:fb pc: f596, reg_addr: 0647
f596 ea ea ea NOP  IMPL  A:11 X:02 Y:03 P:35 S:fb pc: f597, reg_addr: 0000
f597 ea ea ea NOP  IMPL  A:11 X:02 Y:03 P:35 S:fb pc: f598, reg_addr: 0000
f598 ea ea 20 NOP  IMPL  A:11 X:02 Y:03 P:35 S:fb pc: f599, reg_addr: 0000
f599 ea 20 10 NOP  IMPL  A:11 X:02 Y:03 P:35 S:fb pc: f59a, reg_addr: 0000
f59a 20 10 fb JSR  ABS   A:11 X:02 Y:03 P:35 S:fb pc: fb10, reg_addr: fb10
fb10 70 09 30 BVS  REL   A:11 X:02 Y:03 P:35 S:f9 pc: fb12, reg_addr: fb1b
fb12 30 07 90 BMI  REL   A:11 X:02 Y:03 P:35 S:f9 pc: fb14, reg_addr: fb1b
fb14 90 05 c9 BCC  REL   A:11 X:02 Y:03 P:35 S:f9 pc: fb16, reg_addr: fb1b
fb16 c9 11 d0 CMP  IMM   A:11 X:02 Y:03 P:35 S:f9 pc: fb18, reg_addr: 0011
fb18 d0 01 60 BNE  REL   A:11 X:02 Y:03 P:37 S:f9 pc: fb1a, reg_addr: fb1b
fb1a 60 85 00 RTS  IMPL  A:11 X:02 Y:03 P:37 S:f9 pc: f59d, reg_addr: 0000
f59d ad 47 06 LDA  ABS   A:11 X:02 Y:03 P:37 S:fb pc: f5a0, reg_addr: 0647
f5a0 c9 9b f0 CMP  IMM   A:9b X:02 Y:03 P:b5 S:fb pc: f5a2, reg_addr: 009b
f5a2 f0 02 84 BEQ  REL   A:9b X:02 Y:03 P:37 S:fb pc: f5a6, reg_addr: f5a6
f5a6 c8 a9 a5 INY  IMPL  A:9b X:02 Y:03 P:37 S:fb pc: f5a7, reg_addr: 0000
f5a7 a9 a5 85 LDA  IMM   A:9b X:02 Y:04 P:35 S:fb pc: f5a9, reg_addr: 00a5
f5a9 85 47 20 STA  ZP    A:a5 X:02 Y:04 P:b5 S:fb pc: f5ab, reg_addr: 0047
f5ab 20 e9 fa JSR  ABS   A:a5 X:02 Y:04 P:b5 S:fb pc: fae9, reg_addr: fae9
fae9 24 01 18 BIT  ZP    A:a5 X:02 Y:04 P:b5 S:f9 pc: faeb, reg_addr: 0001
faeb 18 a9 b2 CLC  IMPL  A:a5 X:02 Y:04 P:f5 S:f9 pc: faec, reg_addr: 0000
faec a9 b2 60 LDA  IMM   A:a5 X:02 Y:04 P:f4 S:f9 pc: faee, reg_addr: 00b2
faee 60 70 2a RTS  IMPL  A:b2 X:02 Y:04 P:f4 S:f9 pc: f5ae, reg_addr: 0000
f5ae 67 47 ea RRA  ZP    A:b2 X:02 Y:04 P:f4 S:fb pc: f5b0, reg_addr: 0047
f5b0 ea ea ea NOP  IMPL  A:05 X:02 Y:04 P:35 S:fb pc: f5b1, reg_addr: 0000
f5b1 ea ea ea NOP  IMPL  A:05 X:02 Y:04 P:35 S:fb pc: f5b2, reg_addr: 0000
f5b2 ea ea 20 NOP  IMPL  A:05 X:02 Y:04 P:35 S:fb pc: f5b3, reg_addr: 0000
f5b3 ea 20 ef NOP  IMPL  A:05 X:02 Y:04 P:35 S:fb pc: f5b4, reg_addr: 0000
f5b4 20 ef fa JSR  ABS   A:05 X:02 Y:04 P:35 S:fb pc: faef, reg_addr: faef
faef 70 2a 90 BVS  REL   A:05 X:02 Y:04 P:35 S:f9 pc: faf1, reg_addr: fb1b
faf1 90 28 30 BCC  REL   A:05 X:02 Y:04 P:35 S:f9 pc: faf3, reg_addr: fb1b
faf3 30 26 c9 BMI  REL   A:05 X:02 Y:04 P:35 S:f9 pc: faf5, reg_addr: fb1b
faf5 c9 05 d0 CMP  IMM   A:05 X:02 Y:04 P:35 S:f9 pc: faf7, reg_addr: 0005
faf7 d0 22 60 BNE  REL   A:05 X:02 Y:04 P:37 S:f9 pc: faf9, reg_addr: fb1b
faf9 60 b8 18 RTS  IMPL  A:05 X:02 Y:04 P:37 S:f9 pc: f5b7, reg_addr: 0000
f5b7 a5 47 c9 LDA  ZP    A:05 X:02 Y:04 P:37 S:fb pc: f5b9, reg_addr: 0047
f5b9 c9 52 f0 CMP  IMM   A:52 X:02 Y:04 P:35 S:fb pc: f5bb, reg_addr: 0052
f5bb f0 02 84 BEQ  REL   A:52 X:02 Y:04 P:37 S:fb pc: f5bf, reg_addr: f5bf
f5bf c8 a9 29 INY  IMPL  A:52 X:02 Y:04 P:37 S:fb pc: f5c0, reg_addr: 0000
f5c0 a9 29 85 LDA  IMM   A:52 X:02 Y:05 P:35 S:fb pc: f5c2, reg_addr: 0029
f5c2 85 47 20 STA  ZP    A:29 X:02 Y:05 P:35 S:fb pc: f5c4, reg_addr: 0047
f5c4 20 fa fa JSR  ABS   A:29 X:02 Y:05 P:35 S:fb pc: fafa, reg_addr: fafa
fafa b8 18 a9 CLV  IMPL  A:29 X:02 Y:05 P:35 S:f9 pc: fafb, reg_addr: 0000
fafb 18 a9 42 CLC  IMPL  A:29 X:02 Y:05 P:35 S:f9 pc: fafc, reg_addr: 0000
fafc a9 42 60 LDA  IMM   A:29 X:02 Y:05 P:34 S:f9 pc: fafe, reg_addr: 0042
fafe 60 70 1a RTS  IMPL  A:42 X:02 Y:05 P:34 S:f9 pc: f5c7, reg_addr: 0000
f5c7 67 47 ea RRA  ZP    A:42 X:02 Y:05 P:34 S:fb pc: f5c9, reg_addr: 0047
f5c9 ea ea ea NOP  IMPL  A:57 X:02 Y:05 P:34 S:fb pc: f5ca, reg_addr: 0000
f5ca ea ea ea NOP  IMPL  A:57 X:02 Y:05 P:34 S:fb pc: f5cb, reg_addr: 0000
f5cb ea ea 20 NOP  IMPL  A:57 X:02 Y:05 P:34 S:fb pc: f5cc, reg_addr: 0000
f5cc ea 20 ff NOP  IMPL  A:57 X:02 Y:05 P:34 S:fb pc: f5cd, reg_addr: 0000
f5cd 20 ff fa JSR  ABS   A:57 X:02 Y:05 P:34 S:fb pc: faff, reg_addr: faff
faff 70 1a 30 BVS  REL   A:57 X:02 Y:05 P:34 S:f9 pc: fb01, reg_addr: fb1b
fb01 30 18 b0 BMI  REL   A:57 X:02 Y:05 P:34 S:f9 pc: fb03, reg_addr: fb1b
fb03 b0 16 c9 BCS  REL   A:57 X:02 Y:05 P:34 S:f9 pc: fb05, reg_addr: fb1b
fb05 c9 57 d0 CMP  IMM   A:57 X:02 Y:05 P:34 S:f9 pc: fb07, reg_addr: 0057
fb07 d0 12 60 BNE  REL   A:57 X:02 Y:05 P:37 S:f9 pc: fb09, reg_addr: fb1b
fb09 60 24 01 RTS  IMPL  A:57 X:02 Y:05 P:37 S:f9 pc: f5d0, reg_addr: 0000
f5d0 a5 47 c9 LDA  ZP    A:57 X:02 Y:05 P:37 S:fb pc: f5d2, reg_addr: 0047
f5d2 c9 14 f0 CMP  IMM   A:14 X:02 Y:05 P:35 S:fb pc: f5d4, reg_addr: 0014
f5d4 f0 02 84 BEQ  REL   A:14 X:02 Y:05 P:37 S:fb pc: f5d8, reg_addr: f5d8
f5d8 c8 a9 37 INY  IMPL  A:14 X:02 Y:05 P:37 S:fb pc: f5d9, reg_addr: 0000
f5d9 a9 37 85 LDA  IMM   A:14 X:02 Y:06 P:35 S:fb pc: f5db, reg_addr: 0037
f5db 85 47 20 STA  ZP    A:37 X:02 Y:06 P:35 S:fb pc: f5dd, reg_addr: 0047
f5dd 20 0a fb JSR  ABS   A:37 X:02 Y:06 P:35 S:fb pc: fb0a, reg_addr: fb0a
fb0a 24 01 38 BIT  ZP    A:37 X:02 Y:06 P:35 S:f9 pc: fb0c, reg_addr: 0001
fb0c 38 a9 75 SEC  IMPL  A:37 X:02 Y:06 P:f5 S:f9 pc: fb0d, reg_addr: 0000
fb0d a9 75 60 LDA  IMM   A:37 X:02 Y:06 P:f5 S:f9 pc: fb0f, reg_addr: 0075
fb0f 60 70 09 RTS  IMPL  A:75 X:02 Y:06 P:75 S:f9 pc: f5e0, reg_addr: 0000
f5e0 67 47 ea RRA  ZP    A:75 X:02 Y:06 P:75 S:fb pc: f5e2, reg_addr: 0047
f5e2 ea ea ea NOP  IMPL  A:11 X:02 Y:06 P:35 S:fb pc: f5e3, reg_addr: 0000
f5e3 ea ea ea NOP  IMPL  A:11 X:02 Y:06 P:35 S:fb pc: f5e4, reg_addr: 0000
f5e4 ea ea 20 NOP  IMPL  A:11 X:02 Y:06 P:35 S:fb pc: f5e5, reg_addr: 0000
f5e5 ea 20 10 NOP  IMPL  A:11 X:02 Y:06 P:35 S:fb pc: f5e6, reg_addr: 0000
f5e6 20 10 fb JSR  ABS   A:11 X:02 Y:06 P:35 S:fb pc: fb10, reg_addr: fb10
fb10 70 09 30 BVS  REL   A:11 X:02 Y:06 P:35 S:f9 pc: fb12, reg_addr: fb1b
fb12 30 07 90 BMI  REL   A:11 X:02 Y:06 P:35 S:f9 pc: fb14, reg_addr: fb1b
fb14 90 05 c9 BCC  REL   A:11 X:02 Y:06 P:35 S:f9 pc: fb16, reg_addr: fb1b
fb16 c9 11 d0 CMP  IMM   A:11 X:02 Y:06 P:35 S:f9 pc: fb18, reg_addr: 0011
fb18 d0 01 60 BNE  REL   A:11 X:02 Y:06 P:37 S:f9 pc: fb1a, reg_addr: fb1b
fb1a 60 85 00 RTS  IMPL  A:11 X:02 Y:06 P:37 S:f9 pc: f5e9, reg_addr: 0000
f5e9 a5 47 c9 LDA  ZP    A:11 X:02 Y:06 P:37 S:fb pc: f5eb, reg_addr: 0047
f5eb c9 9b f0 CMP  IMM   A:9b X:02 Y:06 P:b5 S:fb pc: f5ed, reg_addr: 009b
f5ed f0 02 84 BEQ  REL   A:9b X:02 Y:06 P:37 S:fb pc: f5f1, reg_addr: f5f1
f5f1 c8 a9 a5 INY  IMPL  A:9b X:02 Y:06 P:37 S:fb pc: f5f2, reg_addr: 0000
f5f2 a9 a5 8d LDA  IMM   A:9b X:02 Y:07 P:35 S:fb pc: f5f4, reg_addr: 00a5
f5f4 8d 47 06 STA  ABS   A:a5 X:02 Y:07 P:b5 S:fb pc: f5f7, reg_addr: 0647
f5f7 20 e9 fa JSR  ABS   A:a5 X:02 Y:07 P:b5 S:fb pc: fae9, reg_addr: fae9
fae9 24 01 18 BIT  ZP    A:a5 X:02 Y:07 P:b5 S:f9 pc: faeb, reg_addr: 0001
faeb 18 a9 b2 CLC  IMPL  A:a5 X:02 Y:07 P:f5 S:f9 pc: faec, reg_addr: 0000
faec a9 b2 60 LDA  IMM   A:a5 X:02 Y:07 P:f4 S:f9 pc: faee, reg_addr: 00b2
faee 60 70 2a RTS  IMPL  A:b2 X:02 Y:07 P:f4 S:f9 pc: f5fa, reg_addr: 0000
f5fa 6f 47 06 RRA  ABS   A:b2 X:02 Y:07 P:f4 S:fb pc: f5fd, reg_addr: 0647
f5fd ea ea ea NOP  IMPL  A:05 X:02 Y:07 P:35 S:fb pc: f5fe, reg_addr: 0000
f5fe ea ea ea NOP  IMPL  A:05 X:02 Y:07 P:35 S:fb pc: f5ff, reg_addr: 0000
f5ff ea ea 20 NOP  IMPL  A:05 X:02 Y:07 P:35 S:fb pc: f600, reg_addr: 0000
f600 ea 20 ef NOP  IMPL  A:05 X:02 Y:07 P:35 S:fb pc: f601, reg_addr: 0000
f601 20 ef fa JSR  ABS   A:05 X:02 Y:07 P:35 S:fb pc: faef, reg_addr: faef
faef 70 2a 90 BVS  REL   A:05 X:02 Y:07 P:35 S:f9 pc: faf1, reg_addr: fb1b
faf1 90 28 30 BCC  REL   A:05 X:02 Y:07 P:35 S:f9 pc: faf3, reg_addr: fb1b
faf3 30 26 c9 BMI  REL   A:05 X:02 Y:07 P:35 S:f9 pc: faf5, reg_addr: fb1b
faf5 c9 05 d0 CMP  IMM   A:05 X:02 Y:07 P:35 S:f9 pc: faf7, reg_addr: 0005
faf7 d0 22 60 BNE  REL   A:05 X:02 Y:07 P:37 S:f9 pc: faf9, reg_addr: fb1b
faf9 60 b8 18 RTS  IMPL  A:05 X:02 Y:07 P:37 S:f9 pc: f604, reg_addr: 0000
f604 ad 47 06 LDA  ABS   A:05 X:02 Y:07 P:37 S:fb pc: f607, reg_addr: 0647
f607 c9 52 f0 CMP  IMM   A:52 X:02 Y:07 P:35 S:fb pc: f609, reg_addr: 0052
f609 f0 02 84 BEQ  REL   A:52 X:02 Y:07 P:37 S:fb pc: f60d, reg_addr: f60d
f60d c8 a9 29 INY  IMPL  A:52 X:02 Y:07 P:37 S:fb pc: f60e, reg_addr: 0000
f60e a9 29 8d LDA  IMM   A:52 X:02 Y:08 P:35 S:fb pc: f610, reg_addr: 0029
f610 8d 47 06 STA  ABS   A:29 X:02 Y:08 P:35 S:fb pc: f613, reg_addr: 0647
f613 20 fa fa JSR  ABS   A:29 X:02 Y:08 P:35 S:fb pc: fafa, reg_addr: fafa
fafa b8 18 a9 CLV  IMPL  A:29 X:02 Y:08 P:35 S:f9 pc: fafb, reg_addr: 0000
fafb 18 a9 42 CLC  IMPL  A:29 X:02 Y:08 P:35 S:f9 pc: fafc, reg_addr: 0000
fafc a9 42 60 LDA  IMM   A:29 X:02 Y:08 P:34 S:f9 pc: fafe, reg_addr: 0042
fafe 60 70 1a RTS  IMPL  A:42 X:02 Y:08 P:34 S:f9 pc: f616, reg_addr: 0000
f616 6f 47 06 RRA  ABS   A:42 X:02 Y:08 P:34 S:fb pc: f619, reg_addr: 0647
f619 ea ea ea NOP  IMPL  A:57 X:02 Y:08 P:34 S:fb pc: f61a, reg_addr: 0000
f61a ea ea ea NOP  IMPL  A:57 X:02 Y:08 P:34 S:fb pc: f61b, reg_addr: 0000
f61b ea ea 20 NOP  IMPL  A:57 X:02 Y:08 P:34 S:fb pc: f61c, reg_addr: 0000
f61c ea 20 ff NOP  IMPL  A:57 X:02 Y:08 P:34 S:fb pc: f61d, reg_addr: 0000
f61d 20 ff fa JSR  ABS   A:57 X:02 Y:08 P:34 S:fb pc: faff, reg_addr: faff
faff 70 1a 30 BVS  REL   A:57 X:02 Y:08 P:34 S:f9 pc: fb01, reg_addr: fb1b
fb01 30 18 b0 BMI  REL   A:57 X:02 Y:08 P:34 S:f9 pc: fb03, reg_addr: fb1b
fb03 b0 16 c9 BCS  REL   A:57 X:02 Y:08 P:34 S:f9 pc: fb05, reg_addr: fb1b
fb05 c9 57 d0 CMP  IMM   A:57 X:02 Y:08 P:34 S:f9 pc: fb07, reg_addr: 0057
fb07 d0 12 60 BNE  REL   A:57 X:02 Y:08 P:37 S:f9 pc: fb09, reg_addr: fb1b
fb09 60 24 01 RTS  IMPL  A:57 X:02 Y:08 P:37 S:f9 pc: f620, reg_addr: 0000
f620 ad 47 06 LDA  ABS   A:57 X:02 Y:08 P:37 S:fb pc: f623, reg_addr: 0647
f623 c9 14 f0 CMP  IMM   A:14 X:02 Y:08 P:35 S:fb pc: f625, reg_addr: 0014
f625 f0 02 84 BEQ  REL   A:14 X:02 Y:08 P:37 S:fb pc: f629, reg_addr: f629
f629 c8 a9 37 INY  IMPL  A:14 X:02 Y:08 P:37 S:fb pc: f62a, reg_addr: 0000
f62a a9 37 8d LDA  IMM   A:14 X:02 Y:09 P:35 S:fb pc: f62c, reg_addr: 0037
f62c 8d 47 06 STA  ABS   A:37 X:02 Y:09 P:35 S:fb pc: f62f, reg_addr: 0647
f62f 20 0a fb JSR  ABS   A:37 X:02 Y:09 P:35 S:fb pc: fb0a, reg_addr: fb0a
fb0a 24 01 38 BIT  ZP    A:37 X:02 Y:09 P:35 S:f9 pc: fb0c, reg_addr: 0001
fb0c 38 a9 75 SEC  IMPL  A:37 X:02 Y:09 P:f5 S:f9 pc: fb0d, reg_addr: 0000
fb0d a9 75 60 LDA  IMM   A:37 X:02 Y:09 P:f5 S:f9 pc: fb0f, reg_addr: 0075
fb0f 60 70 09 RTS  IMPL  A:75 X:02 Y:09 P:75 S:f9 pc: f632, reg_addr: 0000
f632 6f 47 06 RRA  ABS   A:75 X:02 Y:09 P:75 S:fb pc: f635, reg_addr: 0647
f635 ea ea ea NOP  IMPL  A:11 X:02 Y:09 P:35 S:fb pc: f636, reg_addr: 0000
f636 ea ea ea NOP  IMPL  A:11 X:02 Y:09 P:35 S:fb pc: f637, reg_addr: 0000
f637 ea ea 20 NOP  IMPL  A:11 X:02 Y:09 P:35 S:fb pc: f638, reg_addr: 0000
f638 ea 20 10 NOP  IMPL  A:11 X:02 Y:09 P:35 S:fb pc: f639, reg_addr: 0000
f639 20 10 fb JSR  ABS   A:11 X:02 Y:09 P:35 S:fb pc: fb10, reg_addr: fb10
fb10 70 09 30 BVS  REL   A:11 X:02 Y:09 P:35 S:f9 pc: fb12, reg_addr: fb1b
fb12 30 07 90 BMI  REL   A:11 X:02 Y:09 P:35 S:f9 pc: fb14, reg_addr: fb1b
fb14 90 05 c9 BCC  REL   A:11 X:02 Y:09 P:35 S:f9 pc: fb16, reg_addr: fb1b
fb16 c9 11 d0 CMP  IMM   A:11 X:02 Y:09 P:35 S:f9 pc: fb18, reg_addr: 0011
fb18 d0 01 60 BNE  REL   A:11 X:02 Y:09 P:37 S:f9 pc: fb1a, reg_addr: fb1b
fb1a 60 85 00 RTS  IMPL  A:11 X:02 Y:09 P:37 S:f9 pc: f63c, reg_addr: 0000
f63c ad 47 06 LDA  ABS   A:11 X:02 Y:09 P:37 S:fb pc: f63f, reg_addr: 0647
f63f c9 9b f0 CMP  IMM   A:9b X:02 Y:09 P:b5 S:fb pc: f641, reg_addr: 009b
f641 f0 02 84 BEQ  REL   A:9b X:02 Y:09 P:37 S:fb pc: f645, reg_addr: f645
f645 a9 a5 8d LDA  IMM   A:9b X:02 Y:09 P:37 S:fb pc: f647, reg_addr: 00a5
f647 8d 47 06 STA  ABS   A:a5 X:02 Y:09 P:b5 S:fb pc: f64a, reg_addr: 0647
f64a a9 48 85 LDA  IMM   A:a5 X:02 Y:09 P:b5 S:fb pc: f64c, reg_addr: 0048
f64c 85 45 a9 STA  ZP    A:48 X:02 Y:09 P:35 S:fb pc: f64e, reg_addr: 0045
f64e a9 05 85 LDA  IMM   A:48 X:02 Y:09 P:35 S:fb pc: f650, reg_addr: 0005
f650 85 46 a0 STA  ZP    A:05 X:02 Y:09 P:35 S:fb pc: f652, reg_addr: 0046
f652 a0 ff 20 LDY  IMM   A:05 X:02 Y:09 P:35 S:fb pc: f654, reg_addr: 00ff
f654 20 e9 fa JSR  ABS   A:05 X:02 Y:ff P:b5 S:fb pc: fae9, reg_addr: fae9
fae9 24 01 18 BIT  ZP    A:05 X:02 Y:ff P:b5 S:f9 pc: faeb, reg_addr: 0001
faeb 18 a9 b2 CLC  IMPL  A:05 X:02 Y:ff P:f5 S:f9 pc: faec, reg_addr: 0000
faec a9 b2 60 LDA  IMM   A:05 X:02 Y:ff P:f4 S:f9 pc: faee, reg_addr: 00b2
faee 60 70 2a RTS  IMPL  A:b2 X:02 Y:ff P:f4 S:f9 pc: f657, reg_addr: 0000
f657 73 45 ea RRA  INDY  A:b2 X:02 Y:ff P:f4 S:fb pc: f659, reg_addr: 0647
f659 ea ea 08 NOP  IMPL  A:05 X:02 Y:ff P:35 S:fb pc: f65a, reg_addr: 0000
f65a ea 08 48 NOP  IMPL  A:05 X:02 Y:ff P:35 S:fb pc: f65b, reg_addr: 0000
f65b 08 48 a0 PHP  IMPL  A:05 X:02 Y:ff P:35 S:fb pc: f65c, reg_addr: 0000
f65c 48 a0 0a PHA  IMPL  A:05 X:02 Y:ff P:35 S:fa pc: f65d, reg_addr: 0000
f65d a0 0a 68 LDY  IMM   A:05 X:02 Y:ff P:35 S:f9 pc: f65f, reg_addr: 000a
f65f 68 28 20 PLA  IMPL  A:05 X:02 Y:0a P:35 S:f9 pc: f660, reg_addr: 0000
f660 28 20 ef PLP  IMPL  A:05 X:02 Y:0a P:35 S:fa pc: f661, reg_addr: 0000
f661 20 ef fa JSR  ABS   A:05 X:02 Y:0a P:35 S:fb pc: faef, reg_addr: faef
faef 70 2a 90 BVS  REL   A:05 X:02 Y:0a P:35 S:f9 pc: faf1, reg_addr: fb1b
faf1 90 28 30 BCC  REL   A:05 X:02 Y:0a P:35 S:f9 pc: faf3, reg_addr: fb1b
faf3 30 26 c9 BMI  REL   A:05 X:02 Y:0a P:35 S:f9 pc: faf5, reg_addr: fb1b
faf5 c9 05 d0 CMP  IMM   A:05 X:02 Y:0a P:35 S:f9 pc: faf7, reg_addr: 0005
faf7 d0 22 60 BNE  REL   A:05 X:02 Y:0a P:37 S:f9 pc: faf9, reg_addr: fb1b
faf9 60 b8 18 RTS  IMPL  A:05 X:02 Y:0a P:37 S:f9 pc: f664, reg_addr: 0000
f664 ad 47 06 LDA  ABS   A:05 X:02 Y:0a P:37 S:fb pc: f667, reg_addr: 0647
f667 c9 52 f0 CMP  IMM   A:52 X:02 Y:0a P:35 S:fb pc: f669, reg_addr: 0052
f669 f0 02 84 BEQ  REL   A:52 X:02 Y:0a P:37 S:fb pc: f66d, reg_addr: f66d
f66d a0 ff a9 LDY  IMM   A:52 X:02 Y:0a P:37 S:fb pc: f66f, reg_addr: 00ff
f66f a9 29 8d LDA  IMM   A:52 X:02 Y:ff P:b5 S:fb pc: f671, reg_addr: 0029
f671 8d 47 06 STA  ABS   A:29 X:02 Y:ff P:35 S:fb pc: f674, reg_addr: 0647
f674 20 fa fa JSR  ABS   A:29 X:02 Y:ff P:35 S:fb pc: fafa, reg_addr: fafa
fafa b8 18 a9 CLV  IMPL  A:29 X:02 Y:ff P:35 S:f9 pc: fafb, reg_addr: 0000
fafb 18 a9 42 CLC  IMPL  A:29 X:02 Y:ff P:35 S:f9 pc: fafc, reg_addr: 0000
fafc a9 42 60 LDA  IMM   A:29 X:02 Y:ff P:34 S:f9 pc: fafe, reg_addr: 0042
fafe 60 70 1a RTS  IMPL  A:42 X:02 Y:ff P:34 S:f9 pc: f677, reg_addr: 0000
f677 73 45 ea RRA  INDY  A:42 X:02 Y:ff P:34 S:fb pc: f679, reg_addr: 0647
f679 ea ea 08 NOP  IMPL  A:57 X:02 Y:ff P:34 S:fb pc: f67a, reg_addr: 0000
f67a ea 08 48 NOP  IMPL  A:57 X:02 Y:ff P:34 S:fb pc: f67b, reg_addr: 0000
f67b 08 48 a0 PHP  IMPL  A:57 X:02 Y:ff P:34 S:fb pc: f67c, reg_addr: 0000
f67c 48 a0 0b PHA  IMPL  A:57 X:02 Y:ff P:34 S:fa pc: f67d, reg_addr: 0000
f67d a0 0b 68 LDY  IMM   A:57 X:02 Y:ff P:34 S:f9 pc: f67f, reg_addr: 000b
f67f 68 28 20 PLA  IMPL  A:57 X:02 Y:0b P:34 S:f9 pc: f680, reg_addr: 0000
f680 28 20 ff PLP  IMPL  A:57 X:02 Y:0b P:34 S:fa pc: f681, reg_addr: 0000
f681 20 ff fa JSR  ABS   A:57 X:02 Y:0b P:34 S:fb pc: faff, reg_addr: faff
faff 70 1a 30 BVS  REL   A:57 X:02 Y:0b P:34 S:f9 pc: fb01, reg_addr: fb1b
fb01 30 18 b0 BMI  REL   A:57 X:02 Y:0b P:34 S:f9 pc: fb03, reg_addr: fb1b
fb03 b0 16 c9 BCS  REL   A:57 X:02 Y:0b P:34 S:f9 pc: fb05, reg_addr: fb1b
fb05 c9 57 d0 CMP  IMM   A:57 X:02 Y:0b P:34 S:f9 pc: fb07, reg_addr: 0057
fb07 d0 12 60 BNE  REL   A:57 X:02 Y:0b P:37 S:f9 pc: fb09, reg_addr: fb1b
fb09 60 24 01 RTS  IMPL  A:57 X:02 Y:0b P:37 S:f9 pc: f684, reg_addr: 0000
f684 ad 47 06 LDA  ABS   A:57 X:02 Y:0b P:37 S:fb pc: f687, reg_addr: 0647
f687 c9 14 f0 CMP  IMM   A:14 X:02 Y:0b P:35 S:fb pc: f689, reg_addr: 0014
f689 f0 02 84 BEQ  REL   A:14 X:02 Y:0b P:37 S:fb pc: f68d, reg_addr: f68d
f68d a0 ff a9 LDY  IMM   A:14 X:02 Y:0b P:37 S:fb pc: f68f, reg_addr: 00ff
f68f a9 37 8d LDA  IMM   A:14 X:02 Y:ff P:b5 S:fb pc: f691, reg_addr: 0037
f691 8d 47 06 STA  ABS   A:37 X:02 Y:ff P:35 S:fb pc: f694, reg_addr: 0647
f694 20 0a fb JSR  ABS   A:37 X:02 Y:ff P:35 S:fb pc: fb0a, reg_addr: fb0a
fb0a 24 01 38 BIT  ZP    A:37 X:02 Y:ff P:35 S:f9 pc: fb0c, reg_addr: 0001
fb0c 38 a9 75 SEC  IMPL  A:37 X:02 Y:ff P:f5 S:f9 pc: fb0d, reg_addr: 0000
fb0d a9 75 60 LDA  IMM   A:37 X:02 Y:ff P:f5 S:f9 pc: fb0f, reg_addr: 0075
fb0f 60 70 09 RTS  IMPL  A:75 X:02 Y:ff P:75 S:f9 pc: f697, reg_addr: 0000
f697 73 45 ea RRA  INDY  A:75 X:02 Y:ff P:75 S:fb pc: f699, reg_addr: 0647
f699 ea ea 08 NOP  IMPL  A:11 X:02 Y:ff P:35 S:fb pc: f69a, reg_addr: 0000
f69a ea 08 48 NOP  IMPL  A:11 X:02 Y:ff P:35 S:fb pc: f69b, reg_addr: 0000
f69b 08 48 a0 PHP  IMPL  A:11 X:02 Y:ff P:35 S:fb pc: f69c, reg_addr: 0000
f69c 48 a0 0c PHA  IMPL  A:11 X:02 Y:ff P:35 S:fa pc: f69d, reg_addr: 0000
f69d a0 0c 68 LDY  IMM   A:11 X:02 Y:ff P:35 S:f9 pc: f69f, reg_addr: 000c
f69f 68 28 20 PLA  IMPL  A:11 X:02 Y:0c P:35 S:f9 pc: f6a0, reg_addr: 0000
f6a0 28 20 10 PLP  IMPL  A:11 X:02 Y:0c P:35 S:fa pc: f6a1, reg_addr: 0000
f6a1 20 10 fb JSR  ABS   A:11 X:02 Y:0c P:35 S:fb pc: fb10, reg_addr: fb10
fb10 70 09 30 BVS  REL   A:11 X:02 Y:0c P:35 S:f9 pc: fb12, reg_addr: fb1b
fb12 30 07 90 BMI  REL   A:11 X:02 Y:0c P:35 S:f9 pc: fb14, reg_addr: fb1b
fb14 90 05 c9 BCC  REL   A:11 X:02 Y:0c P:35 S:f9 pc: fb16, reg_addr: fb1b
fb16 c9 11 d0 CMP  IMM   A:11 X:02 Y:0c P:35 S:f9 pc: fb18, reg_addr: 0011
fb18 d0 01 60 BNE  REL   A:11 X:02 Y:0c P:37 S:f9 pc: fb1a, reg_addr: fb1b
fb1a 60 85 00 RTS  IMPL  A:11 X:02 Y:0c P:37 S:f9 pc: f6a4, reg_addr: 0000
f6a4 ad 47 06 LDA  ABS   A:11 X:02 Y:0c P:37 S:fb pc: f6a7, reg_addr: 0647
f6a7 c9 9b f0 CMP  IMM   A:9b X:02 Y:0c P:b5 S:fb pc: f6a9, reg_addr: 009b
f6a9 f0 02 84 BEQ  REL   A:9b X:02 Y:0c P:37 S:fb pc: f6ad, reg_addr: f6ad
f6ad a0 0d a2 LDY  IMM   A:9b X:02 Y:0c P:37 S:fb pc: f6af, reg_addr: 000d
f6af a2 ff a9 LDX  IMM   A:9b X:02 Y:0d P:35 S:fb pc: f6b1, reg_addr: 00ff
f6b1 a9 a5 85 LDA  IMM   A:9b X:ff Y:0d P:b5 S:fb pc: f6b3, reg_addr: 00a5
f6b3 85 47 20 STA  ZP    A:a5 X:ff Y:0d P:b5 S:fb pc: f6b5, reg_addr: 0047
f6b5 20 e9 fa JSR  ABS   A:a5 X:ff Y:0d P:b5 S:fb pc: fae9, reg_addr: fae9
fae9 24 01 18 BIT  ZP    A:a5 X:ff Y:0d P:b5 S:f9 pc: faeb, reg_addr: 0001
faeb 18 a9 b2 CLC  IMPL  A:a5 X:ff Y:0d P:f5 S:f9 pc: faec, reg_addr: 0000
faec a9 b2 60 LDA  IMM   A:a5 X:ff Y:0d P:f4 S:f9 pc: faee, reg_addr: 00b2
faee 60 70 2a RTS  IMPL  A:b2 X:ff Y:0d P:f4 S:f9 pc: f6b8, reg_addr: 0000
f6b8 77 48 ea RRA  ZPX   A:b2 X:ff Y:0d P:f4 S:fb pc: f6ba, reg_addr: 0047
f6ba ea ea ea NOP  IMPL  A:05 X:ff Y:0d P:35 S:fb pc: f6bb, reg_addr: 0000
f6bb ea ea ea NOP  IMPL  A:05 X:ff Y:0d P:35 S:fb pc: f6bc, reg_addr: 0000
f6bc ea ea 20 NOP  IMPL  A:05 X:ff Y:0d P:35 S:fb pc: f6bd, reg_addr: 0000
f6bd ea 20 ef NOP  IMPL  A:05 X:ff Y:0d P:35 S:fb pc: f6be, reg_addr: 0000
f6be 20 ef fa JSR  ABS   A:05 X:ff Y:0d P:35 S:fb pc: faef, reg_addr: faef
faef 70 2a 90 BVS  REL   A:05 X:ff Y:0d P:35 S:f9 pc: faf1, reg_addr: fb1b
faf1 90 28 30 BCC  REL   A:05 X:ff Y:0d P:35 S:f9 pc: faf3, reg_addr: fb1b
faf3 30 26 c9 BMI  REL   A:05 X:ff Y:0d P:35 S:f9 pc: faf5, reg_addr: fb1b
faf5 c9 05 d0 CMP  IMM   A:05 X:ff Y:0d P:35 S:f9 pc: faf7, reg_addr: 0005
faf7 d0 22 60 BNE  REL   A:05 X:ff Y:0d P:37 S:f9 pc: faf9, reg_addr: fb1b
faf9 60 b8 18 RTS  IMPL  A:05 X:ff Y:0d P:37 S:f9 pc: f6c1, reg_addr: 0000
f6c1 a5 47 c9 LDA  ZP    A:05 X:ff Y:0d P:37 S:fb pc: f6c3, reg_addr: 0047
f6c3 c9 52 f0 CMP  IMM   A:52 X:ff Y:0d P:35 S:fb pc: f6c5, reg_addr: 0052
f6c5 f0 02 84 BEQ  REL   A:52 X:ff Y:0d P:37 S:fb pc: f6c9, reg_addr: f6c9
f6c9 c8 a9 29 INY  IMPL  A:52 X:ff Y:0d P:37 S:fb pc: f6ca, reg_addr: 0000
f6ca a9 29 85 LDA  IMM   A:52 X:ff Y:0e P:35 S:fb pc: f6cc, reg_addr: 0029
f6cc 85 47 20 STA  ZP    A:29 X:ff Y:0e P:35 S:fb pc: f6ce, reg_addr: 0047
f6ce 20 fa fa JSR  ABS   A:29 X:ff Y:0e P:35 S:fb pc: fafa, reg_addr: fafa
fafa b8 18 a9 CLV  IMPL  A:29 X:ff Y:0e P:35 S:f9 pc: fafb, reg_addr: 0000
fafb 18 a9 42 CLC  IMPL  A:29 X:ff Y:0e P:35 S:f9 pc: fafc, reg_addr: 0000
fafc a9 42 60 LDA  IMM   A:29 X:ff Y:0e P:34 S:f9 pc: fafe, reg_addr: 0042
fafe 60 70 1a RTS  IMPL  A:42 X:ff Y:0e P:34 S:f9 pc: f6d1, reg_addr: 0000
f6d1 77 48 ea RRA  ZPX   A:42 X:ff Y:0e P:34 S:fb pc: f6d3, reg_addr: 0047
f6d3 ea ea ea NOP  IMPL  A:57 X:ff Y:0e P:34 S:fb pc: f6d4, reg_addr: 0000
f6d4 ea ea ea NOP  IMPL  A:57 X:ff Y:0e P:34 S:fb pc: f6d5, reg_addr: 0000
f6d5 ea ea 20 NOP  IMPL  A:57 X:ff Y:0e P:34 S:fb pc: f6d6, reg_addr: 0000
f6d6 ea 20 ff NOP  IMPL  A:57 X:ff Y:0e P:34 S:fb pc: f6d7, reg_addr: 0000
f6d7 20 ff fa JSR  ABS   A:57 X:ff Y:0e P:34 S:fb pc: faff, reg_addr: faff
faff 70 1a 30 BVS  REL   A:57 X:ff Y:0e P:34 S:f9 pc: fb01, reg_addr: fb1b
fb01 30 18 b0 BMI  REL   A:57 X:ff Y:0e P:34 S:f9 pc: fb03, reg_addr: fb1b
fb03 b0 16 c9 BCS  REL   A:57 X:ff Y:0e P:34 S:f9 pc: fb05, reg_addr: fb1b
fb05 c9 57 d0 CMP  IMM   A:57 X:ff Y:0e P:34 S:f9 pc: fb07, reg_addr: 0057
fb07 d0 12 60 BNE  REL   A:57 X:ff Y:0e P:37 S:f9 pc: fb09, reg_addr: fb1b
fb09 60 24 01 RTS  IMPL  A:57 X:ff Y:0e P:37 S:f9 pc: f6da, reg_addr: 0000
f6da a5 47 c9 LDA  ZP    A:57 X:ff Y:0e P:37 S:fb pc: f6dc, reg_addr: 0047
f6dc c9 14 f0 CMP  IMM   A:14 X:ff Y:0e P:35 S:fb pc: f6de, reg_addr: 0014
f6de f0 02 84 BEQ  REL   A:14 X:ff Y:0e P:37 S:fb pc: f6e2, reg_addr: f6e2
f6e2 c8 a9 37 INY  IMPL  A:14 X:ff Y:0e P:37 S:fb pc: f6e3, reg_addr: 0000
f6e3 a9 37 85 LDA  IMM   A:14 X:ff Y:0f P:35 S:fb pc: f6e5, reg_addr: 0037
f6e5 85 47 20 STA  ZP    A:37 X:ff Y:0f P:35 S:fb pc: f6e7, reg_addr: 0047
f6e7 20 0a fb JSR  ABS   A:37 X:ff Y:0f P:35 S:fb pc: fb0a, reg_addr: fb0a
fb0a 24 01 38 BIT  ZP    A:37 X:ff Y:0f P:35 S:f9 pc: fb0c, reg_addr: 0001
fb0c 38 a9 75 SEC  IMPL  A:37 X:ff Y:0f P:f5 S:f9 pc: fb0d, reg_addr: 0000
fb0d a9 75 60 LDA  IMM   A:37 X:ff Y:0f P:f5 S:f9 pc: fb0f, reg_addr: 0075
fb0f 60 70 09 RTS  IMPL  A:75 X:ff Y:0f P:75 S:f9 pc: f6ea, reg_addr: 0000
f6ea 77 48 ea RRA  ZPX   A:75 X:ff Y:0f P:75 S:fb pc: f6ec, reg_addr: 0047
f6ec ea ea ea NOP  IMPL  A:11 X:ff Y:0f P:35 S:fb pc: f6ed, reg_addr: 0000
f6ed ea ea ea NOP  IMPL  A:11 X:ff Y:0f P:35 S:fb pc: f6ee, reg_addr: 0000
f6ee ea ea 20 NOP  IMPL  A:11 X:ff Y:0f P:35 S:fb pc: f6ef, reg_addr: 0000
f6ef ea 20 10 NOP  IMPL  A:11 X:ff Y:0f P:35 S:fb pc: f6f0, reg_addr: 0000
f6f0 20 10 fb JSR  ABS   A:11 X:ff Y:0f P:35 S:fb pc: fb10, reg_addr: fb10
fb10 70 09 30 BVS  REL   A:11 X:ff Y:0f P:35 S:f9 pc: fb12, reg_addr: fb1b
fb12 30 07 90 BMI  REL   A:11 X:ff Y:0f P:35 S:f9 pc: fb14, reg_addr: fb1b
fb14 90 05 c9 BCC  REL   A:11 X:ff Y:0f P:35 S:f9 pc: fb16, reg_addr: fb1b
fb16 c9 11 d0 CMP  IMM   A:11 X:ff Y:0f P:35 S:f9 pc: fb18, reg_addr: 0011
fb18 d0 01 60 BNE  REL   A:11 X:ff Y:0f P:37 S:f9 pc: fb1a, reg_addr: fb1b
fb1a 60 85 00 RTS  IMPL  A:11 X:ff Y:0f P:37 S:f9 pc: f6f3, reg_addr: 0000
f6f3 a5 47 c9 LDA  ZP    A:11 X:ff Y:0f P:37 S:fb pc: f6f5, reg_addr: 0047
f6f5 c9 9b f0 CMP  IMM   A:9b X:ff Y:0f P:b5 S:fb pc: f6f7, reg_addr: 009b
f6f7 f0 02 84 BEQ  REL   A:9b X:ff Y:0f P:37 S:fb pc: f6fb, reg_addr: f6fb
f6fb a9 a5 8d LDA  IMM   A:9b X:ff Y:0f P:37 S:fb pc: f6fd, reg_addr: 00a5
f6fd 8d 47 06 STA  ABS   A:a5 X:ff Y:0f P:b5 S:fb pc: f700, reg_addr: 0647
f700 a0 ff 20 LDY  IMM   A:a5 X:ff Y:0f P:b5 S:fb pc: f702, reg_addr: 00ff
f702 20 e9 fa JSR  ABS   A:a5 X:ff Y:ff P:b5 S:fb pc: fae9, reg_addr: fae9
fae9 24 01 18 BIT  ZP    A:a5 X:ff Y:ff P:b5 S:f9 pc: faeb, reg_addr: 0001
faeb 18 a9 b2 CLC  IMPL  A:a5 X:ff Y:ff P:f5 S:f9 pc: faec, reg_addr: 0000
faec a9 b2 60 LDA  IMM   A:a5 X:ff Y:ff P:f4 S:f9 pc: faee, reg_addr: 00b2
faee 60 70 2a RTS  IMPL  A:b2 X:ff Y:ff P:f4 S:f9 pc: f705, reg_addr: 0000
f705 7b 48 05 RRA  ABSY  A:b2 X:ff Y:ff P:f4 S:fb pc: f708, reg_addr: 0647
f708 ea ea 08 NOP  IMPL  A:05 X:ff Y:ff P:35 S:fb pc: f709, reg_addr: 0000
f709 ea 08 48 NOP  IMPL  A:05 X:ff Y:ff P:35 S:fb pc: f70a, reg_addr: 0000
f70a 08 48 a0 PHP  IMPL  A:05 X:ff Y:ff P:35 S:fb pc: f70b, reg_addr: 0000
f70b 48 a0 10 PHA  IMPL  A:05 X:ff Y:ff P:35 S:fa pc: f70c, reg_addr: 0000
f70c a0 10 68 LDY  IMM   A:05 X:ff Y:ff P:35 S:f9 pc: f70e, reg_addr: 0010
f70e 68 28 20 PLA  IMPL  A:05 X:ff Y:10 P:35 S:f9 pc: f70f, reg_addr: 0000
f70f 28 20 ef PLP  IMPL  A:05 X:ff Y:10 P:35 S:fa pc: f710, reg_addr: 0000
f710 20 ef fa JSR  ABS   A:05 X:ff Y:10 P:35 S:fb pc: faef, reg_addr: faef
faef 70 2a 90 BVS  REL   A:05 X:ff Y:10 P:35 S:f9 pc: faf1, reg_addr: fb1b
faf1 90 28 30 BCC  REL   A:05 X:ff Y:10 P:35 S:f9 pc: faf3, reg_addr: fb1b
faf3 30 26 c9 BMI  REL   A:05 X:ff Y:10 P:35 S:f9 pc: faf5, reg_addr: fb1b
faf5 c9 05 d0 CMP  IMM   A:05 X:ff Y:10 P:35 S:f9 pc: faf7, reg_addr: 0005
faf7 d0 22 60 BNE  REL   A:05 X:ff Y:10 P:37 S:f9 pc: faf9, reg_addr: fb1b
faf9 60 b8 18 RTS  IMPL  A:05 X:ff Y:10 P:37 S:f9 pc: f713, reg_addr: 0000
f713 ad 47 06 LDA  ABS   A:05 X:ff Y:10 P:37 S:fb pc: f716, reg_addr: 0647
f716 c9 52 f0 CMP  IMM   A:52 X:ff Y:10 P:35 S:fb pc: f718, reg_addr: 0052
f718 f0 02 84 BEQ  REL   A:52 X:ff Y:10 P:37 S:fb pc: f71c, reg_addr: f71c
f71c a0 ff a9 LDY  IMM   A:52 X:ff Y:10 P:37 S:fb pc: f71e, reg_addr: 00ff
f71e a9 29 8d LDA  IMM   A:52 X:ff Y:ff P:b5 S:fb pc: f720, reg_addr: 0029
f720 8d 47 06 STA  ABS   A:29 X:ff Y:ff P:35 S:fb pc: f723, reg_addr: 0647
f723 20 fa fa JSR  ABS   A:29 X:ff Y:ff P:35 S:fb pc: fafa, reg_addr: fafa
fafa b8 18 a9 CLV  IMPL  A:29 X:ff Y:ff P:35 S:f9 pc: fafb, reg_addr: 0000
fafb 18 a9 42 CLC  IMPL  A:29 X:ff Y:ff P:35 S:f9 pc: fafc, reg_addr: 0000
fafc a9 42 60 LDA  IMM   A:29 X:ff Y:ff P:34 S:f9 pc: fafe, reg_addr: 0042
fafe 60 70 1a RTS  IMPL  A:42 X:ff Y:ff P:34 S:f9 pc: f726, reg_addr: 0000
f726 7b 48 05 RRA  ABSY  A:42 X:ff Y:ff P:34 S:fb pc: f729, reg_addr: 0647
f729 ea ea 08 NOP  IMPL  A:57 X:ff Y:ff P:34 S:fb pc: f72a, reg_addr: 0000
f72a ea 08 48 NOP  IMPL  A:57 X:ff Y:ff P:34 S:fb pc: f72b, reg_addr: 0000
f72b 08 48 a0 PHP  IMPL  A:57 X:ff Y:ff P:34 S:fb pc: f72c, reg_addr: 0000
f72c 48 a0 11 PHA  IMPL  A:57 X:ff Y:ff P:34 S:fa pc: f72d, reg_addr: 0000
f72d a0 11 68 LDY  IMM   A:57 X:ff Y:ff P:34 S:f9 pc: f72f, reg_addr: 0011
f72f 68 28 20 PLA  IMPL  A:57 X:ff Y:11 P:34 S:f9 pc: f730, reg_addr: 0000
f730 28 20 ff PLP  IMPL  A:57 X:ff Y:11 P:34 S:fa pc: f731, reg_addr: 0000
f731 20 ff fa JSR  ABS   A:57 X:ff Y:11 P:34 S:fb pc: faff, reg_addr: faff
faff 70 1a 30 BVS  REL   A:57 X:ff Y:11 P:34 S:f9 pc: fb01, reg_addr: fb1b
fb01 30 18 b0 BMI  REL   A:57 X:ff Y:11 P:34 S:f9 pc: fb03, reg_addr: fb1b
fb03 b0 16 c9 BCS  REL   A:57 X:ff Y:11 P:34 S:f9 pc: fb05, reg_addr: fb1b
fb05 c9 57 d0 CMP  IMM   A:57 X:ff Y:11 P:34 S:f9 pc: fb07, reg_addr: 0057
fb07 d0 12 60 BNE  REL   A:57 X:ff Y:11 P:37 S:f9 pc: fb09, reg_addr: fb1b
fb09 60 24 01 RTS  IMPL  A:57 X:ff Y:11 P:37 S:f9 pc: f734, reg_addr: 0000
f734 ad 47 06 LDA  ABS   A:57 X:ff Y:11 P:37 S:fb pc: f737, reg_addr: 0647
f737 c9 14 f0 CMP  IMM   A:14 X:ff Y:11 P:35 S:fb pc: f739, reg_addr: 0014
f739 f0 02 84 BEQ  REL   A:14 X:ff Y:11 P:37 S:fb pc: f73d, reg_addr: f73d
f73d a0 ff a9 LDY  IMM   A:14 X:ff Y:11 P:37 S:fb pc: f73f, reg_addr: 00ff
f73f a9 37 8d LDA  IMM   A:14 X:ff Y:ff P:b5 S:fb pc: f741, reg_addr: 0037
f741 8d 47 06 STA  ABS   A:37 X:ff Y:ff P:35 S:fb pc: f744, reg_addr: 0647
f744 20 0a fb JSR  ABS   A:37 X:ff Y:ff P:35 S:fb pc: fb0a, reg_addr: fb0a
fb0a 24 01 38 BIT  ZP    A:37 X:ff Y:ff P:35 S:f9 pc: fb0c, reg_addr: 0001
fb0c 38 a9 75 SEC  IMPL  A:37 X:ff Y:ff P:f5 S:f9 pc: fb0d, reg_addr: 0000
fb0d a9 75 60 LDA  IMM   A:37 X:ff Y:ff P:f5 S:f9 pc: fb0f, reg_addr: 0075
fb0f 60 70 09 RTS  IMPL  A:75 X:ff Y:ff P:75 S:f9 pc: f747, reg_addr: 0000
f747 7b 48 05 RRA  ABSY  A:75 X:ff Y:ff P:75 S:fb pc: f74a, reg_addr: 0647
f74a ea ea 08 NOP  IMPL  A:11 X:ff Y:ff P:35 S:fb pc: f74b, reg_addr: 0000
f74b ea 08 48 NOP  IMPL  A:11 X:ff Y:ff P:35 S:fb pc: f74c, reg_addr: 0000
f74c 08 48 a0 PHP  IMPL  A:11 X:ff Y:ff P:35 S:fb pc: f74d, reg_addr: 0000
f74d 48 a0 12 PHA  IMPL  A:11 X:ff Y:ff P:35 S:fa pc: f74e, reg_addr: 0000
f74e a0 12 68 LDY  IMM   A:11 X:ff Y:ff P:35 S:f9 pc: f750, reg_addr: 0012
f750 68 28 20 PLA  IMPL  A:11 X:ff Y:12 P:35 S:f9 pc: f751, reg_addr: 0000
f751 28 20 10 PLP  IMPL  A:11 X:ff Y:12 P:35 S:fa pc: f752, reg_addr: 0000
f752 20 10 fb JSR  ABS   A:11 X:ff Y:12 P:35 S:fb pc: fb10, reg_addr: fb10
fb10 70 09 30 BVS  REL   A:11 X:ff Y:12 P:35 S:f9 pc: fb12, reg_addr: fb1b
fb12 30 07 90 BMI  REL   A:11 X:ff Y:12 P:35 S:f9 pc: fb14, reg_addr: fb1b
fb14 90 05 c9 BCC  REL   A:11 X:ff Y:12 P:35 S:f9 pc: fb16, reg_addr: fb1b
fb16 c9 11 d0 CMP  IMM   A:11 X:ff Y:12 P:35 S:f9 pc: fb18, reg_addr: 0011
fb18 d0 01 60 BNE  REL   A:11 X:ff Y:12 P:37 S:f9 pc: fb1a, reg_addr: fb1b
fb1a 60 85 00 RTS  IMPL  A:11 X:ff Y:12 P:37 S:f9 pc: f755, reg_addr: 0000
f755 ad 47 06 LDA  ABS   A:11 X:ff Y:12 P:37 S:fb pc: f758, reg_addr: 0647
f758 c9 9b f0 CMP  IMM   A:9b X:ff Y:12 P:b5 S:fb pc: f75a, reg_addr: 009b
f75a f0 02 84 BEQ  REL   A:9b X:ff Y:12 P:37 S:fb pc: f75e, reg_addr: f75e
f75e a0 13 a2 LDY  IMM   A:9b X:ff Y:12 P:37 S:fb pc: f760, reg_addr: 0013
f760 a2 ff a9 LDX  IMM   A:9b X:ff Y:13 P:35 S:fb pc: f762, reg_addr: 00ff
f762 a9 a5 8d LDA  IMM   A:9b X:ff Y:13 P:b5 S:fb pc: f764, reg_addr: 00a5
f764 8d 47 06 STA  ABS   A:a5 X:ff Y:13 P:b5 S:fb pc: f767, reg_addr: 0647
f767 20 e9 fa JSR  ABS   A:a5 X:ff Y:13 P:b5 S:fb pc: fae9, reg_addr: fae9
fae9 24 01 18 BIT  ZP    A:a5 X:ff Y:13 P:b5 S:f9 pc: faeb, reg_addr: 0001
faeb 18 a9 b2 CLC  IMPL  A:a5 X:ff Y:13 P:f5 S:f9 pc: faec, reg_addr: 0000
faec a9 b2 60 LDA  IMM   A:a5 X:ff Y:13 P:f4 S:f9 pc: faee, reg_addr: 00b2
faee 60 70 2a RTS  IMPL  A:b2 X:ff Y:13 P:f4 S:f9 pc: f76a, reg_addr: 0000
f76a 7f 48 05 RRA  ABSX  A:b2 X:ff Y:13 P:f4 S:fb pc: f76d, reg_addr: 0647
f76d ea ea ea NOP  IMPL  A:05 X:ff Y:13 P:35 S:fb pc: f76e, reg_addr: 0000
f76e ea ea ea NOP  IMPL  A:05 X:ff Y:13 P:35 S:fb pc: f76f, reg_addr: 0000
f76f ea ea 20 NOP  IMPL  A:05 X:ff Y:13 P:35 S:fb pc: f770, reg_addr: 0000
f770 ea 20 ef NOP  IMPL  A:05 X:ff Y:13 P:35 S:fb pc: f771, reg_addr: 0000
f771 20 ef fa JSR  ABS   A:05 X:ff Y:13 P:35 S:fb pc: faef, reg_addr: faef
faef 70 2a 90 BVS  REL   A:05 X:ff Y:13 P:35 S:f9 pc: faf1, reg_addr: fb1b
faf1 90 28 30 BCC  REL   A:05 X:ff Y:13 P:35 S:f9 pc: faf3, reg_addr: fb1b
faf3 30 26 c9 BMI  REL   A:05 X:ff Y:13 P:35 S:f9 pc: faf5, reg_addr: fb1b
faf5 c9 05 d0 CMP  IMM   A:05 X:ff Y:13 P:35 S:f9 pc: faf7, reg_addr: 0005
faf7 d0 22 60 BNE  REL   A:05 X:ff Y:13 P:37 S:f9 pc: faf9, reg_addr: fb1b
faf9 60 b8 18 RTS  IMPL  A:05 X:ff Y:13 P:37 S:f9 pc: f774, reg_addr: 0000
f774 ad 47 06 LDA  ABS   A:05 X:ff Y:13 P:37 S:fb pc: f777, reg_addr: 0647
f777 c9 52 f0 CMP  IMM   A:52 X:ff Y:13 P:35 S:fb pc: f779, reg_addr: 0052
f779 f0 02 84 BEQ  REL   A:52 X:ff Y:13 P:37 S:fb pc: f77d, reg_addr: f77d
f77d c8 a9 29 INY  IMPL  A:52 X:ff Y:13 P:37 S:fb pc: f77e, reg_addr: 0000
f77e a9 29 8d LDA  IMM   A:52 X:ff Y:14 P:35 S:fb pc: f780, reg_addr: 0029
f780 8d 47 06 STA  ABS   A:29 X:ff Y:14 P:35 S:fb pc: f783, reg_addr: 0647
f783 20 fa fa JSR  ABS   A:29 X:ff Y:14 P:35 S:fb pc: fafa, reg_addr: fafa
fafa b8 18 a9 CLV  IMPL  A:29 X:ff Y:14 P:35 S:f9 pc: fafb, reg_addr: 0000
fafb 18 a9 42 CLC  IMPL  A:29 X:ff Y:14 P:35 S:f9 pc: fafc, reg_addr: 0000
fafc a9 42 60 LDA  IMM   A:29 X:ff Y:14 P:34 S:f9 pc: fafe, reg_addr: 0042
fafe 60 70 1a RTS  IMPL  A:42 X:ff Y:14 P:34 S:f9 pc: f786, reg_addr: 0000
f786 7f 48 05 RRA  ABSX  A:42 X:ff Y:14 P:34 S:fb pc: f789, reg_addr: 0647
f789 ea ea ea NOP  IMPL  A:57 X:ff Y:14 P:34 S:fb pc: f78a, reg_addr: 0000
f78a ea ea ea NOP  IMPL  A:57 X:ff Y:14 P:34 S:fb pc: f78b, reg_addr: 0000
f78b ea ea 20 NOP  IMPL  A:57 X:ff Y:14 P:34 S:fb pc: f78c, reg_addr: 0000
f78c ea 20 ff NOP  IMPL  A:57 X:ff Y:14 P:34 S:fb pc: f78d, reg_addr: 0000
f78d 20 ff fa JSR  ABS   A:57 X:ff Y:14 P:34 S:fb pc: faff, reg_addr: faff
faff 70 1a 30 BVS  REL   A:57 X:ff Y:14 P:34 S:f9 pc: fb01, reg_addr: fb1b
fb01 30 18 b0 BMI  REL   A:57 X:ff Y:14 P:34 S:f9 pc: fb03, reg_addr: fb1b
fb03 b0 16 c9 BCS  REL   A:57 X:ff Y:14 P:34 S:f9 pc: fb05, reg_addr: fb1b
fb05 c9 57 d0 CMP  IMM   A:57 X:ff Y:14 P:34 S:f9 pc: fb07, reg_addr: 0057
fb07 d0 12 60 BNE  REL   A:57 X:ff Y:14 P:37 S:f9 pc: fb09, reg_addr: fb1b
fb09 60 24 01 RTS  IMPL  A:57 X:ff Y:14 P:37 S:f9 pc: f790, reg_addr: 0000
f790 ad 47 06 LDA  ABS   A:57 X:ff Y:14 P:37 S:fb pc: f793, reg_addr: 0647
f793 c9 14 f0 CMP  IMM   A:14 X:ff Y:14 P:35 S:fb pc: f795, reg_addr: 0014
f795 f0 02 84 BEQ  REL   A:14 X:ff Y:14 P:37 S:fb pc: f799, reg_addr: f799
f799 c8 a9 37 INY  IMPL  A:14 X:ff Y:14 P:37 S:fb pc: f79a, reg_addr: 0000
f79a a9 37 8d LDA  IMM   A:14 X:ff Y:15 P:35 S:fb pc: f79c, reg_addr: 0037
f79c 8d 47 06 STA  ABS   A:37 X:ff Y:15 P:35 S:fb pc: f79f, reg_addr: 0647
f79f 20 0a fb JSR  ABS   A:37 X:ff Y:15 P:35 S:fb pc: fb0a, reg_addr: fb0a
fb0a 24 01 38 BIT  ZP    A:37 X:ff Y:15 P:35 S:f9 pc: fb0c, reg_addr: 0001
fb0c 38 a9 75 SEC  IMPL  A:37 X:ff Y:15 P:f5 S:f9 pc: fb0d, reg_addr: 0000
fb0d a9 75 60 LDA  IMM   A:37 X:ff Y:15 P:f5 S:f9 pc: fb0f, reg_addr: 0075
fb0f 60 70 09 RTS  IMPL  A:75 X:ff Y:15 P:75 S:f9 pc: f7a2, reg_addr: 0000
f7a2 7f 48 05 RRA  ABSX  A:75 X:ff Y:15 P:75 S:fb pc: f7a5, reg_addr: 0647
f7a5 ea ea ea NOP  IMPL  A:11 X:ff Y:15 P:35 S:fb pc: f7a6, reg_addr: 0000
f7a6 ea ea ea NOP  IMPL  A:11 X:ff Y:15 P:35 S:fb pc: f7a7, reg_addr: 0000
f7a7 ea ea 20 NOP  IMPL  A:11 X:ff Y:15 P:35 S:fb pc: f7a8, reg_addr: 0000
f7a8 ea 20 10 NOP  IMPL  A:11 X:ff Y:15 P:35 S:fb pc: f7a9, reg_addr: 0000
f7a9 20 10 fb JSR  ABS   A:11 X:ff Y:15 P:35 S:fb pc: fb10, reg_addr: fb10
fb10 70 09 30 BVS  REL   A:11 X:ff Y:15 P:35 S:f9 pc: fb12, reg_addr: fb1b
fb12 30 07 90 BMI  REL   A:11 X:ff Y:15 P:35 S:f9 pc: fb14, reg_addr: fb1b
fb14 90 05 c9 BCC  REL   A:11 X:ff Y:15 P:35 S:f9 pc: fb16, reg_addr: fb1b
fb16 c9 11 d0 CMP  IMM   A:11 X:ff Y:15 P:35 S:f9 pc: fb18, reg_addr: 0011
fb18 d0 01 60 BNE  REL   A:11 X:ff Y:15 P:37 S:f9 pc: fb1a, reg_addr: fb1b
fb1a 60 85 00 RTS  IMPL  A:11 X:ff Y:15 P:37 S:f9 pc: f7ac, reg_addr: 0000
f7ac ad 47 06 LDA  ABS   A:11 X:ff Y:15 P:37 S:fb pc: f7af, reg_addr: 0647
f7af c9 9b f0 CMP  IMM   A:9b X:ff Y:15 P:b5 S:fb pc: f7b1, reg_addr: 009b
f7b1 f0 02 84 BEQ  REL   A:9b X:ff Y:15 P:37 S:fb pc: f7b5, reg_addr: f7b5
f7b5 60 18 a9 RTS  IMPL  A:9b X:ff Y:15 P:37 S:fb pc: c655, reg_addr: 0000
c655 a5 00 05 LDA  ZP    A:9b X:ff Y:15 P:37 S:fd pc: c657, reg_addr: 0000
c657 05 10 05 ORA  ZP    A:00 X:ff Y:15 P:37 S:fd pc: c659, reg_addr: 0010
c659 05 11 f0 ORA  ZP    A:00 X:ff Y:15 P:37 S:fd pc: c65b, reg_addr: 0011
c65b f0 0e 20 BEQ  REL   A:00 X:ff Y:15 P:37 S:fd pc: c66b, reg_addr: c66b
c66b 20 89 c6 JSR  ABS   A:00 X:ff Y:15 P:37 S:fd pc: c689, reg_addr: c689
c689 a9 02 8d LDA  IMM   A:00 X:ff Y:15 P:37 S:fb pc: c68b, reg_addr: 0002
c68b 8d 15 40 STA  ABS   A:02 X:ff Y:15 P:35 S:fb pc: c68e, reg_addr: 4015
c68e a9 3f 8d LDA  IMM   A:02 X:ff Y:15 P:35 S:fb pc: c690, reg_addr: 003f
c690 8d 04 40 STA  ABS   A:3f X:ff Y:15 P:35 S:fb pc: c693, reg_addr: 4004
c693 a9 9a 8d LDA  IMM   A:3f X:ff Y:15 P:35 S:fb pc: c695, reg_addr: 009a
c695 8d 05 40 STA  ABS   A:9a X:ff Y:15 P:b5 S:fb pc: c698, reg_addr: 4005
c698 a9 ff 8d LDA  IMM   A:9a X:ff Y:15 P:b5 S:fb pc: c69a, reg_addr: 00ff
c69a 8d 06 40 STA  ABS   A:ff X:ff Y:15 P:b5 S:fb pc: c69d, reg_addr: 4006
c69d a9 00 8d LDA  IMM   A:ff X:ff Y:15 P:b5 S:fb pc: c69f, reg_addr: 0000
c69f 8d 07 40 STA  ABS   A:00 X:ff Y:15 P:37 S:fb pc: c6a2, reg_addr: 4007
c6a2 60 a0 4e RTS  IMPL  A:00 X:ff Y:15 P:37 S:fb pc: c66e, reg_addr: 0000
c66e 60 a9 03 RTS  IMPL  A:00 X:ff Y:15 P:37 S:fd pc: 0025, reg_addr: 0000
0025 00 00 00 BRK  IMPL  A:00 X:ff Y:15 P:37 S:ff pc: 0026, reg_addr: 0000
0026 00 00 00 BRK  IMPL  A:00 X:ff Y:15 P:37 S:ff pc: 0027, reg_addr: 0000
0027 00 00 00 BRK  IMPL  A:00 X:ff Y:15 P:37 S:ff pc: 0028, reg_addr: 0000
0028 00 00 00 BRK  IMPL  A:00 X:ff Y:15 P:37 S:ff pc: 0029, reg_addr: 0000
0029 00 00 00 BRK  IMPL  A:00 X:ff Y:15 P:37 S:ff pc: 002a, reg_addr: 0000
002a 00 00 00 BRK  IMPL  A:00 X:ff Y:15 P:37 S:ff pc: 002b, reg_addr: 0000
002b 00 00 00 BRK  IMPL  A:00 X:ff Y:15 P:37 S:ff pc: 002c, reg_addr: 0000
002c 00 00 00 BRK  IMPL  A:00 X:ff Y:15 P:37 S:ff pc: 002d, reg_addr: 0000
002d 00 00 00 BRK  IMPL  A:00 X:ff Y:15 P:37 S:ff pc: 002e, reg_addr: 0000
002e 00 00 00 BRK  IMPL  A:00 X:ff Y:15 P:37 S:ff pc: 002f, reg_addr: 0000
002f 00 00 00 BRK  IMPL  A:00 X:ff Y:15 P:37 S:ff pc: 0030, reg_addr: 0000
0030 00 00 00 BRK  IMPL  A:00 X:ff Y:15 P:37 S:ff pc: 0031, reg_addr: 0000
0031 00 00 44 BRK  IMPL  A:00 X:ff Y:15 P:37 S:ff pc: 0032, reg_addr: 0000
0032 00 44 04 BRK  IMPL  A:00 X:ff Y:15 P:37 S:ff pc: 0033, reg_addr: 0000
0033 44 04 00 DOP  ZP    A:00 X:ff Y:15 P:37 S:ff pc: 0035, reg_addr: 0004
0035 00 00 00 BRK  IMPL  A:00 X:ff Y:15 P:37 S:ff pc: 0036, reg_addr: 0000
0036 00 00 00 BRK  IMPL  A:00 X:ff Y:15 P:37 S:ff pc: 0037, reg_addr: 0000
0037 00 00 00 BRK  IMPL  A:00 X:ff Y:15 P:37 S:ff pc: 0038, reg_addr: 0000
0038 00 00 00 BRK  IMPL  A:00 X:ff Y:15 P:37 S:ff pc: 0039, reg_addr: 0000
0039 00 00 00 BRK  IMPL  A:00 X:ff Y:15 P:37 S:ff pc: 003a, reg_addr: 0000
003a 00 00 00 BRK  IMPL  A:00 X:ff Y:15 P:37 S:ff pc: 003b, reg_addr: 0000
003b 00 00 00 BRK  IMPL  A:00 X:ff Y:15 P:37 S:ff pc: 003c, reg_addr: 0000
003c 00 00 00 BRK  IMPL  A:00 X:ff Y:15 P:37 S:ff pc: 003d, reg_addr: 0000
003d 00 00 00 BRK  IMPL  A:00 X:ff Y:15 P:37 S:ff pc: 003e, reg_addr: 0000
003e 00 00 00 BRK  IMPL  A:00 X:ff Y:15 P:37 S:ff pc: 003f, reg_addr: 0000
003f 00 00 00 BRK  IMPL  A:00 X:ff Y:15 P:37 S:ff pc: 0040, reg_addr: 0000
0040 00 00 00 BRK  IMPL  A:00 X:ff Y:15 P:37 S:ff pc: 0041, reg_addr: 0000
0041 00 00 ff BRK  IMPL  A:00 X:ff Y:15 P:37 S:ff pc: 0042, reg_addr: 0000
0042 00 ff 04 BRK  IMPL  A:00 X:ff Y:15 P:37 S:ff pc: 0043, reg_addr: 0000
0043 ff 04 48 ISB  ABSX  A:00 X:ff Y:15 P:37 S:ff pc: 0046, reg_addr: 4903
0046 05 9b 06 ORA  ZP    A:ff X:ff Y:15 P:b4 S:ff pc: 0048, reg_addr: 009b
0048 06 00 00 ASL  ZP    A:ff X:ff Y:15 P:b4 S:ff pc: 004a, reg_addr: 0000
004a 00 00 00 BRK  IMPL  A:ff X:ff Y:15 P:36 S:ff pc: 004b, reg_addr: 0000
004b 00 00 00 BRK  IMPL  A:ff X:ff Y:15 P:36 S:ff pc: 004c, reg_addr: 0000
004c 00 00 00 BRK  IMPL  A:ff X:ff Y:15 P:36 S:ff pc: 004d, reg_addr: 0000
004d 00 00 00 BRK  IMPL  A:ff X:ff Y:15 P:36 S:ff pc: 004e, reg_addr: 0000
004e 00 00 00 BRK  IMPL  A:ff X:ff Y:15 P:36 S:ff pc: 004f, reg_addr: 0000
004f 00 00 00 BRK  IMPL  A:ff X:ff Y:15 P:36 S:ff pc: 0050, reg_addr: 0000
0050 00 00 00 BRK  IMPL  A:ff X:ff Y:15 P:36 S:ff pc: 0051, reg_addr: 0000
0051 00 00 00 BRK  IMPL  A:ff X:ff Y:15 P:36 S:ff pc: 0052, reg_addr: 0000
0052 00 00 00 BRK  IMPL  A:ff X:ff Y:15 P:36 S:ff pc: 0053, reg_addr: 0000
0053 00 00 00 BRK  IMPL  A:ff X:ff Y:15 P:36 S:ff pc: 0054, reg_addr: 0000
0054 00 00 66 BRK  IMPL  A:ff X:ff Y:15 P:36 S:ff pc: 0055, reg_addr: 0000
0055 00 66 00 BRK  IMPL  A:ff X:ff Y:15 P:36 S:ff pc: 0056, reg_addr: 0000
0056 66 00 00 ROR  ZP    A:ff X:ff Y:15 P:36 S:ff pc: 0058, reg_addr: 0000
0058 00 00 00 BRK  IMPL  A:ff X:ff Y:15 P:36 S:ff pc: 0059, reg_addr: 0000
0059 00 00 00 BRK  IMPL  A:ff X:ff Y:15 P:36 S:ff pc: 005a, reg_addr: 0000
005a 00 00 00 BRK  IMPL  A:ff X:ff Y:15 P:36 S:ff pc: 005b, reg_addr: 0000
005b 00 00 00 BRK  IMPL  A:ff X:ff Y:15 P:36 S:ff pc: 005c, reg_addr: 0000
005c 00 00 00 BRK  IMPL  A:ff X:ff Y:15 P:36 S:ff pc: 005d, reg_addr: 0000
005d 00 00 00 BRK  IMPL  A:ff X:ff Y:15 P:36 S:ff pc: 005e, reg_addr: 0000
005e 00 00 89 BRK  IMPL  A:ff X:ff Y:15 P:36 S:ff pc: 005f, reg_addr: 0000
005f 00 89 04 BRK  IMPL  A:ff X:ff Y:15 P:36 S:ff pc: 0060, reg_addr: 0000
0060 89 04 00 DOP  IMM   A:ff X:ff Y:15 P:36 S:ff pc: 0062, reg_addr: 0004
0062 00 00 00 BRK  IMPL  A:ff X:ff Y:15 P:36 S:ff pc: 0063, reg_addr: 0000
0063 00 00 00 BRK  IMPL  A:ff X:ff Y:15 P:36 S:ff pc: 0064, reg_addr: 0000
0064 00 00 00 BRK  IMPL  A:ff X:ff Y:15 P:36 S:ff pc: 0065, reg_addr: 0000
0065 00 00 87 BRK  IMPL  A:ff X:ff Y:15 P:36 S:ff pc: 0066, reg_addr: 0000
0066 00 87 32 BRK  IMPL  A:ff X:ff Y:15 P:36 S:ff pc: 0067, reg_addr: 0000
0067 87 32 00 SAX  ZP    A:ff X:ff Y:15 P:36 S:ff pc: 0069, reg_addr: 0032
0069 00 00 00 BRK  IMPL  A:ff X:ff Y:15 P:36 S:ff pc: 006a, reg_addr: 0000
006a 00 00 00 BRK  IMPL  A:ff X:ff Y:15 P:36 S:ff pc: 006b, reg_addr: 0000
006b 00 00 00 BRK  IMPL  A:ff X:ff Y:15 P:36 S:ff pc: 006c, reg_addr: 0000
006c 00 00 00 BRK  IMPL  A:ff X:ff Y:15 P:36 S:ff pc: 006d, reg_addr: 0000
006d 00 00 00 BRK  IMPL  A:ff X:ff Y:15 P:36 S:ff pc: 006e, reg_addr: 0000
006e 00 00 00 BRK  IMPL  A:ff X:ff Y:15 P:36 S:ff pc: 006f, reg_addr: 0000
006f 00 00 00 BRK  IMPL  A:ff X:ff Y:15 P:36 S:ff pc: 0070, reg_addr: 0000
0070 00 00 00 BRK  IMPL  A:ff X:ff Y:15 P:36 S:ff pc: 0071, reg_addr: 0000
0071 00 00 00 BRK  IMPL  A:ff X:ff Y:15 P:36 S:ff pc: 0072, reg_addr: 0000
0072 00 00 00 BRK  IMPL  A:ff X:ff Y:15 P:36 S:ff pc: 0073, reg_addr: 0000
0073 00 00 00 BRK  IMPL  A:ff X:ff Y:15 P:36 S:ff pc: 0074, reg_addr: 0000
0074 00 00 00 BRK  IMPL  A:ff X:ff Y:15 P:36 S:ff pc: 0075, reg_addr: 0000
0075 00 00 00 BRK  IMPL  A:ff X:ff Y:15 P:36 S:ff pc: 0076, reg_addr: 0000
0076 00 00 33 BRK  IMPL  A:ff X:ff Y:15 P:36 S:ff pc: 0077, reg_addr: 0000
0077 00 33 00 BRK  IMPL  A:ff X:ff Y:15 P:36 S:ff pc: 0078, reg_addr: 0000
0078 33 00 00 RLA  INDY  A:ff X:ff Y:15 P:36 S:ff pc: 007a, reg_addr: ff15
007a 00 00 00 BRK  IMPL  A:8e X:ff Y:15 P:b4 S:ff pc: 007b, reg_addr: 0000
007b 00 00 00 BRK  IMPL  A:8e X:ff Y:15 P:b4 S:ff pc: 007c, reg_addr: 0000
007c 00 00 00 BRK  IMPL  A:8e X:ff Y:15 P:b4 S:ff pc: 007d, reg_addr: 0000
007d 00 00 69 BRK  IMPL  A:8e X:ff Y:15 P:b4 S:ff pc: 007e, reg_addr: 0000
007e 00 69 00 BRK  IMPL  A:8e X:ff Y:15 P:b4 S:ff pc: 007f, reg_addr: 0000
007f 69 00 02 ADC  IMM   A:8e X:ff Y:15 P:b4 S:ff pc: 0081, reg_addr: 0000
0081 02 00 03 KIL  IMPL  A:8e X:ff Y:15 P:b4 S:ff 